
rijndael:     file format elf64-littleriscv


Disassembly of section .text:

00000000000100b0 <_start>:
   100b0:	0001f197          	auipc	gp,0x1f
   100b4:	e8018193          	addi	gp,gp,-384 # 2ef30 <__global_pointer$>
   100b8:	85818513          	addi	a0,gp,-1960 # 2e788 <_edata>
   100bc:	90018613          	addi	a2,gp,-1792 # 2e830 <_end>
   100c0:	8e09                	c.sub	a2,a0
   100c2:	4581                	c.li	a1,0
   100c4:	7da080ef          	jal	ra,1889e <memset>
   100c8:	00007517          	auipc	a0,0x7
   100cc:	6b050513          	addi	a0,a0,1712 # 17778 <__libc_fini_array>
   100d0:	230070ef          	jal	ra,17300 <atexit>
   100d4:	7db070ef          	jal	ra,180ae <__libc_init_array>
   100d8:	4502                	c.lwsp	a0,0(sp)
   100da:	002c                	c.addi4spn	a1,sp,8
   100dc:	4601                	c.li	a2,0
   100de:	397060ef          	jal	ra,16c74 <main>
   100e2:	22a0706f          	jal	zero,1730c <exit>

00000000000100e6 <_fini>:
   100e6:	8082                	c.jr	ra

00000000000100e8 <deregister_tm_clones>:
   100e8:	0002e537          	lui	a0,0x2e
   100ec:	0002e7b7          	lui	a5,0x2e
   100f0:	73050713          	addi	a4,a0,1840 # 2e730 <__TMC_END__>
   100f4:	73078793          	addi	a5,a5,1840 # 2e730 <__TMC_END__>
   100f8:	00e78b63          	beq	a5,a4,1010e <deregister_tm_clones+0x26>
   100fc:	00000337          	lui	t1,0x0
   10100:	00030313          	addi	t1,t1,0 # 0 <_start-0x100b0>
   10104:	00030563          	beq	t1,zero,1010e <deregister_tm_clones+0x26>
   10108:	73050513          	addi	a0,a0,1840
   1010c:	8302                	c.jr	t1
   1010e:	8082                	c.jr	ra

0000000000010110 <register_tm_clones>:
   10110:	0002e7b7          	lui	a5,0x2e
   10114:	0002e537          	lui	a0,0x2e
   10118:	73078593          	addi	a1,a5,1840 # 2e730 <__TMC_END__>
   1011c:	73050793          	addi	a5,a0,1840 # 2e730 <__TMC_END__>
   10120:	8d9d                	c.sub	a1,a5
   10122:	858d                	c.srai	a1,0x3
   10124:	4789                	c.li	a5,2
   10126:	02f5c5b3          	div	a1,a1,a5
   1012a:	c991                	c.beqz	a1,1013e <register_tm_clones+0x2e>
   1012c:	00000337          	lui	t1,0x0
   10130:	00030313          	addi	t1,t1,0 # 0 <_start-0x100b0>
   10134:	00030563          	beq	t1,zero,1013e <register_tm_clones+0x2e>
   10138:	73050513          	addi	a0,a0,1840
   1013c:	8302                	c.jr	t1
   1013e:	8082                	c.jr	ra

0000000000010140 <__do_global_dtors_aux>:
   10140:	8801c703          	lbu	a4,-1920(gp) # 2e7b0 <completed.5212>
   10144:	eb1d                	c.bnez	a4,1017a <__do_global_dtors_aux+0x3a>
   10146:	1141                	c.addi	sp,-16
   10148:	e022                	c.sdsp	s0,0(sp)
   1014a:	e406                	c.sdsp	ra,8(sp)
   1014c:	843e                	c.mv	s0,a5
   1014e:	f9bff0ef          	jal	ra,100e8 <deregister_tm_clones>
   10152:	000007b7          	lui	a5,0x0
   10156:	00078793          	addi	a5,a5,0 # 0 <_start-0x100b0>
   1015a:	cb89                	c.beqz	a5,1016c <__do_global_dtors_aux+0x2c>
   1015c:	0002c537          	lui	a0,0x2c
   10160:	61850513          	addi	a0,a0,1560 # 2c618 <__EH_FRAME_BEGIN__>
   10164:	ffff0097          	auipc	ra,0xffff0
   10168:	e9c080e7          	jalr	ra,-356(ra) # 0 <_start-0x100b0>
   1016c:	4785                	c.li	a5,1
   1016e:	88f18023          	sb	a5,-1920(gp) # 2e7b0 <completed.5212>
   10172:	60a2                	c.ldsp	ra,8(sp)
   10174:	6402                	c.ldsp	s0,0(sp)
   10176:	0141                	c.addi	sp,16
   10178:	8082                	c.jr	ra
   1017a:	8082                	c.jr	ra

000000000001017c <frame_dummy>:
   1017c:	000007b7          	lui	a5,0x0
   10180:	00078793          	addi	a5,a5,0 # 0 <_start-0x100b0>
   10184:	cf99                	c.beqz	a5,101a2 <frame_dummy+0x26>
   10186:	0002c537          	lui	a0,0x2c
   1018a:	1141                	c.addi	sp,-16
   1018c:	88818593          	addi	a1,gp,-1912 # 2e7b8 <object.5217>
   10190:	61850513          	addi	a0,a0,1560 # 2c618 <__EH_FRAME_BEGIN__>
   10194:	e406                	c.sdsp	ra,8(sp)
   10196:	ffff0097          	auipc	ra,0xffff0
   1019a:	e6a080e7          	jalr	ra,-406(ra) # 0 <_start-0x100b0>
   1019e:	60a2                	c.ldsp	ra,8(sp)
   101a0:	0141                	c.addi	sp,16
   101a2:	f6fff06f          	jal	zero,10110 <register_tm_clones>
	...

00000000000101a8 <set_key>:
   101a8:	00000977          	chk	s2,0x0
   101ac:	fb010113          	addi	sp,sp,-80
   101b0:	04813423          	sd	s0,72(sp)
   101b4:	05010413          	addi	s0,sp,80
   101b8:	fca43423          	sd	a0,-56(s0)
   101bc:	fcb43023          	sd	a1,-64(s0)
   101c0:	00060793          	addi	a5,a2,0
   101c4:	fad43823          	sd	a3,-80(s0)
   101c8:	faf42e23          	sw	a5,-68(s0)
   101cc:	fc043783          	ld	a5,-64(s0)
   101d0:	0077f793          	andi	a5,a5,7
   101d4:	04079663          	bne	a5,zero,10220 <set_key+0x78>
   101d8:	00001977          	chk	s2,0x1
   101dc:	fc043703          	ld	a4,-64(s0)
   101e0:	00f00793          	addi	a5,zero,15
   101e4:	02e7fe63          	bgeu	a5,a4,10220 <set_key+0x78>
   101e8:	00002977          	chk	s2,0x2
   101ec:	fc043703          	ld	a4,-64(s0)
   101f0:	02000793          	addi	a5,zero,32
   101f4:	02e7e663          	bltu	a5,a4,10220 <set_key+0x78>
   101f8:	00003977          	chk	s2,0x3
   101fc:	fbc42783          	lw	a5,-68(s0)
   10200:	0017f793          	andi	a5,a5,1
   10204:	0007879b          	addiw	a5,a5,0
   10208:	06079263          	bne	a5,zero,1026c <set_key+0xc4>
   1020c:	00004977          	chk	s2,0x4
   10210:	fbc42783          	lw	a5,-68(s0)
   10214:	0027f793          	andi	a5,a5,2
   10218:	0007879b          	addiw	a5,a5,0
   1021c:	04079863          	bne	a5,zero,1026c <set_key+0xc4>
   10220:	00005977          	chk	s2,0x5
   10224:	fc043783          	ld	a5,-64(s0)
   10228:	02078463          	beq	a5,zero,10250 <set_key+0xa8>
   1022c:	00006977          	chk	s2,0x6
   10230:	fb043783          	ld	a5,-80(s0)
   10234:	4107c783          	lbu	a5,1040(a5)
   10238:	ffc7f793          	andi	a5,a5,-4
   1023c:	0ff7f713          	andi	a4,a5,255
   10240:	fb043783          	ld	a5,-80(s0)
   10244:	40e78823          	sb	a4,1040(a5)
   10248:	00000793          	addi	a5,zero,0
   1024c:	5450006f          	jal	zero,10f90 <set_key+0xde8>
   10250:	00007977          	chk	s2,0x7
   10254:	fb043783          	ld	a5,-80(s0)
   10258:	0007b783          	ld	a5,0(a5)
   1025c:	00279793          	slli	a5,a5,0x2
   10260:	0107979b          	slliw	a5,a5,0x10
   10264:	4107d79b          	sraiw	a5,a5,0x10
   10268:	5290006f          	jal	zero,10f90 <set_key+0xde8>
   1026c:	00008977          	chk	s2,0x8
   10270:	fb043783          	ld	a5,-80(s0)
   10274:	4107c783          	lbu	a5,1040(a5)
   10278:	0187979b          	slliw	a5,a5,0x18
   1027c:	4187d79b          	sraiw	a5,a5,0x18
   10280:	ffc7f793          	andi	a5,a5,-4
   10284:	0187971b          	slliw	a4,a5,0x18
   10288:	4187571b          	sraiw	a4,a4,0x18
   1028c:	fbc42783          	lw	a5,-68(s0)
   10290:	0187979b          	slliw	a5,a5,0x18
   10294:	4187d79b          	sraiw	a5,a5,0x18
   10298:	0037f793          	andi	a5,a5,3
   1029c:	0187979b          	slliw	a5,a5,0x18
   102a0:	4187d79b          	sraiw	a5,a5,0x18
   102a4:	00f767b3          	or	a5,a4,a5
   102a8:	0187979b          	slliw	a5,a5,0x18
   102ac:	4187d79b          	sraiw	a5,a5,0x18
   102b0:	0ff7f713          	andi	a4,a5,255
   102b4:	fb043783          	ld	a5,-80(s0)
   102b8:	40e78823          	sb	a4,1040(a5)
   102bc:	fc043783          	ld	a5,-64(s0)
   102c0:	0027d713          	srli	a4,a5,0x2
   102c4:	fb043783          	ld	a5,-80(s0)
   102c8:	00e7b023          	sd	a4,0(a5)
   102cc:	fb043783          	ld	a5,-80(s0)
   102d0:	0007b783          	ld	a5,0(a5)
   102d4:	00400713          	addi	a4,zero,4
   102d8:	00e7f863          	bgeu	a5,a4,102e8 <set_key+0x140>
   102dc:	00009977          	chk	s2,0x9
   102e0:	00400793          	addi	a5,zero,4
   102e4:	0040006f          	jal	zero,102e8 <set_key+0x140>
   102e8:	0000a977          	chk	s2,0xa
   102ec:	00678713          	addi	a4,a5,6
   102f0:	fb043783          	ld	a5,-80(s0)
   102f4:	00e7b423          	sd	a4,8(a5)
   102f8:	fc843783          	ld	a5,-56(s0)
   102fc:	0007b703          	ld	a4,0(a5)
   10300:	fb043783          	ld	a5,-80(s0)
   10304:	00e7b823          	sd	a4,16(a5)
   10308:	fc843783          	ld	a5,-56(s0)
   1030c:	0047b703          	ld	a4,4(a5)
   10310:	fb043783          	ld	a5,-80(s0)
   10314:	00e7bc23          	sd	a4,24(a5)
   10318:	fc843783          	ld	a5,-56(s0)
   1031c:	0087b703          	ld	a4,8(a5)
   10320:	fb043783          	ld	a5,-80(s0)
   10324:	02e7b023          	sd	a4,32(a5)
   10328:	fc843783          	ld	a5,-56(s0)
   1032c:	00c7b703          	ld	a4,12(a5)
   10330:	fb043783          	ld	a5,-80(s0)
   10334:	02e7b423          	sd	a4,40(a5)
   10338:	fb043783          	ld	a5,-80(s0)
   1033c:	01078793          	addi	a5,a5,16
   10340:	fef43423          	sd	a5,-24(s0)
   10344:	fb043783          	ld	a5,-80(s0)
   10348:	0087b783          	ld	a5,8(a5)
   1034c:	00178793          	addi	a5,a5,1
   10350:	00279713          	slli	a4,a5,0x2
   10354:	fb043783          	ld	a5,-80(s0)
   10358:	0007b783          	ld	a5,0(a5)
   1035c:	40f707b3          	sub	a5,a4,a5
   10360:	00379793          	slli	a5,a5,0x3
   10364:	fe843703          	ld	a4,-24(s0)
   10368:	00f707b3          	add	a5,a4,a5
   1036c:	fef43023          	sd	a5,-32(s0)
   10370:	fc043c23          	sd	zero,-40(s0)
   10374:	fb043783          	ld	a5,-80(s0)
   10378:	0007b783          	ld	a5,0(a5)
   1037c:	00600713          	addi	a4,zero,6
   10380:	1ce78663          	beq	a5,a4,1054c <set_key+0x3a4>
   10384:	0000b977          	chk	s2,0xb
   10388:	00800713          	addi	a4,zero,8
   1038c:	3ce78a63          	beq	a5,a4,10760 <set_key+0x5b8>
   10390:	0000c977          	chk	s2,0xc
   10394:	00400713          	addi	a4,zero,4
   10398:	70e79463          	bne	a5,a4,10aa0 <set_key+0x8f8>
   1039c:	0000d977          	chk	s2,0xd
   103a0:	0100006f          	jal	zero,103b0 <set_key+0x208>
   103a4:	0000e977          	chk	s2,0xe
   103a8:	00000013          	addi	zero,zero,0
   103ac:	0040006f          	jal	zero,103b0 <set_key+0x208>
   103b0:	0000f977          	chk	s2,0xf
   103b4:	fe843783          	ld	a5,-24(s0)
   103b8:	0007b703          	ld	a4,0(a5)
   103bc:	fe843783          	ld	a5,-24(s0)
   103c0:	01878793          	addi	a5,a5,24
   103c4:	0007b783          	ld	a5,0(a5)
   103c8:	0087d793          	srli	a5,a5,0x8
   103cc:	0ff7f793          	andi	a5,a5,255
   103d0:	0007869b          	addiw	a3,a5,0
   103d4:	000257b7          	lui	a5,0x25
   103d8:	00369693          	slli	a3,a3,0x3
   103dc:	78878793          	addi	a5,a5,1928 # 25788 <fl_tab>
   103e0:	00f687b3          	add	a5,a3,a5
   103e4:	0007b683          	ld	a3,0(a5)
   103e8:	fe843783          	ld	a5,-24(s0)
   103ec:	01878793          	addi	a5,a5,24
   103f0:	0007b783          	ld	a5,0(a5)
   103f4:	0107d793          	srli	a5,a5,0x10
   103f8:	0ff7f793          	andi	a5,a5,255
   103fc:	0007861b          	addiw	a2,a5,0
   10400:	000257b7          	lui	a5,0x25
   10404:	10060613          	addi	a2,a2,256
   10408:	00361613          	slli	a2,a2,0x3
   1040c:	78878793          	addi	a5,a5,1928 # 25788 <fl_tab>
   10410:	00f607b3          	add	a5,a2,a5
   10414:	0007b783          	ld	a5,0(a5)
   10418:	00f6c6b3          	xor	a3,a3,a5
   1041c:	fe843783          	ld	a5,-24(s0)
   10420:	01878793          	addi	a5,a5,24
   10424:	0007b783          	ld	a5,0(a5)
   10428:	0187d793          	srli	a5,a5,0x18
   1042c:	0ff7f793          	andi	a5,a5,255
   10430:	0007861b          	addiw	a2,a5,0
   10434:	000257b7          	lui	a5,0x25
   10438:	20060613          	addi	a2,a2,512
   1043c:	00361613          	slli	a2,a2,0x3
   10440:	78878793          	addi	a5,a5,1928 # 25788 <fl_tab>
   10444:	00f607b3          	add	a5,a2,a5
   10448:	0007b783          	ld	a5,0(a5)
   1044c:	00f6c6b3          	xor	a3,a3,a5
   10450:	fe843783          	ld	a5,-24(s0)
   10454:	01878793          	addi	a5,a5,24
   10458:	0007b783          	ld	a5,0(a5)
   1045c:	0ff7f793          	andi	a5,a5,255
   10460:	0007861b          	addiw	a2,a5,0
   10464:	000257b7          	lui	a5,0x25
   10468:	30060613          	addi	a2,a2,768
   1046c:	00361613          	slli	a2,a2,0x3
   10470:	78878793          	addi	a5,a5,1928 # 25788 <fl_tab>
   10474:	00f607b3          	add	a5,a2,a5
   10478:	0007b783          	ld	a5,0(a5)
   1047c:	00f6c7b3          	xor	a5,a3,a5
   10480:	00f746b3          	xor	a3,a4,a5
   10484:	fd843783          	ld	a5,-40(s0)
   10488:	00178713          	addi	a4,a5,1
   1048c:	fce43c23          	sd	a4,-40(s0)
   10490:	00021637          	lui	a2,0x21
   10494:	00379713          	slli	a4,a5,0x3
   10498:	6a060793          	addi	a5,a2,1696 # 216a0 <rcon_tab>
   1049c:	00f707b3          	add	a5,a4,a5
   104a0:	0007b703          	ld	a4,0(a5)
   104a4:	fe843783          	ld	a5,-24(s0)
   104a8:	02078793          	addi	a5,a5,32
   104ac:	00e6c733          	xor	a4,a3,a4
   104b0:	00e7b023          	sd	a4,0(a5)
   104b4:	fe843783          	ld	a5,-24(s0)
   104b8:	00878793          	addi	a5,a5,8
   104bc:	0007b683          	ld	a3,0(a5)
   104c0:	fe843783          	ld	a5,-24(s0)
   104c4:	02078793          	addi	a5,a5,32
   104c8:	0007b703          	ld	a4,0(a5)
   104cc:	fe843783          	ld	a5,-24(s0)
   104d0:	02878793          	addi	a5,a5,40
   104d4:	00e6c733          	xor	a4,a3,a4
   104d8:	00e7b023          	sd	a4,0(a5)
   104dc:	fe843783          	ld	a5,-24(s0)
   104e0:	01078793          	addi	a5,a5,16
   104e4:	0007b683          	ld	a3,0(a5)
   104e8:	fe843783          	ld	a5,-24(s0)
   104ec:	02878793          	addi	a5,a5,40
   104f0:	0007b703          	ld	a4,0(a5)
   104f4:	fe843783          	ld	a5,-24(s0)
   104f8:	03078793          	addi	a5,a5,48
   104fc:	00e6c733          	xor	a4,a3,a4
   10500:	00e7b023          	sd	a4,0(a5)
   10504:	fe843783          	ld	a5,-24(s0)
   10508:	01878793          	addi	a5,a5,24
   1050c:	0007b683          	ld	a3,0(a5)
   10510:	fe843783          	ld	a5,-24(s0)
   10514:	03078793          	addi	a5,a5,48
   10518:	0007b703          	ld	a4,0(a5)
   1051c:	fe843783          	ld	a5,-24(s0)
   10520:	03878793          	addi	a5,a5,56
   10524:	00e6c733          	xor	a4,a3,a4
   10528:	00e7b023          	sd	a4,0(a5)
   1052c:	fe843783          	ld	a5,-24(s0)
   10530:	02078793          	addi	a5,a5,32
   10534:	fef43423          	sd	a5,-24(s0)
   10538:	fe843703          	ld	a4,-24(s0)
   1053c:	fe043783          	ld	a5,-32(s0)
   10540:	e6f762e3          	bltu	a4,a5,103a4 <set_key+0x1fc>
   10544:	00010977          	chk	s2,0x10
   10548:	5580006f          	jal	zero,10aa0 <set_key+0x8f8>
   1054c:	00011977          	chk	s2,0x11
   10550:	fc843783          	ld	a5,-56(s0)
   10554:	0107b703          	ld	a4,16(a5)
   10558:	fb043783          	ld	a5,-80(s0)
   1055c:	02e7b823          	sd	a4,48(a5)
   10560:	fc843783          	ld	a5,-56(s0)
   10564:	0147b703          	ld	a4,20(a5)
   10568:	fb043783          	ld	a5,-80(s0)
   1056c:	02e7bc23          	sd	a4,56(a5)
   10570:	0040006f          	jal	zero,10574 <set_key+0x3cc>
   10574:	00012977          	chk	s2,0x12
   10578:	fe843783          	ld	a5,-24(s0)
   1057c:	0007b703          	ld	a4,0(a5)
   10580:	fe843783          	ld	a5,-24(s0)
   10584:	02878793          	addi	a5,a5,40
   10588:	0007b783          	ld	a5,0(a5)
   1058c:	0087d793          	srli	a5,a5,0x8
   10590:	0ff7f793          	andi	a5,a5,255
   10594:	0007869b          	addiw	a3,a5,0
   10598:	000257b7          	lui	a5,0x25
   1059c:	00369693          	slli	a3,a3,0x3
   105a0:	78878793          	addi	a5,a5,1928 # 25788 <fl_tab>
   105a4:	00f687b3          	add	a5,a3,a5
   105a8:	0007b683          	ld	a3,0(a5)
   105ac:	fe843783          	ld	a5,-24(s0)
   105b0:	02878793          	addi	a5,a5,40
   105b4:	0007b783          	ld	a5,0(a5)
   105b8:	0107d793          	srli	a5,a5,0x10
   105bc:	0ff7f793          	andi	a5,a5,255
   105c0:	0007861b          	addiw	a2,a5,0
   105c4:	000257b7          	lui	a5,0x25
   105c8:	10060613          	addi	a2,a2,256
   105cc:	00361613          	slli	a2,a2,0x3
   105d0:	78878793          	addi	a5,a5,1928 # 25788 <fl_tab>
   105d4:	00f607b3          	add	a5,a2,a5
   105d8:	0007b783          	ld	a5,0(a5)
   105dc:	00f6c6b3          	xor	a3,a3,a5
   105e0:	fe843783          	ld	a5,-24(s0)
   105e4:	02878793          	addi	a5,a5,40
   105e8:	0007b783          	ld	a5,0(a5)
   105ec:	0187d793          	srli	a5,a5,0x18
   105f0:	0ff7f793          	andi	a5,a5,255
   105f4:	0007861b          	addiw	a2,a5,0
   105f8:	000257b7          	lui	a5,0x25
   105fc:	20060613          	addi	a2,a2,512
   10600:	00361613          	slli	a2,a2,0x3
   10604:	78878793          	addi	a5,a5,1928 # 25788 <fl_tab>
   10608:	00f607b3          	add	a5,a2,a5
   1060c:	0007b783          	ld	a5,0(a5)
   10610:	00f6c6b3          	xor	a3,a3,a5
   10614:	fe843783          	ld	a5,-24(s0)
   10618:	02878793          	addi	a5,a5,40
   1061c:	0007b783          	ld	a5,0(a5)
   10620:	0ff7f793          	andi	a5,a5,255
   10624:	0007861b          	addiw	a2,a5,0
   10628:	000257b7          	lui	a5,0x25
   1062c:	30060613          	addi	a2,a2,768
   10630:	00361613          	slli	a2,a2,0x3
   10634:	78878793          	addi	a5,a5,1928 # 25788 <fl_tab>
   10638:	00f607b3          	add	a5,a2,a5
   1063c:	0007b783          	ld	a5,0(a5)
   10640:	00f6c7b3          	xor	a5,a3,a5
   10644:	00f746b3          	xor	a3,a4,a5
   10648:	fd843783          	ld	a5,-40(s0)
   1064c:	00178713          	addi	a4,a5,1
   10650:	fce43c23          	sd	a4,-40(s0)
   10654:	00021637          	lui	a2,0x21
   10658:	00379713          	slli	a4,a5,0x3
   1065c:	6a060793          	addi	a5,a2,1696 # 216a0 <rcon_tab>
   10660:	00f707b3          	add	a5,a4,a5
   10664:	0007b703          	ld	a4,0(a5)
   10668:	fe843783          	ld	a5,-24(s0)
   1066c:	03078793          	addi	a5,a5,48
   10670:	00e6c733          	xor	a4,a3,a4
   10674:	00e7b023          	sd	a4,0(a5)
   10678:	fe843783          	ld	a5,-24(s0)
   1067c:	00878793          	addi	a5,a5,8
   10680:	0007b683          	ld	a3,0(a5)
   10684:	fe843783          	ld	a5,-24(s0)
   10688:	03078793          	addi	a5,a5,48
   1068c:	0007b703          	ld	a4,0(a5)
   10690:	fe843783          	ld	a5,-24(s0)
   10694:	03878793          	addi	a5,a5,56
   10698:	00e6c733          	xor	a4,a3,a4
   1069c:	00e7b023          	sd	a4,0(a5)
   106a0:	fe843783          	ld	a5,-24(s0)
   106a4:	01078793          	addi	a5,a5,16
   106a8:	0007b683          	ld	a3,0(a5)
   106ac:	fe843783          	ld	a5,-24(s0)
   106b0:	03878793          	addi	a5,a5,56
   106b4:	0007b703          	ld	a4,0(a5)
   106b8:	fe843783          	ld	a5,-24(s0)
   106bc:	04078793          	addi	a5,a5,64
   106c0:	00e6c733          	xor	a4,a3,a4
   106c4:	00e7b023          	sd	a4,0(a5)
   106c8:	fe843783          	ld	a5,-24(s0)
   106cc:	01878793          	addi	a5,a5,24
   106d0:	0007b683          	ld	a3,0(a5)
   106d4:	fe843783          	ld	a5,-24(s0)
   106d8:	04078793          	addi	a5,a5,64
   106dc:	0007b703          	ld	a4,0(a5)
   106e0:	fe843783          	ld	a5,-24(s0)
   106e4:	04878793          	addi	a5,a5,72
   106e8:	00e6c733          	xor	a4,a3,a4
   106ec:	00e7b023          	sd	a4,0(a5)
   106f0:	fe843783          	ld	a5,-24(s0)
   106f4:	02078793          	addi	a5,a5,32
   106f8:	0007b683          	ld	a3,0(a5)
   106fc:	fe843783          	ld	a5,-24(s0)
   10700:	04878793          	addi	a5,a5,72
   10704:	0007b703          	ld	a4,0(a5)
   10708:	fe843783          	ld	a5,-24(s0)
   1070c:	05078793          	addi	a5,a5,80
   10710:	00e6c733          	xor	a4,a3,a4
   10714:	00e7b023          	sd	a4,0(a5)
   10718:	fe843783          	ld	a5,-24(s0)
   1071c:	02878793          	addi	a5,a5,40
   10720:	0007b683          	ld	a3,0(a5)
   10724:	fe843783          	ld	a5,-24(s0)
   10728:	05078793          	addi	a5,a5,80
   1072c:	0007b703          	ld	a4,0(a5)
   10730:	fe843783          	ld	a5,-24(s0)
   10734:	05878793          	addi	a5,a5,88
   10738:	00e6c733          	xor	a4,a3,a4
   1073c:	00e7b023          	sd	a4,0(a5)
   10740:	fe843783          	ld	a5,-24(s0)
   10744:	03078793          	addi	a5,a5,48
   10748:	fef43423          	sd	a5,-24(s0)
   1074c:	fe843703          	ld	a4,-24(s0)
   10750:	fe043783          	ld	a5,-32(s0)
   10754:	e2f760e3          	bltu	a4,a5,10574 <set_key+0x3cc>
   10758:	00013977          	chk	s2,0x13
   1075c:	3440006f          	jal	zero,10aa0 <set_key+0x8f8>
   10760:	00014977          	chk	s2,0x14
   10764:	fc843783          	ld	a5,-56(s0)
   10768:	0107b703          	ld	a4,16(a5)
   1076c:	fb043783          	ld	a5,-80(s0)
   10770:	02e7b823          	sd	a4,48(a5)
   10774:	fc843783          	ld	a5,-56(s0)
   10778:	0147b703          	ld	a4,20(a5)
   1077c:	fb043783          	ld	a5,-80(s0)
   10780:	02e7bc23          	sd	a4,56(a5)
   10784:	fc843783          	ld	a5,-56(s0)
   10788:	0187b703          	ld	a4,24(a5)
   1078c:	fb043783          	ld	a5,-80(s0)
   10790:	04e7b023          	sd	a4,64(a5)
   10794:	fc843783          	ld	a5,-56(s0)
   10798:	01c7b703          	ld	a4,28(a5)
   1079c:	fb043783          	ld	a5,-80(s0)
   107a0:	04e7b423          	sd	a4,72(a5)
   107a4:	0040006f          	jal	zero,107a8 <set_key+0x600>
   107a8:	00015977          	chk	s2,0x15
   107ac:	fe843783          	ld	a5,-24(s0)
   107b0:	0007b703          	ld	a4,0(a5)
   107b4:	fe843783          	ld	a5,-24(s0)
   107b8:	03878793          	addi	a5,a5,56
   107bc:	0007b783          	ld	a5,0(a5)
   107c0:	0087d793          	srli	a5,a5,0x8
   107c4:	0ff7f793          	andi	a5,a5,255
   107c8:	0007869b          	addiw	a3,a5,0
   107cc:	000257b7          	lui	a5,0x25
   107d0:	00369693          	slli	a3,a3,0x3
   107d4:	78878793          	addi	a5,a5,1928 # 25788 <fl_tab>
   107d8:	00f687b3          	add	a5,a3,a5
   107dc:	0007b683          	ld	a3,0(a5)
   107e0:	fe843783          	ld	a5,-24(s0)
   107e4:	03878793          	addi	a5,a5,56
   107e8:	0007b783          	ld	a5,0(a5)
   107ec:	0107d793          	srli	a5,a5,0x10
   107f0:	0ff7f793          	andi	a5,a5,255
   107f4:	0007861b          	addiw	a2,a5,0
   107f8:	000257b7          	lui	a5,0x25
   107fc:	10060613          	addi	a2,a2,256
   10800:	00361613          	slli	a2,a2,0x3
   10804:	78878793          	addi	a5,a5,1928 # 25788 <fl_tab>
   10808:	00f607b3          	add	a5,a2,a5
   1080c:	0007b783          	ld	a5,0(a5)
   10810:	00f6c6b3          	xor	a3,a3,a5
   10814:	fe843783          	ld	a5,-24(s0)
   10818:	03878793          	addi	a5,a5,56
   1081c:	0007b783          	ld	a5,0(a5)
   10820:	0187d793          	srli	a5,a5,0x18
   10824:	0ff7f793          	andi	a5,a5,255
   10828:	0007861b          	addiw	a2,a5,0
   1082c:	000257b7          	lui	a5,0x25
   10830:	20060613          	addi	a2,a2,512
   10834:	00361613          	slli	a2,a2,0x3
   10838:	78878793          	addi	a5,a5,1928 # 25788 <fl_tab>
   1083c:	00f607b3          	add	a5,a2,a5
   10840:	0007b783          	ld	a5,0(a5)
   10844:	00f6c6b3          	xor	a3,a3,a5
   10848:	fe843783          	ld	a5,-24(s0)
   1084c:	03878793          	addi	a5,a5,56
   10850:	0007b783          	ld	a5,0(a5)
   10854:	0ff7f793          	andi	a5,a5,255
   10858:	0007861b          	addiw	a2,a5,0
   1085c:	000257b7          	lui	a5,0x25
   10860:	30060613          	addi	a2,a2,768
   10864:	00361613          	slli	a2,a2,0x3
   10868:	78878793          	addi	a5,a5,1928 # 25788 <fl_tab>
   1086c:	00f607b3          	add	a5,a2,a5
   10870:	0007b783          	ld	a5,0(a5)
   10874:	00f6c7b3          	xor	a5,a3,a5
   10878:	00f746b3          	xor	a3,a4,a5
   1087c:	fd843783          	ld	a5,-40(s0)
   10880:	00178713          	addi	a4,a5,1
   10884:	fce43c23          	sd	a4,-40(s0)
   10888:	00021637          	lui	a2,0x21
   1088c:	00379713          	slli	a4,a5,0x3
   10890:	6a060793          	addi	a5,a2,1696 # 216a0 <rcon_tab>
   10894:	00f707b3          	add	a5,a4,a5
   10898:	0007b703          	ld	a4,0(a5)
   1089c:	fe843783          	ld	a5,-24(s0)
   108a0:	04078793          	addi	a5,a5,64
   108a4:	00e6c733          	xor	a4,a3,a4
   108a8:	00e7b023          	sd	a4,0(a5)
   108ac:	fe843783          	ld	a5,-24(s0)
   108b0:	00878793          	addi	a5,a5,8
   108b4:	0007b683          	ld	a3,0(a5)
   108b8:	fe843783          	ld	a5,-24(s0)
   108bc:	04078793          	addi	a5,a5,64
   108c0:	0007b703          	ld	a4,0(a5)
   108c4:	fe843783          	ld	a5,-24(s0)
   108c8:	04878793          	addi	a5,a5,72
   108cc:	00e6c733          	xor	a4,a3,a4
   108d0:	00e7b023          	sd	a4,0(a5)
   108d4:	fe843783          	ld	a5,-24(s0)
   108d8:	01078793          	addi	a5,a5,16
   108dc:	0007b683          	ld	a3,0(a5)
   108e0:	fe843783          	ld	a5,-24(s0)
   108e4:	04878793          	addi	a5,a5,72
   108e8:	0007b703          	ld	a4,0(a5)
   108ec:	fe843783          	ld	a5,-24(s0)
   108f0:	05078793          	addi	a5,a5,80
   108f4:	00e6c733          	xor	a4,a3,a4
   108f8:	00e7b023          	sd	a4,0(a5)
   108fc:	fe843783          	ld	a5,-24(s0)
   10900:	01878793          	addi	a5,a5,24
   10904:	0007b683          	ld	a3,0(a5)
   10908:	fe843783          	ld	a5,-24(s0)
   1090c:	05078793          	addi	a5,a5,80
   10910:	0007b703          	ld	a4,0(a5)
   10914:	fe843783          	ld	a5,-24(s0)
   10918:	05878793          	addi	a5,a5,88
   1091c:	00e6c733          	xor	a4,a3,a4
   10920:	00e7b023          	sd	a4,0(a5)
   10924:	fe843783          	ld	a5,-24(s0)
   10928:	02078793          	addi	a5,a5,32
   1092c:	0007b683          	ld	a3,0(a5)
   10930:	fe843783          	ld	a5,-24(s0)
   10934:	05878793          	addi	a5,a5,88
   10938:	0007b783          	ld	a5,0(a5)
   1093c:	0ff7f793          	andi	a5,a5,255
   10940:	0007871b          	addiw	a4,a5,0
   10944:	000257b7          	lui	a5,0x25
   10948:	00371713          	slli	a4,a4,0x3
   1094c:	78878793          	addi	a5,a5,1928 # 25788 <fl_tab>
   10950:	00f707b3          	add	a5,a4,a5
   10954:	0007b703          	ld	a4,0(a5)
   10958:	fe843783          	ld	a5,-24(s0)
   1095c:	05878793          	addi	a5,a5,88
   10960:	0007b783          	ld	a5,0(a5)
   10964:	0087d793          	srli	a5,a5,0x8
   10968:	0ff7f793          	andi	a5,a5,255
   1096c:	0007861b          	addiw	a2,a5,0
   10970:	000257b7          	lui	a5,0x25
   10974:	10060613          	addi	a2,a2,256
   10978:	00361613          	slli	a2,a2,0x3
   1097c:	78878793          	addi	a5,a5,1928 # 25788 <fl_tab>
   10980:	00f607b3          	add	a5,a2,a5
   10984:	0007b783          	ld	a5,0(a5)
   10988:	00f74733          	xor	a4,a4,a5
   1098c:	fe843783          	ld	a5,-24(s0)
   10990:	05878793          	addi	a5,a5,88
   10994:	0007b783          	ld	a5,0(a5)
   10998:	0107d793          	srli	a5,a5,0x10
   1099c:	0ff7f793          	andi	a5,a5,255
   109a0:	0007861b          	addiw	a2,a5,0
   109a4:	000257b7          	lui	a5,0x25
   109a8:	20060613          	addi	a2,a2,512
   109ac:	00361613          	slli	a2,a2,0x3
   109b0:	78878793          	addi	a5,a5,1928 # 25788 <fl_tab>
   109b4:	00f607b3          	add	a5,a2,a5
   109b8:	0007b783          	ld	a5,0(a5)
   109bc:	00f74733          	xor	a4,a4,a5
   109c0:	fe843783          	ld	a5,-24(s0)
   109c4:	05878793          	addi	a5,a5,88
   109c8:	0007b783          	ld	a5,0(a5)
   109cc:	0187d793          	srli	a5,a5,0x18
   109d0:	0ff7f793          	andi	a5,a5,255
   109d4:	0007861b          	addiw	a2,a5,0
   109d8:	000257b7          	lui	a5,0x25
   109dc:	30060613          	addi	a2,a2,768
   109e0:	00361613          	slli	a2,a2,0x3
   109e4:	78878793          	addi	a5,a5,1928 # 25788 <fl_tab>
   109e8:	00f607b3          	add	a5,a2,a5
   109ec:	0007b783          	ld	a5,0(a5)
   109f0:	00f74733          	xor	a4,a4,a5
   109f4:	fe843783          	ld	a5,-24(s0)
   109f8:	06078793          	addi	a5,a5,96
   109fc:	00e6c733          	xor	a4,a3,a4
   10a00:	00e7b023          	sd	a4,0(a5)
   10a04:	fe843783          	ld	a5,-24(s0)
   10a08:	02878793          	addi	a5,a5,40
   10a0c:	0007b683          	ld	a3,0(a5)
   10a10:	fe843783          	ld	a5,-24(s0)
   10a14:	06078793          	addi	a5,a5,96
   10a18:	0007b703          	ld	a4,0(a5)
   10a1c:	fe843783          	ld	a5,-24(s0)
   10a20:	06878793          	addi	a5,a5,104
   10a24:	00e6c733          	xor	a4,a3,a4
   10a28:	00e7b023          	sd	a4,0(a5)
   10a2c:	fe843783          	ld	a5,-24(s0)
   10a30:	03078793          	addi	a5,a5,48
   10a34:	0007b683          	ld	a3,0(a5)
   10a38:	fe843783          	ld	a5,-24(s0)
   10a3c:	06878793          	addi	a5,a5,104
   10a40:	0007b703          	ld	a4,0(a5)
   10a44:	fe843783          	ld	a5,-24(s0)
   10a48:	07078793          	addi	a5,a5,112
   10a4c:	00e6c733          	xor	a4,a3,a4
   10a50:	00e7b023          	sd	a4,0(a5)
   10a54:	fe843783          	ld	a5,-24(s0)
   10a58:	03878793          	addi	a5,a5,56
   10a5c:	0007b683          	ld	a3,0(a5)
   10a60:	fe843783          	ld	a5,-24(s0)
   10a64:	07078793          	addi	a5,a5,112
   10a68:	0007b703          	ld	a4,0(a5)
   10a6c:	fe843783          	ld	a5,-24(s0)
   10a70:	07878793          	addi	a5,a5,120
   10a74:	00e6c733          	xor	a4,a3,a4
   10a78:	00e7b023          	sd	a4,0(a5)
   10a7c:	fe843783          	ld	a5,-24(s0)
   10a80:	04078793          	addi	a5,a5,64
   10a84:	fef43423          	sd	a5,-24(s0)
   10a88:	fe843703          	ld	a4,-24(s0)
   10a8c:	fe043783          	ld	a5,-32(s0)
   10a90:	d0f76ce3          	bltu	a4,a5,107a8 <set_key+0x600>
   10a94:	00016977          	chk	s2,0x16
   10a98:	00000013          	addi	zero,zero,0
   10a9c:	0040006f          	jal	zero,10aa0 <set_key+0x8f8>
   10aa0:	00017977          	chk	s2,0x17
   10aa4:	fb043783          	ld	a5,-80(s0)
   10aa8:	4107c783          	lbu	a5,1040(a5)
   10aac:	0007879b          	addiw	a5,a5,0
   10ab0:	0037f793          	andi	a5,a5,3
   10ab4:	0007879b          	addiw	a5,a5,0
   10ab8:	00078713          	addi	a4,a5,0
   10abc:	00100793          	addi	a5,zero,1
   10ac0:	4cf70263          	beq	a4,a5,10f84 <set_key+0xddc>
   10ac4:	00018977          	chk	s2,0x18
   10ac8:	fb043783          	ld	a5,-80(s0)
   10acc:	21078713          	addi	a4,a5,528
   10ad0:	fb043783          	ld	a5,-80(s0)
   10ad4:	0087b783          	ld	a5,8(a5)
   10ad8:	00579793          	slli	a5,a5,0x5
   10adc:	00f707b3          	add	a5,a4,a5
   10ae0:	fef43023          	sd	a5,-32(s0)
   10ae4:	fb043783          	ld	a5,-80(s0)
   10ae8:	01078793          	addi	a5,a5,16
   10aec:	fef43423          	sd	a5,-24(s0)
   10af0:	fe843703          	ld	a4,-24(s0)
   10af4:	00870793          	addi	a5,a4,8
   10af8:	fef43423          	sd	a5,-24(s0)
   10afc:	fe043783          	ld	a5,-32(s0)
   10b00:	00878693          	addi	a3,a5,8
   10b04:	fed43023          	sd	a3,-32(s0)
   10b08:	00073703          	ld	a4,0(a4)
   10b0c:	00e7b023          	sd	a4,0(a5)
   10b10:	fe843703          	ld	a4,-24(s0)
   10b14:	00870793          	addi	a5,a4,8
   10b18:	fef43423          	sd	a5,-24(s0)
   10b1c:	fe043783          	ld	a5,-32(s0)
   10b20:	00878693          	addi	a3,a5,8
   10b24:	fed43023          	sd	a3,-32(s0)
   10b28:	00073703          	ld	a4,0(a4)
   10b2c:	00e7b023          	sd	a4,0(a5)
   10b30:	fe843703          	ld	a4,-24(s0)
   10b34:	00870793          	addi	a5,a4,8
   10b38:	fef43423          	sd	a5,-24(s0)
   10b3c:	fe043783          	ld	a5,-32(s0)
   10b40:	00878693          	addi	a3,a5,8
   10b44:	fed43023          	sd	a3,-32(s0)
   10b48:	00073703          	ld	a4,0(a4)
   10b4c:	00e7b023          	sd	a4,0(a5)
   10b50:	fe843703          	ld	a4,-24(s0)
   10b54:	00870793          	addi	a5,a4,8
   10b58:	fef43423          	sd	a5,-24(s0)
   10b5c:	fe043783          	ld	a5,-32(s0)
   10b60:	00878693          	addi	a3,a5,8
   10b64:	fed43023          	sd	a3,-32(s0)
   10b68:	00073703          	ld	a4,0(a4)
   10b6c:	00e7b023          	sd	a4,0(a5)
   10b70:	fe043783          	ld	a5,-32(s0)
   10b74:	fc078793          	addi	a5,a5,-64
   10b78:	fef43023          	sd	a5,-32(s0)
   10b7c:	00100793          	addi	a5,zero,1
   10b80:	fcf43823          	sd	a5,-48(s0)
   10b84:	3640006f          	jal	zero,10ee8 <set_key+0xd40>
   10b88:	00019977          	chk	s2,0x19
   10b8c:	fe843783          	ld	a5,-24(s0)
   10b90:	0007b783          	ld	a5,0(a5)
   10b94:	0ff7f793          	andi	a5,a5,255
   10b98:	0007871b          	addiw	a4,a5,0
   10b9c:	000297b7          	lui	a5,0x29
   10ba0:	00371713          	slli	a4,a4,0x3
   10ba4:	78878793          	addi	a5,a5,1928 # 29788 <im_tab>
   10ba8:	00f707b3          	add	a5,a4,a5
   10bac:	0007b703          	ld	a4,0(a5)
   10bb0:	fe843783          	ld	a5,-24(s0)
   10bb4:	0007b783          	ld	a5,0(a5)
   10bb8:	0087d793          	srli	a5,a5,0x8
   10bbc:	0ff7f793          	andi	a5,a5,255
   10bc0:	0007869b          	addiw	a3,a5,0
   10bc4:	000297b7          	lui	a5,0x29
   10bc8:	10068693          	addi	a3,a3,256
   10bcc:	00369693          	slli	a3,a3,0x3
   10bd0:	78878793          	addi	a5,a5,1928 # 29788 <im_tab>
   10bd4:	00f687b3          	add	a5,a3,a5
   10bd8:	0007b783          	ld	a5,0(a5)
   10bdc:	00f74733          	xor	a4,a4,a5
   10be0:	fe843783          	ld	a5,-24(s0)
   10be4:	0007b783          	ld	a5,0(a5)
   10be8:	0107d793          	srli	a5,a5,0x10
   10bec:	0ff7f793          	andi	a5,a5,255
   10bf0:	0007869b          	addiw	a3,a5,0
   10bf4:	000297b7          	lui	a5,0x29
   10bf8:	20068693          	addi	a3,a3,512
   10bfc:	00369693          	slli	a3,a3,0x3
   10c00:	78878793          	addi	a5,a5,1928 # 29788 <im_tab>
   10c04:	00f687b3          	add	a5,a3,a5
   10c08:	0007b783          	ld	a5,0(a5)
   10c0c:	00f746b3          	xor	a3,a4,a5
   10c10:	fe843783          	ld	a5,-24(s0)
   10c14:	0007b783          	ld	a5,0(a5)
   10c18:	0187d793          	srli	a5,a5,0x18
   10c1c:	0ff7f793          	andi	a5,a5,255
   10c20:	0007871b          	addiw	a4,a5,0
   10c24:	000297b7          	lui	a5,0x29
   10c28:	30070713          	addi	a4,a4,768
   10c2c:	00371713          	slli	a4,a4,0x3
   10c30:	78878793          	addi	a5,a5,1928 # 29788 <im_tab>
   10c34:	00f707b3          	add	a5,a4,a5
   10c38:	0007b703          	ld	a4,0(a5)
   10c3c:	fe043783          	ld	a5,-32(s0)
   10c40:	00878613          	addi	a2,a5,8
   10c44:	fec43023          	sd	a2,-32(s0)
   10c48:	00e6c733          	xor	a4,a3,a4
   10c4c:	00e7b023          	sd	a4,0(a5)
   10c50:	fe843783          	ld	a5,-24(s0)
   10c54:	00878793          	addi	a5,a5,8
   10c58:	fef43423          	sd	a5,-24(s0)
   10c5c:	fe843783          	ld	a5,-24(s0)
   10c60:	0007b783          	ld	a5,0(a5)
   10c64:	0ff7f793          	andi	a5,a5,255
   10c68:	0007871b          	addiw	a4,a5,0
   10c6c:	000297b7          	lui	a5,0x29
   10c70:	00371713          	slli	a4,a4,0x3
   10c74:	78878793          	addi	a5,a5,1928 # 29788 <im_tab>
   10c78:	00f707b3          	add	a5,a4,a5
   10c7c:	0007b703          	ld	a4,0(a5)
   10c80:	fe843783          	ld	a5,-24(s0)
   10c84:	0007b783          	ld	a5,0(a5)
   10c88:	0087d793          	srli	a5,a5,0x8
   10c8c:	0ff7f793          	andi	a5,a5,255
   10c90:	0007869b          	addiw	a3,a5,0
   10c94:	000297b7          	lui	a5,0x29
   10c98:	10068693          	addi	a3,a3,256
   10c9c:	00369693          	slli	a3,a3,0x3
   10ca0:	78878793          	addi	a5,a5,1928 # 29788 <im_tab>
   10ca4:	00f687b3          	add	a5,a3,a5
   10ca8:	0007b783          	ld	a5,0(a5)
   10cac:	00f74733          	xor	a4,a4,a5
   10cb0:	fe843783          	ld	a5,-24(s0)
   10cb4:	0007b783          	ld	a5,0(a5)
   10cb8:	0107d793          	srli	a5,a5,0x10
   10cbc:	0ff7f793          	andi	a5,a5,255
   10cc0:	0007869b          	addiw	a3,a5,0
   10cc4:	000297b7          	lui	a5,0x29
   10cc8:	20068693          	addi	a3,a3,512
   10ccc:	00369693          	slli	a3,a3,0x3
   10cd0:	78878793          	addi	a5,a5,1928 # 29788 <im_tab>
   10cd4:	00f687b3          	add	a5,a3,a5
   10cd8:	0007b783          	ld	a5,0(a5)
   10cdc:	00f746b3          	xor	a3,a4,a5
   10ce0:	fe843783          	ld	a5,-24(s0)
   10ce4:	0007b783          	ld	a5,0(a5)
   10ce8:	0187d793          	srli	a5,a5,0x18
   10cec:	0ff7f793          	andi	a5,a5,255
   10cf0:	0007871b          	addiw	a4,a5,0
   10cf4:	000297b7          	lui	a5,0x29
   10cf8:	30070713          	addi	a4,a4,768
   10cfc:	00371713          	slli	a4,a4,0x3
   10d00:	78878793          	addi	a5,a5,1928 # 29788 <im_tab>
   10d04:	00f707b3          	add	a5,a4,a5
   10d08:	0007b703          	ld	a4,0(a5)
   10d0c:	fe043783          	ld	a5,-32(s0)
   10d10:	00878613          	addi	a2,a5,8
   10d14:	fec43023          	sd	a2,-32(s0)
   10d18:	00e6c733          	xor	a4,a3,a4
   10d1c:	00e7b023          	sd	a4,0(a5)
   10d20:	fe843783          	ld	a5,-24(s0)
   10d24:	00878793          	addi	a5,a5,8
   10d28:	fef43423          	sd	a5,-24(s0)
   10d2c:	fe843783          	ld	a5,-24(s0)
   10d30:	0007b783          	ld	a5,0(a5)
   10d34:	0ff7f793          	andi	a5,a5,255
   10d38:	0007871b          	addiw	a4,a5,0
   10d3c:	000297b7          	lui	a5,0x29
   10d40:	00371713          	slli	a4,a4,0x3
   10d44:	78878793          	addi	a5,a5,1928 # 29788 <im_tab>
   10d48:	00f707b3          	add	a5,a4,a5
   10d4c:	0007b703          	ld	a4,0(a5)
   10d50:	fe843783          	ld	a5,-24(s0)
   10d54:	0007b783          	ld	a5,0(a5)
   10d58:	0087d793          	srli	a5,a5,0x8
   10d5c:	0ff7f793          	andi	a5,a5,255
   10d60:	0007869b          	addiw	a3,a5,0
   10d64:	000297b7          	lui	a5,0x29
   10d68:	10068693          	addi	a3,a3,256
   10d6c:	00369693          	slli	a3,a3,0x3
   10d70:	78878793          	addi	a5,a5,1928 # 29788 <im_tab>
   10d74:	00f687b3          	add	a5,a3,a5
   10d78:	0007b783          	ld	a5,0(a5)
   10d7c:	00f74733          	xor	a4,a4,a5
   10d80:	fe843783          	ld	a5,-24(s0)
   10d84:	0007b783          	ld	a5,0(a5)
   10d88:	0107d793          	srli	a5,a5,0x10
   10d8c:	0ff7f793          	andi	a5,a5,255
   10d90:	0007869b          	addiw	a3,a5,0
   10d94:	000297b7          	lui	a5,0x29
   10d98:	20068693          	addi	a3,a3,512
   10d9c:	00369693          	slli	a3,a3,0x3
   10da0:	78878793          	addi	a5,a5,1928 # 29788 <im_tab>
   10da4:	00f687b3          	add	a5,a3,a5
   10da8:	0007b783          	ld	a5,0(a5)
   10dac:	00f746b3          	xor	a3,a4,a5
   10db0:	fe843783          	ld	a5,-24(s0)
   10db4:	0007b783          	ld	a5,0(a5)
   10db8:	0187d793          	srli	a5,a5,0x18
   10dbc:	0ff7f793          	andi	a5,a5,255
   10dc0:	0007871b          	addiw	a4,a5,0
   10dc4:	000297b7          	lui	a5,0x29
   10dc8:	30070713          	addi	a4,a4,768
   10dcc:	00371713          	slli	a4,a4,0x3
   10dd0:	78878793          	addi	a5,a5,1928 # 29788 <im_tab>
   10dd4:	00f707b3          	add	a5,a4,a5
   10dd8:	0007b703          	ld	a4,0(a5)
   10ddc:	fe043783          	ld	a5,-32(s0)
   10de0:	00878613          	addi	a2,a5,8
   10de4:	fec43023          	sd	a2,-32(s0)
   10de8:	00e6c733          	xor	a4,a3,a4
   10dec:	00e7b023          	sd	a4,0(a5)
   10df0:	fe843783          	ld	a5,-24(s0)
   10df4:	00878793          	addi	a5,a5,8
   10df8:	fef43423          	sd	a5,-24(s0)
   10dfc:	fe843783          	ld	a5,-24(s0)
   10e00:	0007b783          	ld	a5,0(a5)
   10e04:	0ff7f793          	andi	a5,a5,255
   10e08:	0007871b          	addiw	a4,a5,0
   10e0c:	000297b7          	lui	a5,0x29
   10e10:	00371713          	slli	a4,a4,0x3
   10e14:	78878793          	addi	a5,a5,1928 # 29788 <im_tab>
   10e18:	00f707b3          	add	a5,a4,a5
   10e1c:	0007b703          	ld	a4,0(a5)
   10e20:	fe843783          	ld	a5,-24(s0)
   10e24:	0007b783          	ld	a5,0(a5)
   10e28:	0087d793          	srli	a5,a5,0x8
   10e2c:	0ff7f793          	andi	a5,a5,255
   10e30:	0007869b          	addiw	a3,a5,0
   10e34:	000297b7          	lui	a5,0x29
   10e38:	10068693          	addi	a3,a3,256
   10e3c:	00369693          	slli	a3,a3,0x3
   10e40:	78878793          	addi	a5,a5,1928 # 29788 <im_tab>
   10e44:	00f687b3          	add	a5,a3,a5
   10e48:	0007b783          	ld	a5,0(a5)
   10e4c:	00f74733          	xor	a4,a4,a5
   10e50:	fe843783          	ld	a5,-24(s0)
   10e54:	0007b783          	ld	a5,0(a5)
   10e58:	0107d793          	srli	a5,a5,0x10
   10e5c:	0ff7f793          	andi	a5,a5,255
   10e60:	0007869b          	addiw	a3,a5,0
   10e64:	000297b7          	lui	a5,0x29
   10e68:	20068693          	addi	a3,a3,512
   10e6c:	00369693          	slli	a3,a3,0x3
   10e70:	78878793          	addi	a5,a5,1928 # 29788 <im_tab>
   10e74:	00f687b3          	add	a5,a3,a5
   10e78:	0007b783          	ld	a5,0(a5)
   10e7c:	00f746b3          	xor	a3,a4,a5
   10e80:	fe843783          	ld	a5,-24(s0)
   10e84:	0007b783          	ld	a5,0(a5)
   10e88:	0187d793          	srli	a5,a5,0x18
   10e8c:	0ff7f793          	andi	a5,a5,255
   10e90:	0007871b          	addiw	a4,a5,0
   10e94:	000297b7          	lui	a5,0x29
   10e98:	30070713          	addi	a4,a4,768
   10e9c:	00371713          	slli	a4,a4,0x3
   10ea0:	78878793          	addi	a5,a5,1928 # 29788 <im_tab>
   10ea4:	00f707b3          	add	a5,a4,a5
   10ea8:	0007b703          	ld	a4,0(a5)
   10eac:	fe043783          	ld	a5,-32(s0)
   10eb0:	00878613          	addi	a2,a5,8
   10eb4:	fec43023          	sd	a2,-32(s0)
   10eb8:	00e6c733          	xor	a4,a3,a4
   10ebc:	00e7b023          	sd	a4,0(a5)
   10ec0:	fe843783          	ld	a5,-24(s0)
   10ec4:	00878793          	addi	a5,a5,8
   10ec8:	fef43423          	sd	a5,-24(s0)
   10ecc:	fe043783          	ld	a5,-32(s0)
   10ed0:	fc078793          	addi	a5,a5,-64
   10ed4:	fef43023          	sd	a5,-32(s0)
   10ed8:	fd043783          	ld	a5,-48(s0)
   10edc:	00178793          	addi	a5,a5,1
   10ee0:	fcf43823          	sd	a5,-48(s0)
   10ee4:	0040006f          	jal	zero,10ee8 <set_key+0xd40>
   10ee8:	0001a977          	chk	s2,0x1a
   10eec:	fb043783          	ld	a5,-80(s0)
   10ef0:	0087b783          	ld	a5,8(a5)
   10ef4:	fd043703          	ld	a4,-48(s0)
   10ef8:	c8f768e3          	bltu	a4,a5,10b88 <set_key+0x9e0>
   10efc:	0001b977          	chk	s2,0x1b
   10f00:	fe843703          	ld	a4,-24(s0)
   10f04:	00870793          	addi	a5,a4,8
   10f08:	fef43423          	sd	a5,-24(s0)
   10f0c:	fe043783          	ld	a5,-32(s0)
   10f10:	00878693          	addi	a3,a5,8
   10f14:	fed43023          	sd	a3,-32(s0)
   10f18:	00073703          	ld	a4,0(a4)
   10f1c:	00e7b023          	sd	a4,0(a5)
   10f20:	fe843703          	ld	a4,-24(s0)
   10f24:	00870793          	addi	a5,a4,8
   10f28:	fef43423          	sd	a5,-24(s0)
   10f2c:	fe043783          	ld	a5,-32(s0)
   10f30:	00878693          	addi	a3,a5,8
   10f34:	fed43023          	sd	a3,-32(s0)
   10f38:	00073703          	ld	a4,0(a4)
   10f3c:	00e7b023          	sd	a4,0(a5)
   10f40:	fe843703          	ld	a4,-24(s0)
   10f44:	00870793          	addi	a5,a4,8
   10f48:	fef43423          	sd	a5,-24(s0)
   10f4c:	fe043783          	ld	a5,-32(s0)
   10f50:	00878693          	addi	a3,a5,8
   10f54:	fed43023          	sd	a3,-32(s0)
   10f58:	00073703          	ld	a4,0(a4)
   10f5c:	00e7b023          	sd	a4,0(a5)
   10f60:	fe843703          	ld	a4,-24(s0)
   10f64:	00870793          	addi	a5,a4,8
   10f68:	fef43423          	sd	a5,-24(s0)
   10f6c:	fe043783          	ld	a5,-32(s0)
   10f70:	00878693          	addi	a3,a5,8
   10f74:	fed43023          	sd	a3,-32(s0)
   10f78:	00073703          	ld	a4,0(a4)
   10f7c:	00e7b023          	sd	a4,0(a5)
   10f80:	0040006f          	jal	zero,10f84 <set_key+0xddc>
   10f84:	0001c977          	chk	s2,0x1c
   10f88:	00100793          	addi	a5,zero,1
   10f8c:	0040006f          	jal	zero,10f90 <set_key+0xde8>
   10f90:	0001d977          	chk	s2,0x1d
   10f94:	00078513          	addi	a0,a5,0
   10f98:	04813403          	ld	s0,72(sp)
   10f9c:	05010113          	addi	sp,sp,80
   10fa0:	0ff05073          	csrrwi	zero,0xff,0
   10fa4:	00008067          	jalr	zero,0(ra)

0000000000010fa8 <encrypt>:
   10fa8:	0001e977          	chk	s2,0x1e
   10fac:	f8010113          	addi	sp,sp,-128
   10fb0:	06813c23          	sd	s0,120(sp)
   10fb4:	08010413          	addi	s0,sp,128
   10fb8:	f8a43c23          	sd	a0,-104(s0)
   10fbc:	f8b43823          	sd	a1,-112(s0)
   10fc0:	f8c43423          	sd	a2,-120(s0)
   10fc4:	f8843783          	ld	a5,-120(s0)
   10fc8:	01078793          	addi	a5,a5,16
   10fcc:	fef43423          	sd	a5,-24(s0)
   10fd0:	f8843783          	ld	a5,-120(s0)
   10fd4:	4107c783          	lbu	a5,1040(a5)
   10fd8:	0007879b          	addiw	a5,a5,0
   10fdc:	0017f793          	andi	a5,a5,1
   10fe0:	0007879b          	addiw	a5,a5,0
   10fe4:	00079863          	bne	a5,zero,10ff4 <encrypt+0x4c>
   10fe8:	0001f977          	chk	s2,0x1f
   10fec:	00000793          	addi	a5,zero,0
   10ff0:	1690206f          	jal	zero,13958 <encrypt+0x29b0>
   10ff4:	00020977          	chk	s2,0x20
   10ff8:	f9843783          	ld	a5,-104(s0)
   10ffc:	0007b703          	ld	a4,0(a5)
   11000:	fe843783          	ld	a5,-24(s0)
   11004:	0007b783          	ld	a5,0(a5)
   11008:	00f747b3          	xor	a5,a4,a5
   1100c:	faf43423          	sd	a5,-88(s0)
   11010:	f9843783          	ld	a5,-104(s0)
   11014:	00478793          	addi	a5,a5,4
   11018:	0007b703          	ld	a4,0(a5)
   1101c:	fe843783          	ld	a5,-24(s0)
   11020:	00878793          	addi	a5,a5,8
   11024:	0007b783          	ld	a5,0(a5)
   11028:	00f747b3          	xor	a5,a4,a5
   1102c:	faf43823          	sd	a5,-80(s0)
   11030:	f9843783          	ld	a5,-104(s0)
   11034:	00878793          	addi	a5,a5,8
   11038:	0007b703          	ld	a4,0(a5)
   1103c:	fe843783          	ld	a5,-24(s0)
   11040:	01078793          	addi	a5,a5,16
   11044:	0007b783          	ld	a5,0(a5)
   11048:	00f747b3          	xor	a5,a4,a5
   1104c:	faf43c23          	sd	a5,-72(s0)
   11050:	f9843783          	ld	a5,-104(s0)
   11054:	00c78793          	addi	a5,a5,12
   11058:	0007b703          	ld	a4,0(a5)
   1105c:	fe843783          	ld	a5,-24(s0)
   11060:	01878793          	addi	a5,a5,24
   11064:	0007b783          	ld	a5,0(a5)
   11068:	00f747b3          	xor	a5,a4,a5
   1106c:	fcf43023          	sd	a5,-64(s0)
   11070:	fe843783          	ld	a5,-24(s0)
   11074:	02078793          	addi	a5,a5,32
   11078:	fef43423          	sd	a5,-24(s0)
   1107c:	f8843783          	ld	a5,-120(s0)
   11080:	0087b783          	ld	a5,8(a5)
   11084:	00c00713          	addi	a4,zero,12
   11088:	5ee78a63          	beq	a5,a4,1167c <encrypt+0x6d4>
   1108c:	00021977          	chk	s2,0x21
   11090:	00e00713          	addi	a4,zero,14
   11094:	00e78c63          	beq	a5,a4,110ac <encrypt+0x104>
   11098:	00022977          	chk	s2,0x22
   1109c:	00a00713          	addi	a4,zero,10
   110a0:	3ae786e3          	beq	a5,a4,11c4c <encrypt+0xca4>
   110a4:	00023977          	chk	s2,0x23
   110a8:	0690206f          	jal	zero,13910 <encrypt+0x2968>
   110ac:	00024977          	chk	s2,0x24
   110b0:	fe843783          	ld	a5,-24(s0)
   110b4:	0007b703          	ld	a4,0(a5)
   110b8:	fa843783          	ld	a5,-88(s0)
   110bc:	0ff7f793          	andi	a5,a5,255
   110c0:	0007869b          	addiw	a3,a5,0
   110c4:	000217b7          	lui	a5,0x21
   110c8:	00369693          	slli	a3,a3,0x3
   110cc:	78878793          	addi	a5,a5,1928 # 21788 <ft_tab>
   110d0:	00f687b3          	add	a5,a3,a5
   110d4:	0007b683          	ld	a3,0(a5)
   110d8:	fb043783          	ld	a5,-80(s0)
   110dc:	0087d793          	srli	a5,a5,0x8
   110e0:	0ff7f793          	andi	a5,a5,255
   110e4:	0007861b          	addiw	a2,a5,0
   110e8:	000217b7          	lui	a5,0x21
   110ec:	10060613          	addi	a2,a2,256
   110f0:	00361613          	slli	a2,a2,0x3
   110f4:	78878793          	addi	a5,a5,1928 # 21788 <ft_tab>
   110f8:	00f607b3          	add	a5,a2,a5
   110fc:	0007b783          	ld	a5,0(a5)
   11100:	00f6c6b3          	xor	a3,a3,a5
   11104:	fb843783          	ld	a5,-72(s0)
   11108:	0107d793          	srli	a5,a5,0x10
   1110c:	0ff7f793          	andi	a5,a5,255
   11110:	0007861b          	addiw	a2,a5,0
   11114:	000217b7          	lui	a5,0x21
   11118:	20060613          	addi	a2,a2,512
   1111c:	00361613          	slli	a2,a2,0x3
   11120:	78878793          	addi	a5,a5,1928 # 21788 <ft_tab>
   11124:	00f607b3          	add	a5,a2,a5
   11128:	0007b783          	ld	a5,0(a5)
   1112c:	00f6c6b3          	xor	a3,a3,a5
   11130:	fc043783          	ld	a5,-64(s0)
   11134:	0187d793          	srli	a5,a5,0x18
   11138:	0ff7f793          	andi	a5,a5,255
   1113c:	0007861b          	addiw	a2,a5,0
   11140:	000217b7          	lui	a5,0x21
   11144:	30060613          	addi	a2,a2,768
   11148:	00361613          	slli	a2,a2,0x3
   1114c:	78878793          	addi	a5,a5,1928 # 21788 <ft_tab>
   11150:	00f607b3          	add	a5,a2,a5
   11154:	0007b783          	ld	a5,0(a5)
   11158:	00f6c7b3          	xor	a5,a3,a5
   1115c:	00f747b3          	xor	a5,a4,a5
   11160:	fcf43423          	sd	a5,-56(s0)
   11164:	fe843783          	ld	a5,-24(s0)
   11168:	00878793          	addi	a5,a5,8
   1116c:	0007b703          	ld	a4,0(a5)
   11170:	fb043783          	ld	a5,-80(s0)
   11174:	0ff7f793          	andi	a5,a5,255
   11178:	0007869b          	addiw	a3,a5,0
   1117c:	000217b7          	lui	a5,0x21
   11180:	00369693          	slli	a3,a3,0x3
   11184:	78878793          	addi	a5,a5,1928 # 21788 <ft_tab>
   11188:	00f687b3          	add	a5,a3,a5
   1118c:	0007b683          	ld	a3,0(a5)
   11190:	fb843783          	ld	a5,-72(s0)
   11194:	0087d793          	srli	a5,a5,0x8
   11198:	0ff7f793          	andi	a5,a5,255
   1119c:	0007861b          	addiw	a2,a5,0
   111a0:	000217b7          	lui	a5,0x21
   111a4:	10060613          	addi	a2,a2,256
   111a8:	00361613          	slli	a2,a2,0x3
   111ac:	78878793          	addi	a5,a5,1928 # 21788 <ft_tab>
   111b0:	00f607b3          	add	a5,a2,a5
   111b4:	0007b783          	ld	a5,0(a5)
   111b8:	00f6c6b3          	xor	a3,a3,a5
   111bc:	fc043783          	ld	a5,-64(s0)
   111c0:	0107d793          	srli	a5,a5,0x10
   111c4:	0ff7f793          	andi	a5,a5,255
   111c8:	0007861b          	addiw	a2,a5,0
   111cc:	000217b7          	lui	a5,0x21
   111d0:	20060613          	addi	a2,a2,512
   111d4:	00361613          	slli	a2,a2,0x3
   111d8:	78878793          	addi	a5,a5,1928 # 21788 <ft_tab>
   111dc:	00f607b3          	add	a5,a2,a5
   111e0:	0007b783          	ld	a5,0(a5)
   111e4:	00f6c6b3          	xor	a3,a3,a5
   111e8:	fa843783          	ld	a5,-88(s0)
   111ec:	0187d793          	srli	a5,a5,0x18
   111f0:	0ff7f793          	andi	a5,a5,255
   111f4:	0007861b          	addiw	a2,a5,0
   111f8:	000217b7          	lui	a5,0x21
   111fc:	30060613          	addi	a2,a2,768
   11200:	00361613          	slli	a2,a2,0x3
   11204:	78878793          	addi	a5,a5,1928 # 21788 <ft_tab>
   11208:	00f607b3          	add	a5,a2,a5
   1120c:	0007b783          	ld	a5,0(a5)
   11210:	00f6c7b3          	xor	a5,a3,a5
   11214:	00f747b3          	xor	a5,a4,a5
   11218:	fcf43823          	sd	a5,-48(s0)
   1121c:	fe843783          	ld	a5,-24(s0)
   11220:	01078793          	addi	a5,a5,16
   11224:	0007b703          	ld	a4,0(a5)
   11228:	fb843783          	ld	a5,-72(s0)
   1122c:	0ff7f793          	andi	a5,a5,255
   11230:	0007869b          	addiw	a3,a5,0
   11234:	000217b7          	lui	a5,0x21
   11238:	00369693          	slli	a3,a3,0x3
   1123c:	78878793          	addi	a5,a5,1928 # 21788 <ft_tab>
   11240:	00f687b3          	add	a5,a3,a5
   11244:	0007b683          	ld	a3,0(a5)
   11248:	fc043783          	ld	a5,-64(s0)
   1124c:	0087d793          	srli	a5,a5,0x8
   11250:	0ff7f793          	andi	a5,a5,255
   11254:	0007861b          	addiw	a2,a5,0
   11258:	000217b7          	lui	a5,0x21
   1125c:	10060613          	addi	a2,a2,256
   11260:	00361613          	slli	a2,a2,0x3
   11264:	78878793          	addi	a5,a5,1928 # 21788 <ft_tab>
   11268:	00f607b3          	add	a5,a2,a5
   1126c:	0007b783          	ld	a5,0(a5)
   11270:	00f6c6b3          	xor	a3,a3,a5
   11274:	fa843783          	ld	a5,-88(s0)
   11278:	0107d793          	srli	a5,a5,0x10
   1127c:	0ff7f793          	andi	a5,a5,255
   11280:	0007861b          	addiw	a2,a5,0
   11284:	000217b7          	lui	a5,0x21
   11288:	20060613          	addi	a2,a2,512
   1128c:	00361613          	slli	a2,a2,0x3
   11290:	78878793          	addi	a5,a5,1928 # 21788 <ft_tab>
   11294:	00f607b3          	add	a5,a2,a5
   11298:	0007b783          	ld	a5,0(a5)
   1129c:	00f6c6b3          	xor	a3,a3,a5
   112a0:	fb043783          	ld	a5,-80(s0)
   112a4:	0187d793          	srli	a5,a5,0x18
   112a8:	0ff7f793          	andi	a5,a5,255
   112ac:	0007861b          	addiw	a2,a5,0
   112b0:	000217b7          	lui	a5,0x21
   112b4:	30060613          	addi	a2,a2,768
   112b8:	00361613          	slli	a2,a2,0x3
   112bc:	78878793          	addi	a5,a5,1928 # 21788 <ft_tab>
   112c0:	00f607b3          	add	a5,a2,a5
   112c4:	0007b783          	ld	a5,0(a5)
   112c8:	00f6c7b3          	xor	a5,a3,a5
   112cc:	00f747b3          	xor	a5,a4,a5
   112d0:	fcf43c23          	sd	a5,-40(s0)
   112d4:	fe843783          	ld	a5,-24(s0)
   112d8:	01878793          	addi	a5,a5,24
   112dc:	0007b703          	ld	a4,0(a5)
   112e0:	fc043783          	ld	a5,-64(s0)
   112e4:	0ff7f793          	andi	a5,a5,255
   112e8:	0007869b          	addiw	a3,a5,0
   112ec:	000217b7          	lui	a5,0x21
   112f0:	00369693          	slli	a3,a3,0x3
   112f4:	78878793          	addi	a5,a5,1928 # 21788 <ft_tab>
   112f8:	00f687b3          	add	a5,a3,a5
   112fc:	0007b683          	ld	a3,0(a5)
   11300:	fa843783          	ld	a5,-88(s0)
   11304:	0087d793          	srli	a5,a5,0x8
   11308:	0ff7f793          	andi	a5,a5,255
   1130c:	0007861b          	addiw	a2,a5,0
   11310:	000217b7          	lui	a5,0x21
   11314:	10060613          	addi	a2,a2,256
   11318:	00361613          	slli	a2,a2,0x3
   1131c:	78878793          	addi	a5,a5,1928 # 21788 <ft_tab>
   11320:	00f607b3          	add	a5,a2,a5
   11324:	0007b783          	ld	a5,0(a5)
   11328:	00f6c6b3          	xor	a3,a3,a5
   1132c:	fb043783          	ld	a5,-80(s0)
   11330:	0107d793          	srli	a5,a5,0x10
   11334:	0ff7f793          	andi	a5,a5,255
   11338:	0007861b          	addiw	a2,a5,0
   1133c:	000217b7          	lui	a5,0x21
   11340:	20060613          	addi	a2,a2,512
   11344:	00361613          	slli	a2,a2,0x3
   11348:	78878793          	addi	a5,a5,1928 # 21788 <ft_tab>
   1134c:	00f607b3          	add	a5,a2,a5
   11350:	0007b783          	ld	a5,0(a5)
   11354:	00f6c6b3          	xor	a3,a3,a5
   11358:	fb843783          	ld	a5,-72(s0)
   1135c:	0187d793          	srli	a5,a5,0x18
   11360:	0ff7f793          	andi	a5,a5,255
   11364:	0007861b          	addiw	a2,a5,0
   11368:	000217b7          	lui	a5,0x21
   1136c:	30060613          	addi	a2,a2,768
   11370:	00361613          	slli	a2,a2,0x3
   11374:	78878793          	addi	a5,a5,1928 # 21788 <ft_tab>
   11378:	00f607b3          	add	a5,a2,a5
   1137c:	0007b783          	ld	a5,0(a5)
   11380:	00f6c7b3          	xor	a5,a3,a5
   11384:	00f747b3          	xor	a5,a4,a5
   11388:	fef43023          	sd	a5,-32(s0)
   1138c:	fe843783          	ld	a5,-24(s0)
   11390:	02078793          	addi	a5,a5,32
   11394:	0007b703          	ld	a4,0(a5)
   11398:	fc843783          	ld	a5,-56(s0)
   1139c:	0ff7f793          	andi	a5,a5,255
   113a0:	0007869b          	addiw	a3,a5,0
   113a4:	000217b7          	lui	a5,0x21
   113a8:	00369693          	slli	a3,a3,0x3
   113ac:	78878793          	addi	a5,a5,1928 # 21788 <ft_tab>
   113b0:	00f687b3          	add	a5,a3,a5
   113b4:	0007b683          	ld	a3,0(a5)
   113b8:	fd043783          	ld	a5,-48(s0)
   113bc:	0087d793          	srli	a5,a5,0x8
   113c0:	0ff7f793          	andi	a5,a5,255
   113c4:	0007861b          	addiw	a2,a5,0
   113c8:	000217b7          	lui	a5,0x21
   113cc:	10060613          	addi	a2,a2,256
   113d0:	00361613          	slli	a2,a2,0x3
   113d4:	78878793          	addi	a5,a5,1928 # 21788 <ft_tab>
   113d8:	00f607b3          	add	a5,a2,a5
   113dc:	0007b783          	ld	a5,0(a5)
   113e0:	00f6c6b3          	xor	a3,a3,a5
   113e4:	fd843783          	ld	a5,-40(s0)
   113e8:	0107d793          	srli	a5,a5,0x10
   113ec:	0ff7f793          	andi	a5,a5,255
   113f0:	0007861b          	addiw	a2,a5,0
   113f4:	000217b7          	lui	a5,0x21
   113f8:	20060613          	addi	a2,a2,512
   113fc:	00361613          	slli	a2,a2,0x3
   11400:	78878793          	addi	a5,a5,1928 # 21788 <ft_tab>
   11404:	00f607b3          	add	a5,a2,a5
   11408:	0007b783          	ld	a5,0(a5)
   1140c:	00f6c6b3          	xor	a3,a3,a5
   11410:	fe043783          	ld	a5,-32(s0)
   11414:	0187d793          	srli	a5,a5,0x18
   11418:	0ff7f793          	andi	a5,a5,255
   1141c:	0007861b          	addiw	a2,a5,0
   11420:	000217b7          	lui	a5,0x21
   11424:	30060613          	addi	a2,a2,768
   11428:	00361613          	slli	a2,a2,0x3
   1142c:	78878793          	addi	a5,a5,1928 # 21788 <ft_tab>
   11430:	00f607b3          	add	a5,a2,a5
   11434:	0007b783          	ld	a5,0(a5)
   11438:	00f6c7b3          	xor	a5,a3,a5
   1143c:	00f747b3          	xor	a5,a4,a5
   11440:	faf43423          	sd	a5,-88(s0)
   11444:	fe843783          	ld	a5,-24(s0)
   11448:	02878793          	addi	a5,a5,40
   1144c:	0007b703          	ld	a4,0(a5)
   11450:	fd043783          	ld	a5,-48(s0)
   11454:	0ff7f793          	andi	a5,a5,255
   11458:	0007869b          	addiw	a3,a5,0
   1145c:	000217b7          	lui	a5,0x21
   11460:	00369693          	slli	a3,a3,0x3
   11464:	78878793          	addi	a5,a5,1928 # 21788 <ft_tab>
   11468:	00f687b3          	add	a5,a3,a5
   1146c:	0007b683          	ld	a3,0(a5)
   11470:	fd843783          	ld	a5,-40(s0)
   11474:	0087d793          	srli	a5,a5,0x8
   11478:	0ff7f793          	andi	a5,a5,255
   1147c:	0007861b          	addiw	a2,a5,0
   11480:	000217b7          	lui	a5,0x21
   11484:	10060613          	addi	a2,a2,256
   11488:	00361613          	slli	a2,a2,0x3
   1148c:	78878793          	addi	a5,a5,1928 # 21788 <ft_tab>
   11490:	00f607b3          	add	a5,a2,a5
   11494:	0007b783          	ld	a5,0(a5)
   11498:	00f6c6b3          	xor	a3,a3,a5
   1149c:	fe043783          	ld	a5,-32(s0)
   114a0:	0107d793          	srli	a5,a5,0x10
   114a4:	0ff7f793          	andi	a5,a5,255
   114a8:	0007861b          	addiw	a2,a5,0
   114ac:	000217b7          	lui	a5,0x21
   114b0:	20060613          	addi	a2,a2,512
   114b4:	00361613          	slli	a2,a2,0x3
   114b8:	78878793          	addi	a5,a5,1928 # 21788 <ft_tab>
   114bc:	00f607b3          	add	a5,a2,a5
   114c0:	0007b783          	ld	a5,0(a5)
   114c4:	00f6c6b3          	xor	a3,a3,a5
   114c8:	fc843783          	ld	a5,-56(s0)
   114cc:	0187d793          	srli	a5,a5,0x18
   114d0:	0ff7f793          	andi	a5,a5,255
   114d4:	0007861b          	addiw	a2,a5,0
   114d8:	000217b7          	lui	a5,0x21
   114dc:	30060613          	addi	a2,a2,768
   114e0:	00361613          	slli	a2,a2,0x3
   114e4:	78878793          	addi	a5,a5,1928 # 21788 <ft_tab>
   114e8:	00f607b3          	add	a5,a2,a5
   114ec:	0007b783          	ld	a5,0(a5)
   114f0:	00f6c7b3          	xor	a5,a3,a5
   114f4:	00f747b3          	xor	a5,a4,a5
   114f8:	faf43823          	sd	a5,-80(s0)
   114fc:	fe843783          	ld	a5,-24(s0)
   11500:	03078793          	addi	a5,a5,48
   11504:	0007b703          	ld	a4,0(a5)
   11508:	fd843783          	ld	a5,-40(s0)
   1150c:	0ff7f793          	andi	a5,a5,255
   11510:	0007869b          	addiw	a3,a5,0
   11514:	000217b7          	lui	a5,0x21
   11518:	00369693          	slli	a3,a3,0x3
   1151c:	78878793          	addi	a5,a5,1928 # 21788 <ft_tab>
   11520:	00f687b3          	add	a5,a3,a5
   11524:	0007b683          	ld	a3,0(a5)
   11528:	fe043783          	ld	a5,-32(s0)
   1152c:	0087d793          	srli	a5,a5,0x8
   11530:	0ff7f793          	andi	a5,a5,255
   11534:	0007861b          	addiw	a2,a5,0
   11538:	000217b7          	lui	a5,0x21
   1153c:	10060613          	addi	a2,a2,256
   11540:	00361613          	slli	a2,a2,0x3
   11544:	78878793          	addi	a5,a5,1928 # 21788 <ft_tab>
   11548:	00f607b3          	add	a5,a2,a5
   1154c:	0007b783          	ld	a5,0(a5)
   11550:	00f6c6b3          	xor	a3,a3,a5
   11554:	fc843783          	ld	a5,-56(s0)
   11558:	0107d793          	srli	a5,a5,0x10
   1155c:	0ff7f793          	andi	a5,a5,255
   11560:	0007861b          	addiw	a2,a5,0
   11564:	000217b7          	lui	a5,0x21
   11568:	20060613          	addi	a2,a2,512
   1156c:	00361613          	slli	a2,a2,0x3
   11570:	78878793          	addi	a5,a5,1928 # 21788 <ft_tab>
   11574:	00f607b3          	add	a5,a2,a5
   11578:	0007b783          	ld	a5,0(a5)
   1157c:	00f6c6b3          	xor	a3,a3,a5
   11580:	fd043783          	ld	a5,-48(s0)
   11584:	0187d793          	srli	a5,a5,0x18
   11588:	0ff7f793          	andi	a5,a5,255
   1158c:	0007861b          	addiw	a2,a5,0
   11590:	000217b7          	lui	a5,0x21
   11594:	30060613          	addi	a2,a2,768
   11598:	00361613          	slli	a2,a2,0x3
   1159c:	78878793          	addi	a5,a5,1928 # 21788 <ft_tab>
   115a0:	00f607b3          	add	a5,a2,a5
   115a4:	0007b783          	ld	a5,0(a5)
   115a8:	00f6c7b3          	xor	a5,a3,a5
   115ac:	00f747b3          	xor	a5,a4,a5
   115b0:	faf43c23          	sd	a5,-72(s0)
   115b4:	fe843783          	ld	a5,-24(s0)
   115b8:	03878793          	addi	a5,a5,56
   115bc:	0007b703          	ld	a4,0(a5)
   115c0:	fe043783          	ld	a5,-32(s0)
   115c4:	0ff7f793          	andi	a5,a5,255
   115c8:	0007869b          	addiw	a3,a5,0
   115cc:	000217b7          	lui	a5,0x21
   115d0:	00369693          	slli	a3,a3,0x3
   115d4:	78878793          	addi	a5,a5,1928 # 21788 <ft_tab>
   115d8:	00f687b3          	add	a5,a3,a5
   115dc:	0007b683          	ld	a3,0(a5)
   115e0:	fc843783          	ld	a5,-56(s0)
   115e4:	0087d793          	srli	a5,a5,0x8
   115e8:	0ff7f793          	andi	a5,a5,255
   115ec:	0007861b          	addiw	a2,a5,0
   115f0:	000217b7          	lui	a5,0x21
   115f4:	10060613          	addi	a2,a2,256
   115f8:	00361613          	slli	a2,a2,0x3
   115fc:	78878793          	addi	a5,a5,1928 # 21788 <ft_tab>
   11600:	00f607b3          	add	a5,a2,a5
   11604:	0007b783          	ld	a5,0(a5)
   11608:	00f6c6b3          	xor	a3,a3,a5
   1160c:	fd043783          	ld	a5,-48(s0)
   11610:	0107d793          	srli	a5,a5,0x10
   11614:	0ff7f793          	andi	a5,a5,255
   11618:	0007861b          	addiw	a2,a5,0
   1161c:	000217b7          	lui	a5,0x21
   11620:	20060613          	addi	a2,a2,512
   11624:	00361613          	slli	a2,a2,0x3
   11628:	78878793          	addi	a5,a5,1928 # 21788 <ft_tab>
   1162c:	00f607b3          	add	a5,a2,a5
   11630:	0007b783          	ld	a5,0(a5)
   11634:	00f6c6b3          	xor	a3,a3,a5
   11638:	fd843783          	ld	a5,-40(s0)
   1163c:	0187d793          	srli	a5,a5,0x18
   11640:	0ff7f793          	andi	a5,a5,255
   11644:	0007861b          	addiw	a2,a5,0
   11648:	000217b7          	lui	a5,0x21
   1164c:	30060613          	addi	a2,a2,768
   11650:	00361613          	slli	a2,a2,0x3
   11654:	78878793          	addi	a5,a5,1928 # 21788 <ft_tab>
   11658:	00f607b3          	add	a5,a2,a5
   1165c:	0007b783          	ld	a5,0(a5)
   11660:	00f6c7b3          	xor	a5,a3,a5
   11664:	00f747b3          	xor	a5,a4,a5
   11668:	fcf43023          	sd	a5,-64(s0)
   1166c:	fe843783          	ld	a5,-24(s0)
   11670:	04078793          	addi	a5,a5,64
   11674:	fef43423          	sd	a5,-24(s0)
   11678:	0040006f          	jal	zero,1167c <encrypt+0x6d4>
   1167c:	00025977          	chk	s2,0x25
   11680:	fe843783          	ld	a5,-24(s0)
   11684:	0007b703          	ld	a4,0(a5)
   11688:	fa843783          	ld	a5,-88(s0)
   1168c:	0ff7f793          	andi	a5,a5,255
   11690:	0007869b          	addiw	a3,a5,0
   11694:	000217b7          	lui	a5,0x21
   11698:	00369693          	slli	a3,a3,0x3
   1169c:	78878793          	addi	a5,a5,1928 # 21788 <ft_tab>
   116a0:	00f687b3          	add	a5,a3,a5
   116a4:	0007b683          	ld	a3,0(a5)
   116a8:	fb043783          	ld	a5,-80(s0)
   116ac:	0087d793          	srli	a5,a5,0x8
   116b0:	0ff7f793          	andi	a5,a5,255
   116b4:	0007861b          	addiw	a2,a5,0
   116b8:	000217b7          	lui	a5,0x21
   116bc:	10060613          	addi	a2,a2,256
   116c0:	00361613          	slli	a2,a2,0x3
   116c4:	78878793          	addi	a5,a5,1928 # 21788 <ft_tab>
   116c8:	00f607b3          	add	a5,a2,a5
   116cc:	0007b783          	ld	a5,0(a5)
   116d0:	00f6c6b3          	xor	a3,a3,a5
   116d4:	fb843783          	ld	a5,-72(s0)
   116d8:	0107d793          	srli	a5,a5,0x10
   116dc:	0ff7f793          	andi	a5,a5,255
   116e0:	0007861b          	addiw	a2,a5,0
   116e4:	000217b7          	lui	a5,0x21
   116e8:	20060613          	addi	a2,a2,512
   116ec:	00361613          	slli	a2,a2,0x3
   116f0:	78878793          	addi	a5,a5,1928 # 21788 <ft_tab>
   116f4:	00f607b3          	add	a5,a2,a5
   116f8:	0007b783          	ld	a5,0(a5)
   116fc:	00f6c6b3          	xor	a3,a3,a5
   11700:	fc043783          	ld	a5,-64(s0)
   11704:	0187d793          	srli	a5,a5,0x18
   11708:	0ff7f793          	andi	a5,a5,255
   1170c:	0007861b          	addiw	a2,a5,0
   11710:	000217b7          	lui	a5,0x21
   11714:	30060613          	addi	a2,a2,768
   11718:	00361613          	slli	a2,a2,0x3
   1171c:	78878793          	addi	a5,a5,1928 # 21788 <ft_tab>
   11720:	00f607b3          	add	a5,a2,a5
   11724:	0007b783          	ld	a5,0(a5)
   11728:	00f6c7b3          	xor	a5,a3,a5
   1172c:	00f747b3          	xor	a5,a4,a5
   11730:	fcf43423          	sd	a5,-56(s0)
   11734:	fe843783          	ld	a5,-24(s0)
   11738:	00878793          	addi	a5,a5,8
   1173c:	0007b703          	ld	a4,0(a5)
   11740:	fb043783          	ld	a5,-80(s0)
   11744:	0ff7f793          	andi	a5,a5,255
   11748:	0007869b          	addiw	a3,a5,0
   1174c:	000217b7          	lui	a5,0x21
   11750:	00369693          	slli	a3,a3,0x3
   11754:	78878793          	addi	a5,a5,1928 # 21788 <ft_tab>
   11758:	00f687b3          	add	a5,a3,a5
   1175c:	0007b683          	ld	a3,0(a5)
   11760:	fb843783          	ld	a5,-72(s0)
   11764:	0087d793          	srli	a5,a5,0x8
   11768:	0ff7f793          	andi	a5,a5,255
   1176c:	0007861b          	addiw	a2,a5,0
   11770:	000217b7          	lui	a5,0x21
   11774:	10060613          	addi	a2,a2,256
   11778:	00361613          	slli	a2,a2,0x3
   1177c:	78878793          	addi	a5,a5,1928 # 21788 <ft_tab>
   11780:	00f607b3          	add	a5,a2,a5
   11784:	0007b783          	ld	a5,0(a5)
   11788:	00f6c6b3          	xor	a3,a3,a5
   1178c:	fc043783          	ld	a5,-64(s0)
   11790:	0107d793          	srli	a5,a5,0x10
   11794:	0ff7f793          	andi	a5,a5,255
   11798:	0007861b          	addiw	a2,a5,0
   1179c:	000217b7          	lui	a5,0x21
   117a0:	20060613          	addi	a2,a2,512
   117a4:	00361613          	slli	a2,a2,0x3
   117a8:	78878793          	addi	a5,a5,1928 # 21788 <ft_tab>
   117ac:	00f607b3          	add	a5,a2,a5
   117b0:	0007b783          	ld	a5,0(a5)
   117b4:	00f6c6b3          	xor	a3,a3,a5
   117b8:	fa843783          	ld	a5,-88(s0)
   117bc:	0187d793          	srli	a5,a5,0x18
   117c0:	0ff7f793          	andi	a5,a5,255
   117c4:	0007861b          	addiw	a2,a5,0
   117c8:	000217b7          	lui	a5,0x21
   117cc:	30060613          	addi	a2,a2,768
   117d0:	00361613          	slli	a2,a2,0x3
   117d4:	78878793          	addi	a5,a5,1928 # 21788 <ft_tab>
   117d8:	00f607b3          	add	a5,a2,a5
   117dc:	0007b783          	ld	a5,0(a5)
   117e0:	00f6c7b3          	xor	a5,a3,a5
   117e4:	00f747b3          	xor	a5,a4,a5
   117e8:	fcf43823          	sd	a5,-48(s0)
   117ec:	fe843783          	ld	a5,-24(s0)
   117f0:	01078793          	addi	a5,a5,16
   117f4:	0007b703          	ld	a4,0(a5)
   117f8:	fb843783          	ld	a5,-72(s0)
   117fc:	0ff7f793          	andi	a5,a5,255
   11800:	0007869b          	addiw	a3,a5,0
   11804:	000217b7          	lui	a5,0x21
   11808:	00369693          	slli	a3,a3,0x3
   1180c:	78878793          	addi	a5,a5,1928 # 21788 <ft_tab>
   11810:	00f687b3          	add	a5,a3,a5
   11814:	0007b683          	ld	a3,0(a5)
   11818:	fc043783          	ld	a5,-64(s0)
   1181c:	0087d793          	srli	a5,a5,0x8
   11820:	0ff7f793          	andi	a5,a5,255
   11824:	0007861b          	addiw	a2,a5,0
   11828:	000217b7          	lui	a5,0x21
   1182c:	10060613          	addi	a2,a2,256
   11830:	00361613          	slli	a2,a2,0x3
   11834:	78878793          	addi	a5,a5,1928 # 21788 <ft_tab>
   11838:	00f607b3          	add	a5,a2,a5
   1183c:	0007b783          	ld	a5,0(a5)
   11840:	00f6c6b3          	xor	a3,a3,a5
   11844:	fa843783          	ld	a5,-88(s0)
   11848:	0107d793          	srli	a5,a5,0x10
   1184c:	0ff7f793          	andi	a5,a5,255
   11850:	0007861b          	addiw	a2,a5,0
   11854:	000217b7          	lui	a5,0x21
   11858:	20060613          	addi	a2,a2,512
   1185c:	00361613          	slli	a2,a2,0x3
   11860:	78878793          	addi	a5,a5,1928 # 21788 <ft_tab>
   11864:	00f607b3          	add	a5,a2,a5
   11868:	0007b783          	ld	a5,0(a5)
   1186c:	00f6c6b3          	xor	a3,a3,a5
   11870:	fb043783          	ld	a5,-80(s0)
   11874:	0187d793          	srli	a5,a5,0x18
   11878:	0ff7f793          	andi	a5,a5,255
   1187c:	0007861b          	addiw	a2,a5,0
   11880:	000217b7          	lui	a5,0x21
   11884:	30060613          	addi	a2,a2,768
   11888:	00361613          	slli	a2,a2,0x3
   1188c:	78878793          	addi	a5,a5,1928 # 21788 <ft_tab>
   11890:	00f607b3          	add	a5,a2,a5
   11894:	0007b783          	ld	a5,0(a5)
   11898:	00f6c7b3          	xor	a5,a3,a5
   1189c:	00f747b3          	xor	a5,a4,a5
   118a0:	fcf43c23          	sd	a5,-40(s0)
   118a4:	fe843783          	ld	a5,-24(s0)
   118a8:	01878793          	addi	a5,a5,24
   118ac:	0007b703          	ld	a4,0(a5)
   118b0:	fc043783          	ld	a5,-64(s0)
   118b4:	0ff7f793          	andi	a5,a5,255
   118b8:	0007869b          	addiw	a3,a5,0
   118bc:	000217b7          	lui	a5,0x21
   118c0:	00369693          	slli	a3,a3,0x3
   118c4:	78878793          	addi	a5,a5,1928 # 21788 <ft_tab>
   118c8:	00f687b3          	add	a5,a3,a5
   118cc:	0007b683          	ld	a3,0(a5)
   118d0:	fa843783          	ld	a5,-88(s0)
   118d4:	0087d793          	srli	a5,a5,0x8
   118d8:	0ff7f793          	andi	a5,a5,255
   118dc:	0007861b          	addiw	a2,a5,0
   118e0:	000217b7          	lui	a5,0x21
   118e4:	10060613          	addi	a2,a2,256
   118e8:	00361613          	slli	a2,a2,0x3
   118ec:	78878793          	addi	a5,a5,1928 # 21788 <ft_tab>
   118f0:	00f607b3          	add	a5,a2,a5
   118f4:	0007b783          	ld	a5,0(a5)
   118f8:	00f6c6b3          	xor	a3,a3,a5
   118fc:	fb043783          	ld	a5,-80(s0)
   11900:	0107d793          	srli	a5,a5,0x10
   11904:	0ff7f793          	andi	a5,a5,255
   11908:	0007861b          	addiw	a2,a5,0
   1190c:	000217b7          	lui	a5,0x21
   11910:	20060613          	addi	a2,a2,512
   11914:	00361613          	slli	a2,a2,0x3
   11918:	78878793          	addi	a5,a5,1928 # 21788 <ft_tab>
   1191c:	00f607b3          	add	a5,a2,a5
   11920:	0007b783          	ld	a5,0(a5)
   11924:	00f6c6b3          	xor	a3,a3,a5
   11928:	fb843783          	ld	a5,-72(s0)
   1192c:	0187d793          	srli	a5,a5,0x18
   11930:	0ff7f793          	andi	a5,a5,255
   11934:	0007861b          	addiw	a2,a5,0
   11938:	000217b7          	lui	a5,0x21
   1193c:	30060613          	addi	a2,a2,768
   11940:	00361613          	slli	a2,a2,0x3
   11944:	78878793          	addi	a5,a5,1928 # 21788 <ft_tab>
   11948:	00f607b3          	add	a5,a2,a5
   1194c:	0007b783          	ld	a5,0(a5)
   11950:	00f6c7b3          	xor	a5,a3,a5
   11954:	00f747b3          	xor	a5,a4,a5
   11958:	fef43023          	sd	a5,-32(s0)
   1195c:	fe843783          	ld	a5,-24(s0)
   11960:	02078793          	addi	a5,a5,32
   11964:	0007b703          	ld	a4,0(a5)
   11968:	fc843783          	ld	a5,-56(s0)
   1196c:	0ff7f793          	andi	a5,a5,255
   11970:	0007869b          	addiw	a3,a5,0
   11974:	000217b7          	lui	a5,0x21
   11978:	00369693          	slli	a3,a3,0x3
   1197c:	78878793          	addi	a5,a5,1928 # 21788 <ft_tab>
   11980:	00f687b3          	add	a5,a3,a5
   11984:	0007b683          	ld	a3,0(a5)
   11988:	fd043783          	ld	a5,-48(s0)
   1198c:	0087d793          	srli	a5,a5,0x8
   11990:	0ff7f793          	andi	a5,a5,255
   11994:	0007861b          	addiw	a2,a5,0
   11998:	000217b7          	lui	a5,0x21
   1199c:	10060613          	addi	a2,a2,256
   119a0:	00361613          	slli	a2,a2,0x3
   119a4:	78878793          	addi	a5,a5,1928 # 21788 <ft_tab>
   119a8:	00f607b3          	add	a5,a2,a5
   119ac:	0007b783          	ld	a5,0(a5)
   119b0:	00f6c6b3          	xor	a3,a3,a5
   119b4:	fd843783          	ld	a5,-40(s0)
   119b8:	0107d793          	srli	a5,a5,0x10
   119bc:	0ff7f793          	andi	a5,a5,255
   119c0:	0007861b          	addiw	a2,a5,0
   119c4:	000217b7          	lui	a5,0x21
   119c8:	20060613          	addi	a2,a2,512
   119cc:	00361613          	slli	a2,a2,0x3
   119d0:	78878793          	addi	a5,a5,1928 # 21788 <ft_tab>
   119d4:	00f607b3          	add	a5,a2,a5
   119d8:	0007b783          	ld	a5,0(a5)
   119dc:	00f6c6b3          	xor	a3,a3,a5
   119e0:	fe043783          	ld	a5,-32(s0)
   119e4:	0187d793          	srli	a5,a5,0x18
   119e8:	0ff7f793          	andi	a5,a5,255
   119ec:	0007861b          	addiw	a2,a5,0
   119f0:	000217b7          	lui	a5,0x21
   119f4:	30060613          	addi	a2,a2,768
   119f8:	00361613          	slli	a2,a2,0x3
   119fc:	78878793          	addi	a5,a5,1928 # 21788 <ft_tab>
   11a00:	00f607b3          	add	a5,a2,a5
   11a04:	0007b783          	ld	a5,0(a5)
   11a08:	00f6c7b3          	xor	a5,a3,a5
   11a0c:	00f747b3          	xor	a5,a4,a5
   11a10:	faf43423          	sd	a5,-88(s0)
   11a14:	fe843783          	ld	a5,-24(s0)
   11a18:	02878793          	addi	a5,a5,40
   11a1c:	0007b703          	ld	a4,0(a5)
   11a20:	fd043783          	ld	a5,-48(s0)
   11a24:	0ff7f793          	andi	a5,a5,255
   11a28:	0007869b          	addiw	a3,a5,0
   11a2c:	000217b7          	lui	a5,0x21
   11a30:	00369693          	slli	a3,a3,0x3
   11a34:	78878793          	addi	a5,a5,1928 # 21788 <ft_tab>
   11a38:	00f687b3          	add	a5,a3,a5
   11a3c:	0007b683          	ld	a3,0(a5)
   11a40:	fd843783          	ld	a5,-40(s0)
   11a44:	0087d793          	srli	a5,a5,0x8
   11a48:	0ff7f793          	andi	a5,a5,255
   11a4c:	0007861b          	addiw	a2,a5,0
   11a50:	000217b7          	lui	a5,0x21
   11a54:	10060613          	addi	a2,a2,256
   11a58:	00361613          	slli	a2,a2,0x3
   11a5c:	78878793          	addi	a5,a5,1928 # 21788 <ft_tab>
   11a60:	00f607b3          	add	a5,a2,a5
   11a64:	0007b783          	ld	a5,0(a5)
   11a68:	00f6c6b3          	xor	a3,a3,a5
   11a6c:	fe043783          	ld	a5,-32(s0)
   11a70:	0107d793          	srli	a5,a5,0x10
   11a74:	0ff7f793          	andi	a5,a5,255
   11a78:	0007861b          	addiw	a2,a5,0
   11a7c:	000217b7          	lui	a5,0x21
   11a80:	20060613          	addi	a2,a2,512
   11a84:	00361613          	slli	a2,a2,0x3
   11a88:	78878793          	addi	a5,a5,1928 # 21788 <ft_tab>
   11a8c:	00f607b3          	add	a5,a2,a5
   11a90:	0007b783          	ld	a5,0(a5)
   11a94:	00f6c6b3          	xor	a3,a3,a5
   11a98:	fc843783          	ld	a5,-56(s0)
   11a9c:	0187d793          	srli	a5,a5,0x18
   11aa0:	0ff7f793          	andi	a5,a5,255
   11aa4:	0007861b          	addiw	a2,a5,0
   11aa8:	000217b7          	lui	a5,0x21
   11aac:	30060613          	addi	a2,a2,768
   11ab0:	00361613          	slli	a2,a2,0x3
   11ab4:	78878793          	addi	a5,a5,1928 # 21788 <ft_tab>
   11ab8:	00f607b3          	add	a5,a2,a5
   11abc:	0007b783          	ld	a5,0(a5)
   11ac0:	00f6c7b3          	xor	a5,a3,a5
   11ac4:	00f747b3          	xor	a5,a4,a5
   11ac8:	faf43823          	sd	a5,-80(s0)
   11acc:	fe843783          	ld	a5,-24(s0)
   11ad0:	03078793          	addi	a5,a5,48
   11ad4:	0007b703          	ld	a4,0(a5)
   11ad8:	fd843783          	ld	a5,-40(s0)
   11adc:	0ff7f793          	andi	a5,a5,255
   11ae0:	0007869b          	addiw	a3,a5,0
   11ae4:	000217b7          	lui	a5,0x21
   11ae8:	00369693          	slli	a3,a3,0x3
   11aec:	78878793          	addi	a5,a5,1928 # 21788 <ft_tab>
   11af0:	00f687b3          	add	a5,a3,a5
   11af4:	0007b683          	ld	a3,0(a5)
   11af8:	fe043783          	ld	a5,-32(s0)
   11afc:	0087d793          	srli	a5,a5,0x8
   11b00:	0ff7f793          	andi	a5,a5,255
   11b04:	0007861b          	addiw	a2,a5,0
   11b08:	000217b7          	lui	a5,0x21
   11b0c:	10060613          	addi	a2,a2,256
   11b10:	00361613          	slli	a2,a2,0x3
   11b14:	78878793          	addi	a5,a5,1928 # 21788 <ft_tab>
   11b18:	00f607b3          	add	a5,a2,a5
   11b1c:	0007b783          	ld	a5,0(a5)
   11b20:	00f6c6b3          	xor	a3,a3,a5
   11b24:	fc843783          	ld	a5,-56(s0)
   11b28:	0107d793          	srli	a5,a5,0x10
   11b2c:	0ff7f793          	andi	a5,a5,255
   11b30:	0007861b          	addiw	a2,a5,0
   11b34:	000217b7          	lui	a5,0x21
   11b38:	20060613          	addi	a2,a2,512
   11b3c:	00361613          	slli	a2,a2,0x3
   11b40:	78878793          	addi	a5,a5,1928 # 21788 <ft_tab>
   11b44:	00f607b3          	add	a5,a2,a5
   11b48:	0007b783          	ld	a5,0(a5)
   11b4c:	00f6c6b3          	xor	a3,a3,a5
   11b50:	fd043783          	ld	a5,-48(s0)
   11b54:	0187d793          	srli	a5,a5,0x18
   11b58:	0ff7f793          	andi	a5,a5,255
   11b5c:	0007861b          	addiw	a2,a5,0
   11b60:	000217b7          	lui	a5,0x21
   11b64:	30060613          	addi	a2,a2,768
   11b68:	00361613          	slli	a2,a2,0x3
   11b6c:	78878793          	addi	a5,a5,1928 # 21788 <ft_tab>
   11b70:	00f607b3          	add	a5,a2,a5
   11b74:	0007b783          	ld	a5,0(a5)
   11b78:	00f6c7b3          	xor	a5,a3,a5
   11b7c:	00f747b3          	xor	a5,a4,a5
   11b80:	faf43c23          	sd	a5,-72(s0)
   11b84:	fe843783          	ld	a5,-24(s0)
   11b88:	03878793          	addi	a5,a5,56
   11b8c:	0007b703          	ld	a4,0(a5)
   11b90:	fe043783          	ld	a5,-32(s0)
   11b94:	0ff7f793          	andi	a5,a5,255
   11b98:	0007869b          	addiw	a3,a5,0
   11b9c:	000217b7          	lui	a5,0x21
   11ba0:	00369693          	slli	a3,a3,0x3
   11ba4:	78878793          	addi	a5,a5,1928 # 21788 <ft_tab>
   11ba8:	00f687b3          	add	a5,a3,a5
   11bac:	0007b683          	ld	a3,0(a5)
   11bb0:	fc843783          	ld	a5,-56(s0)
   11bb4:	0087d793          	srli	a5,a5,0x8
   11bb8:	0ff7f793          	andi	a5,a5,255
   11bbc:	0007861b          	addiw	a2,a5,0
   11bc0:	000217b7          	lui	a5,0x21
   11bc4:	10060613          	addi	a2,a2,256
   11bc8:	00361613          	slli	a2,a2,0x3
   11bcc:	78878793          	addi	a5,a5,1928 # 21788 <ft_tab>
   11bd0:	00f607b3          	add	a5,a2,a5
   11bd4:	0007b783          	ld	a5,0(a5)
   11bd8:	00f6c6b3          	xor	a3,a3,a5
   11bdc:	fd043783          	ld	a5,-48(s0)
   11be0:	0107d793          	srli	a5,a5,0x10
   11be4:	0ff7f793          	andi	a5,a5,255
   11be8:	0007861b          	addiw	a2,a5,0
   11bec:	000217b7          	lui	a5,0x21
   11bf0:	20060613          	addi	a2,a2,512
   11bf4:	00361613          	slli	a2,a2,0x3
   11bf8:	78878793          	addi	a5,a5,1928 # 21788 <ft_tab>
   11bfc:	00f607b3          	add	a5,a2,a5
   11c00:	0007b783          	ld	a5,0(a5)
   11c04:	00f6c6b3          	xor	a3,a3,a5
   11c08:	fd843783          	ld	a5,-40(s0)
   11c0c:	0187d793          	srli	a5,a5,0x18
   11c10:	0ff7f793          	andi	a5,a5,255
   11c14:	0007861b          	addiw	a2,a5,0
   11c18:	000217b7          	lui	a5,0x21
   11c1c:	30060613          	addi	a2,a2,768
   11c20:	00361613          	slli	a2,a2,0x3
   11c24:	78878793          	addi	a5,a5,1928 # 21788 <ft_tab>
   11c28:	00f607b3          	add	a5,a2,a5
   11c2c:	0007b783          	ld	a5,0(a5)
   11c30:	00f6c7b3          	xor	a5,a3,a5
   11c34:	00f747b3          	xor	a5,a4,a5
   11c38:	fcf43023          	sd	a5,-64(s0)
   11c3c:	fe843783          	ld	a5,-24(s0)
   11c40:	04078793          	addi	a5,a5,64
   11c44:	fef43423          	sd	a5,-24(s0)
   11c48:	0040006f          	jal	zero,11c4c <encrypt+0xca4>
   11c4c:	00026977          	chk	s2,0x26
   11c50:	fe843783          	ld	a5,-24(s0)
   11c54:	0007b703          	ld	a4,0(a5)
   11c58:	fa843783          	ld	a5,-88(s0)
   11c5c:	0ff7f793          	andi	a5,a5,255
   11c60:	0007869b          	addiw	a3,a5,0
   11c64:	000217b7          	lui	a5,0x21
   11c68:	00369693          	slli	a3,a3,0x3
   11c6c:	78878793          	addi	a5,a5,1928 # 21788 <ft_tab>
   11c70:	00f687b3          	add	a5,a3,a5
   11c74:	0007b683          	ld	a3,0(a5)
   11c78:	fb043783          	ld	a5,-80(s0)
   11c7c:	0087d793          	srli	a5,a5,0x8
   11c80:	0ff7f793          	andi	a5,a5,255
   11c84:	0007861b          	addiw	a2,a5,0
   11c88:	000217b7          	lui	a5,0x21
   11c8c:	10060613          	addi	a2,a2,256
   11c90:	00361613          	slli	a2,a2,0x3
   11c94:	78878793          	addi	a5,a5,1928 # 21788 <ft_tab>
   11c98:	00f607b3          	add	a5,a2,a5
   11c9c:	0007b783          	ld	a5,0(a5)
   11ca0:	00f6c6b3          	xor	a3,a3,a5
   11ca4:	fb843783          	ld	a5,-72(s0)
   11ca8:	0107d793          	srli	a5,a5,0x10
   11cac:	0ff7f793          	andi	a5,a5,255
   11cb0:	0007861b          	addiw	a2,a5,0
   11cb4:	000217b7          	lui	a5,0x21
   11cb8:	20060613          	addi	a2,a2,512
   11cbc:	00361613          	slli	a2,a2,0x3
   11cc0:	78878793          	addi	a5,a5,1928 # 21788 <ft_tab>
   11cc4:	00f607b3          	add	a5,a2,a5
   11cc8:	0007b783          	ld	a5,0(a5)
   11ccc:	00f6c6b3          	xor	a3,a3,a5
   11cd0:	fc043783          	ld	a5,-64(s0)
   11cd4:	0187d793          	srli	a5,a5,0x18
   11cd8:	0ff7f793          	andi	a5,a5,255
   11cdc:	0007861b          	addiw	a2,a5,0
   11ce0:	000217b7          	lui	a5,0x21
   11ce4:	30060613          	addi	a2,a2,768
   11ce8:	00361613          	slli	a2,a2,0x3
   11cec:	78878793          	addi	a5,a5,1928 # 21788 <ft_tab>
   11cf0:	00f607b3          	add	a5,a2,a5
   11cf4:	0007b783          	ld	a5,0(a5)
   11cf8:	00f6c7b3          	xor	a5,a3,a5
   11cfc:	00f747b3          	xor	a5,a4,a5
   11d00:	fcf43423          	sd	a5,-56(s0)
   11d04:	fe843783          	ld	a5,-24(s0)
   11d08:	00878793          	addi	a5,a5,8
   11d0c:	0007b703          	ld	a4,0(a5)
   11d10:	fb043783          	ld	a5,-80(s0)
   11d14:	0ff7f793          	andi	a5,a5,255
   11d18:	0007869b          	addiw	a3,a5,0
   11d1c:	000217b7          	lui	a5,0x21
   11d20:	00369693          	slli	a3,a3,0x3
   11d24:	78878793          	addi	a5,a5,1928 # 21788 <ft_tab>
   11d28:	00f687b3          	add	a5,a3,a5
   11d2c:	0007b683          	ld	a3,0(a5)
   11d30:	fb843783          	ld	a5,-72(s0)
   11d34:	0087d793          	srli	a5,a5,0x8
   11d38:	0ff7f793          	andi	a5,a5,255
   11d3c:	0007861b          	addiw	a2,a5,0
   11d40:	000217b7          	lui	a5,0x21
   11d44:	10060613          	addi	a2,a2,256
   11d48:	00361613          	slli	a2,a2,0x3
   11d4c:	78878793          	addi	a5,a5,1928 # 21788 <ft_tab>
   11d50:	00f607b3          	add	a5,a2,a5
   11d54:	0007b783          	ld	a5,0(a5)
   11d58:	00f6c6b3          	xor	a3,a3,a5
   11d5c:	fc043783          	ld	a5,-64(s0)
   11d60:	0107d793          	srli	a5,a5,0x10
   11d64:	0ff7f793          	andi	a5,a5,255
   11d68:	0007861b          	addiw	a2,a5,0
   11d6c:	000217b7          	lui	a5,0x21
   11d70:	20060613          	addi	a2,a2,512
   11d74:	00361613          	slli	a2,a2,0x3
   11d78:	78878793          	addi	a5,a5,1928 # 21788 <ft_tab>
   11d7c:	00f607b3          	add	a5,a2,a5
   11d80:	0007b783          	ld	a5,0(a5)
   11d84:	00f6c6b3          	xor	a3,a3,a5
   11d88:	fa843783          	ld	a5,-88(s0)
   11d8c:	0187d793          	srli	a5,a5,0x18
   11d90:	0ff7f793          	andi	a5,a5,255
   11d94:	0007861b          	addiw	a2,a5,0
   11d98:	000217b7          	lui	a5,0x21
   11d9c:	30060613          	addi	a2,a2,768
   11da0:	00361613          	slli	a2,a2,0x3
   11da4:	78878793          	addi	a5,a5,1928 # 21788 <ft_tab>
   11da8:	00f607b3          	add	a5,a2,a5
   11dac:	0007b783          	ld	a5,0(a5)
   11db0:	00f6c7b3          	xor	a5,a3,a5
   11db4:	00f747b3          	xor	a5,a4,a5
   11db8:	fcf43823          	sd	a5,-48(s0)
   11dbc:	fe843783          	ld	a5,-24(s0)
   11dc0:	01078793          	addi	a5,a5,16
   11dc4:	0007b703          	ld	a4,0(a5)
   11dc8:	fb843783          	ld	a5,-72(s0)
   11dcc:	0ff7f793          	andi	a5,a5,255
   11dd0:	0007869b          	addiw	a3,a5,0
   11dd4:	000217b7          	lui	a5,0x21
   11dd8:	00369693          	slli	a3,a3,0x3
   11ddc:	78878793          	addi	a5,a5,1928 # 21788 <ft_tab>
   11de0:	00f687b3          	add	a5,a3,a5
   11de4:	0007b683          	ld	a3,0(a5)
   11de8:	fc043783          	ld	a5,-64(s0)
   11dec:	0087d793          	srli	a5,a5,0x8
   11df0:	0ff7f793          	andi	a5,a5,255
   11df4:	0007861b          	addiw	a2,a5,0
   11df8:	000217b7          	lui	a5,0x21
   11dfc:	10060613          	addi	a2,a2,256
   11e00:	00361613          	slli	a2,a2,0x3
   11e04:	78878793          	addi	a5,a5,1928 # 21788 <ft_tab>
   11e08:	00f607b3          	add	a5,a2,a5
   11e0c:	0007b783          	ld	a5,0(a5)
   11e10:	00f6c6b3          	xor	a3,a3,a5
   11e14:	fa843783          	ld	a5,-88(s0)
   11e18:	0107d793          	srli	a5,a5,0x10
   11e1c:	0ff7f793          	andi	a5,a5,255
   11e20:	0007861b          	addiw	a2,a5,0
   11e24:	000217b7          	lui	a5,0x21
   11e28:	20060613          	addi	a2,a2,512
   11e2c:	00361613          	slli	a2,a2,0x3
   11e30:	78878793          	addi	a5,a5,1928 # 21788 <ft_tab>
   11e34:	00f607b3          	add	a5,a2,a5
   11e38:	0007b783          	ld	a5,0(a5)
   11e3c:	00f6c6b3          	xor	a3,a3,a5
   11e40:	fb043783          	ld	a5,-80(s0)
   11e44:	0187d793          	srli	a5,a5,0x18
   11e48:	0ff7f793          	andi	a5,a5,255
   11e4c:	0007861b          	addiw	a2,a5,0
   11e50:	000217b7          	lui	a5,0x21
   11e54:	30060613          	addi	a2,a2,768
   11e58:	00361613          	slli	a2,a2,0x3
   11e5c:	78878793          	addi	a5,a5,1928 # 21788 <ft_tab>
   11e60:	00f607b3          	add	a5,a2,a5
   11e64:	0007b783          	ld	a5,0(a5)
   11e68:	00f6c7b3          	xor	a5,a3,a5
   11e6c:	00f747b3          	xor	a5,a4,a5
   11e70:	fcf43c23          	sd	a5,-40(s0)
   11e74:	fe843783          	ld	a5,-24(s0)
   11e78:	01878793          	addi	a5,a5,24
   11e7c:	0007b703          	ld	a4,0(a5)
   11e80:	fc043783          	ld	a5,-64(s0)
   11e84:	0ff7f793          	andi	a5,a5,255
   11e88:	0007869b          	addiw	a3,a5,0
   11e8c:	000217b7          	lui	a5,0x21
   11e90:	00369693          	slli	a3,a3,0x3
   11e94:	78878793          	addi	a5,a5,1928 # 21788 <ft_tab>
   11e98:	00f687b3          	add	a5,a3,a5
   11e9c:	0007b683          	ld	a3,0(a5)
   11ea0:	fa843783          	ld	a5,-88(s0)
   11ea4:	0087d793          	srli	a5,a5,0x8
   11ea8:	0ff7f793          	andi	a5,a5,255
   11eac:	0007861b          	addiw	a2,a5,0
   11eb0:	000217b7          	lui	a5,0x21
   11eb4:	10060613          	addi	a2,a2,256
   11eb8:	00361613          	slli	a2,a2,0x3
   11ebc:	78878793          	addi	a5,a5,1928 # 21788 <ft_tab>
   11ec0:	00f607b3          	add	a5,a2,a5
   11ec4:	0007b783          	ld	a5,0(a5)
   11ec8:	00f6c6b3          	xor	a3,a3,a5
   11ecc:	fb043783          	ld	a5,-80(s0)
   11ed0:	0107d793          	srli	a5,a5,0x10
   11ed4:	0ff7f793          	andi	a5,a5,255
   11ed8:	0007861b          	addiw	a2,a5,0
   11edc:	000217b7          	lui	a5,0x21
   11ee0:	20060613          	addi	a2,a2,512
   11ee4:	00361613          	slli	a2,a2,0x3
   11ee8:	78878793          	addi	a5,a5,1928 # 21788 <ft_tab>
   11eec:	00f607b3          	add	a5,a2,a5
   11ef0:	0007b783          	ld	a5,0(a5)
   11ef4:	00f6c6b3          	xor	a3,a3,a5
   11ef8:	fb843783          	ld	a5,-72(s0)
   11efc:	0187d793          	srli	a5,a5,0x18
   11f00:	0ff7f793          	andi	a5,a5,255
   11f04:	0007861b          	addiw	a2,a5,0
   11f08:	000217b7          	lui	a5,0x21
   11f0c:	30060613          	addi	a2,a2,768
   11f10:	00361613          	slli	a2,a2,0x3
   11f14:	78878793          	addi	a5,a5,1928 # 21788 <ft_tab>
   11f18:	00f607b3          	add	a5,a2,a5
   11f1c:	0007b783          	ld	a5,0(a5)
   11f20:	00f6c7b3          	xor	a5,a3,a5
   11f24:	00f747b3          	xor	a5,a4,a5
   11f28:	fef43023          	sd	a5,-32(s0)
   11f2c:	fe843783          	ld	a5,-24(s0)
   11f30:	02078793          	addi	a5,a5,32
   11f34:	0007b703          	ld	a4,0(a5)
   11f38:	fc843783          	ld	a5,-56(s0)
   11f3c:	0ff7f793          	andi	a5,a5,255
   11f40:	0007869b          	addiw	a3,a5,0
   11f44:	000217b7          	lui	a5,0x21
   11f48:	00369693          	slli	a3,a3,0x3
   11f4c:	78878793          	addi	a5,a5,1928 # 21788 <ft_tab>
   11f50:	00f687b3          	add	a5,a3,a5
   11f54:	0007b683          	ld	a3,0(a5)
   11f58:	fd043783          	ld	a5,-48(s0)
   11f5c:	0087d793          	srli	a5,a5,0x8
   11f60:	0ff7f793          	andi	a5,a5,255
   11f64:	0007861b          	addiw	a2,a5,0
   11f68:	000217b7          	lui	a5,0x21
   11f6c:	10060613          	addi	a2,a2,256
   11f70:	00361613          	slli	a2,a2,0x3
   11f74:	78878793          	addi	a5,a5,1928 # 21788 <ft_tab>
   11f78:	00f607b3          	add	a5,a2,a5
   11f7c:	0007b783          	ld	a5,0(a5)
   11f80:	00f6c6b3          	xor	a3,a3,a5
   11f84:	fd843783          	ld	a5,-40(s0)
   11f88:	0107d793          	srli	a5,a5,0x10
   11f8c:	0ff7f793          	andi	a5,a5,255
   11f90:	0007861b          	addiw	a2,a5,0
   11f94:	000217b7          	lui	a5,0x21
   11f98:	20060613          	addi	a2,a2,512
   11f9c:	00361613          	slli	a2,a2,0x3
   11fa0:	78878793          	addi	a5,a5,1928 # 21788 <ft_tab>
   11fa4:	00f607b3          	add	a5,a2,a5
   11fa8:	0007b783          	ld	a5,0(a5)
   11fac:	00f6c6b3          	xor	a3,a3,a5
   11fb0:	fe043783          	ld	a5,-32(s0)
   11fb4:	0187d793          	srli	a5,a5,0x18
   11fb8:	0ff7f793          	andi	a5,a5,255
   11fbc:	0007861b          	addiw	a2,a5,0
   11fc0:	000217b7          	lui	a5,0x21
   11fc4:	30060613          	addi	a2,a2,768
   11fc8:	00361613          	slli	a2,a2,0x3
   11fcc:	78878793          	addi	a5,a5,1928 # 21788 <ft_tab>
   11fd0:	00f607b3          	add	a5,a2,a5
   11fd4:	0007b783          	ld	a5,0(a5)
   11fd8:	00f6c7b3          	xor	a5,a3,a5
   11fdc:	00f747b3          	xor	a5,a4,a5
   11fe0:	faf43423          	sd	a5,-88(s0)
   11fe4:	fe843783          	ld	a5,-24(s0)
   11fe8:	02878793          	addi	a5,a5,40
   11fec:	0007b703          	ld	a4,0(a5)
   11ff0:	fd043783          	ld	a5,-48(s0)
   11ff4:	0ff7f793          	andi	a5,a5,255
   11ff8:	0007869b          	addiw	a3,a5,0
   11ffc:	000217b7          	lui	a5,0x21
   12000:	00369693          	slli	a3,a3,0x3
   12004:	78878793          	addi	a5,a5,1928 # 21788 <ft_tab>
   12008:	00f687b3          	add	a5,a3,a5
   1200c:	0007b683          	ld	a3,0(a5)
   12010:	fd843783          	ld	a5,-40(s0)
   12014:	0087d793          	srli	a5,a5,0x8
   12018:	0ff7f793          	andi	a5,a5,255
   1201c:	0007861b          	addiw	a2,a5,0
   12020:	000217b7          	lui	a5,0x21
   12024:	10060613          	addi	a2,a2,256
   12028:	00361613          	slli	a2,a2,0x3
   1202c:	78878793          	addi	a5,a5,1928 # 21788 <ft_tab>
   12030:	00f607b3          	add	a5,a2,a5
   12034:	0007b783          	ld	a5,0(a5)
   12038:	00f6c6b3          	xor	a3,a3,a5
   1203c:	fe043783          	ld	a5,-32(s0)
   12040:	0107d793          	srli	a5,a5,0x10
   12044:	0ff7f793          	andi	a5,a5,255
   12048:	0007861b          	addiw	a2,a5,0
   1204c:	000217b7          	lui	a5,0x21
   12050:	20060613          	addi	a2,a2,512
   12054:	00361613          	slli	a2,a2,0x3
   12058:	78878793          	addi	a5,a5,1928 # 21788 <ft_tab>
   1205c:	00f607b3          	add	a5,a2,a5
   12060:	0007b783          	ld	a5,0(a5)
   12064:	00f6c6b3          	xor	a3,a3,a5
   12068:	fc843783          	ld	a5,-56(s0)
   1206c:	0187d793          	srli	a5,a5,0x18
   12070:	0ff7f793          	andi	a5,a5,255
   12074:	0007861b          	addiw	a2,a5,0
   12078:	000217b7          	lui	a5,0x21
   1207c:	30060613          	addi	a2,a2,768
   12080:	00361613          	slli	a2,a2,0x3
   12084:	78878793          	addi	a5,a5,1928 # 21788 <ft_tab>
   12088:	00f607b3          	add	a5,a2,a5
   1208c:	0007b783          	ld	a5,0(a5)
   12090:	00f6c7b3          	xor	a5,a3,a5
   12094:	00f747b3          	xor	a5,a4,a5
   12098:	faf43823          	sd	a5,-80(s0)
   1209c:	fe843783          	ld	a5,-24(s0)
   120a0:	03078793          	addi	a5,a5,48
   120a4:	0007b703          	ld	a4,0(a5)
   120a8:	fd843783          	ld	a5,-40(s0)
   120ac:	0ff7f793          	andi	a5,a5,255
   120b0:	0007869b          	addiw	a3,a5,0
   120b4:	000217b7          	lui	a5,0x21
   120b8:	00369693          	slli	a3,a3,0x3
   120bc:	78878793          	addi	a5,a5,1928 # 21788 <ft_tab>
   120c0:	00f687b3          	add	a5,a3,a5
   120c4:	0007b683          	ld	a3,0(a5)
   120c8:	fe043783          	ld	a5,-32(s0)
   120cc:	0087d793          	srli	a5,a5,0x8
   120d0:	0ff7f793          	andi	a5,a5,255
   120d4:	0007861b          	addiw	a2,a5,0
   120d8:	000217b7          	lui	a5,0x21
   120dc:	10060613          	addi	a2,a2,256
   120e0:	00361613          	slli	a2,a2,0x3
   120e4:	78878793          	addi	a5,a5,1928 # 21788 <ft_tab>
   120e8:	00f607b3          	add	a5,a2,a5
   120ec:	0007b783          	ld	a5,0(a5)
   120f0:	00f6c6b3          	xor	a3,a3,a5
   120f4:	fc843783          	ld	a5,-56(s0)
   120f8:	0107d793          	srli	a5,a5,0x10
   120fc:	0ff7f793          	andi	a5,a5,255
   12100:	0007861b          	addiw	a2,a5,0
   12104:	000217b7          	lui	a5,0x21
   12108:	20060613          	addi	a2,a2,512
   1210c:	00361613          	slli	a2,a2,0x3
   12110:	78878793          	addi	a5,a5,1928 # 21788 <ft_tab>
   12114:	00f607b3          	add	a5,a2,a5
   12118:	0007b783          	ld	a5,0(a5)
   1211c:	00f6c6b3          	xor	a3,a3,a5
   12120:	fd043783          	ld	a5,-48(s0)
   12124:	0187d793          	srli	a5,a5,0x18
   12128:	0ff7f793          	andi	a5,a5,255
   1212c:	0007861b          	addiw	a2,a5,0
   12130:	000217b7          	lui	a5,0x21
   12134:	30060613          	addi	a2,a2,768
   12138:	00361613          	slli	a2,a2,0x3
   1213c:	78878793          	addi	a5,a5,1928 # 21788 <ft_tab>
   12140:	00f607b3          	add	a5,a2,a5
   12144:	0007b783          	ld	a5,0(a5)
   12148:	00f6c7b3          	xor	a5,a3,a5
   1214c:	00f747b3          	xor	a5,a4,a5
   12150:	faf43c23          	sd	a5,-72(s0)
   12154:	fe843783          	ld	a5,-24(s0)
   12158:	03878793          	addi	a5,a5,56
   1215c:	0007b703          	ld	a4,0(a5)
   12160:	fe043783          	ld	a5,-32(s0)
   12164:	0ff7f793          	andi	a5,a5,255
   12168:	0007869b          	addiw	a3,a5,0
   1216c:	000217b7          	lui	a5,0x21
   12170:	00369693          	slli	a3,a3,0x3
   12174:	78878793          	addi	a5,a5,1928 # 21788 <ft_tab>
   12178:	00f687b3          	add	a5,a3,a5
   1217c:	0007b683          	ld	a3,0(a5)
   12180:	fc843783          	ld	a5,-56(s0)
   12184:	0087d793          	srli	a5,a5,0x8
   12188:	0ff7f793          	andi	a5,a5,255
   1218c:	0007861b          	addiw	a2,a5,0
   12190:	000217b7          	lui	a5,0x21
   12194:	10060613          	addi	a2,a2,256
   12198:	00361613          	slli	a2,a2,0x3
   1219c:	78878793          	addi	a5,a5,1928 # 21788 <ft_tab>
   121a0:	00f607b3          	add	a5,a2,a5
   121a4:	0007b783          	ld	a5,0(a5)
   121a8:	00f6c6b3          	xor	a3,a3,a5
   121ac:	fd043783          	ld	a5,-48(s0)
   121b0:	0107d793          	srli	a5,a5,0x10
   121b4:	0ff7f793          	andi	a5,a5,255
   121b8:	0007861b          	addiw	a2,a5,0
   121bc:	000217b7          	lui	a5,0x21
   121c0:	20060613          	addi	a2,a2,512
   121c4:	00361613          	slli	a2,a2,0x3
   121c8:	78878793          	addi	a5,a5,1928 # 21788 <ft_tab>
   121cc:	00f607b3          	add	a5,a2,a5
   121d0:	0007b783          	ld	a5,0(a5)
   121d4:	00f6c6b3          	xor	a3,a3,a5
   121d8:	fd843783          	ld	a5,-40(s0)
   121dc:	0187d793          	srli	a5,a5,0x18
   121e0:	0ff7f793          	andi	a5,a5,255
   121e4:	0007861b          	addiw	a2,a5,0
   121e8:	000217b7          	lui	a5,0x21
   121ec:	30060613          	addi	a2,a2,768
   121f0:	00361613          	slli	a2,a2,0x3
   121f4:	78878793          	addi	a5,a5,1928 # 21788 <ft_tab>
   121f8:	00f607b3          	add	a5,a2,a5
   121fc:	0007b783          	ld	a5,0(a5)
   12200:	00f6c7b3          	xor	a5,a3,a5
   12204:	00f747b3          	xor	a5,a4,a5
   12208:	fcf43023          	sd	a5,-64(s0)
   1220c:	fe843783          	ld	a5,-24(s0)
   12210:	04078793          	addi	a5,a5,64
   12214:	0007b703          	ld	a4,0(a5)
   12218:	fa843783          	ld	a5,-88(s0)
   1221c:	0ff7f793          	andi	a5,a5,255
   12220:	0007869b          	addiw	a3,a5,0
   12224:	000217b7          	lui	a5,0x21
   12228:	00369693          	slli	a3,a3,0x3
   1222c:	78878793          	addi	a5,a5,1928 # 21788 <ft_tab>
   12230:	00f687b3          	add	a5,a3,a5
   12234:	0007b683          	ld	a3,0(a5)
   12238:	fb043783          	ld	a5,-80(s0)
   1223c:	0087d793          	srli	a5,a5,0x8
   12240:	0ff7f793          	andi	a5,a5,255
   12244:	0007861b          	addiw	a2,a5,0
   12248:	000217b7          	lui	a5,0x21
   1224c:	10060613          	addi	a2,a2,256
   12250:	00361613          	slli	a2,a2,0x3
   12254:	78878793          	addi	a5,a5,1928 # 21788 <ft_tab>
   12258:	00f607b3          	add	a5,a2,a5
   1225c:	0007b783          	ld	a5,0(a5)
   12260:	00f6c6b3          	xor	a3,a3,a5
   12264:	fb843783          	ld	a5,-72(s0)
   12268:	0107d793          	srli	a5,a5,0x10
   1226c:	0ff7f793          	andi	a5,a5,255
   12270:	0007861b          	addiw	a2,a5,0
   12274:	000217b7          	lui	a5,0x21
   12278:	20060613          	addi	a2,a2,512
   1227c:	00361613          	slli	a2,a2,0x3
   12280:	78878793          	addi	a5,a5,1928 # 21788 <ft_tab>
   12284:	00f607b3          	add	a5,a2,a5
   12288:	0007b783          	ld	a5,0(a5)
   1228c:	00f6c6b3          	xor	a3,a3,a5
   12290:	fc043783          	ld	a5,-64(s0)
   12294:	0187d793          	srli	a5,a5,0x18
   12298:	0ff7f793          	andi	a5,a5,255
   1229c:	0007861b          	addiw	a2,a5,0
   122a0:	000217b7          	lui	a5,0x21
   122a4:	30060613          	addi	a2,a2,768
   122a8:	00361613          	slli	a2,a2,0x3
   122ac:	78878793          	addi	a5,a5,1928 # 21788 <ft_tab>
   122b0:	00f607b3          	add	a5,a2,a5
   122b4:	0007b783          	ld	a5,0(a5)
   122b8:	00f6c7b3          	xor	a5,a3,a5
   122bc:	00f747b3          	xor	a5,a4,a5
   122c0:	fcf43423          	sd	a5,-56(s0)
   122c4:	fe843783          	ld	a5,-24(s0)
   122c8:	04878793          	addi	a5,a5,72
   122cc:	0007b703          	ld	a4,0(a5)
   122d0:	fb043783          	ld	a5,-80(s0)
   122d4:	0ff7f793          	andi	a5,a5,255
   122d8:	0007869b          	addiw	a3,a5,0
   122dc:	000217b7          	lui	a5,0x21
   122e0:	00369693          	slli	a3,a3,0x3
   122e4:	78878793          	addi	a5,a5,1928 # 21788 <ft_tab>
   122e8:	00f687b3          	add	a5,a3,a5
   122ec:	0007b683          	ld	a3,0(a5)
   122f0:	fb843783          	ld	a5,-72(s0)
   122f4:	0087d793          	srli	a5,a5,0x8
   122f8:	0ff7f793          	andi	a5,a5,255
   122fc:	0007861b          	addiw	a2,a5,0
   12300:	000217b7          	lui	a5,0x21
   12304:	10060613          	addi	a2,a2,256
   12308:	00361613          	slli	a2,a2,0x3
   1230c:	78878793          	addi	a5,a5,1928 # 21788 <ft_tab>
   12310:	00f607b3          	add	a5,a2,a5
   12314:	0007b783          	ld	a5,0(a5)
   12318:	00f6c6b3          	xor	a3,a3,a5
   1231c:	fc043783          	ld	a5,-64(s0)
   12320:	0107d793          	srli	a5,a5,0x10
   12324:	0ff7f793          	andi	a5,a5,255
   12328:	0007861b          	addiw	a2,a5,0
   1232c:	000217b7          	lui	a5,0x21
   12330:	20060613          	addi	a2,a2,512
   12334:	00361613          	slli	a2,a2,0x3
   12338:	78878793          	addi	a5,a5,1928 # 21788 <ft_tab>
   1233c:	00f607b3          	add	a5,a2,a5
   12340:	0007b783          	ld	a5,0(a5)
   12344:	00f6c6b3          	xor	a3,a3,a5
   12348:	fa843783          	ld	a5,-88(s0)
   1234c:	0187d793          	srli	a5,a5,0x18
   12350:	0ff7f793          	andi	a5,a5,255
   12354:	0007861b          	addiw	a2,a5,0
   12358:	000217b7          	lui	a5,0x21
   1235c:	30060613          	addi	a2,a2,768
   12360:	00361613          	slli	a2,a2,0x3
   12364:	78878793          	addi	a5,a5,1928 # 21788 <ft_tab>
   12368:	00f607b3          	add	a5,a2,a5
   1236c:	0007b783          	ld	a5,0(a5)
   12370:	00f6c7b3          	xor	a5,a3,a5
   12374:	00f747b3          	xor	a5,a4,a5
   12378:	fcf43823          	sd	a5,-48(s0)
   1237c:	fe843783          	ld	a5,-24(s0)
   12380:	05078793          	addi	a5,a5,80
   12384:	0007b703          	ld	a4,0(a5)
   12388:	fb843783          	ld	a5,-72(s0)
   1238c:	0ff7f793          	andi	a5,a5,255
   12390:	0007869b          	addiw	a3,a5,0
   12394:	000217b7          	lui	a5,0x21
   12398:	00369693          	slli	a3,a3,0x3
   1239c:	78878793          	addi	a5,a5,1928 # 21788 <ft_tab>
   123a0:	00f687b3          	add	a5,a3,a5
   123a4:	0007b683          	ld	a3,0(a5)
   123a8:	fc043783          	ld	a5,-64(s0)
   123ac:	0087d793          	srli	a5,a5,0x8
   123b0:	0ff7f793          	andi	a5,a5,255
   123b4:	0007861b          	addiw	a2,a5,0
   123b8:	000217b7          	lui	a5,0x21
   123bc:	10060613          	addi	a2,a2,256
   123c0:	00361613          	slli	a2,a2,0x3
   123c4:	78878793          	addi	a5,a5,1928 # 21788 <ft_tab>
   123c8:	00f607b3          	add	a5,a2,a5
   123cc:	0007b783          	ld	a5,0(a5)
   123d0:	00f6c6b3          	xor	a3,a3,a5
   123d4:	fa843783          	ld	a5,-88(s0)
   123d8:	0107d793          	srli	a5,a5,0x10
   123dc:	0ff7f793          	andi	a5,a5,255
   123e0:	0007861b          	addiw	a2,a5,0
   123e4:	000217b7          	lui	a5,0x21
   123e8:	20060613          	addi	a2,a2,512
   123ec:	00361613          	slli	a2,a2,0x3
   123f0:	78878793          	addi	a5,a5,1928 # 21788 <ft_tab>
   123f4:	00f607b3          	add	a5,a2,a5
   123f8:	0007b783          	ld	a5,0(a5)
   123fc:	00f6c6b3          	xor	a3,a3,a5
   12400:	fb043783          	ld	a5,-80(s0)
   12404:	0187d793          	srli	a5,a5,0x18
   12408:	0ff7f793          	andi	a5,a5,255
   1240c:	0007861b          	addiw	a2,a5,0
   12410:	000217b7          	lui	a5,0x21
   12414:	30060613          	addi	a2,a2,768
   12418:	00361613          	slli	a2,a2,0x3
   1241c:	78878793          	addi	a5,a5,1928 # 21788 <ft_tab>
   12420:	00f607b3          	add	a5,a2,a5
   12424:	0007b783          	ld	a5,0(a5)
   12428:	00f6c7b3          	xor	a5,a3,a5
   1242c:	00f747b3          	xor	a5,a4,a5
   12430:	fcf43c23          	sd	a5,-40(s0)
   12434:	fe843783          	ld	a5,-24(s0)
   12438:	05878793          	addi	a5,a5,88
   1243c:	0007b703          	ld	a4,0(a5)
   12440:	fc043783          	ld	a5,-64(s0)
   12444:	0ff7f793          	andi	a5,a5,255
   12448:	0007869b          	addiw	a3,a5,0
   1244c:	000217b7          	lui	a5,0x21
   12450:	00369693          	slli	a3,a3,0x3
   12454:	78878793          	addi	a5,a5,1928 # 21788 <ft_tab>
   12458:	00f687b3          	add	a5,a3,a5
   1245c:	0007b683          	ld	a3,0(a5)
   12460:	fa843783          	ld	a5,-88(s0)
   12464:	0087d793          	srli	a5,a5,0x8
   12468:	0ff7f793          	andi	a5,a5,255
   1246c:	0007861b          	addiw	a2,a5,0
   12470:	000217b7          	lui	a5,0x21
   12474:	10060613          	addi	a2,a2,256
   12478:	00361613          	slli	a2,a2,0x3
   1247c:	78878793          	addi	a5,a5,1928 # 21788 <ft_tab>
   12480:	00f607b3          	add	a5,a2,a5
   12484:	0007b783          	ld	a5,0(a5)
   12488:	00f6c6b3          	xor	a3,a3,a5
   1248c:	fb043783          	ld	a5,-80(s0)
   12490:	0107d793          	srli	a5,a5,0x10
   12494:	0ff7f793          	andi	a5,a5,255
   12498:	0007861b          	addiw	a2,a5,0
   1249c:	000217b7          	lui	a5,0x21
   124a0:	20060613          	addi	a2,a2,512
   124a4:	00361613          	slli	a2,a2,0x3
   124a8:	78878793          	addi	a5,a5,1928 # 21788 <ft_tab>
   124ac:	00f607b3          	add	a5,a2,a5
   124b0:	0007b783          	ld	a5,0(a5)
   124b4:	00f6c6b3          	xor	a3,a3,a5
   124b8:	fb843783          	ld	a5,-72(s0)
   124bc:	0187d793          	srli	a5,a5,0x18
   124c0:	0ff7f793          	andi	a5,a5,255
   124c4:	0007861b          	addiw	a2,a5,0
   124c8:	000217b7          	lui	a5,0x21
   124cc:	30060613          	addi	a2,a2,768
   124d0:	00361613          	slli	a2,a2,0x3
   124d4:	78878793          	addi	a5,a5,1928 # 21788 <ft_tab>
   124d8:	00f607b3          	add	a5,a2,a5
   124dc:	0007b783          	ld	a5,0(a5)
   124e0:	00f6c7b3          	xor	a5,a3,a5
   124e4:	00f747b3          	xor	a5,a4,a5
   124e8:	fef43023          	sd	a5,-32(s0)
   124ec:	fe843783          	ld	a5,-24(s0)
   124f0:	06078793          	addi	a5,a5,96
   124f4:	0007b703          	ld	a4,0(a5)
   124f8:	fc843783          	ld	a5,-56(s0)
   124fc:	0ff7f793          	andi	a5,a5,255
   12500:	0007869b          	addiw	a3,a5,0
   12504:	000217b7          	lui	a5,0x21
   12508:	00369693          	slli	a3,a3,0x3
   1250c:	78878793          	addi	a5,a5,1928 # 21788 <ft_tab>
   12510:	00f687b3          	add	a5,a3,a5
   12514:	0007b683          	ld	a3,0(a5)
   12518:	fd043783          	ld	a5,-48(s0)
   1251c:	0087d793          	srli	a5,a5,0x8
   12520:	0ff7f793          	andi	a5,a5,255
   12524:	0007861b          	addiw	a2,a5,0
   12528:	000217b7          	lui	a5,0x21
   1252c:	10060613          	addi	a2,a2,256
   12530:	00361613          	slli	a2,a2,0x3
   12534:	78878793          	addi	a5,a5,1928 # 21788 <ft_tab>
   12538:	00f607b3          	add	a5,a2,a5
   1253c:	0007b783          	ld	a5,0(a5)
   12540:	00f6c6b3          	xor	a3,a3,a5
   12544:	fd843783          	ld	a5,-40(s0)
   12548:	0107d793          	srli	a5,a5,0x10
   1254c:	0ff7f793          	andi	a5,a5,255
   12550:	0007861b          	addiw	a2,a5,0
   12554:	000217b7          	lui	a5,0x21
   12558:	20060613          	addi	a2,a2,512
   1255c:	00361613          	slli	a2,a2,0x3
   12560:	78878793          	addi	a5,a5,1928 # 21788 <ft_tab>
   12564:	00f607b3          	add	a5,a2,a5
   12568:	0007b783          	ld	a5,0(a5)
   1256c:	00f6c6b3          	xor	a3,a3,a5
   12570:	fe043783          	ld	a5,-32(s0)
   12574:	0187d793          	srli	a5,a5,0x18
   12578:	0ff7f793          	andi	a5,a5,255
   1257c:	0007861b          	addiw	a2,a5,0
   12580:	000217b7          	lui	a5,0x21
   12584:	30060613          	addi	a2,a2,768
   12588:	00361613          	slli	a2,a2,0x3
   1258c:	78878793          	addi	a5,a5,1928 # 21788 <ft_tab>
   12590:	00f607b3          	add	a5,a2,a5
   12594:	0007b783          	ld	a5,0(a5)
   12598:	00f6c7b3          	xor	a5,a3,a5
   1259c:	00f747b3          	xor	a5,a4,a5
   125a0:	faf43423          	sd	a5,-88(s0)
   125a4:	fe843783          	ld	a5,-24(s0)
   125a8:	06878793          	addi	a5,a5,104
   125ac:	0007b703          	ld	a4,0(a5)
   125b0:	fd043783          	ld	a5,-48(s0)
   125b4:	0ff7f793          	andi	a5,a5,255
   125b8:	0007869b          	addiw	a3,a5,0
   125bc:	000217b7          	lui	a5,0x21
   125c0:	00369693          	slli	a3,a3,0x3
   125c4:	78878793          	addi	a5,a5,1928 # 21788 <ft_tab>
   125c8:	00f687b3          	add	a5,a3,a5
   125cc:	0007b683          	ld	a3,0(a5)
   125d0:	fd843783          	ld	a5,-40(s0)
   125d4:	0087d793          	srli	a5,a5,0x8
   125d8:	0ff7f793          	andi	a5,a5,255
   125dc:	0007861b          	addiw	a2,a5,0
   125e0:	000217b7          	lui	a5,0x21
   125e4:	10060613          	addi	a2,a2,256
   125e8:	00361613          	slli	a2,a2,0x3
   125ec:	78878793          	addi	a5,a5,1928 # 21788 <ft_tab>
   125f0:	00f607b3          	add	a5,a2,a5
   125f4:	0007b783          	ld	a5,0(a5)
   125f8:	00f6c6b3          	xor	a3,a3,a5
   125fc:	fe043783          	ld	a5,-32(s0)
   12600:	0107d793          	srli	a5,a5,0x10
   12604:	0ff7f793          	andi	a5,a5,255
   12608:	0007861b          	addiw	a2,a5,0
   1260c:	000217b7          	lui	a5,0x21
   12610:	20060613          	addi	a2,a2,512
   12614:	00361613          	slli	a2,a2,0x3
   12618:	78878793          	addi	a5,a5,1928 # 21788 <ft_tab>
   1261c:	00f607b3          	add	a5,a2,a5
   12620:	0007b783          	ld	a5,0(a5)
   12624:	00f6c6b3          	xor	a3,a3,a5
   12628:	fc843783          	ld	a5,-56(s0)
   1262c:	0187d793          	srli	a5,a5,0x18
   12630:	0ff7f793          	andi	a5,a5,255
   12634:	0007861b          	addiw	a2,a5,0
   12638:	000217b7          	lui	a5,0x21
   1263c:	30060613          	addi	a2,a2,768
   12640:	00361613          	slli	a2,a2,0x3
   12644:	78878793          	addi	a5,a5,1928 # 21788 <ft_tab>
   12648:	00f607b3          	add	a5,a2,a5
   1264c:	0007b783          	ld	a5,0(a5)
   12650:	00f6c7b3          	xor	a5,a3,a5
   12654:	00f747b3          	xor	a5,a4,a5
   12658:	faf43823          	sd	a5,-80(s0)
   1265c:	fe843783          	ld	a5,-24(s0)
   12660:	07078793          	addi	a5,a5,112
   12664:	0007b703          	ld	a4,0(a5)
   12668:	fd843783          	ld	a5,-40(s0)
   1266c:	0ff7f793          	andi	a5,a5,255
   12670:	0007869b          	addiw	a3,a5,0
   12674:	000217b7          	lui	a5,0x21
   12678:	00369693          	slli	a3,a3,0x3
   1267c:	78878793          	addi	a5,a5,1928 # 21788 <ft_tab>
   12680:	00f687b3          	add	a5,a3,a5
   12684:	0007b683          	ld	a3,0(a5)
   12688:	fe043783          	ld	a5,-32(s0)
   1268c:	0087d793          	srli	a5,a5,0x8
   12690:	0ff7f793          	andi	a5,a5,255
   12694:	0007861b          	addiw	a2,a5,0
   12698:	000217b7          	lui	a5,0x21
   1269c:	10060613          	addi	a2,a2,256
   126a0:	00361613          	slli	a2,a2,0x3
   126a4:	78878793          	addi	a5,a5,1928 # 21788 <ft_tab>
   126a8:	00f607b3          	add	a5,a2,a5
   126ac:	0007b783          	ld	a5,0(a5)
   126b0:	00f6c6b3          	xor	a3,a3,a5
   126b4:	fc843783          	ld	a5,-56(s0)
   126b8:	0107d793          	srli	a5,a5,0x10
   126bc:	0ff7f793          	andi	a5,a5,255
   126c0:	0007861b          	addiw	a2,a5,0
   126c4:	000217b7          	lui	a5,0x21
   126c8:	20060613          	addi	a2,a2,512
   126cc:	00361613          	slli	a2,a2,0x3
   126d0:	78878793          	addi	a5,a5,1928 # 21788 <ft_tab>
   126d4:	00f607b3          	add	a5,a2,a5
   126d8:	0007b783          	ld	a5,0(a5)
   126dc:	00f6c6b3          	xor	a3,a3,a5
   126e0:	fd043783          	ld	a5,-48(s0)
   126e4:	0187d793          	srli	a5,a5,0x18
   126e8:	0ff7f793          	andi	a5,a5,255
   126ec:	0007861b          	addiw	a2,a5,0
   126f0:	000217b7          	lui	a5,0x21
   126f4:	30060613          	addi	a2,a2,768
   126f8:	00361613          	slli	a2,a2,0x3
   126fc:	78878793          	addi	a5,a5,1928 # 21788 <ft_tab>
   12700:	00f607b3          	add	a5,a2,a5
   12704:	0007b783          	ld	a5,0(a5)
   12708:	00f6c7b3          	xor	a5,a3,a5
   1270c:	00f747b3          	xor	a5,a4,a5
   12710:	faf43c23          	sd	a5,-72(s0)
   12714:	fe843783          	ld	a5,-24(s0)
   12718:	07878793          	addi	a5,a5,120
   1271c:	0007b703          	ld	a4,0(a5)
   12720:	fe043783          	ld	a5,-32(s0)
   12724:	0ff7f793          	andi	a5,a5,255
   12728:	0007869b          	addiw	a3,a5,0
   1272c:	000217b7          	lui	a5,0x21
   12730:	00369693          	slli	a3,a3,0x3
   12734:	78878793          	addi	a5,a5,1928 # 21788 <ft_tab>
   12738:	00f687b3          	add	a5,a3,a5
   1273c:	0007b683          	ld	a3,0(a5)
   12740:	fc843783          	ld	a5,-56(s0)
   12744:	0087d793          	srli	a5,a5,0x8
   12748:	0ff7f793          	andi	a5,a5,255
   1274c:	0007861b          	addiw	a2,a5,0
   12750:	000217b7          	lui	a5,0x21
   12754:	10060613          	addi	a2,a2,256
   12758:	00361613          	slli	a2,a2,0x3
   1275c:	78878793          	addi	a5,a5,1928 # 21788 <ft_tab>
   12760:	00f607b3          	add	a5,a2,a5
   12764:	0007b783          	ld	a5,0(a5)
   12768:	00f6c6b3          	xor	a3,a3,a5
   1276c:	fd043783          	ld	a5,-48(s0)
   12770:	0107d793          	srli	a5,a5,0x10
   12774:	0ff7f793          	andi	a5,a5,255
   12778:	0007861b          	addiw	a2,a5,0
   1277c:	000217b7          	lui	a5,0x21
   12780:	20060613          	addi	a2,a2,512
   12784:	00361613          	slli	a2,a2,0x3
   12788:	78878793          	addi	a5,a5,1928 # 21788 <ft_tab>
   1278c:	00f607b3          	add	a5,a2,a5
   12790:	0007b783          	ld	a5,0(a5)
   12794:	00f6c6b3          	xor	a3,a3,a5
   12798:	fd843783          	ld	a5,-40(s0)
   1279c:	0187d793          	srli	a5,a5,0x18
   127a0:	0ff7f793          	andi	a5,a5,255
   127a4:	0007861b          	addiw	a2,a5,0
   127a8:	000217b7          	lui	a5,0x21
   127ac:	30060613          	addi	a2,a2,768
   127b0:	00361613          	slli	a2,a2,0x3
   127b4:	78878793          	addi	a5,a5,1928 # 21788 <ft_tab>
   127b8:	00f607b3          	add	a5,a2,a5
   127bc:	0007b783          	ld	a5,0(a5)
   127c0:	00f6c7b3          	xor	a5,a3,a5
   127c4:	00f747b3          	xor	a5,a4,a5
   127c8:	fcf43023          	sd	a5,-64(s0)
   127cc:	fe843783          	ld	a5,-24(s0)
   127d0:	08078793          	addi	a5,a5,128
   127d4:	0007b703          	ld	a4,0(a5)
   127d8:	fa843783          	ld	a5,-88(s0)
   127dc:	0ff7f793          	andi	a5,a5,255
   127e0:	0007869b          	addiw	a3,a5,0
   127e4:	000217b7          	lui	a5,0x21
   127e8:	00369693          	slli	a3,a3,0x3
   127ec:	78878793          	addi	a5,a5,1928 # 21788 <ft_tab>
   127f0:	00f687b3          	add	a5,a3,a5
   127f4:	0007b683          	ld	a3,0(a5)
   127f8:	fb043783          	ld	a5,-80(s0)
   127fc:	0087d793          	srli	a5,a5,0x8
   12800:	0ff7f793          	andi	a5,a5,255
   12804:	0007861b          	addiw	a2,a5,0
   12808:	000217b7          	lui	a5,0x21
   1280c:	10060613          	addi	a2,a2,256
   12810:	00361613          	slli	a2,a2,0x3
   12814:	78878793          	addi	a5,a5,1928 # 21788 <ft_tab>
   12818:	00f607b3          	add	a5,a2,a5
   1281c:	0007b783          	ld	a5,0(a5)
   12820:	00f6c6b3          	xor	a3,a3,a5
   12824:	fb843783          	ld	a5,-72(s0)
   12828:	0107d793          	srli	a5,a5,0x10
   1282c:	0ff7f793          	andi	a5,a5,255
   12830:	0007861b          	addiw	a2,a5,0
   12834:	000217b7          	lui	a5,0x21
   12838:	20060613          	addi	a2,a2,512
   1283c:	00361613          	slli	a2,a2,0x3
   12840:	78878793          	addi	a5,a5,1928 # 21788 <ft_tab>
   12844:	00f607b3          	add	a5,a2,a5
   12848:	0007b783          	ld	a5,0(a5)
   1284c:	00f6c6b3          	xor	a3,a3,a5
   12850:	fc043783          	ld	a5,-64(s0)
   12854:	0187d793          	srli	a5,a5,0x18
   12858:	0ff7f793          	andi	a5,a5,255
   1285c:	0007861b          	addiw	a2,a5,0
   12860:	000217b7          	lui	a5,0x21
   12864:	30060613          	addi	a2,a2,768
   12868:	00361613          	slli	a2,a2,0x3
   1286c:	78878793          	addi	a5,a5,1928 # 21788 <ft_tab>
   12870:	00f607b3          	add	a5,a2,a5
   12874:	0007b783          	ld	a5,0(a5)
   12878:	00f6c7b3          	xor	a5,a3,a5
   1287c:	00f747b3          	xor	a5,a4,a5
   12880:	fcf43423          	sd	a5,-56(s0)
   12884:	fe843783          	ld	a5,-24(s0)
   12888:	08878793          	addi	a5,a5,136
   1288c:	0007b703          	ld	a4,0(a5)
   12890:	fb043783          	ld	a5,-80(s0)
   12894:	0ff7f793          	andi	a5,a5,255
   12898:	0007869b          	addiw	a3,a5,0
   1289c:	000217b7          	lui	a5,0x21
   128a0:	00369693          	slli	a3,a3,0x3
   128a4:	78878793          	addi	a5,a5,1928 # 21788 <ft_tab>
   128a8:	00f687b3          	add	a5,a3,a5
   128ac:	0007b683          	ld	a3,0(a5)
   128b0:	fb843783          	ld	a5,-72(s0)
   128b4:	0087d793          	srli	a5,a5,0x8
   128b8:	0ff7f793          	andi	a5,a5,255
   128bc:	0007861b          	addiw	a2,a5,0
   128c0:	000217b7          	lui	a5,0x21
   128c4:	10060613          	addi	a2,a2,256
   128c8:	00361613          	slli	a2,a2,0x3
   128cc:	78878793          	addi	a5,a5,1928 # 21788 <ft_tab>
   128d0:	00f607b3          	add	a5,a2,a5
   128d4:	0007b783          	ld	a5,0(a5)
   128d8:	00f6c6b3          	xor	a3,a3,a5
   128dc:	fc043783          	ld	a5,-64(s0)
   128e0:	0107d793          	srli	a5,a5,0x10
   128e4:	0ff7f793          	andi	a5,a5,255
   128e8:	0007861b          	addiw	a2,a5,0
   128ec:	000217b7          	lui	a5,0x21
   128f0:	20060613          	addi	a2,a2,512
   128f4:	00361613          	slli	a2,a2,0x3
   128f8:	78878793          	addi	a5,a5,1928 # 21788 <ft_tab>
   128fc:	00f607b3          	add	a5,a2,a5
   12900:	0007b783          	ld	a5,0(a5)
   12904:	00f6c6b3          	xor	a3,a3,a5
   12908:	fa843783          	ld	a5,-88(s0)
   1290c:	0187d793          	srli	a5,a5,0x18
   12910:	0ff7f793          	andi	a5,a5,255
   12914:	0007861b          	addiw	a2,a5,0
   12918:	000217b7          	lui	a5,0x21
   1291c:	30060613          	addi	a2,a2,768
   12920:	00361613          	slli	a2,a2,0x3
   12924:	78878793          	addi	a5,a5,1928 # 21788 <ft_tab>
   12928:	00f607b3          	add	a5,a2,a5
   1292c:	0007b783          	ld	a5,0(a5)
   12930:	00f6c7b3          	xor	a5,a3,a5
   12934:	00f747b3          	xor	a5,a4,a5
   12938:	fcf43823          	sd	a5,-48(s0)
   1293c:	fe843783          	ld	a5,-24(s0)
   12940:	09078793          	addi	a5,a5,144
   12944:	0007b703          	ld	a4,0(a5)
   12948:	fb843783          	ld	a5,-72(s0)
   1294c:	0ff7f793          	andi	a5,a5,255
   12950:	0007869b          	addiw	a3,a5,0
   12954:	000217b7          	lui	a5,0x21
   12958:	00369693          	slli	a3,a3,0x3
   1295c:	78878793          	addi	a5,a5,1928 # 21788 <ft_tab>
   12960:	00f687b3          	add	a5,a3,a5
   12964:	0007b683          	ld	a3,0(a5)
   12968:	fc043783          	ld	a5,-64(s0)
   1296c:	0087d793          	srli	a5,a5,0x8
   12970:	0ff7f793          	andi	a5,a5,255
   12974:	0007861b          	addiw	a2,a5,0
   12978:	000217b7          	lui	a5,0x21
   1297c:	10060613          	addi	a2,a2,256
   12980:	00361613          	slli	a2,a2,0x3
   12984:	78878793          	addi	a5,a5,1928 # 21788 <ft_tab>
   12988:	00f607b3          	add	a5,a2,a5
   1298c:	0007b783          	ld	a5,0(a5)
   12990:	00f6c6b3          	xor	a3,a3,a5
   12994:	fa843783          	ld	a5,-88(s0)
   12998:	0107d793          	srli	a5,a5,0x10
   1299c:	0ff7f793          	andi	a5,a5,255
   129a0:	0007861b          	addiw	a2,a5,0
   129a4:	000217b7          	lui	a5,0x21
   129a8:	20060613          	addi	a2,a2,512
   129ac:	00361613          	slli	a2,a2,0x3
   129b0:	78878793          	addi	a5,a5,1928 # 21788 <ft_tab>
   129b4:	00f607b3          	add	a5,a2,a5
   129b8:	0007b783          	ld	a5,0(a5)
   129bc:	00f6c6b3          	xor	a3,a3,a5
   129c0:	fb043783          	ld	a5,-80(s0)
   129c4:	0187d793          	srli	a5,a5,0x18
   129c8:	0ff7f793          	andi	a5,a5,255
   129cc:	0007861b          	addiw	a2,a5,0
   129d0:	000217b7          	lui	a5,0x21
   129d4:	30060613          	addi	a2,a2,768
   129d8:	00361613          	slli	a2,a2,0x3
   129dc:	78878793          	addi	a5,a5,1928 # 21788 <ft_tab>
   129e0:	00f607b3          	add	a5,a2,a5
   129e4:	0007b783          	ld	a5,0(a5)
   129e8:	00f6c7b3          	xor	a5,a3,a5
   129ec:	00f747b3          	xor	a5,a4,a5
   129f0:	fcf43c23          	sd	a5,-40(s0)
   129f4:	fe843783          	ld	a5,-24(s0)
   129f8:	09878793          	addi	a5,a5,152
   129fc:	0007b703          	ld	a4,0(a5)
   12a00:	fc043783          	ld	a5,-64(s0)
   12a04:	0ff7f793          	andi	a5,a5,255
   12a08:	0007869b          	addiw	a3,a5,0
   12a0c:	000217b7          	lui	a5,0x21
   12a10:	00369693          	slli	a3,a3,0x3
   12a14:	78878793          	addi	a5,a5,1928 # 21788 <ft_tab>
   12a18:	00f687b3          	add	a5,a3,a5
   12a1c:	0007b683          	ld	a3,0(a5)
   12a20:	fa843783          	ld	a5,-88(s0)
   12a24:	0087d793          	srli	a5,a5,0x8
   12a28:	0ff7f793          	andi	a5,a5,255
   12a2c:	0007861b          	addiw	a2,a5,0
   12a30:	000217b7          	lui	a5,0x21
   12a34:	10060613          	addi	a2,a2,256
   12a38:	00361613          	slli	a2,a2,0x3
   12a3c:	78878793          	addi	a5,a5,1928 # 21788 <ft_tab>
   12a40:	00f607b3          	add	a5,a2,a5
   12a44:	0007b783          	ld	a5,0(a5)
   12a48:	00f6c6b3          	xor	a3,a3,a5
   12a4c:	fb043783          	ld	a5,-80(s0)
   12a50:	0107d793          	srli	a5,a5,0x10
   12a54:	0ff7f793          	andi	a5,a5,255
   12a58:	0007861b          	addiw	a2,a5,0
   12a5c:	000217b7          	lui	a5,0x21
   12a60:	20060613          	addi	a2,a2,512
   12a64:	00361613          	slli	a2,a2,0x3
   12a68:	78878793          	addi	a5,a5,1928 # 21788 <ft_tab>
   12a6c:	00f607b3          	add	a5,a2,a5
   12a70:	0007b783          	ld	a5,0(a5)
   12a74:	00f6c6b3          	xor	a3,a3,a5
   12a78:	fb843783          	ld	a5,-72(s0)
   12a7c:	0187d793          	srli	a5,a5,0x18
   12a80:	0ff7f793          	andi	a5,a5,255
   12a84:	0007861b          	addiw	a2,a5,0
   12a88:	000217b7          	lui	a5,0x21
   12a8c:	30060613          	addi	a2,a2,768
   12a90:	00361613          	slli	a2,a2,0x3
   12a94:	78878793          	addi	a5,a5,1928 # 21788 <ft_tab>
   12a98:	00f607b3          	add	a5,a2,a5
   12a9c:	0007b783          	ld	a5,0(a5)
   12aa0:	00f6c7b3          	xor	a5,a3,a5
   12aa4:	00f747b3          	xor	a5,a4,a5
   12aa8:	fef43023          	sd	a5,-32(s0)
   12aac:	fe843783          	ld	a5,-24(s0)
   12ab0:	0a078793          	addi	a5,a5,160
   12ab4:	0007b703          	ld	a4,0(a5)
   12ab8:	fc843783          	ld	a5,-56(s0)
   12abc:	0ff7f793          	andi	a5,a5,255
   12ac0:	0007869b          	addiw	a3,a5,0
   12ac4:	000217b7          	lui	a5,0x21
   12ac8:	00369693          	slli	a3,a3,0x3
   12acc:	78878793          	addi	a5,a5,1928 # 21788 <ft_tab>
   12ad0:	00f687b3          	add	a5,a3,a5
   12ad4:	0007b683          	ld	a3,0(a5)
   12ad8:	fd043783          	ld	a5,-48(s0)
   12adc:	0087d793          	srli	a5,a5,0x8
   12ae0:	0ff7f793          	andi	a5,a5,255
   12ae4:	0007861b          	addiw	a2,a5,0
   12ae8:	000217b7          	lui	a5,0x21
   12aec:	10060613          	addi	a2,a2,256
   12af0:	00361613          	slli	a2,a2,0x3
   12af4:	78878793          	addi	a5,a5,1928 # 21788 <ft_tab>
   12af8:	00f607b3          	add	a5,a2,a5
   12afc:	0007b783          	ld	a5,0(a5)
   12b00:	00f6c6b3          	xor	a3,a3,a5
   12b04:	fd843783          	ld	a5,-40(s0)
   12b08:	0107d793          	srli	a5,a5,0x10
   12b0c:	0ff7f793          	andi	a5,a5,255
   12b10:	0007861b          	addiw	a2,a5,0
   12b14:	000217b7          	lui	a5,0x21
   12b18:	20060613          	addi	a2,a2,512
   12b1c:	00361613          	slli	a2,a2,0x3
   12b20:	78878793          	addi	a5,a5,1928 # 21788 <ft_tab>
   12b24:	00f607b3          	add	a5,a2,a5
   12b28:	0007b783          	ld	a5,0(a5)
   12b2c:	00f6c6b3          	xor	a3,a3,a5
   12b30:	fe043783          	ld	a5,-32(s0)
   12b34:	0187d793          	srli	a5,a5,0x18
   12b38:	0ff7f793          	andi	a5,a5,255
   12b3c:	0007861b          	addiw	a2,a5,0
   12b40:	000217b7          	lui	a5,0x21
   12b44:	30060613          	addi	a2,a2,768
   12b48:	00361613          	slli	a2,a2,0x3
   12b4c:	78878793          	addi	a5,a5,1928 # 21788 <ft_tab>
   12b50:	00f607b3          	add	a5,a2,a5
   12b54:	0007b783          	ld	a5,0(a5)
   12b58:	00f6c7b3          	xor	a5,a3,a5
   12b5c:	00f747b3          	xor	a5,a4,a5
   12b60:	faf43423          	sd	a5,-88(s0)
   12b64:	fe843783          	ld	a5,-24(s0)
   12b68:	0a878793          	addi	a5,a5,168
   12b6c:	0007b703          	ld	a4,0(a5)
   12b70:	fd043783          	ld	a5,-48(s0)
   12b74:	0ff7f793          	andi	a5,a5,255
   12b78:	0007869b          	addiw	a3,a5,0
   12b7c:	000217b7          	lui	a5,0x21
   12b80:	00369693          	slli	a3,a3,0x3
   12b84:	78878793          	addi	a5,a5,1928 # 21788 <ft_tab>
   12b88:	00f687b3          	add	a5,a3,a5
   12b8c:	0007b683          	ld	a3,0(a5)
   12b90:	fd843783          	ld	a5,-40(s0)
   12b94:	0087d793          	srli	a5,a5,0x8
   12b98:	0ff7f793          	andi	a5,a5,255
   12b9c:	0007861b          	addiw	a2,a5,0
   12ba0:	000217b7          	lui	a5,0x21
   12ba4:	10060613          	addi	a2,a2,256
   12ba8:	00361613          	slli	a2,a2,0x3
   12bac:	78878793          	addi	a5,a5,1928 # 21788 <ft_tab>
   12bb0:	00f607b3          	add	a5,a2,a5
   12bb4:	0007b783          	ld	a5,0(a5)
   12bb8:	00f6c6b3          	xor	a3,a3,a5
   12bbc:	fe043783          	ld	a5,-32(s0)
   12bc0:	0107d793          	srli	a5,a5,0x10
   12bc4:	0ff7f793          	andi	a5,a5,255
   12bc8:	0007861b          	addiw	a2,a5,0
   12bcc:	000217b7          	lui	a5,0x21
   12bd0:	20060613          	addi	a2,a2,512
   12bd4:	00361613          	slli	a2,a2,0x3
   12bd8:	78878793          	addi	a5,a5,1928 # 21788 <ft_tab>
   12bdc:	00f607b3          	add	a5,a2,a5
   12be0:	0007b783          	ld	a5,0(a5)
   12be4:	00f6c6b3          	xor	a3,a3,a5
   12be8:	fc843783          	ld	a5,-56(s0)
   12bec:	0187d793          	srli	a5,a5,0x18
   12bf0:	0ff7f793          	andi	a5,a5,255
   12bf4:	0007861b          	addiw	a2,a5,0
   12bf8:	000217b7          	lui	a5,0x21
   12bfc:	30060613          	addi	a2,a2,768
   12c00:	00361613          	slli	a2,a2,0x3
   12c04:	78878793          	addi	a5,a5,1928 # 21788 <ft_tab>
   12c08:	00f607b3          	add	a5,a2,a5
   12c0c:	0007b783          	ld	a5,0(a5)
   12c10:	00f6c7b3          	xor	a5,a3,a5
   12c14:	00f747b3          	xor	a5,a4,a5
   12c18:	faf43823          	sd	a5,-80(s0)
   12c1c:	fe843783          	ld	a5,-24(s0)
   12c20:	0b078793          	addi	a5,a5,176
   12c24:	0007b703          	ld	a4,0(a5)
   12c28:	fd843783          	ld	a5,-40(s0)
   12c2c:	0ff7f793          	andi	a5,a5,255
   12c30:	0007869b          	addiw	a3,a5,0
   12c34:	000217b7          	lui	a5,0x21
   12c38:	00369693          	slli	a3,a3,0x3
   12c3c:	78878793          	addi	a5,a5,1928 # 21788 <ft_tab>
   12c40:	00f687b3          	add	a5,a3,a5
   12c44:	0007b683          	ld	a3,0(a5)
   12c48:	fe043783          	ld	a5,-32(s0)
   12c4c:	0087d793          	srli	a5,a5,0x8
   12c50:	0ff7f793          	andi	a5,a5,255
   12c54:	0007861b          	addiw	a2,a5,0
   12c58:	000217b7          	lui	a5,0x21
   12c5c:	10060613          	addi	a2,a2,256
   12c60:	00361613          	slli	a2,a2,0x3
   12c64:	78878793          	addi	a5,a5,1928 # 21788 <ft_tab>
   12c68:	00f607b3          	add	a5,a2,a5
   12c6c:	0007b783          	ld	a5,0(a5)
   12c70:	00f6c6b3          	xor	a3,a3,a5
   12c74:	fc843783          	ld	a5,-56(s0)
   12c78:	0107d793          	srli	a5,a5,0x10
   12c7c:	0ff7f793          	andi	a5,a5,255
   12c80:	0007861b          	addiw	a2,a5,0
   12c84:	000217b7          	lui	a5,0x21
   12c88:	20060613          	addi	a2,a2,512
   12c8c:	00361613          	slli	a2,a2,0x3
   12c90:	78878793          	addi	a5,a5,1928 # 21788 <ft_tab>
   12c94:	00f607b3          	add	a5,a2,a5
   12c98:	0007b783          	ld	a5,0(a5)
   12c9c:	00f6c6b3          	xor	a3,a3,a5
   12ca0:	fd043783          	ld	a5,-48(s0)
   12ca4:	0187d793          	srli	a5,a5,0x18
   12ca8:	0ff7f793          	andi	a5,a5,255
   12cac:	0007861b          	addiw	a2,a5,0
   12cb0:	000217b7          	lui	a5,0x21
   12cb4:	30060613          	addi	a2,a2,768
   12cb8:	00361613          	slli	a2,a2,0x3
   12cbc:	78878793          	addi	a5,a5,1928 # 21788 <ft_tab>
   12cc0:	00f607b3          	add	a5,a2,a5
   12cc4:	0007b783          	ld	a5,0(a5)
   12cc8:	00f6c7b3          	xor	a5,a3,a5
   12ccc:	00f747b3          	xor	a5,a4,a5
   12cd0:	faf43c23          	sd	a5,-72(s0)
   12cd4:	fe843783          	ld	a5,-24(s0)
   12cd8:	0b878793          	addi	a5,a5,184
   12cdc:	0007b703          	ld	a4,0(a5)
   12ce0:	fe043783          	ld	a5,-32(s0)
   12ce4:	0ff7f793          	andi	a5,a5,255
   12ce8:	0007869b          	addiw	a3,a5,0
   12cec:	000217b7          	lui	a5,0x21
   12cf0:	00369693          	slli	a3,a3,0x3
   12cf4:	78878793          	addi	a5,a5,1928 # 21788 <ft_tab>
   12cf8:	00f687b3          	add	a5,a3,a5
   12cfc:	0007b683          	ld	a3,0(a5)
   12d00:	fc843783          	ld	a5,-56(s0)
   12d04:	0087d793          	srli	a5,a5,0x8
   12d08:	0ff7f793          	andi	a5,a5,255
   12d0c:	0007861b          	addiw	a2,a5,0
   12d10:	000217b7          	lui	a5,0x21
   12d14:	10060613          	addi	a2,a2,256
   12d18:	00361613          	slli	a2,a2,0x3
   12d1c:	78878793          	addi	a5,a5,1928 # 21788 <ft_tab>
   12d20:	00f607b3          	add	a5,a2,a5
   12d24:	0007b783          	ld	a5,0(a5)
   12d28:	00f6c6b3          	xor	a3,a3,a5
   12d2c:	fd043783          	ld	a5,-48(s0)
   12d30:	0107d793          	srli	a5,a5,0x10
   12d34:	0ff7f793          	andi	a5,a5,255
   12d38:	0007861b          	addiw	a2,a5,0
   12d3c:	000217b7          	lui	a5,0x21
   12d40:	20060613          	addi	a2,a2,512
   12d44:	00361613          	slli	a2,a2,0x3
   12d48:	78878793          	addi	a5,a5,1928 # 21788 <ft_tab>
   12d4c:	00f607b3          	add	a5,a2,a5
   12d50:	0007b783          	ld	a5,0(a5)
   12d54:	00f6c6b3          	xor	a3,a3,a5
   12d58:	fd843783          	ld	a5,-40(s0)
   12d5c:	0187d793          	srli	a5,a5,0x18
   12d60:	0ff7f793          	andi	a5,a5,255
   12d64:	0007861b          	addiw	a2,a5,0
   12d68:	000217b7          	lui	a5,0x21
   12d6c:	30060613          	addi	a2,a2,768
   12d70:	00361613          	slli	a2,a2,0x3
   12d74:	78878793          	addi	a5,a5,1928 # 21788 <ft_tab>
   12d78:	00f607b3          	add	a5,a2,a5
   12d7c:	0007b783          	ld	a5,0(a5)
   12d80:	00f6c7b3          	xor	a5,a3,a5
   12d84:	00f747b3          	xor	a5,a4,a5
   12d88:	fcf43023          	sd	a5,-64(s0)
   12d8c:	fe843783          	ld	a5,-24(s0)
   12d90:	0c078793          	addi	a5,a5,192
   12d94:	0007b703          	ld	a4,0(a5)
   12d98:	fa843783          	ld	a5,-88(s0)
   12d9c:	0ff7f793          	andi	a5,a5,255
   12da0:	0007869b          	addiw	a3,a5,0
   12da4:	000217b7          	lui	a5,0x21
   12da8:	00369693          	slli	a3,a3,0x3
   12dac:	78878793          	addi	a5,a5,1928 # 21788 <ft_tab>
   12db0:	00f687b3          	add	a5,a3,a5
   12db4:	0007b683          	ld	a3,0(a5)
   12db8:	fb043783          	ld	a5,-80(s0)
   12dbc:	0087d793          	srli	a5,a5,0x8
   12dc0:	0ff7f793          	andi	a5,a5,255
   12dc4:	0007861b          	addiw	a2,a5,0
   12dc8:	000217b7          	lui	a5,0x21
   12dcc:	10060613          	addi	a2,a2,256
   12dd0:	00361613          	slli	a2,a2,0x3
   12dd4:	78878793          	addi	a5,a5,1928 # 21788 <ft_tab>
   12dd8:	00f607b3          	add	a5,a2,a5
   12ddc:	0007b783          	ld	a5,0(a5)
   12de0:	00f6c6b3          	xor	a3,a3,a5
   12de4:	fb843783          	ld	a5,-72(s0)
   12de8:	0107d793          	srli	a5,a5,0x10
   12dec:	0ff7f793          	andi	a5,a5,255
   12df0:	0007861b          	addiw	a2,a5,0
   12df4:	000217b7          	lui	a5,0x21
   12df8:	20060613          	addi	a2,a2,512
   12dfc:	00361613          	slli	a2,a2,0x3
   12e00:	78878793          	addi	a5,a5,1928 # 21788 <ft_tab>
   12e04:	00f607b3          	add	a5,a2,a5
   12e08:	0007b783          	ld	a5,0(a5)
   12e0c:	00f6c6b3          	xor	a3,a3,a5
   12e10:	fc043783          	ld	a5,-64(s0)
   12e14:	0187d793          	srli	a5,a5,0x18
   12e18:	0ff7f793          	andi	a5,a5,255
   12e1c:	0007861b          	addiw	a2,a5,0
   12e20:	000217b7          	lui	a5,0x21
   12e24:	30060613          	addi	a2,a2,768
   12e28:	00361613          	slli	a2,a2,0x3
   12e2c:	78878793          	addi	a5,a5,1928 # 21788 <ft_tab>
   12e30:	00f607b3          	add	a5,a2,a5
   12e34:	0007b783          	ld	a5,0(a5)
   12e38:	00f6c7b3          	xor	a5,a3,a5
   12e3c:	00f747b3          	xor	a5,a4,a5
   12e40:	fcf43423          	sd	a5,-56(s0)
   12e44:	fe843783          	ld	a5,-24(s0)
   12e48:	0c878793          	addi	a5,a5,200
   12e4c:	0007b703          	ld	a4,0(a5)
   12e50:	fb043783          	ld	a5,-80(s0)
   12e54:	0ff7f793          	andi	a5,a5,255
   12e58:	0007869b          	addiw	a3,a5,0
   12e5c:	000217b7          	lui	a5,0x21
   12e60:	00369693          	slli	a3,a3,0x3
   12e64:	78878793          	addi	a5,a5,1928 # 21788 <ft_tab>
   12e68:	00f687b3          	add	a5,a3,a5
   12e6c:	0007b683          	ld	a3,0(a5)
   12e70:	fb843783          	ld	a5,-72(s0)
   12e74:	0087d793          	srli	a5,a5,0x8
   12e78:	0ff7f793          	andi	a5,a5,255
   12e7c:	0007861b          	addiw	a2,a5,0
   12e80:	000217b7          	lui	a5,0x21
   12e84:	10060613          	addi	a2,a2,256
   12e88:	00361613          	slli	a2,a2,0x3
   12e8c:	78878793          	addi	a5,a5,1928 # 21788 <ft_tab>
   12e90:	00f607b3          	add	a5,a2,a5
   12e94:	0007b783          	ld	a5,0(a5)
   12e98:	00f6c6b3          	xor	a3,a3,a5
   12e9c:	fc043783          	ld	a5,-64(s0)
   12ea0:	0107d793          	srli	a5,a5,0x10
   12ea4:	0ff7f793          	andi	a5,a5,255
   12ea8:	0007861b          	addiw	a2,a5,0
   12eac:	000217b7          	lui	a5,0x21
   12eb0:	20060613          	addi	a2,a2,512
   12eb4:	00361613          	slli	a2,a2,0x3
   12eb8:	78878793          	addi	a5,a5,1928 # 21788 <ft_tab>
   12ebc:	00f607b3          	add	a5,a2,a5
   12ec0:	0007b783          	ld	a5,0(a5)
   12ec4:	00f6c6b3          	xor	a3,a3,a5
   12ec8:	fa843783          	ld	a5,-88(s0)
   12ecc:	0187d793          	srli	a5,a5,0x18
   12ed0:	0ff7f793          	andi	a5,a5,255
   12ed4:	0007861b          	addiw	a2,a5,0
   12ed8:	000217b7          	lui	a5,0x21
   12edc:	30060613          	addi	a2,a2,768
   12ee0:	00361613          	slli	a2,a2,0x3
   12ee4:	78878793          	addi	a5,a5,1928 # 21788 <ft_tab>
   12ee8:	00f607b3          	add	a5,a2,a5
   12eec:	0007b783          	ld	a5,0(a5)
   12ef0:	00f6c7b3          	xor	a5,a3,a5
   12ef4:	00f747b3          	xor	a5,a4,a5
   12ef8:	fcf43823          	sd	a5,-48(s0)
   12efc:	fe843783          	ld	a5,-24(s0)
   12f00:	0d078793          	addi	a5,a5,208
   12f04:	0007b703          	ld	a4,0(a5)
   12f08:	fb843783          	ld	a5,-72(s0)
   12f0c:	0ff7f793          	andi	a5,a5,255
   12f10:	0007869b          	addiw	a3,a5,0
   12f14:	000217b7          	lui	a5,0x21
   12f18:	00369693          	slli	a3,a3,0x3
   12f1c:	78878793          	addi	a5,a5,1928 # 21788 <ft_tab>
   12f20:	00f687b3          	add	a5,a3,a5
   12f24:	0007b683          	ld	a3,0(a5)
   12f28:	fc043783          	ld	a5,-64(s0)
   12f2c:	0087d793          	srli	a5,a5,0x8
   12f30:	0ff7f793          	andi	a5,a5,255
   12f34:	0007861b          	addiw	a2,a5,0
   12f38:	000217b7          	lui	a5,0x21
   12f3c:	10060613          	addi	a2,a2,256
   12f40:	00361613          	slli	a2,a2,0x3
   12f44:	78878793          	addi	a5,a5,1928 # 21788 <ft_tab>
   12f48:	00f607b3          	add	a5,a2,a5
   12f4c:	0007b783          	ld	a5,0(a5)
   12f50:	00f6c6b3          	xor	a3,a3,a5
   12f54:	fa843783          	ld	a5,-88(s0)
   12f58:	0107d793          	srli	a5,a5,0x10
   12f5c:	0ff7f793          	andi	a5,a5,255
   12f60:	0007861b          	addiw	a2,a5,0
   12f64:	000217b7          	lui	a5,0x21
   12f68:	20060613          	addi	a2,a2,512
   12f6c:	00361613          	slli	a2,a2,0x3
   12f70:	78878793          	addi	a5,a5,1928 # 21788 <ft_tab>
   12f74:	00f607b3          	add	a5,a2,a5
   12f78:	0007b783          	ld	a5,0(a5)
   12f7c:	00f6c6b3          	xor	a3,a3,a5
   12f80:	fb043783          	ld	a5,-80(s0)
   12f84:	0187d793          	srli	a5,a5,0x18
   12f88:	0ff7f793          	andi	a5,a5,255
   12f8c:	0007861b          	addiw	a2,a5,0
   12f90:	000217b7          	lui	a5,0x21
   12f94:	30060613          	addi	a2,a2,768
   12f98:	00361613          	slli	a2,a2,0x3
   12f9c:	78878793          	addi	a5,a5,1928 # 21788 <ft_tab>
   12fa0:	00f607b3          	add	a5,a2,a5
   12fa4:	0007b783          	ld	a5,0(a5)
   12fa8:	00f6c7b3          	xor	a5,a3,a5
   12fac:	00f747b3          	xor	a5,a4,a5
   12fb0:	fcf43c23          	sd	a5,-40(s0)
   12fb4:	fe843783          	ld	a5,-24(s0)
   12fb8:	0d878793          	addi	a5,a5,216
   12fbc:	0007b703          	ld	a4,0(a5)
   12fc0:	fc043783          	ld	a5,-64(s0)
   12fc4:	0ff7f793          	andi	a5,a5,255
   12fc8:	0007869b          	addiw	a3,a5,0
   12fcc:	000217b7          	lui	a5,0x21
   12fd0:	00369693          	slli	a3,a3,0x3
   12fd4:	78878793          	addi	a5,a5,1928 # 21788 <ft_tab>
   12fd8:	00f687b3          	add	a5,a3,a5
   12fdc:	0007b683          	ld	a3,0(a5)
   12fe0:	fa843783          	ld	a5,-88(s0)
   12fe4:	0087d793          	srli	a5,a5,0x8
   12fe8:	0ff7f793          	andi	a5,a5,255
   12fec:	0007861b          	addiw	a2,a5,0
   12ff0:	000217b7          	lui	a5,0x21
   12ff4:	10060613          	addi	a2,a2,256
   12ff8:	00361613          	slli	a2,a2,0x3
   12ffc:	78878793          	addi	a5,a5,1928 # 21788 <ft_tab>
   13000:	00f607b3          	add	a5,a2,a5
   13004:	0007b783          	ld	a5,0(a5)
   13008:	00f6c6b3          	xor	a3,a3,a5
   1300c:	fb043783          	ld	a5,-80(s0)
   13010:	0107d793          	srli	a5,a5,0x10
   13014:	0ff7f793          	andi	a5,a5,255
   13018:	0007861b          	addiw	a2,a5,0
   1301c:	000217b7          	lui	a5,0x21
   13020:	20060613          	addi	a2,a2,512
   13024:	00361613          	slli	a2,a2,0x3
   13028:	78878793          	addi	a5,a5,1928 # 21788 <ft_tab>
   1302c:	00f607b3          	add	a5,a2,a5
   13030:	0007b783          	ld	a5,0(a5)
   13034:	00f6c6b3          	xor	a3,a3,a5
   13038:	fb843783          	ld	a5,-72(s0)
   1303c:	0187d793          	srli	a5,a5,0x18
   13040:	0ff7f793          	andi	a5,a5,255
   13044:	0007861b          	addiw	a2,a5,0
   13048:	000217b7          	lui	a5,0x21
   1304c:	30060613          	addi	a2,a2,768
   13050:	00361613          	slli	a2,a2,0x3
   13054:	78878793          	addi	a5,a5,1928 # 21788 <ft_tab>
   13058:	00f607b3          	add	a5,a2,a5
   1305c:	0007b783          	ld	a5,0(a5)
   13060:	00f6c7b3          	xor	a5,a3,a5
   13064:	00f747b3          	xor	a5,a4,a5
   13068:	fef43023          	sd	a5,-32(s0)
   1306c:	fe843783          	ld	a5,-24(s0)
   13070:	0e078793          	addi	a5,a5,224
   13074:	0007b703          	ld	a4,0(a5)
   13078:	fc843783          	ld	a5,-56(s0)
   1307c:	0ff7f793          	andi	a5,a5,255
   13080:	0007869b          	addiw	a3,a5,0
   13084:	000217b7          	lui	a5,0x21
   13088:	00369693          	slli	a3,a3,0x3
   1308c:	78878793          	addi	a5,a5,1928 # 21788 <ft_tab>
   13090:	00f687b3          	add	a5,a3,a5
   13094:	0007b683          	ld	a3,0(a5)
   13098:	fd043783          	ld	a5,-48(s0)
   1309c:	0087d793          	srli	a5,a5,0x8
   130a0:	0ff7f793          	andi	a5,a5,255
   130a4:	0007861b          	addiw	a2,a5,0
   130a8:	000217b7          	lui	a5,0x21
   130ac:	10060613          	addi	a2,a2,256
   130b0:	00361613          	slli	a2,a2,0x3
   130b4:	78878793          	addi	a5,a5,1928 # 21788 <ft_tab>
   130b8:	00f607b3          	add	a5,a2,a5
   130bc:	0007b783          	ld	a5,0(a5)
   130c0:	00f6c6b3          	xor	a3,a3,a5
   130c4:	fd843783          	ld	a5,-40(s0)
   130c8:	0107d793          	srli	a5,a5,0x10
   130cc:	0ff7f793          	andi	a5,a5,255
   130d0:	0007861b          	addiw	a2,a5,0
   130d4:	000217b7          	lui	a5,0x21
   130d8:	20060613          	addi	a2,a2,512
   130dc:	00361613          	slli	a2,a2,0x3
   130e0:	78878793          	addi	a5,a5,1928 # 21788 <ft_tab>
   130e4:	00f607b3          	add	a5,a2,a5
   130e8:	0007b783          	ld	a5,0(a5)
   130ec:	00f6c6b3          	xor	a3,a3,a5
   130f0:	fe043783          	ld	a5,-32(s0)
   130f4:	0187d793          	srli	a5,a5,0x18
   130f8:	0ff7f793          	andi	a5,a5,255
   130fc:	0007861b          	addiw	a2,a5,0
   13100:	000217b7          	lui	a5,0x21
   13104:	30060613          	addi	a2,a2,768
   13108:	00361613          	slli	a2,a2,0x3
   1310c:	78878793          	addi	a5,a5,1928 # 21788 <ft_tab>
   13110:	00f607b3          	add	a5,a2,a5
   13114:	0007b783          	ld	a5,0(a5)
   13118:	00f6c7b3          	xor	a5,a3,a5
   1311c:	00f747b3          	xor	a5,a4,a5
   13120:	faf43423          	sd	a5,-88(s0)
   13124:	fe843783          	ld	a5,-24(s0)
   13128:	0e878793          	addi	a5,a5,232
   1312c:	0007b703          	ld	a4,0(a5)
   13130:	fd043783          	ld	a5,-48(s0)
   13134:	0ff7f793          	andi	a5,a5,255
   13138:	0007869b          	addiw	a3,a5,0
   1313c:	000217b7          	lui	a5,0x21
   13140:	00369693          	slli	a3,a3,0x3
   13144:	78878793          	addi	a5,a5,1928 # 21788 <ft_tab>
   13148:	00f687b3          	add	a5,a3,a5
   1314c:	0007b683          	ld	a3,0(a5)
   13150:	fd843783          	ld	a5,-40(s0)
   13154:	0087d793          	srli	a5,a5,0x8
   13158:	0ff7f793          	andi	a5,a5,255
   1315c:	0007861b          	addiw	a2,a5,0
   13160:	000217b7          	lui	a5,0x21
   13164:	10060613          	addi	a2,a2,256
   13168:	00361613          	slli	a2,a2,0x3
   1316c:	78878793          	addi	a5,a5,1928 # 21788 <ft_tab>
   13170:	00f607b3          	add	a5,a2,a5
   13174:	0007b783          	ld	a5,0(a5)
   13178:	00f6c6b3          	xor	a3,a3,a5
   1317c:	fe043783          	ld	a5,-32(s0)
   13180:	0107d793          	srli	a5,a5,0x10
   13184:	0ff7f793          	andi	a5,a5,255
   13188:	0007861b          	addiw	a2,a5,0
   1318c:	000217b7          	lui	a5,0x21
   13190:	20060613          	addi	a2,a2,512
   13194:	00361613          	slli	a2,a2,0x3
   13198:	78878793          	addi	a5,a5,1928 # 21788 <ft_tab>
   1319c:	00f607b3          	add	a5,a2,a5
   131a0:	0007b783          	ld	a5,0(a5)
   131a4:	00f6c6b3          	xor	a3,a3,a5
   131a8:	fc843783          	ld	a5,-56(s0)
   131ac:	0187d793          	srli	a5,a5,0x18
   131b0:	0ff7f793          	andi	a5,a5,255
   131b4:	0007861b          	addiw	a2,a5,0
   131b8:	000217b7          	lui	a5,0x21
   131bc:	30060613          	addi	a2,a2,768
   131c0:	00361613          	slli	a2,a2,0x3
   131c4:	78878793          	addi	a5,a5,1928 # 21788 <ft_tab>
   131c8:	00f607b3          	add	a5,a2,a5
   131cc:	0007b783          	ld	a5,0(a5)
   131d0:	00f6c7b3          	xor	a5,a3,a5
   131d4:	00f747b3          	xor	a5,a4,a5
   131d8:	faf43823          	sd	a5,-80(s0)
   131dc:	fe843783          	ld	a5,-24(s0)
   131e0:	0f078793          	addi	a5,a5,240
   131e4:	0007b703          	ld	a4,0(a5)
   131e8:	fd843783          	ld	a5,-40(s0)
   131ec:	0ff7f793          	andi	a5,a5,255
   131f0:	0007869b          	addiw	a3,a5,0
   131f4:	000217b7          	lui	a5,0x21
   131f8:	00369693          	slli	a3,a3,0x3
   131fc:	78878793          	addi	a5,a5,1928 # 21788 <ft_tab>
   13200:	00f687b3          	add	a5,a3,a5
   13204:	0007b683          	ld	a3,0(a5)
   13208:	fe043783          	ld	a5,-32(s0)
   1320c:	0087d793          	srli	a5,a5,0x8
   13210:	0ff7f793          	andi	a5,a5,255
   13214:	0007861b          	addiw	a2,a5,0
   13218:	000217b7          	lui	a5,0x21
   1321c:	10060613          	addi	a2,a2,256
   13220:	00361613          	slli	a2,a2,0x3
   13224:	78878793          	addi	a5,a5,1928 # 21788 <ft_tab>
   13228:	00f607b3          	add	a5,a2,a5
   1322c:	0007b783          	ld	a5,0(a5)
   13230:	00f6c6b3          	xor	a3,a3,a5
   13234:	fc843783          	ld	a5,-56(s0)
   13238:	0107d793          	srli	a5,a5,0x10
   1323c:	0ff7f793          	andi	a5,a5,255
   13240:	0007861b          	addiw	a2,a5,0
   13244:	000217b7          	lui	a5,0x21
   13248:	20060613          	addi	a2,a2,512
   1324c:	00361613          	slli	a2,a2,0x3
   13250:	78878793          	addi	a5,a5,1928 # 21788 <ft_tab>
   13254:	00f607b3          	add	a5,a2,a5
   13258:	0007b783          	ld	a5,0(a5)
   1325c:	00f6c6b3          	xor	a3,a3,a5
   13260:	fd043783          	ld	a5,-48(s0)
   13264:	0187d793          	srli	a5,a5,0x18
   13268:	0ff7f793          	andi	a5,a5,255
   1326c:	0007861b          	addiw	a2,a5,0
   13270:	000217b7          	lui	a5,0x21
   13274:	30060613          	addi	a2,a2,768
   13278:	00361613          	slli	a2,a2,0x3
   1327c:	78878793          	addi	a5,a5,1928 # 21788 <ft_tab>
   13280:	00f607b3          	add	a5,a2,a5
   13284:	0007b783          	ld	a5,0(a5)
   13288:	00f6c7b3          	xor	a5,a3,a5
   1328c:	00f747b3          	xor	a5,a4,a5
   13290:	faf43c23          	sd	a5,-72(s0)
   13294:	fe843783          	ld	a5,-24(s0)
   13298:	0f878793          	addi	a5,a5,248
   1329c:	0007b703          	ld	a4,0(a5)
   132a0:	fe043783          	ld	a5,-32(s0)
   132a4:	0ff7f793          	andi	a5,a5,255
   132a8:	0007869b          	addiw	a3,a5,0
   132ac:	000217b7          	lui	a5,0x21
   132b0:	00369693          	slli	a3,a3,0x3
   132b4:	78878793          	addi	a5,a5,1928 # 21788 <ft_tab>
   132b8:	00f687b3          	add	a5,a3,a5
   132bc:	0007b683          	ld	a3,0(a5)
   132c0:	fc843783          	ld	a5,-56(s0)
   132c4:	0087d793          	srli	a5,a5,0x8
   132c8:	0ff7f793          	andi	a5,a5,255
   132cc:	0007861b          	addiw	a2,a5,0
   132d0:	000217b7          	lui	a5,0x21
   132d4:	10060613          	addi	a2,a2,256
   132d8:	00361613          	slli	a2,a2,0x3
   132dc:	78878793          	addi	a5,a5,1928 # 21788 <ft_tab>
   132e0:	00f607b3          	add	a5,a2,a5
   132e4:	0007b783          	ld	a5,0(a5)
   132e8:	00f6c6b3          	xor	a3,a3,a5
   132ec:	fd043783          	ld	a5,-48(s0)
   132f0:	0107d793          	srli	a5,a5,0x10
   132f4:	0ff7f793          	andi	a5,a5,255
   132f8:	0007861b          	addiw	a2,a5,0
   132fc:	000217b7          	lui	a5,0x21
   13300:	20060613          	addi	a2,a2,512
   13304:	00361613          	slli	a2,a2,0x3
   13308:	78878793          	addi	a5,a5,1928 # 21788 <ft_tab>
   1330c:	00f607b3          	add	a5,a2,a5
   13310:	0007b783          	ld	a5,0(a5)
   13314:	00f6c6b3          	xor	a3,a3,a5
   13318:	fd843783          	ld	a5,-40(s0)
   1331c:	0187d793          	srli	a5,a5,0x18
   13320:	0ff7f793          	andi	a5,a5,255
   13324:	0007861b          	addiw	a2,a5,0
   13328:	000217b7          	lui	a5,0x21
   1332c:	30060613          	addi	a2,a2,768
   13330:	00361613          	slli	a2,a2,0x3
   13334:	78878793          	addi	a5,a5,1928 # 21788 <ft_tab>
   13338:	00f607b3          	add	a5,a2,a5
   1333c:	0007b783          	ld	a5,0(a5)
   13340:	00f6c7b3          	xor	a5,a3,a5
   13344:	00f747b3          	xor	a5,a4,a5
   13348:	fcf43023          	sd	a5,-64(s0)
   1334c:	fe843783          	ld	a5,-24(s0)
   13350:	10078793          	addi	a5,a5,256
   13354:	0007b703          	ld	a4,0(a5)
   13358:	fa843783          	ld	a5,-88(s0)
   1335c:	0ff7f793          	andi	a5,a5,255
   13360:	0007869b          	addiw	a3,a5,0
   13364:	000217b7          	lui	a5,0x21
   13368:	00369693          	slli	a3,a3,0x3
   1336c:	78878793          	addi	a5,a5,1928 # 21788 <ft_tab>
   13370:	00f687b3          	add	a5,a3,a5
   13374:	0007b683          	ld	a3,0(a5)
   13378:	fb043783          	ld	a5,-80(s0)
   1337c:	0087d793          	srli	a5,a5,0x8
   13380:	0ff7f793          	andi	a5,a5,255
   13384:	0007861b          	addiw	a2,a5,0
   13388:	000217b7          	lui	a5,0x21
   1338c:	10060613          	addi	a2,a2,256
   13390:	00361613          	slli	a2,a2,0x3
   13394:	78878793          	addi	a5,a5,1928 # 21788 <ft_tab>
   13398:	00f607b3          	add	a5,a2,a5
   1339c:	0007b783          	ld	a5,0(a5)
   133a0:	00f6c6b3          	xor	a3,a3,a5
   133a4:	fb843783          	ld	a5,-72(s0)
   133a8:	0107d793          	srli	a5,a5,0x10
   133ac:	0ff7f793          	andi	a5,a5,255
   133b0:	0007861b          	addiw	a2,a5,0
   133b4:	000217b7          	lui	a5,0x21
   133b8:	20060613          	addi	a2,a2,512
   133bc:	00361613          	slli	a2,a2,0x3
   133c0:	78878793          	addi	a5,a5,1928 # 21788 <ft_tab>
   133c4:	00f607b3          	add	a5,a2,a5
   133c8:	0007b783          	ld	a5,0(a5)
   133cc:	00f6c6b3          	xor	a3,a3,a5
   133d0:	fc043783          	ld	a5,-64(s0)
   133d4:	0187d793          	srli	a5,a5,0x18
   133d8:	0ff7f793          	andi	a5,a5,255
   133dc:	0007861b          	addiw	a2,a5,0
   133e0:	000217b7          	lui	a5,0x21
   133e4:	30060613          	addi	a2,a2,768
   133e8:	00361613          	slli	a2,a2,0x3
   133ec:	78878793          	addi	a5,a5,1928 # 21788 <ft_tab>
   133f0:	00f607b3          	add	a5,a2,a5
   133f4:	0007b783          	ld	a5,0(a5)
   133f8:	00f6c7b3          	xor	a5,a3,a5
   133fc:	00f747b3          	xor	a5,a4,a5
   13400:	fcf43423          	sd	a5,-56(s0)
   13404:	fe843783          	ld	a5,-24(s0)
   13408:	10878793          	addi	a5,a5,264
   1340c:	0007b703          	ld	a4,0(a5)
   13410:	fb043783          	ld	a5,-80(s0)
   13414:	0ff7f793          	andi	a5,a5,255
   13418:	0007869b          	addiw	a3,a5,0
   1341c:	000217b7          	lui	a5,0x21
   13420:	00369693          	slli	a3,a3,0x3
   13424:	78878793          	addi	a5,a5,1928 # 21788 <ft_tab>
   13428:	00f687b3          	add	a5,a3,a5
   1342c:	0007b683          	ld	a3,0(a5)
   13430:	fb843783          	ld	a5,-72(s0)
   13434:	0087d793          	srli	a5,a5,0x8
   13438:	0ff7f793          	andi	a5,a5,255
   1343c:	0007861b          	addiw	a2,a5,0
   13440:	000217b7          	lui	a5,0x21
   13444:	10060613          	addi	a2,a2,256
   13448:	00361613          	slli	a2,a2,0x3
   1344c:	78878793          	addi	a5,a5,1928 # 21788 <ft_tab>
   13450:	00f607b3          	add	a5,a2,a5
   13454:	0007b783          	ld	a5,0(a5)
   13458:	00f6c6b3          	xor	a3,a3,a5
   1345c:	fc043783          	ld	a5,-64(s0)
   13460:	0107d793          	srli	a5,a5,0x10
   13464:	0ff7f793          	andi	a5,a5,255
   13468:	0007861b          	addiw	a2,a5,0
   1346c:	000217b7          	lui	a5,0x21
   13470:	20060613          	addi	a2,a2,512
   13474:	00361613          	slli	a2,a2,0x3
   13478:	78878793          	addi	a5,a5,1928 # 21788 <ft_tab>
   1347c:	00f607b3          	add	a5,a2,a5
   13480:	0007b783          	ld	a5,0(a5)
   13484:	00f6c6b3          	xor	a3,a3,a5
   13488:	fa843783          	ld	a5,-88(s0)
   1348c:	0187d793          	srli	a5,a5,0x18
   13490:	0ff7f793          	andi	a5,a5,255
   13494:	0007861b          	addiw	a2,a5,0
   13498:	000217b7          	lui	a5,0x21
   1349c:	30060613          	addi	a2,a2,768
   134a0:	00361613          	slli	a2,a2,0x3
   134a4:	78878793          	addi	a5,a5,1928 # 21788 <ft_tab>
   134a8:	00f607b3          	add	a5,a2,a5
   134ac:	0007b783          	ld	a5,0(a5)
   134b0:	00f6c7b3          	xor	a5,a3,a5
   134b4:	00f747b3          	xor	a5,a4,a5
   134b8:	fcf43823          	sd	a5,-48(s0)
   134bc:	fe843783          	ld	a5,-24(s0)
   134c0:	11078793          	addi	a5,a5,272
   134c4:	0007b703          	ld	a4,0(a5)
   134c8:	fb843783          	ld	a5,-72(s0)
   134cc:	0ff7f793          	andi	a5,a5,255
   134d0:	0007869b          	addiw	a3,a5,0
   134d4:	000217b7          	lui	a5,0x21
   134d8:	00369693          	slli	a3,a3,0x3
   134dc:	78878793          	addi	a5,a5,1928 # 21788 <ft_tab>
   134e0:	00f687b3          	add	a5,a3,a5
   134e4:	0007b683          	ld	a3,0(a5)
   134e8:	fc043783          	ld	a5,-64(s0)
   134ec:	0087d793          	srli	a5,a5,0x8
   134f0:	0ff7f793          	andi	a5,a5,255
   134f4:	0007861b          	addiw	a2,a5,0
   134f8:	000217b7          	lui	a5,0x21
   134fc:	10060613          	addi	a2,a2,256
   13500:	00361613          	slli	a2,a2,0x3
   13504:	78878793          	addi	a5,a5,1928 # 21788 <ft_tab>
   13508:	00f607b3          	add	a5,a2,a5
   1350c:	0007b783          	ld	a5,0(a5)
   13510:	00f6c6b3          	xor	a3,a3,a5
   13514:	fa843783          	ld	a5,-88(s0)
   13518:	0107d793          	srli	a5,a5,0x10
   1351c:	0ff7f793          	andi	a5,a5,255
   13520:	0007861b          	addiw	a2,a5,0
   13524:	000217b7          	lui	a5,0x21
   13528:	20060613          	addi	a2,a2,512
   1352c:	00361613          	slli	a2,a2,0x3
   13530:	78878793          	addi	a5,a5,1928 # 21788 <ft_tab>
   13534:	00f607b3          	add	a5,a2,a5
   13538:	0007b783          	ld	a5,0(a5)
   1353c:	00f6c6b3          	xor	a3,a3,a5
   13540:	fb043783          	ld	a5,-80(s0)
   13544:	0187d793          	srli	a5,a5,0x18
   13548:	0ff7f793          	andi	a5,a5,255
   1354c:	0007861b          	addiw	a2,a5,0
   13550:	000217b7          	lui	a5,0x21
   13554:	30060613          	addi	a2,a2,768
   13558:	00361613          	slli	a2,a2,0x3
   1355c:	78878793          	addi	a5,a5,1928 # 21788 <ft_tab>
   13560:	00f607b3          	add	a5,a2,a5
   13564:	0007b783          	ld	a5,0(a5)
   13568:	00f6c7b3          	xor	a5,a3,a5
   1356c:	00f747b3          	xor	a5,a4,a5
   13570:	fcf43c23          	sd	a5,-40(s0)
   13574:	fe843783          	ld	a5,-24(s0)
   13578:	11878793          	addi	a5,a5,280
   1357c:	0007b703          	ld	a4,0(a5)
   13580:	fc043783          	ld	a5,-64(s0)
   13584:	0ff7f793          	andi	a5,a5,255
   13588:	0007869b          	addiw	a3,a5,0
   1358c:	000217b7          	lui	a5,0x21
   13590:	00369693          	slli	a3,a3,0x3
   13594:	78878793          	addi	a5,a5,1928 # 21788 <ft_tab>
   13598:	00f687b3          	add	a5,a3,a5
   1359c:	0007b683          	ld	a3,0(a5)
   135a0:	fa843783          	ld	a5,-88(s0)
   135a4:	0087d793          	srli	a5,a5,0x8
   135a8:	0ff7f793          	andi	a5,a5,255
   135ac:	0007861b          	addiw	a2,a5,0
   135b0:	000217b7          	lui	a5,0x21
   135b4:	10060613          	addi	a2,a2,256
   135b8:	00361613          	slli	a2,a2,0x3
   135bc:	78878793          	addi	a5,a5,1928 # 21788 <ft_tab>
   135c0:	00f607b3          	add	a5,a2,a5
   135c4:	0007b783          	ld	a5,0(a5)
   135c8:	00f6c6b3          	xor	a3,a3,a5
   135cc:	fb043783          	ld	a5,-80(s0)
   135d0:	0107d793          	srli	a5,a5,0x10
   135d4:	0ff7f793          	andi	a5,a5,255
   135d8:	0007861b          	addiw	a2,a5,0
   135dc:	000217b7          	lui	a5,0x21
   135e0:	20060613          	addi	a2,a2,512
   135e4:	00361613          	slli	a2,a2,0x3
   135e8:	78878793          	addi	a5,a5,1928 # 21788 <ft_tab>
   135ec:	00f607b3          	add	a5,a2,a5
   135f0:	0007b783          	ld	a5,0(a5)
   135f4:	00f6c6b3          	xor	a3,a3,a5
   135f8:	fb843783          	ld	a5,-72(s0)
   135fc:	0187d793          	srli	a5,a5,0x18
   13600:	0ff7f793          	andi	a5,a5,255
   13604:	0007861b          	addiw	a2,a5,0
   13608:	000217b7          	lui	a5,0x21
   1360c:	30060613          	addi	a2,a2,768
   13610:	00361613          	slli	a2,a2,0x3
   13614:	78878793          	addi	a5,a5,1928 # 21788 <ft_tab>
   13618:	00f607b3          	add	a5,a2,a5
   1361c:	0007b783          	ld	a5,0(a5)
   13620:	00f6c7b3          	xor	a5,a3,a5
   13624:	00f747b3          	xor	a5,a4,a5
   13628:	fef43023          	sd	a5,-32(s0)
   1362c:	fe843783          	ld	a5,-24(s0)
   13630:	12078793          	addi	a5,a5,288
   13634:	0007b703          	ld	a4,0(a5)
   13638:	fc843783          	ld	a5,-56(s0)
   1363c:	0ff7f793          	andi	a5,a5,255
   13640:	0007869b          	addiw	a3,a5,0
   13644:	000257b7          	lui	a5,0x25
   13648:	00369693          	slli	a3,a3,0x3
   1364c:	78878793          	addi	a5,a5,1928 # 25788 <fl_tab>
   13650:	00f687b3          	add	a5,a3,a5
   13654:	0007b683          	ld	a3,0(a5)
   13658:	fd043783          	ld	a5,-48(s0)
   1365c:	0087d793          	srli	a5,a5,0x8
   13660:	0ff7f793          	andi	a5,a5,255
   13664:	0007861b          	addiw	a2,a5,0
   13668:	000257b7          	lui	a5,0x25
   1366c:	10060613          	addi	a2,a2,256
   13670:	00361613          	slli	a2,a2,0x3
   13674:	78878793          	addi	a5,a5,1928 # 25788 <fl_tab>
   13678:	00f607b3          	add	a5,a2,a5
   1367c:	0007b783          	ld	a5,0(a5)
   13680:	00f6c6b3          	xor	a3,a3,a5
   13684:	fd843783          	ld	a5,-40(s0)
   13688:	0107d793          	srli	a5,a5,0x10
   1368c:	0ff7f793          	andi	a5,a5,255
   13690:	0007861b          	addiw	a2,a5,0
   13694:	000257b7          	lui	a5,0x25
   13698:	20060613          	addi	a2,a2,512
   1369c:	00361613          	slli	a2,a2,0x3
   136a0:	78878793          	addi	a5,a5,1928 # 25788 <fl_tab>
   136a4:	00f607b3          	add	a5,a2,a5
   136a8:	0007b783          	ld	a5,0(a5)
   136ac:	00f6c6b3          	xor	a3,a3,a5
   136b0:	fe043783          	ld	a5,-32(s0)
   136b4:	0187d793          	srli	a5,a5,0x18
   136b8:	0ff7f793          	andi	a5,a5,255
   136bc:	0007861b          	addiw	a2,a5,0
   136c0:	000257b7          	lui	a5,0x25
   136c4:	30060613          	addi	a2,a2,768
   136c8:	00361613          	slli	a2,a2,0x3
   136cc:	78878793          	addi	a5,a5,1928 # 25788 <fl_tab>
   136d0:	00f607b3          	add	a5,a2,a5
   136d4:	0007b783          	ld	a5,0(a5)
   136d8:	00f6c7b3          	xor	a5,a3,a5
   136dc:	00f747b3          	xor	a5,a4,a5
   136e0:	faf43423          	sd	a5,-88(s0)
   136e4:	fe843783          	ld	a5,-24(s0)
   136e8:	12878793          	addi	a5,a5,296
   136ec:	0007b703          	ld	a4,0(a5)
   136f0:	fd043783          	ld	a5,-48(s0)
   136f4:	0ff7f793          	andi	a5,a5,255
   136f8:	0007869b          	addiw	a3,a5,0
   136fc:	000257b7          	lui	a5,0x25
   13700:	00369693          	slli	a3,a3,0x3
   13704:	78878793          	addi	a5,a5,1928 # 25788 <fl_tab>
   13708:	00f687b3          	add	a5,a3,a5
   1370c:	0007b683          	ld	a3,0(a5)
   13710:	fd843783          	ld	a5,-40(s0)
   13714:	0087d793          	srli	a5,a5,0x8
   13718:	0ff7f793          	andi	a5,a5,255
   1371c:	0007861b          	addiw	a2,a5,0
   13720:	000257b7          	lui	a5,0x25
   13724:	10060613          	addi	a2,a2,256
   13728:	00361613          	slli	a2,a2,0x3
   1372c:	78878793          	addi	a5,a5,1928 # 25788 <fl_tab>
   13730:	00f607b3          	add	a5,a2,a5
   13734:	0007b783          	ld	a5,0(a5)
   13738:	00f6c6b3          	xor	a3,a3,a5
   1373c:	fe043783          	ld	a5,-32(s0)
   13740:	0107d793          	srli	a5,a5,0x10
   13744:	0ff7f793          	andi	a5,a5,255
   13748:	0007861b          	addiw	a2,a5,0
   1374c:	000257b7          	lui	a5,0x25
   13750:	20060613          	addi	a2,a2,512
   13754:	00361613          	slli	a2,a2,0x3
   13758:	78878793          	addi	a5,a5,1928 # 25788 <fl_tab>
   1375c:	00f607b3          	add	a5,a2,a5
   13760:	0007b783          	ld	a5,0(a5)
   13764:	00f6c6b3          	xor	a3,a3,a5
   13768:	fc843783          	ld	a5,-56(s0)
   1376c:	0187d793          	srli	a5,a5,0x18
   13770:	0ff7f793          	andi	a5,a5,255
   13774:	0007861b          	addiw	a2,a5,0
   13778:	000257b7          	lui	a5,0x25
   1377c:	30060613          	addi	a2,a2,768
   13780:	00361613          	slli	a2,a2,0x3
   13784:	78878793          	addi	a5,a5,1928 # 25788 <fl_tab>
   13788:	00f607b3          	add	a5,a2,a5
   1378c:	0007b783          	ld	a5,0(a5)
   13790:	00f6c7b3          	xor	a5,a3,a5
   13794:	00f747b3          	xor	a5,a4,a5
   13798:	faf43823          	sd	a5,-80(s0)
   1379c:	fe843783          	ld	a5,-24(s0)
   137a0:	13078793          	addi	a5,a5,304
   137a4:	0007b703          	ld	a4,0(a5)
   137a8:	fd843783          	ld	a5,-40(s0)
   137ac:	0ff7f793          	andi	a5,a5,255
   137b0:	0007869b          	addiw	a3,a5,0
   137b4:	000257b7          	lui	a5,0x25
   137b8:	00369693          	slli	a3,a3,0x3
   137bc:	78878793          	addi	a5,a5,1928 # 25788 <fl_tab>
   137c0:	00f687b3          	add	a5,a3,a5
   137c4:	0007b683          	ld	a3,0(a5)
   137c8:	fe043783          	ld	a5,-32(s0)
   137cc:	0087d793          	srli	a5,a5,0x8
   137d0:	0ff7f793          	andi	a5,a5,255
   137d4:	0007861b          	addiw	a2,a5,0
   137d8:	000257b7          	lui	a5,0x25
   137dc:	10060613          	addi	a2,a2,256
   137e0:	00361613          	slli	a2,a2,0x3
   137e4:	78878793          	addi	a5,a5,1928 # 25788 <fl_tab>
   137e8:	00f607b3          	add	a5,a2,a5
   137ec:	0007b783          	ld	a5,0(a5)
   137f0:	00f6c6b3          	xor	a3,a3,a5
   137f4:	fc843783          	ld	a5,-56(s0)
   137f8:	0107d793          	srli	a5,a5,0x10
   137fc:	0ff7f793          	andi	a5,a5,255
   13800:	0007861b          	addiw	a2,a5,0
   13804:	000257b7          	lui	a5,0x25
   13808:	20060613          	addi	a2,a2,512
   1380c:	00361613          	slli	a2,a2,0x3
   13810:	78878793          	addi	a5,a5,1928 # 25788 <fl_tab>
   13814:	00f607b3          	add	a5,a2,a5
   13818:	0007b783          	ld	a5,0(a5)
   1381c:	00f6c6b3          	xor	a3,a3,a5
   13820:	fd043783          	ld	a5,-48(s0)
   13824:	0187d793          	srli	a5,a5,0x18
   13828:	0ff7f793          	andi	a5,a5,255
   1382c:	0007861b          	addiw	a2,a5,0
   13830:	000257b7          	lui	a5,0x25
   13834:	30060613          	addi	a2,a2,768
   13838:	00361613          	slli	a2,a2,0x3
   1383c:	78878793          	addi	a5,a5,1928 # 25788 <fl_tab>
   13840:	00f607b3          	add	a5,a2,a5
   13844:	0007b783          	ld	a5,0(a5)
   13848:	00f6c7b3          	xor	a5,a3,a5
   1384c:	00f747b3          	xor	a5,a4,a5
   13850:	faf43c23          	sd	a5,-72(s0)
   13854:	fe843783          	ld	a5,-24(s0)
   13858:	13878793          	addi	a5,a5,312
   1385c:	0007b703          	ld	a4,0(a5)
   13860:	fe043783          	ld	a5,-32(s0)
   13864:	0ff7f793          	andi	a5,a5,255
   13868:	0007869b          	addiw	a3,a5,0
   1386c:	000257b7          	lui	a5,0x25
   13870:	00369693          	slli	a3,a3,0x3
   13874:	78878793          	addi	a5,a5,1928 # 25788 <fl_tab>
   13878:	00f687b3          	add	a5,a3,a5
   1387c:	0007b683          	ld	a3,0(a5)
   13880:	fc843783          	ld	a5,-56(s0)
   13884:	0087d793          	srli	a5,a5,0x8
   13888:	0ff7f793          	andi	a5,a5,255
   1388c:	0007861b          	addiw	a2,a5,0
   13890:	000257b7          	lui	a5,0x25
   13894:	10060613          	addi	a2,a2,256
   13898:	00361613          	slli	a2,a2,0x3
   1389c:	78878793          	addi	a5,a5,1928 # 25788 <fl_tab>
   138a0:	00f607b3          	add	a5,a2,a5
   138a4:	0007b783          	ld	a5,0(a5)
   138a8:	00f6c6b3          	xor	a3,a3,a5
   138ac:	fd043783          	ld	a5,-48(s0)
   138b0:	0107d793          	srli	a5,a5,0x10
   138b4:	0ff7f793          	andi	a5,a5,255
   138b8:	0007861b          	addiw	a2,a5,0
   138bc:	000257b7          	lui	a5,0x25
   138c0:	20060613          	addi	a2,a2,512
   138c4:	00361613          	slli	a2,a2,0x3
   138c8:	78878793          	addi	a5,a5,1928 # 25788 <fl_tab>
   138cc:	00f607b3          	add	a5,a2,a5
   138d0:	0007b783          	ld	a5,0(a5)
   138d4:	00f6c6b3          	xor	a3,a3,a5
   138d8:	fd843783          	ld	a5,-40(s0)
   138dc:	0187d793          	srli	a5,a5,0x18
   138e0:	0ff7f793          	andi	a5,a5,255
   138e4:	0007861b          	addiw	a2,a5,0
   138e8:	000257b7          	lui	a5,0x25
   138ec:	30060613          	addi	a2,a2,768
   138f0:	00361613          	slli	a2,a2,0x3
   138f4:	78878793          	addi	a5,a5,1928 # 25788 <fl_tab>
   138f8:	00f607b3          	add	a5,a2,a5
   138fc:	0007b783          	ld	a5,0(a5)
   13900:	00f6c7b3          	xor	a5,a3,a5
   13904:	00f747b3          	xor	a5,a4,a5
   13908:	fcf43023          	sd	a5,-64(s0)
   1390c:	0040006f          	jal	zero,13910 <encrypt+0x2968>
   13910:	00027977          	chk	s2,0x27
   13914:	fa843703          	ld	a4,-88(s0)
   13918:	f9043783          	ld	a5,-112(s0)
   1391c:	00e7b023          	sd	a4,0(a5)
   13920:	f9043783          	ld	a5,-112(s0)
   13924:	00478793          	addi	a5,a5,4
   13928:	fb043703          	ld	a4,-80(s0)
   1392c:	00e7b023          	sd	a4,0(a5)
   13930:	f9043783          	ld	a5,-112(s0)
   13934:	00878793          	addi	a5,a5,8
   13938:	fb843703          	ld	a4,-72(s0)
   1393c:	00e7b023          	sd	a4,0(a5)
   13940:	f9043783          	ld	a5,-112(s0)
   13944:	00c78793          	addi	a5,a5,12
   13948:	fc043703          	ld	a4,-64(s0)
   1394c:	00e7b023          	sd	a4,0(a5)
   13950:	00100793          	addi	a5,zero,1
   13954:	0040006f          	jal	zero,13958 <encrypt+0x29b0>
   13958:	00028977          	chk	s2,0x28
   1395c:	00078513          	addi	a0,a5,0
   13960:	07813403          	ld	s0,120(sp)
   13964:	08010113          	addi	sp,sp,128
   13968:	0ff05073          	csrrwi	zero,0xff,0
   1396c:	00008067          	jalr	zero,0(ra)

0000000000013970 <decrypt>:
   13970:	00029977          	chk	s2,0x29
   13974:	f8010113          	addi	sp,sp,-128
   13978:	06813c23          	sd	s0,120(sp)
   1397c:	08010413          	addi	s0,sp,128
   13980:	f8a43c23          	sd	a0,-104(s0)
   13984:	f8b43823          	sd	a1,-112(s0)
   13988:	f8c43423          	sd	a2,-120(s0)
   1398c:	f8843783          	ld	a5,-120(s0)
   13990:	21078793          	addi	a5,a5,528
   13994:	fef43423          	sd	a5,-24(s0)
   13998:	f8843783          	ld	a5,-120(s0)
   1399c:	4107c783          	lbu	a5,1040(a5)
   139a0:	0007879b          	addiw	a5,a5,0
   139a4:	0027f793          	andi	a5,a5,2
   139a8:	0007879b          	addiw	a5,a5,0
   139ac:	00079863          	bne	a5,zero,139bc <decrypt+0x4c>
   139b0:	0002a977          	chk	s2,0x2a
   139b4:	00000793          	addi	a5,zero,0
   139b8:	1690206f          	jal	zero,16320 <decrypt+0x29b0>
   139bc:	0002b977          	chk	s2,0x2b
   139c0:	f9843783          	ld	a5,-104(s0)
   139c4:	0007b703          	ld	a4,0(a5)
   139c8:	fe843783          	ld	a5,-24(s0)
   139cc:	0007b783          	ld	a5,0(a5)
   139d0:	00f747b3          	xor	a5,a4,a5
   139d4:	faf43423          	sd	a5,-88(s0)
   139d8:	f9843783          	ld	a5,-104(s0)
   139dc:	00478793          	addi	a5,a5,4
   139e0:	0007b703          	ld	a4,0(a5)
   139e4:	fe843783          	ld	a5,-24(s0)
   139e8:	00878793          	addi	a5,a5,8
   139ec:	0007b783          	ld	a5,0(a5)
   139f0:	00f747b3          	xor	a5,a4,a5
   139f4:	faf43823          	sd	a5,-80(s0)
   139f8:	f9843783          	ld	a5,-104(s0)
   139fc:	00878793          	addi	a5,a5,8
   13a00:	0007b703          	ld	a4,0(a5)
   13a04:	fe843783          	ld	a5,-24(s0)
   13a08:	01078793          	addi	a5,a5,16
   13a0c:	0007b783          	ld	a5,0(a5)
   13a10:	00f747b3          	xor	a5,a4,a5
   13a14:	faf43c23          	sd	a5,-72(s0)
   13a18:	f9843783          	ld	a5,-104(s0)
   13a1c:	00c78793          	addi	a5,a5,12
   13a20:	0007b703          	ld	a4,0(a5)
   13a24:	fe843783          	ld	a5,-24(s0)
   13a28:	01878793          	addi	a5,a5,24
   13a2c:	0007b783          	ld	a5,0(a5)
   13a30:	00f747b3          	xor	a5,a4,a5
   13a34:	fcf43023          	sd	a5,-64(s0)
   13a38:	fe843783          	ld	a5,-24(s0)
   13a3c:	02078793          	addi	a5,a5,32
   13a40:	fef43423          	sd	a5,-24(s0)
   13a44:	f8843783          	ld	a5,-120(s0)
   13a48:	0087b783          	ld	a5,8(a5)
   13a4c:	00c00713          	addi	a4,zero,12
   13a50:	5ee78a63          	beq	a5,a4,14044 <decrypt+0x6d4>
   13a54:	0002c977          	chk	s2,0x2c
   13a58:	00e00713          	addi	a4,zero,14
   13a5c:	00e78c63          	beq	a5,a4,13a74 <decrypt+0x104>
   13a60:	0002d977          	chk	s2,0x2d
   13a64:	00a00713          	addi	a4,zero,10
   13a68:	3ae786e3          	beq	a5,a4,14614 <decrypt+0xca4>
   13a6c:	0002e977          	chk	s2,0x2e
   13a70:	0690206f          	jal	zero,162d8 <decrypt+0x2968>
   13a74:	0002f977          	chk	s2,0x2f
   13a78:	fe843783          	ld	a5,-24(s0)
   13a7c:	0007b703          	ld	a4,0(a5)
   13a80:	fa843783          	ld	a5,-88(s0)
   13a84:	0ff7f793          	andi	a5,a5,255
   13a88:	0007869b          	addiw	a3,a5,0
   13a8c:	000237b7          	lui	a5,0x23
   13a90:	00369693          	slli	a3,a3,0x3
   13a94:	78878793          	addi	a5,a5,1928 # 23788 <it_tab>
   13a98:	00f687b3          	add	a5,a3,a5
   13a9c:	0007b683          	ld	a3,0(a5)
   13aa0:	fc043783          	ld	a5,-64(s0)
   13aa4:	0087d793          	srli	a5,a5,0x8
   13aa8:	0ff7f793          	andi	a5,a5,255
   13aac:	0007861b          	addiw	a2,a5,0
   13ab0:	000237b7          	lui	a5,0x23
   13ab4:	10060613          	addi	a2,a2,256
   13ab8:	00361613          	slli	a2,a2,0x3
   13abc:	78878793          	addi	a5,a5,1928 # 23788 <it_tab>
   13ac0:	00f607b3          	add	a5,a2,a5
   13ac4:	0007b783          	ld	a5,0(a5)
   13ac8:	00f6c6b3          	xor	a3,a3,a5
   13acc:	fb843783          	ld	a5,-72(s0)
   13ad0:	0107d793          	srli	a5,a5,0x10
   13ad4:	0ff7f793          	andi	a5,a5,255
   13ad8:	0007861b          	addiw	a2,a5,0
   13adc:	000237b7          	lui	a5,0x23
   13ae0:	20060613          	addi	a2,a2,512
   13ae4:	00361613          	slli	a2,a2,0x3
   13ae8:	78878793          	addi	a5,a5,1928 # 23788 <it_tab>
   13aec:	00f607b3          	add	a5,a2,a5
   13af0:	0007b783          	ld	a5,0(a5)
   13af4:	00f6c6b3          	xor	a3,a3,a5
   13af8:	fb043783          	ld	a5,-80(s0)
   13afc:	0187d793          	srli	a5,a5,0x18
   13b00:	0ff7f793          	andi	a5,a5,255
   13b04:	0007861b          	addiw	a2,a5,0
   13b08:	000237b7          	lui	a5,0x23
   13b0c:	30060613          	addi	a2,a2,768
   13b10:	00361613          	slli	a2,a2,0x3
   13b14:	78878793          	addi	a5,a5,1928 # 23788 <it_tab>
   13b18:	00f607b3          	add	a5,a2,a5
   13b1c:	0007b783          	ld	a5,0(a5)
   13b20:	00f6c7b3          	xor	a5,a3,a5
   13b24:	00f747b3          	xor	a5,a4,a5
   13b28:	fcf43423          	sd	a5,-56(s0)
   13b2c:	fe843783          	ld	a5,-24(s0)
   13b30:	00878793          	addi	a5,a5,8
   13b34:	0007b703          	ld	a4,0(a5)
   13b38:	fb043783          	ld	a5,-80(s0)
   13b3c:	0ff7f793          	andi	a5,a5,255
   13b40:	0007869b          	addiw	a3,a5,0
   13b44:	000237b7          	lui	a5,0x23
   13b48:	00369693          	slli	a3,a3,0x3
   13b4c:	78878793          	addi	a5,a5,1928 # 23788 <it_tab>
   13b50:	00f687b3          	add	a5,a3,a5
   13b54:	0007b683          	ld	a3,0(a5)
   13b58:	fa843783          	ld	a5,-88(s0)
   13b5c:	0087d793          	srli	a5,a5,0x8
   13b60:	0ff7f793          	andi	a5,a5,255
   13b64:	0007861b          	addiw	a2,a5,0
   13b68:	000237b7          	lui	a5,0x23
   13b6c:	10060613          	addi	a2,a2,256
   13b70:	00361613          	slli	a2,a2,0x3
   13b74:	78878793          	addi	a5,a5,1928 # 23788 <it_tab>
   13b78:	00f607b3          	add	a5,a2,a5
   13b7c:	0007b783          	ld	a5,0(a5)
   13b80:	00f6c6b3          	xor	a3,a3,a5
   13b84:	fc043783          	ld	a5,-64(s0)
   13b88:	0107d793          	srli	a5,a5,0x10
   13b8c:	0ff7f793          	andi	a5,a5,255
   13b90:	0007861b          	addiw	a2,a5,0
   13b94:	000237b7          	lui	a5,0x23
   13b98:	20060613          	addi	a2,a2,512
   13b9c:	00361613          	slli	a2,a2,0x3
   13ba0:	78878793          	addi	a5,a5,1928 # 23788 <it_tab>
   13ba4:	00f607b3          	add	a5,a2,a5
   13ba8:	0007b783          	ld	a5,0(a5)
   13bac:	00f6c6b3          	xor	a3,a3,a5
   13bb0:	fb843783          	ld	a5,-72(s0)
   13bb4:	0187d793          	srli	a5,a5,0x18
   13bb8:	0ff7f793          	andi	a5,a5,255
   13bbc:	0007861b          	addiw	a2,a5,0
   13bc0:	000237b7          	lui	a5,0x23
   13bc4:	30060613          	addi	a2,a2,768
   13bc8:	00361613          	slli	a2,a2,0x3
   13bcc:	78878793          	addi	a5,a5,1928 # 23788 <it_tab>
   13bd0:	00f607b3          	add	a5,a2,a5
   13bd4:	0007b783          	ld	a5,0(a5)
   13bd8:	00f6c7b3          	xor	a5,a3,a5
   13bdc:	00f747b3          	xor	a5,a4,a5
   13be0:	fcf43823          	sd	a5,-48(s0)
   13be4:	fe843783          	ld	a5,-24(s0)
   13be8:	01078793          	addi	a5,a5,16
   13bec:	0007b703          	ld	a4,0(a5)
   13bf0:	fb843783          	ld	a5,-72(s0)
   13bf4:	0ff7f793          	andi	a5,a5,255
   13bf8:	0007869b          	addiw	a3,a5,0
   13bfc:	000237b7          	lui	a5,0x23
   13c00:	00369693          	slli	a3,a3,0x3
   13c04:	78878793          	addi	a5,a5,1928 # 23788 <it_tab>
   13c08:	00f687b3          	add	a5,a3,a5
   13c0c:	0007b683          	ld	a3,0(a5)
   13c10:	fb043783          	ld	a5,-80(s0)
   13c14:	0087d793          	srli	a5,a5,0x8
   13c18:	0ff7f793          	andi	a5,a5,255
   13c1c:	0007861b          	addiw	a2,a5,0
   13c20:	000237b7          	lui	a5,0x23
   13c24:	10060613          	addi	a2,a2,256
   13c28:	00361613          	slli	a2,a2,0x3
   13c2c:	78878793          	addi	a5,a5,1928 # 23788 <it_tab>
   13c30:	00f607b3          	add	a5,a2,a5
   13c34:	0007b783          	ld	a5,0(a5)
   13c38:	00f6c6b3          	xor	a3,a3,a5
   13c3c:	fa843783          	ld	a5,-88(s0)
   13c40:	0107d793          	srli	a5,a5,0x10
   13c44:	0ff7f793          	andi	a5,a5,255
   13c48:	0007861b          	addiw	a2,a5,0
   13c4c:	000237b7          	lui	a5,0x23
   13c50:	20060613          	addi	a2,a2,512
   13c54:	00361613          	slli	a2,a2,0x3
   13c58:	78878793          	addi	a5,a5,1928 # 23788 <it_tab>
   13c5c:	00f607b3          	add	a5,a2,a5
   13c60:	0007b783          	ld	a5,0(a5)
   13c64:	00f6c6b3          	xor	a3,a3,a5
   13c68:	fc043783          	ld	a5,-64(s0)
   13c6c:	0187d793          	srli	a5,a5,0x18
   13c70:	0ff7f793          	andi	a5,a5,255
   13c74:	0007861b          	addiw	a2,a5,0
   13c78:	000237b7          	lui	a5,0x23
   13c7c:	30060613          	addi	a2,a2,768
   13c80:	00361613          	slli	a2,a2,0x3
   13c84:	78878793          	addi	a5,a5,1928 # 23788 <it_tab>
   13c88:	00f607b3          	add	a5,a2,a5
   13c8c:	0007b783          	ld	a5,0(a5)
   13c90:	00f6c7b3          	xor	a5,a3,a5
   13c94:	00f747b3          	xor	a5,a4,a5
   13c98:	fcf43c23          	sd	a5,-40(s0)
   13c9c:	fe843783          	ld	a5,-24(s0)
   13ca0:	01878793          	addi	a5,a5,24
   13ca4:	0007b703          	ld	a4,0(a5)
   13ca8:	fc043783          	ld	a5,-64(s0)
   13cac:	0ff7f793          	andi	a5,a5,255
   13cb0:	0007869b          	addiw	a3,a5,0
   13cb4:	000237b7          	lui	a5,0x23
   13cb8:	00369693          	slli	a3,a3,0x3
   13cbc:	78878793          	addi	a5,a5,1928 # 23788 <it_tab>
   13cc0:	00f687b3          	add	a5,a3,a5
   13cc4:	0007b683          	ld	a3,0(a5)
   13cc8:	fb843783          	ld	a5,-72(s0)
   13ccc:	0087d793          	srli	a5,a5,0x8
   13cd0:	0ff7f793          	andi	a5,a5,255
   13cd4:	0007861b          	addiw	a2,a5,0
   13cd8:	000237b7          	lui	a5,0x23
   13cdc:	10060613          	addi	a2,a2,256
   13ce0:	00361613          	slli	a2,a2,0x3
   13ce4:	78878793          	addi	a5,a5,1928 # 23788 <it_tab>
   13ce8:	00f607b3          	add	a5,a2,a5
   13cec:	0007b783          	ld	a5,0(a5)
   13cf0:	00f6c6b3          	xor	a3,a3,a5
   13cf4:	fb043783          	ld	a5,-80(s0)
   13cf8:	0107d793          	srli	a5,a5,0x10
   13cfc:	0ff7f793          	andi	a5,a5,255
   13d00:	0007861b          	addiw	a2,a5,0
   13d04:	000237b7          	lui	a5,0x23
   13d08:	20060613          	addi	a2,a2,512
   13d0c:	00361613          	slli	a2,a2,0x3
   13d10:	78878793          	addi	a5,a5,1928 # 23788 <it_tab>
   13d14:	00f607b3          	add	a5,a2,a5
   13d18:	0007b783          	ld	a5,0(a5)
   13d1c:	00f6c6b3          	xor	a3,a3,a5
   13d20:	fa843783          	ld	a5,-88(s0)
   13d24:	0187d793          	srli	a5,a5,0x18
   13d28:	0ff7f793          	andi	a5,a5,255
   13d2c:	0007861b          	addiw	a2,a5,0
   13d30:	000237b7          	lui	a5,0x23
   13d34:	30060613          	addi	a2,a2,768
   13d38:	00361613          	slli	a2,a2,0x3
   13d3c:	78878793          	addi	a5,a5,1928 # 23788 <it_tab>
   13d40:	00f607b3          	add	a5,a2,a5
   13d44:	0007b783          	ld	a5,0(a5)
   13d48:	00f6c7b3          	xor	a5,a3,a5
   13d4c:	00f747b3          	xor	a5,a4,a5
   13d50:	fef43023          	sd	a5,-32(s0)
   13d54:	fe843783          	ld	a5,-24(s0)
   13d58:	02078793          	addi	a5,a5,32
   13d5c:	0007b703          	ld	a4,0(a5)
   13d60:	fc843783          	ld	a5,-56(s0)
   13d64:	0ff7f793          	andi	a5,a5,255
   13d68:	0007869b          	addiw	a3,a5,0
   13d6c:	000237b7          	lui	a5,0x23
   13d70:	00369693          	slli	a3,a3,0x3
   13d74:	78878793          	addi	a5,a5,1928 # 23788 <it_tab>
   13d78:	00f687b3          	add	a5,a3,a5
   13d7c:	0007b683          	ld	a3,0(a5)
   13d80:	fe043783          	ld	a5,-32(s0)
   13d84:	0087d793          	srli	a5,a5,0x8
   13d88:	0ff7f793          	andi	a5,a5,255
   13d8c:	0007861b          	addiw	a2,a5,0
   13d90:	000237b7          	lui	a5,0x23
   13d94:	10060613          	addi	a2,a2,256
   13d98:	00361613          	slli	a2,a2,0x3
   13d9c:	78878793          	addi	a5,a5,1928 # 23788 <it_tab>
   13da0:	00f607b3          	add	a5,a2,a5
   13da4:	0007b783          	ld	a5,0(a5)
   13da8:	00f6c6b3          	xor	a3,a3,a5
   13dac:	fd843783          	ld	a5,-40(s0)
   13db0:	0107d793          	srli	a5,a5,0x10
   13db4:	0ff7f793          	andi	a5,a5,255
   13db8:	0007861b          	addiw	a2,a5,0
   13dbc:	000237b7          	lui	a5,0x23
   13dc0:	20060613          	addi	a2,a2,512
   13dc4:	00361613          	slli	a2,a2,0x3
   13dc8:	78878793          	addi	a5,a5,1928 # 23788 <it_tab>
   13dcc:	00f607b3          	add	a5,a2,a5
   13dd0:	0007b783          	ld	a5,0(a5)
   13dd4:	00f6c6b3          	xor	a3,a3,a5
   13dd8:	fd043783          	ld	a5,-48(s0)
   13ddc:	0187d793          	srli	a5,a5,0x18
   13de0:	0ff7f793          	andi	a5,a5,255
   13de4:	0007861b          	addiw	a2,a5,0
   13de8:	000237b7          	lui	a5,0x23
   13dec:	30060613          	addi	a2,a2,768
   13df0:	00361613          	slli	a2,a2,0x3
   13df4:	78878793          	addi	a5,a5,1928 # 23788 <it_tab>
   13df8:	00f607b3          	add	a5,a2,a5
   13dfc:	0007b783          	ld	a5,0(a5)
   13e00:	00f6c7b3          	xor	a5,a3,a5
   13e04:	00f747b3          	xor	a5,a4,a5
   13e08:	faf43423          	sd	a5,-88(s0)
   13e0c:	fe843783          	ld	a5,-24(s0)
   13e10:	02878793          	addi	a5,a5,40
   13e14:	0007b703          	ld	a4,0(a5)
   13e18:	fd043783          	ld	a5,-48(s0)
   13e1c:	0ff7f793          	andi	a5,a5,255
   13e20:	0007869b          	addiw	a3,a5,0
   13e24:	000237b7          	lui	a5,0x23
   13e28:	00369693          	slli	a3,a3,0x3
   13e2c:	78878793          	addi	a5,a5,1928 # 23788 <it_tab>
   13e30:	00f687b3          	add	a5,a3,a5
   13e34:	0007b683          	ld	a3,0(a5)
   13e38:	fc843783          	ld	a5,-56(s0)
   13e3c:	0087d793          	srli	a5,a5,0x8
   13e40:	0ff7f793          	andi	a5,a5,255
   13e44:	0007861b          	addiw	a2,a5,0
   13e48:	000237b7          	lui	a5,0x23
   13e4c:	10060613          	addi	a2,a2,256
   13e50:	00361613          	slli	a2,a2,0x3
   13e54:	78878793          	addi	a5,a5,1928 # 23788 <it_tab>
   13e58:	00f607b3          	add	a5,a2,a5
   13e5c:	0007b783          	ld	a5,0(a5)
   13e60:	00f6c6b3          	xor	a3,a3,a5
   13e64:	fe043783          	ld	a5,-32(s0)
   13e68:	0107d793          	srli	a5,a5,0x10
   13e6c:	0ff7f793          	andi	a5,a5,255
   13e70:	0007861b          	addiw	a2,a5,0
   13e74:	000237b7          	lui	a5,0x23
   13e78:	20060613          	addi	a2,a2,512
   13e7c:	00361613          	slli	a2,a2,0x3
   13e80:	78878793          	addi	a5,a5,1928 # 23788 <it_tab>
   13e84:	00f607b3          	add	a5,a2,a5
   13e88:	0007b783          	ld	a5,0(a5)
   13e8c:	00f6c6b3          	xor	a3,a3,a5
   13e90:	fd843783          	ld	a5,-40(s0)
   13e94:	0187d793          	srli	a5,a5,0x18
   13e98:	0ff7f793          	andi	a5,a5,255
   13e9c:	0007861b          	addiw	a2,a5,0
   13ea0:	000237b7          	lui	a5,0x23
   13ea4:	30060613          	addi	a2,a2,768
   13ea8:	00361613          	slli	a2,a2,0x3
   13eac:	78878793          	addi	a5,a5,1928 # 23788 <it_tab>
   13eb0:	00f607b3          	add	a5,a2,a5
   13eb4:	0007b783          	ld	a5,0(a5)
   13eb8:	00f6c7b3          	xor	a5,a3,a5
   13ebc:	00f747b3          	xor	a5,a4,a5
   13ec0:	faf43823          	sd	a5,-80(s0)
   13ec4:	fe843783          	ld	a5,-24(s0)
   13ec8:	03078793          	addi	a5,a5,48
   13ecc:	0007b703          	ld	a4,0(a5)
   13ed0:	fd843783          	ld	a5,-40(s0)
   13ed4:	0ff7f793          	andi	a5,a5,255
   13ed8:	0007869b          	addiw	a3,a5,0
   13edc:	000237b7          	lui	a5,0x23
   13ee0:	00369693          	slli	a3,a3,0x3
   13ee4:	78878793          	addi	a5,a5,1928 # 23788 <it_tab>
   13ee8:	00f687b3          	add	a5,a3,a5
   13eec:	0007b683          	ld	a3,0(a5)
   13ef0:	fd043783          	ld	a5,-48(s0)
   13ef4:	0087d793          	srli	a5,a5,0x8
   13ef8:	0ff7f793          	andi	a5,a5,255
   13efc:	0007861b          	addiw	a2,a5,0
   13f00:	000237b7          	lui	a5,0x23
   13f04:	10060613          	addi	a2,a2,256
   13f08:	00361613          	slli	a2,a2,0x3
   13f0c:	78878793          	addi	a5,a5,1928 # 23788 <it_tab>
   13f10:	00f607b3          	add	a5,a2,a5
   13f14:	0007b783          	ld	a5,0(a5)
   13f18:	00f6c6b3          	xor	a3,a3,a5
   13f1c:	fc843783          	ld	a5,-56(s0)
   13f20:	0107d793          	srli	a5,a5,0x10
   13f24:	0ff7f793          	andi	a5,a5,255
   13f28:	0007861b          	addiw	a2,a5,0
   13f2c:	000237b7          	lui	a5,0x23
   13f30:	20060613          	addi	a2,a2,512
   13f34:	00361613          	slli	a2,a2,0x3
   13f38:	78878793          	addi	a5,a5,1928 # 23788 <it_tab>
   13f3c:	00f607b3          	add	a5,a2,a5
   13f40:	0007b783          	ld	a5,0(a5)
   13f44:	00f6c6b3          	xor	a3,a3,a5
   13f48:	fe043783          	ld	a5,-32(s0)
   13f4c:	0187d793          	srli	a5,a5,0x18
   13f50:	0ff7f793          	andi	a5,a5,255
   13f54:	0007861b          	addiw	a2,a5,0
   13f58:	000237b7          	lui	a5,0x23
   13f5c:	30060613          	addi	a2,a2,768
   13f60:	00361613          	slli	a2,a2,0x3
   13f64:	78878793          	addi	a5,a5,1928 # 23788 <it_tab>
   13f68:	00f607b3          	add	a5,a2,a5
   13f6c:	0007b783          	ld	a5,0(a5)
   13f70:	00f6c7b3          	xor	a5,a3,a5
   13f74:	00f747b3          	xor	a5,a4,a5
   13f78:	faf43c23          	sd	a5,-72(s0)
   13f7c:	fe843783          	ld	a5,-24(s0)
   13f80:	03878793          	addi	a5,a5,56
   13f84:	0007b703          	ld	a4,0(a5)
   13f88:	fe043783          	ld	a5,-32(s0)
   13f8c:	0ff7f793          	andi	a5,a5,255
   13f90:	0007869b          	addiw	a3,a5,0
   13f94:	000237b7          	lui	a5,0x23
   13f98:	00369693          	slli	a3,a3,0x3
   13f9c:	78878793          	addi	a5,a5,1928 # 23788 <it_tab>
   13fa0:	00f687b3          	add	a5,a3,a5
   13fa4:	0007b683          	ld	a3,0(a5)
   13fa8:	fd843783          	ld	a5,-40(s0)
   13fac:	0087d793          	srli	a5,a5,0x8
   13fb0:	0ff7f793          	andi	a5,a5,255
   13fb4:	0007861b          	addiw	a2,a5,0
   13fb8:	000237b7          	lui	a5,0x23
   13fbc:	10060613          	addi	a2,a2,256
   13fc0:	00361613          	slli	a2,a2,0x3
   13fc4:	78878793          	addi	a5,a5,1928 # 23788 <it_tab>
   13fc8:	00f607b3          	add	a5,a2,a5
   13fcc:	0007b783          	ld	a5,0(a5)
   13fd0:	00f6c6b3          	xor	a3,a3,a5
   13fd4:	fd043783          	ld	a5,-48(s0)
   13fd8:	0107d793          	srli	a5,a5,0x10
   13fdc:	0ff7f793          	andi	a5,a5,255
   13fe0:	0007861b          	addiw	a2,a5,0
   13fe4:	000237b7          	lui	a5,0x23
   13fe8:	20060613          	addi	a2,a2,512
   13fec:	00361613          	slli	a2,a2,0x3
   13ff0:	78878793          	addi	a5,a5,1928 # 23788 <it_tab>
   13ff4:	00f607b3          	add	a5,a2,a5
   13ff8:	0007b783          	ld	a5,0(a5)
   13ffc:	00f6c6b3          	xor	a3,a3,a5
   14000:	fc843783          	ld	a5,-56(s0)
   14004:	0187d793          	srli	a5,a5,0x18
   14008:	0ff7f793          	andi	a5,a5,255
   1400c:	0007861b          	addiw	a2,a5,0
   14010:	000237b7          	lui	a5,0x23
   14014:	30060613          	addi	a2,a2,768
   14018:	00361613          	slli	a2,a2,0x3
   1401c:	78878793          	addi	a5,a5,1928 # 23788 <it_tab>
   14020:	00f607b3          	add	a5,a2,a5
   14024:	0007b783          	ld	a5,0(a5)
   14028:	00f6c7b3          	xor	a5,a3,a5
   1402c:	00f747b3          	xor	a5,a4,a5
   14030:	fcf43023          	sd	a5,-64(s0)
   14034:	fe843783          	ld	a5,-24(s0)
   14038:	04078793          	addi	a5,a5,64
   1403c:	fef43423          	sd	a5,-24(s0)
   14040:	0040006f          	jal	zero,14044 <decrypt+0x6d4>
   14044:	00030977          	chk	s2,0x30
   14048:	fe843783          	ld	a5,-24(s0)
   1404c:	0007b703          	ld	a4,0(a5)
   14050:	fa843783          	ld	a5,-88(s0)
   14054:	0ff7f793          	andi	a5,a5,255
   14058:	0007869b          	addiw	a3,a5,0
   1405c:	000237b7          	lui	a5,0x23
   14060:	00369693          	slli	a3,a3,0x3
   14064:	78878793          	addi	a5,a5,1928 # 23788 <it_tab>
   14068:	00f687b3          	add	a5,a3,a5
   1406c:	0007b683          	ld	a3,0(a5)
   14070:	fc043783          	ld	a5,-64(s0)
   14074:	0087d793          	srli	a5,a5,0x8
   14078:	0ff7f793          	andi	a5,a5,255
   1407c:	0007861b          	addiw	a2,a5,0
   14080:	000237b7          	lui	a5,0x23
   14084:	10060613          	addi	a2,a2,256
   14088:	00361613          	slli	a2,a2,0x3
   1408c:	78878793          	addi	a5,a5,1928 # 23788 <it_tab>
   14090:	00f607b3          	add	a5,a2,a5
   14094:	0007b783          	ld	a5,0(a5)
   14098:	00f6c6b3          	xor	a3,a3,a5
   1409c:	fb843783          	ld	a5,-72(s0)
   140a0:	0107d793          	srli	a5,a5,0x10
   140a4:	0ff7f793          	andi	a5,a5,255
   140a8:	0007861b          	addiw	a2,a5,0
   140ac:	000237b7          	lui	a5,0x23
   140b0:	20060613          	addi	a2,a2,512
   140b4:	00361613          	slli	a2,a2,0x3
   140b8:	78878793          	addi	a5,a5,1928 # 23788 <it_tab>
   140bc:	00f607b3          	add	a5,a2,a5
   140c0:	0007b783          	ld	a5,0(a5)
   140c4:	00f6c6b3          	xor	a3,a3,a5
   140c8:	fb043783          	ld	a5,-80(s0)
   140cc:	0187d793          	srli	a5,a5,0x18
   140d0:	0ff7f793          	andi	a5,a5,255
   140d4:	0007861b          	addiw	a2,a5,0
   140d8:	000237b7          	lui	a5,0x23
   140dc:	30060613          	addi	a2,a2,768
   140e0:	00361613          	slli	a2,a2,0x3
   140e4:	78878793          	addi	a5,a5,1928 # 23788 <it_tab>
   140e8:	00f607b3          	add	a5,a2,a5
   140ec:	0007b783          	ld	a5,0(a5)
   140f0:	00f6c7b3          	xor	a5,a3,a5
   140f4:	00f747b3          	xor	a5,a4,a5
   140f8:	fcf43423          	sd	a5,-56(s0)
   140fc:	fe843783          	ld	a5,-24(s0)
   14100:	00878793          	addi	a5,a5,8
   14104:	0007b703          	ld	a4,0(a5)
   14108:	fb043783          	ld	a5,-80(s0)
   1410c:	0ff7f793          	andi	a5,a5,255
   14110:	0007869b          	addiw	a3,a5,0
   14114:	000237b7          	lui	a5,0x23
   14118:	00369693          	slli	a3,a3,0x3
   1411c:	78878793          	addi	a5,a5,1928 # 23788 <it_tab>
   14120:	00f687b3          	add	a5,a3,a5
   14124:	0007b683          	ld	a3,0(a5)
   14128:	fa843783          	ld	a5,-88(s0)
   1412c:	0087d793          	srli	a5,a5,0x8
   14130:	0ff7f793          	andi	a5,a5,255
   14134:	0007861b          	addiw	a2,a5,0
   14138:	000237b7          	lui	a5,0x23
   1413c:	10060613          	addi	a2,a2,256
   14140:	00361613          	slli	a2,a2,0x3
   14144:	78878793          	addi	a5,a5,1928 # 23788 <it_tab>
   14148:	00f607b3          	add	a5,a2,a5
   1414c:	0007b783          	ld	a5,0(a5)
   14150:	00f6c6b3          	xor	a3,a3,a5
   14154:	fc043783          	ld	a5,-64(s0)
   14158:	0107d793          	srli	a5,a5,0x10
   1415c:	0ff7f793          	andi	a5,a5,255
   14160:	0007861b          	addiw	a2,a5,0
   14164:	000237b7          	lui	a5,0x23
   14168:	20060613          	addi	a2,a2,512
   1416c:	00361613          	slli	a2,a2,0x3
   14170:	78878793          	addi	a5,a5,1928 # 23788 <it_tab>
   14174:	00f607b3          	add	a5,a2,a5
   14178:	0007b783          	ld	a5,0(a5)
   1417c:	00f6c6b3          	xor	a3,a3,a5
   14180:	fb843783          	ld	a5,-72(s0)
   14184:	0187d793          	srli	a5,a5,0x18
   14188:	0ff7f793          	andi	a5,a5,255
   1418c:	0007861b          	addiw	a2,a5,0
   14190:	000237b7          	lui	a5,0x23
   14194:	30060613          	addi	a2,a2,768
   14198:	00361613          	slli	a2,a2,0x3
   1419c:	78878793          	addi	a5,a5,1928 # 23788 <it_tab>
   141a0:	00f607b3          	add	a5,a2,a5
   141a4:	0007b783          	ld	a5,0(a5)
   141a8:	00f6c7b3          	xor	a5,a3,a5
   141ac:	00f747b3          	xor	a5,a4,a5
   141b0:	fcf43823          	sd	a5,-48(s0)
   141b4:	fe843783          	ld	a5,-24(s0)
   141b8:	01078793          	addi	a5,a5,16
   141bc:	0007b703          	ld	a4,0(a5)
   141c0:	fb843783          	ld	a5,-72(s0)
   141c4:	0ff7f793          	andi	a5,a5,255
   141c8:	0007869b          	addiw	a3,a5,0
   141cc:	000237b7          	lui	a5,0x23
   141d0:	00369693          	slli	a3,a3,0x3
   141d4:	78878793          	addi	a5,a5,1928 # 23788 <it_tab>
   141d8:	00f687b3          	add	a5,a3,a5
   141dc:	0007b683          	ld	a3,0(a5)
   141e0:	fb043783          	ld	a5,-80(s0)
   141e4:	0087d793          	srli	a5,a5,0x8
   141e8:	0ff7f793          	andi	a5,a5,255
   141ec:	0007861b          	addiw	a2,a5,0
   141f0:	000237b7          	lui	a5,0x23
   141f4:	10060613          	addi	a2,a2,256
   141f8:	00361613          	slli	a2,a2,0x3
   141fc:	78878793          	addi	a5,a5,1928 # 23788 <it_tab>
   14200:	00f607b3          	add	a5,a2,a5
   14204:	0007b783          	ld	a5,0(a5)
   14208:	00f6c6b3          	xor	a3,a3,a5
   1420c:	fa843783          	ld	a5,-88(s0)
   14210:	0107d793          	srli	a5,a5,0x10
   14214:	0ff7f793          	andi	a5,a5,255
   14218:	0007861b          	addiw	a2,a5,0
   1421c:	000237b7          	lui	a5,0x23
   14220:	20060613          	addi	a2,a2,512
   14224:	00361613          	slli	a2,a2,0x3
   14228:	78878793          	addi	a5,a5,1928 # 23788 <it_tab>
   1422c:	00f607b3          	add	a5,a2,a5
   14230:	0007b783          	ld	a5,0(a5)
   14234:	00f6c6b3          	xor	a3,a3,a5
   14238:	fc043783          	ld	a5,-64(s0)
   1423c:	0187d793          	srli	a5,a5,0x18
   14240:	0ff7f793          	andi	a5,a5,255
   14244:	0007861b          	addiw	a2,a5,0
   14248:	000237b7          	lui	a5,0x23
   1424c:	30060613          	addi	a2,a2,768
   14250:	00361613          	slli	a2,a2,0x3
   14254:	78878793          	addi	a5,a5,1928 # 23788 <it_tab>
   14258:	00f607b3          	add	a5,a2,a5
   1425c:	0007b783          	ld	a5,0(a5)
   14260:	00f6c7b3          	xor	a5,a3,a5
   14264:	00f747b3          	xor	a5,a4,a5
   14268:	fcf43c23          	sd	a5,-40(s0)
   1426c:	fe843783          	ld	a5,-24(s0)
   14270:	01878793          	addi	a5,a5,24
   14274:	0007b703          	ld	a4,0(a5)
   14278:	fc043783          	ld	a5,-64(s0)
   1427c:	0ff7f793          	andi	a5,a5,255
   14280:	0007869b          	addiw	a3,a5,0
   14284:	000237b7          	lui	a5,0x23
   14288:	00369693          	slli	a3,a3,0x3
   1428c:	78878793          	addi	a5,a5,1928 # 23788 <it_tab>
   14290:	00f687b3          	add	a5,a3,a5
   14294:	0007b683          	ld	a3,0(a5)
   14298:	fb843783          	ld	a5,-72(s0)
   1429c:	0087d793          	srli	a5,a5,0x8
   142a0:	0ff7f793          	andi	a5,a5,255
   142a4:	0007861b          	addiw	a2,a5,0
   142a8:	000237b7          	lui	a5,0x23
   142ac:	10060613          	addi	a2,a2,256
   142b0:	00361613          	slli	a2,a2,0x3
   142b4:	78878793          	addi	a5,a5,1928 # 23788 <it_tab>
   142b8:	00f607b3          	add	a5,a2,a5
   142bc:	0007b783          	ld	a5,0(a5)
   142c0:	00f6c6b3          	xor	a3,a3,a5
   142c4:	fb043783          	ld	a5,-80(s0)
   142c8:	0107d793          	srli	a5,a5,0x10
   142cc:	0ff7f793          	andi	a5,a5,255
   142d0:	0007861b          	addiw	a2,a5,0
   142d4:	000237b7          	lui	a5,0x23
   142d8:	20060613          	addi	a2,a2,512
   142dc:	00361613          	slli	a2,a2,0x3
   142e0:	78878793          	addi	a5,a5,1928 # 23788 <it_tab>
   142e4:	00f607b3          	add	a5,a2,a5
   142e8:	0007b783          	ld	a5,0(a5)
   142ec:	00f6c6b3          	xor	a3,a3,a5
   142f0:	fa843783          	ld	a5,-88(s0)
   142f4:	0187d793          	srli	a5,a5,0x18
   142f8:	0ff7f793          	andi	a5,a5,255
   142fc:	0007861b          	addiw	a2,a5,0
   14300:	000237b7          	lui	a5,0x23
   14304:	30060613          	addi	a2,a2,768
   14308:	00361613          	slli	a2,a2,0x3
   1430c:	78878793          	addi	a5,a5,1928 # 23788 <it_tab>
   14310:	00f607b3          	add	a5,a2,a5
   14314:	0007b783          	ld	a5,0(a5)
   14318:	00f6c7b3          	xor	a5,a3,a5
   1431c:	00f747b3          	xor	a5,a4,a5
   14320:	fef43023          	sd	a5,-32(s0)
   14324:	fe843783          	ld	a5,-24(s0)
   14328:	02078793          	addi	a5,a5,32
   1432c:	0007b703          	ld	a4,0(a5)
   14330:	fc843783          	ld	a5,-56(s0)
   14334:	0ff7f793          	andi	a5,a5,255
   14338:	0007869b          	addiw	a3,a5,0
   1433c:	000237b7          	lui	a5,0x23
   14340:	00369693          	slli	a3,a3,0x3
   14344:	78878793          	addi	a5,a5,1928 # 23788 <it_tab>
   14348:	00f687b3          	add	a5,a3,a5
   1434c:	0007b683          	ld	a3,0(a5)
   14350:	fe043783          	ld	a5,-32(s0)
   14354:	0087d793          	srli	a5,a5,0x8
   14358:	0ff7f793          	andi	a5,a5,255
   1435c:	0007861b          	addiw	a2,a5,0
   14360:	000237b7          	lui	a5,0x23
   14364:	10060613          	addi	a2,a2,256
   14368:	00361613          	slli	a2,a2,0x3
   1436c:	78878793          	addi	a5,a5,1928 # 23788 <it_tab>
   14370:	00f607b3          	add	a5,a2,a5
   14374:	0007b783          	ld	a5,0(a5)
   14378:	00f6c6b3          	xor	a3,a3,a5
   1437c:	fd843783          	ld	a5,-40(s0)
   14380:	0107d793          	srli	a5,a5,0x10
   14384:	0ff7f793          	andi	a5,a5,255
   14388:	0007861b          	addiw	a2,a5,0
   1438c:	000237b7          	lui	a5,0x23
   14390:	20060613          	addi	a2,a2,512
   14394:	00361613          	slli	a2,a2,0x3
   14398:	78878793          	addi	a5,a5,1928 # 23788 <it_tab>
   1439c:	00f607b3          	add	a5,a2,a5
   143a0:	0007b783          	ld	a5,0(a5)
   143a4:	00f6c6b3          	xor	a3,a3,a5
   143a8:	fd043783          	ld	a5,-48(s0)
   143ac:	0187d793          	srli	a5,a5,0x18
   143b0:	0ff7f793          	andi	a5,a5,255
   143b4:	0007861b          	addiw	a2,a5,0
   143b8:	000237b7          	lui	a5,0x23
   143bc:	30060613          	addi	a2,a2,768
   143c0:	00361613          	slli	a2,a2,0x3
   143c4:	78878793          	addi	a5,a5,1928 # 23788 <it_tab>
   143c8:	00f607b3          	add	a5,a2,a5
   143cc:	0007b783          	ld	a5,0(a5)
   143d0:	00f6c7b3          	xor	a5,a3,a5
   143d4:	00f747b3          	xor	a5,a4,a5
   143d8:	faf43423          	sd	a5,-88(s0)
   143dc:	fe843783          	ld	a5,-24(s0)
   143e0:	02878793          	addi	a5,a5,40
   143e4:	0007b703          	ld	a4,0(a5)
   143e8:	fd043783          	ld	a5,-48(s0)
   143ec:	0ff7f793          	andi	a5,a5,255
   143f0:	0007869b          	addiw	a3,a5,0
   143f4:	000237b7          	lui	a5,0x23
   143f8:	00369693          	slli	a3,a3,0x3
   143fc:	78878793          	addi	a5,a5,1928 # 23788 <it_tab>
   14400:	00f687b3          	add	a5,a3,a5
   14404:	0007b683          	ld	a3,0(a5)
   14408:	fc843783          	ld	a5,-56(s0)
   1440c:	0087d793          	srli	a5,a5,0x8
   14410:	0ff7f793          	andi	a5,a5,255
   14414:	0007861b          	addiw	a2,a5,0
   14418:	000237b7          	lui	a5,0x23
   1441c:	10060613          	addi	a2,a2,256
   14420:	00361613          	slli	a2,a2,0x3
   14424:	78878793          	addi	a5,a5,1928 # 23788 <it_tab>
   14428:	00f607b3          	add	a5,a2,a5
   1442c:	0007b783          	ld	a5,0(a5)
   14430:	00f6c6b3          	xor	a3,a3,a5
   14434:	fe043783          	ld	a5,-32(s0)
   14438:	0107d793          	srli	a5,a5,0x10
   1443c:	0ff7f793          	andi	a5,a5,255
   14440:	0007861b          	addiw	a2,a5,0
   14444:	000237b7          	lui	a5,0x23
   14448:	20060613          	addi	a2,a2,512
   1444c:	00361613          	slli	a2,a2,0x3
   14450:	78878793          	addi	a5,a5,1928 # 23788 <it_tab>
   14454:	00f607b3          	add	a5,a2,a5
   14458:	0007b783          	ld	a5,0(a5)
   1445c:	00f6c6b3          	xor	a3,a3,a5
   14460:	fd843783          	ld	a5,-40(s0)
   14464:	0187d793          	srli	a5,a5,0x18
   14468:	0ff7f793          	andi	a5,a5,255
   1446c:	0007861b          	addiw	a2,a5,0
   14470:	000237b7          	lui	a5,0x23
   14474:	30060613          	addi	a2,a2,768
   14478:	00361613          	slli	a2,a2,0x3
   1447c:	78878793          	addi	a5,a5,1928 # 23788 <it_tab>
   14480:	00f607b3          	add	a5,a2,a5
   14484:	0007b783          	ld	a5,0(a5)
   14488:	00f6c7b3          	xor	a5,a3,a5
   1448c:	00f747b3          	xor	a5,a4,a5
   14490:	faf43823          	sd	a5,-80(s0)
   14494:	fe843783          	ld	a5,-24(s0)
   14498:	03078793          	addi	a5,a5,48
   1449c:	0007b703          	ld	a4,0(a5)
   144a0:	fd843783          	ld	a5,-40(s0)
   144a4:	0ff7f793          	andi	a5,a5,255
   144a8:	0007869b          	addiw	a3,a5,0
   144ac:	000237b7          	lui	a5,0x23
   144b0:	00369693          	slli	a3,a3,0x3
   144b4:	78878793          	addi	a5,a5,1928 # 23788 <it_tab>
   144b8:	00f687b3          	add	a5,a3,a5
   144bc:	0007b683          	ld	a3,0(a5)
   144c0:	fd043783          	ld	a5,-48(s0)
   144c4:	0087d793          	srli	a5,a5,0x8
   144c8:	0ff7f793          	andi	a5,a5,255
   144cc:	0007861b          	addiw	a2,a5,0
   144d0:	000237b7          	lui	a5,0x23
   144d4:	10060613          	addi	a2,a2,256
   144d8:	00361613          	slli	a2,a2,0x3
   144dc:	78878793          	addi	a5,a5,1928 # 23788 <it_tab>
   144e0:	00f607b3          	add	a5,a2,a5
   144e4:	0007b783          	ld	a5,0(a5)
   144e8:	00f6c6b3          	xor	a3,a3,a5
   144ec:	fc843783          	ld	a5,-56(s0)
   144f0:	0107d793          	srli	a5,a5,0x10
   144f4:	0ff7f793          	andi	a5,a5,255
   144f8:	0007861b          	addiw	a2,a5,0
   144fc:	000237b7          	lui	a5,0x23
   14500:	20060613          	addi	a2,a2,512
   14504:	00361613          	slli	a2,a2,0x3
   14508:	78878793          	addi	a5,a5,1928 # 23788 <it_tab>
   1450c:	00f607b3          	add	a5,a2,a5
   14510:	0007b783          	ld	a5,0(a5)
   14514:	00f6c6b3          	xor	a3,a3,a5
   14518:	fe043783          	ld	a5,-32(s0)
   1451c:	0187d793          	srli	a5,a5,0x18
   14520:	0ff7f793          	andi	a5,a5,255
   14524:	0007861b          	addiw	a2,a5,0
   14528:	000237b7          	lui	a5,0x23
   1452c:	30060613          	addi	a2,a2,768
   14530:	00361613          	slli	a2,a2,0x3
   14534:	78878793          	addi	a5,a5,1928 # 23788 <it_tab>
   14538:	00f607b3          	add	a5,a2,a5
   1453c:	0007b783          	ld	a5,0(a5)
   14540:	00f6c7b3          	xor	a5,a3,a5
   14544:	00f747b3          	xor	a5,a4,a5
   14548:	faf43c23          	sd	a5,-72(s0)
   1454c:	fe843783          	ld	a5,-24(s0)
   14550:	03878793          	addi	a5,a5,56
   14554:	0007b703          	ld	a4,0(a5)
   14558:	fe043783          	ld	a5,-32(s0)
   1455c:	0ff7f793          	andi	a5,a5,255
   14560:	0007869b          	addiw	a3,a5,0
   14564:	000237b7          	lui	a5,0x23
   14568:	00369693          	slli	a3,a3,0x3
   1456c:	78878793          	addi	a5,a5,1928 # 23788 <it_tab>
   14570:	00f687b3          	add	a5,a3,a5
   14574:	0007b683          	ld	a3,0(a5)
   14578:	fd843783          	ld	a5,-40(s0)
   1457c:	0087d793          	srli	a5,a5,0x8
   14580:	0ff7f793          	andi	a5,a5,255
   14584:	0007861b          	addiw	a2,a5,0
   14588:	000237b7          	lui	a5,0x23
   1458c:	10060613          	addi	a2,a2,256
   14590:	00361613          	slli	a2,a2,0x3
   14594:	78878793          	addi	a5,a5,1928 # 23788 <it_tab>
   14598:	00f607b3          	add	a5,a2,a5
   1459c:	0007b783          	ld	a5,0(a5)
   145a0:	00f6c6b3          	xor	a3,a3,a5
   145a4:	fd043783          	ld	a5,-48(s0)
   145a8:	0107d793          	srli	a5,a5,0x10
   145ac:	0ff7f793          	andi	a5,a5,255
   145b0:	0007861b          	addiw	a2,a5,0
   145b4:	000237b7          	lui	a5,0x23
   145b8:	20060613          	addi	a2,a2,512
   145bc:	00361613          	slli	a2,a2,0x3
   145c0:	78878793          	addi	a5,a5,1928 # 23788 <it_tab>
   145c4:	00f607b3          	add	a5,a2,a5
   145c8:	0007b783          	ld	a5,0(a5)
   145cc:	00f6c6b3          	xor	a3,a3,a5
   145d0:	fc843783          	ld	a5,-56(s0)
   145d4:	0187d793          	srli	a5,a5,0x18
   145d8:	0ff7f793          	andi	a5,a5,255
   145dc:	0007861b          	addiw	a2,a5,0
   145e0:	000237b7          	lui	a5,0x23
   145e4:	30060613          	addi	a2,a2,768
   145e8:	00361613          	slli	a2,a2,0x3
   145ec:	78878793          	addi	a5,a5,1928 # 23788 <it_tab>
   145f0:	00f607b3          	add	a5,a2,a5
   145f4:	0007b783          	ld	a5,0(a5)
   145f8:	00f6c7b3          	xor	a5,a3,a5
   145fc:	00f747b3          	xor	a5,a4,a5
   14600:	fcf43023          	sd	a5,-64(s0)
   14604:	fe843783          	ld	a5,-24(s0)
   14608:	04078793          	addi	a5,a5,64
   1460c:	fef43423          	sd	a5,-24(s0)
   14610:	0040006f          	jal	zero,14614 <decrypt+0xca4>
   14614:	00031977          	chk	s2,0x31
   14618:	fe843783          	ld	a5,-24(s0)
   1461c:	0007b703          	ld	a4,0(a5)
   14620:	fa843783          	ld	a5,-88(s0)
   14624:	0ff7f793          	andi	a5,a5,255
   14628:	0007869b          	addiw	a3,a5,0
   1462c:	000237b7          	lui	a5,0x23
   14630:	00369693          	slli	a3,a3,0x3
   14634:	78878793          	addi	a5,a5,1928 # 23788 <it_tab>
   14638:	00f687b3          	add	a5,a3,a5
   1463c:	0007b683          	ld	a3,0(a5)
   14640:	fc043783          	ld	a5,-64(s0)
   14644:	0087d793          	srli	a5,a5,0x8
   14648:	0ff7f793          	andi	a5,a5,255
   1464c:	0007861b          	addiw	a2,a5,0
   14650:	000237b7          	lui	a5,0x23
   14654:	10060613          	addi	a2,a2,256
   14658:	00361613          	slli	a2,a2,0x3
   1465c:	78878793          	addi	a5,a5,1928 # 23788 <it_tab>
   14660:	00f607b3          	add	a5,a2,a5
   14664:	0007b783          	ld	a5,0(a5)
   14668:	00f6c6b3          	xor	a3,a3,a5
   1466c:	fb843783          	ld	a5,-72(s0)
   14670:	0107d793          	srli	a5,a5,0x10
   14674:	0ff7f793          	andi	a5,a5,255
   14678:	0007861b          	addiw	a2,a5,0
   1467c:	000237b7          	lui	a5,0x23
   14680:	20060613          	addi	a2,a2,512
   14684:	00361613          	slli	a2,a2,0x3
   14688:	78878793          	addi	a5,a5,1928 # 23788 <it_tab>
   1468c:	00f607b3          	add	a5,a2,a5
   14690:	0007b783          	ld	a5,0(a5)
   14694:	00f6c6b3          	xor	a3,a3,a5
   14698:	fb043783          	ld	a5,-80(s0)
   1469c:	0187d793          	srli	a5,a5,0x18
   146a0:	0ff7f793          	andi	a5,a5,255
   146a4:	0007861b          	addiw	a2,a5,0
   146a8:	000237b7          	lui	a5,0x23
   146ac:	30060613          	addi	a2,a2,768
   146b0:	00361613          	slli	a2,a2,0x3
   146b4:	78878793          	addi	a5,a5,1928 # 23788 <it_tab>
   146b8:	00f607b3          	add	a5,a2,a5
   146bc:	0007b783          	ld	a5,0(a5)
   146c0:	00f6c7b3          	xor	a5,a3,a5
   146c4:	00f747b3          	xor	a5,a4,a5
   146c8:	fcf43423          	sd	a5,-56(s0)
   146cc:	fe843783          	ld	a5,-24(s0)
   146d0:	00878793          	addi	a5,a5,8
   146d4:	0007b703          	ld	a4,0(a5)
   146d8:	fb043783          	ld	a5,-80(s0)
   146dc:	0ff7f793          	andi	a5,a5,255
   146e0:	0007869b          	addiw	a3,a5,0
   146e4:	000237b7          	lui	a5,0x23
   146e8:	00369693          	slli	a3,a3,0x3
   146ec:	78878793          	addi	a5,a5,1928 # 23788 <it_tab>
   146f0:	00f687b3          	add	a5,a3,a5
   146f4:	0007b683          	ld	a3,0(a5)
   146f8:	fa843783          	ld	a5,-88(s0)
   146fc:	0087d793          	srli	a5,a5,0x8
   14700:	0ff7f793          	andi	a5,a5,255
   14704:	0007861b          	addiw	a2,a5,0
   14708:	000237b7          	lui	a5,0x23
   1470c:	10060613          	addi	a2,a2,256
   14710:	00361613          	slli	a2,a2,0x3
   14714:	78878793          	addi	a5,a5,1928 # 23788 <it_tab>
   14718:	00f607b3          	add	a5,a2,a5
   1471c:	0007b783          	ld	a5,0(a5)
   14720:	00f6c6b3          	xor	a3,a3,a5
   14724:	fc043783          	ld	a5,-64(s0)
   14728:	0107d793          	srli	a5,a5,0x10
   1472c:	0ff7f793          	andi	a5,a5,255
   14730:	0007861b          	addiw	a2,a5,0
   14734:	000237b7          	lui	a5,0x23
   14738:	20060613          	addi	a2,a2,512
   1473c:	00361613          	slli	a2,a2,0x3
   14740:	78878793          	addi	a5,a5,1928 # 23788 <it_tab>
   14744:	00f607b3          	add	a5,a2,a5
   14748:	0007b783          	ld	a5,0(a5)
   1474c:	00f6c6b3          	xor	a3,a3,a5
   14750:	fb843783          	ld	a5,-72(s0)
   14754:	0187d793          	srli	a5,a5,0x18
   14758:	0ff7f793          	andi	a5,a5,255
   1475c:	0007861b          	addiw	a2,a5,0
   14760:	000237b7          	lui	a5,0x23
   14764:	30060613          	addi	a2,a2,768
   14768:	00361613          	slli	a2,a2,0x3
   1476c:	78878793          	addi	a5,a5,1928 # 23788 <it_tab>
   14770:	00f607b3          	add	a5,a2,a5
   14774:	0007b783          	ld	a5,0(a5)
   14778:	00f6c7b3          	xor	a5,a3,a5
   1477c:	00f747b3          	xor	a5,a4,a5
   14780:	fcf43823          	sd	a5,-48(s0)
   14784:	fe843783          	ld	a5,-24(s0)
   14788:	01078793          	addi	a5,a5,16
   1478c:	0007b703          	ld	a4,0(a5)
   14790:	fb843783          	ld	a5,-72(s0)
   14794:	0ff7f793          	andi	a5,a5,255
   14798:	0007869b          	addiw	a3,a5,0
   1479c:	000237b7          	lui	a5,0x23
   147a0:	00369693          	slli	a3,a3,0x3
   147a4:	78878793          	addi	a5,a5,1928 # 23788 <it_tab>
   147a8:	00f687b3          	add	a5,a3,a5
   147ac:	0007b683          	ld	a3,0(a5)
   147b0:	fb043783          	ld	a5,-80(s0)
   147b4:	0087d793          	srli	a5,a5,0x8
   147b8:	0ff7f793          	andi	a5,a5,255
   147bc:	0007861b          	addiw	a2,a5,0
   147c0:	000237b7          	lui	a5,0x23
   147c4:	10060613          	addi	a2,a2,256
   147c8:	00361613          	slli	a2,a2,0x3
   147cc:	78878793          	addi	a5,a5,1928 # 23788 <it_tab>
   147d0:	00f607b3          	add	a5,a2,a5
   147d4:	0007b783          	ld	a5,0(a5)
   147d8:	00f6c6b3          	xor	a3,a3,a5
   147dc:	fa843783          	ld	a5,-88(s0)
   147e0:	0107d793          	srli	a5,a5,0x10
   147e4:	0ff7f793          	andi	a5,a5,255
   147e8:	0007861b          	addiw	a2,a5,0
   147ec:	000237b7          	lui	a5,0x23
   147f0:	20060613          	addi	a2,a2,512
   147f4:	00361613          	slli	a2,a2,0x3
   147f8:	78878793          	addi	a5,a5,1928 # 23788 <it_tab>
   147fc:	00f607b3          	add	a5,a2,a5
   14800:	0007b783          	ld	a5,0(a5)
   14804:	00f6c6b3          	xor	a3,a3,a5
   14808:	fc043783          	ld	a5,-64(s0)
   1480c:	0187d793          	srli	a5,a5,0x18
   14810:	0ff7f793          	andi	a5,a5,255
   14814:	0007861b          	addiw	a2,a5,0
   14818:	000237b7          	lui	a5,0x23
   1481c:	30060613          	addi	a2,a2,768
   14820:	00361613          	slli	a2,a2,0x3
   14824:	78878793          	addi	a5,a5,1928 # 23788 <it_tab>
   14828:	00f607b3          	add	a5,a2,a5
   1482c:	0007b783          	ld	a5,0(a5)
   14830:	00f6c7b3          	xor	a5,a3,a5
   14834:	00f747b3          	xor	a5,a4,a5
   14838:	fcf43c23          	sd	a5,-40(s0)
   1483c:	fe843783          	ld	a5,-24(s0)
   14840:	01878793          	addi	a5,a5,24
   14844:	0007b703          	ld	a4,0(a5)
   14848:	fc043783          	ld	a5,-64(s0)
   1484c:	0ff7f793          	andi	a5,a5,255
   14850:	0007869b          	addiw	a3,a5,0
   14854:	000237b7          	lui	a5,0x23
   14858:	00369693          	slli	a3,a3,0x3
   1485c:	78878793          	addi	a5,a5,1928 # 23788 <it_tab>
   14860:	00f687b3          	add	a5,a3,a5
   14864:	0007b683          	ld	a3,0(a5)
   14868:	fb843783          	ld	a5,-72(s0)
   1486c:	0087d793          	srli	a5,a5,0x8
   14870:	0ff7f793          	andi	a5,a5,255
   14874:	0007861b          	addiw	a2,a5,0
   14878:	000237b7          	lui	a5,0x23
   1487c:	10060613          	addi	a2,a2,256
   14880:	00361613          	slli	a2,a2,0x3
   14884:	78878793          	addi	a5,a5,1928 # 23788 <it_tab>
   14888:	00f607b3          	add	a5,a2,a5
   1488c:	0007b783          	ld	a5,0(a5)
   14890:	00f6c6b3          	xor	a3,a3,a5
   14894:	fb043783          	ld	a5,-80(s0)
   14898:	0107d793          	srli	a5,a5,0x10
   1489c:	0ff7f793          	andi	a5,a5,255
   148a0:	0007861b          	addiw	a2,a5,0
   148a4:	000237b7          	lui	a5,0x23
   148a8:	20060613          	addi	a2,a2,512
   148ac:	00361613          	slli	a2,a2,0x3
   148b0:	78878793          	addi	a5,a5,1928 # 23788 <it_tab>
   148b4:	00f607b3          	add	a5,a2,a5
   148b8:	0007b783          	ld	a5,0(a5)
   148bc:	00f6c6b3          	xor	a3,a3,a5
   148c0:	fa843783          	ld	a5,-88(s0)
   148c4:	0187d793          	srli	a5,a5,0x18
   148c8:	0ff7f793          	andi	a5,a5,255
   148cc:	0007861b          	addiw	a2,a5,0
   148d0:	000237b7          	lui	a5,0x23
   148d4:	30060613          	addi	a2,a2,768
   148d8:	00361613          	slli	a2,a2,0x3
   148dc:	78878793          	addi	a5,a5,1928 # 23788 <it_tab>
   148e0:	00f607b3          	add	a5,a2,a5
   148e4:	0007b783          	ld	a5,0(a5)
   148e8:	00f6c7b3          	xor	a5,a3,a5
   148ec:	00f747b3          	xor	a5,a4,a5
   148f0:	fef43023          	sd	a5,-32(s0)
   148f4:	fe843783          	ld	a5,-24(s0)
   148f8:	02078793          	addi	a5,a5,32
   148fc:	0007b703          	ld	a4,0(a5)
   14900:	fc843783          	ld	a5,-56(s0)
   14904:	0ff7f793          	andi	a5,a5,255
   14908:	0007869b          	addiw	a3,a5,0
   1490c:	000237b7          	lui	a5,0x23
   14910:	00369693          	slli	a3,a3,0x3
   14914:	78878793          	addi	a5,a5,1928 # 23788 <it_tab>
   14918:	00f687b3          	add	a5,a3,a5
   1491c:	0007b683          	ld	a3,0(a5)
   14920:	fe043783          	ld	a5,-32(s0)
   14924:	0087d793          	srli	a5,a5,0x8
   14928:	0ff7f793          	andi	a5,a5,255
   1492c:	0007861b          	addiw	a2,a5,0
   14930:	000237b7          	lui	a5,0x23
   14934:	10060613          	addi	a2,a2,256
   14938:	00361613          	slli	a2,a2,0x3
   1493c:	78878793          	addi	a5,a5,1928 # 23788 <it_tab>
   14940:	00f607b3          	add	a5,a2,a5
   14944:	0007b783          	ld	a5,0(a5)
   14948:	00f6c6b3          	xor	a3,a3,a5
   1494c:	fd843783          	ld	a5,-40(s0)
   14950:	0107d793          	srli	a5,a5,0x10
   14954:	0ff7f793          	andi	a5,a5,255
   14958:	0007861b          	addiw	a2,a5,0
   1495c:	000237b7          	lui	a5,0x23
   14960:	20060613          	addi	a2,a2,512
   14964:	00361613          	slli	a2,a2,0x3
   14968:	78878793          	addi	a5,a5,1928 # 23788 <it_tab>
   1496c:	00f607b3          	add	a5,a2,a5
   14970:	0007b783          	ld	a5,0(a5)
   14974:	00f6c6b3          	xor	a3,a3,a5
   14978:	fd043783          	ld	a5,-48(s0)
   1497c:	0187d793          	srli	a5,a5,0x18
   14980:	0ff7f793          	andi	a5,a5,255
   14984:	0007861b          	addiw	a2,a5,0
   14988:	000237b7          	lui	a5,0x23
   1498c:	30060613          	addi	a2,a2,768
   14990:	00361613          	slli	a2,a2,0x3
   14994:	78878793          	addi	a5,a5,1928 # 23788 <it_tab>
   14998:	00f607b3          	add	a5,a2,a5
   1499c:	0007b783          	ld	a5,0(a5)
   149a0:	00f6c7b3          	xor	a5,a3,a5
   149a4:	00f747b3          	xor	a5,a4,a5
   149a8:	faf43423          	sd	a5,-88(s0)
   149ac:	fe843783          	ld	a5,-24(s0)
   149b0:	02878793          	addi	a5,a5,40
   149b4:	0007b703          	ld	a4,0(a5)
   149b8:	fd043783          	ld	a5,-48(s0)
   149bc:	0ff7f793          	andi	a5,a5,255
   149c0:	0007869b          	addiw	a3,a5,0
   149c4:	000237b7          	lui	a5,0x23
   149c8:	00369693          	slli	a3,a3,0x3
   149cc:	78878793          	addi	a5,a5,1928 # 23788 <it_tab>
   149d0:	00f687b3          	add	a5,a3,a5
   149d4:	0007b683          	ld	a3,0(a5)
   149d8:	fc843783          	ld	a5,-56(s0)
   149dc:	0087d793          	srli	a5,a5,0x8
   149e0:	0ff7f793          	andi	a5,a5,255
   149e4:	0007861b          	addiw	a2,a5,0
   149e8:	000237b7          	lui	a5,0x23
   149ec:	10060613          	addi	a2,a2,256
   149f0:	00361613          	slli	a2,a2,0x3
   149f4:	78878793          	addi	a5,a5,1928 # 23788 <it_tab>
   149f8:	00f607b3          	add	a5,a2,a5
   149fc:	0007b783          	ld	a5,0(a5)
   14a00:	00f6c6b3          	xor	a3,a3,a5
   14a04:	fe043783          	ld	a5,-32(s0)
   14a08:	0107d793          	srli	a5,a5,0x10
   14a0c:	0ff7f793          	andi	a5,a5,255
   14a10:	0007861b          	addiw	a2,a5,0
   14a14:	000237b7          	lui	a5,0x23
   14a18:	20060613          	addi	a2,a2,512
   14a1c:	00361613          	slli	a2,a2,0x3
   14a20:	78878793          	addi	a5,a5,1928 # 23788 <it_tab>
   14a24:	00f607b3          	add	a5,a2,a5
   14a28:	0007b783          	ld	a5,0(a5)
   14a2c:	00f6c6b3          	xor	a3,a3,a5
   14a30:	fd843783          	ld	a5,-40(s0)
   14a34:	0187d793          	srli	a5,a5,0x18
   14a38:	0ff7f793          	andi	a5,a5,255
   14a3c:	0007861b          	addiw	a2,a5,0
   14a40:	000237b7          	lui	a5,0x23
   14a44:	30060613          	addi	a2,a2,768
   14a48:	00361613          	slli	a2,a2,0x3
   14a4c:	78878793          	addi	a5,a5,1928 # 23788 <it_tab>
   14a50:	00f607b3          	add	a5,a2,a5
   14a54:	0007b783          	ld	a5,0(a5)
   14a58:	00f6c7b3          	xor	a5,a3,a5
   14a5c:	00f747b3          	xor	a5,a4,a5
   14a60:	faf43823          	sd	a5,-80(s0)
   14a64:	fe843783          	ld	a5,-24(s0)
   14a68:	03078793          	addi	a5,a5,48
   14a6c:	0007b703          	ld	a4,0(a5)
   14a70:	fd843783          	ld	a5,-40(s0)
   14a74:	0ff7f793          	andi	a5,a5,255
   14a78:	0007869b          	addiw	a3,a5,0
   14a7c:	000237b7          	lui	a5,0x23
   14a80:	00369693          	slli	a3,a3,0x3
   14a84:	78878793          	addi	a5,a5,1928 # 23788 <it_tab>
   14a88:	00f687b3          	add	a5,a3,a5
   14a8c:	0007b683          	ld	a3,0(a5)
   14a90:	fd043783          	ld	a5,-48(s0)
   14a94:	0087d793          	srli	a5,a5,0x8
   14a98:	0ff7f793          	andi	a5,a5,255
   14a9c:	0007861b          	addiw	a2,a5,0
   14aa0:	000237b7          	lui	a5,0x23
   14aa4:	10060613          	addi	a2,a2,256
   14aa8:	00361613          	slli	a2,a2,0x3
   14aac:	78878793          	addi	a5,a5,1928 # 23788 <it_tab>
   14ab0:	00f607b3          	add	a5,a2,a5
   14ab4:	0007b783          	ld	a5,0(a5)
   14ab8:	00f6c6b3          	xor	a3,a3,a5
   14abc:	fc843783          	ld	a5,-56(s0)
   14ac0:	0107d793          	srli	a5,a5,0x10
   14ac4:	0ff7f793          	andi	a5,a5,255
   14ac8:	0007861b          	addiw	a2,a5,0
   14acc:	000237b7          	lui	a5,0x23
   14ad0:	20060613          	addi	a2,a2,512
   14ad4:	00361613          	slli	a2,a2,0x3
   14ad8:	78878793          	addi	a5,a5,1928 # 23788 <it_tab>
   14adc:	00f607b3          	add	a5,a2,a5
   14ae0:	0007b783          	ld	a5,0(a5)
   14ae4:	00f6c6b3          	xor	a3,a3,a5
   14ae8:	fe043783          	ld	a5,-32(s0)
   14aec:	0187d793          	srli	a5,a5,0x18
   14af0:	0ff7f793          	andi	a5,a5,255
   14af4:	0007861b          	addiw	a2,a5,0
   14af8:	000237b7          	lui	a5,0x23
   14afc:	30060613          	addi	a2,a2,768
   14b00:	00361613          	slli	a2,a2,0x3
   14b04:	78878793          	addi	a5,a5,1928 # 23788 <it_tab>
   14b08:	00f607b3          	add	a5,a2,a5
   14b0c:	0007b783          	ld	a5,0(a5)
   14b10:	00f6c7b3          	xor	a5,a3,a5
   14b14:	00f747b3          	xor	a5,a4,a5
   14b18:	faf43c23          	sd	a5,-72(s0)
   14b1c:	fe843783          	ld	a5,-24(s0)
   14b20:	03878793          	addi	a5,a5,56
   14b24:	0007b703          	ld	a4,0(a5)
   14b28:	fe043783          	ld	a5,-32(s0)
   14b2c:	0ff7f793          	andi	a5,a5,255
   14b30:	0007869b          	addiw	a3,a5,0
   14b34:	000237b7          	lui	a5,0x23
   14b38:	00369693          	slli	a3,a3,0x3
   14b3c:	78878793          	addi	a5,a5,1928 # 23788 <it_tab>
   14b40:	00f687b3          	add	a5,a3,a5
   14b44:	0007b683          	ld	a3,0(a5)
   14b48:	fd843783          	ld	a5,-40(s0)
   14b4c:	0087d793          	srli	a5,a5,0x8
   14b50:	0ff7f793          	andi	a5,a5,255
   14b54:	0007861b          	addiw	a2,a5,0
   14b58:	000237b7          	lui	a5,0x23
   14b5c:	10060613          	addi	a2,a2,256
   14b60:	00361613          	slli	a2,a2,0x3
   14b64:	78878793          	addi	a5,a5,1928 # 23788 <it_tab>
   14b68:	00f607b3          	add	a5,a2,a5
   14b6c:	0007b783          	ld	a5,0(a5)
   14b70:	00f6c6b3          	xor	a3,a3,a5
   14b74:	fd043783          	ld	a5,-48(s0)
   14b78:	0107d793          	srli	a5,a5,0x10
   14b7c:	0ff7f793          	andi	a5,a5,255
   14b80:	0007861b          	addiw	a2,a5,0
   14b84:	000237b7          	lui	a5,0x23
   14b88:	20060613          	addi	a2,a2,512
   14b8c:	00361613          	slli	a2,a2,0x3
   14b90:	78878793          	addi	a5,a5,1928 # 23788 <it_tab>
   14b94:	00f607b3          	add	a5,a2,a5
   14b98:	0007b783          	ld	a5,0(a5)
   14b9c:	00f6c6b3          	xor	a3,a3,a5
   14ba0:	fc843783          	ld	a5,-56(s0)
   14ba4:	0187d793          	srli	a5,a5,0x18
   14ba8:	0ff7f793          	andi	a5,a5,255
   14bac:	0007861b          	addiw	a2,a5,0
   14bb0:	000237b7          	lui	a5,0x23
   14bb4:	30060613          	addi	a2,a2,768
   14bb8:	00361613          	slli	a2,a2,0x3
   14bbc:	78878793          	addi	a5,a5,1928 # 23788 <it_tab>
   14bc0:	00f607b3          	add	a5,a2,a5
   14bc4:	0007b783          	ld	a5,0(a5)
   14bc8:	00f6c7b3          	xor	a5,a3,a5
   14bcc:	00f747b3          	xor	a5,a4,a5
   14bd0:	fcf43023          	sd	a5,-64(s0)
   14bd4:	fe843783          	ld	a5,-24(s0)
   14bd8:	04078793          	addi	a5,a5,64
   14bdc:	0007b703          	ld	a4,0(a5)
   14be0:	fa843783          	ld	a5,-88(s0)
   14be4:	0ff7f793          	andi	a5,a5,255
   14be8:	0007869b          	addiw	a3,a5,0
   14bec:	000237b7          	lui	a5,0x23
   14bf0:	00369693          	slli	a3,a3,0x3
   14bf4:	78878793          	addi	a5,a5,1928 # 23788 <it_tab>
   14bf8:	00f687b3          	add	a5,a3,a5
   14bfc:	0007b683          	ld	a3,0(a5)
   14c00:	fc043783          	ld	a5,-64(s0)
   14c04:	0087d793          	srli	a5,a5,0x8
   14c08:	0ff7f793          	andi	a5,a5,255
   14c0c:	0007861b          	addiw	a2,a5,0
   14c10:	000237b7          	lui	a5,0x23
   14c14:	10060613          	addi	a2,a2,256
   14c18:	00361613          	slli	a2,a2,0x3
   14c1c:	78878793          	addi	a5,a5,1928 # 23788 <it_tab>
   14c20:	00f607b3          	add	a5,a2,a5
   14c24:	0007b783          	ld	a5,0(a5)
   14c28:	00f6c6b3          	xor	a3,a3,a5
   14c2c:	fb843783          	ld	a5,-72(s0)
   14c30:	0107d793          	srli	a5,a5,0x10
   14c34:	0ff7f793          	andi	a5,a5,255
   14c38:	0007861b          	addiw	a2,a5,0
   14c3c:	000237b7          	lui	a5,0x23
   14c40:	20060613          	addi	a2,a2,512
   14c44:	00361613          	slli	a2,a2,0x3
   14c48:	78878793          	addi	a5,a5,1928 # 23788 <it_tab>
   14c4c:	00f607b3          	add	a5,a2,a5
   14c50:	0007b783          	ld	a5,0(a5)
   14c54:	00f6c6b3          	xor	a3,a3,a5
   14c58:	fb043783          	ld	a5,-80(s0)
   14c5c:	0187d793          	srli	a5,a5,0x18
   14c60:	0ff7f793          	andi	a5,a5,255
   14c64:	0007861b          	addiw	a2,a5,0
   14c68:	000237b7          	lui	a5,0x23
   14c6c:	30060613          	addi	a2,a2,768
   14c70:	00361613          	slli	a2,a2,0x3
   14c74:	78878793          	addi	a5,a5,1928 # 23788 <it_tab>
   14c78:	00f607b3          	add	a5,a2,a5
   14c7c:	0007b783          	ld	a5,0(a5)
   14c80:	00f6c7b3          	xor	a5,a3,a5
   14c84:	00f747b3          	xor	a5,a4,a5
   14c88:	fcf43423          	sd	a5,-56(s0)
   14c8c:	fe843783          	ld	a5,-24(s0)
   14c90:	04878793          	addi	a5,a5,72
   14c94:	0007b703          	ld	a4,0(a5)
   14c98:	fb043783          	ld	a5,-80(s0)
   14c9c:	0ff7f793          	andi	a5,a5,255
   14ca0:	0007869b          	addiw	a3,a5,0
   14ca4:	000237b7          	lui	a5,0x23
   14ca8:	00369693          	slli	a3,a3,0x3
   14cac:	78878793          	addi	a5,a5,1928 # 23788 <it_tab>
   14cb0:	00f687b3          	add	a5,a3,a5
   14cb4:	0007b683          	ld	a3,0(a5)
   14cb8:	fa843783          	ld	a5,-88(s0)
   14cbc:	0087d793          	srli	a5,a5,0x8
   14cc0:	0ff7f793          	andi	a5,a5,255
   14cc4:	0007861b          	addiw	a2,a5,0
   14cc8:	000237b7          	lui	a5,0x23
   14ccc:	10060613          	addi	a2,a2,256
   14cd0:	00361613          	slli	a2,a2,0x3
   14cd4:	78878793          	addi	a5,a5,1928 # 23788 <it_tab>
   14cd8:	00f607b3          	add	a5,a2,a5
   14cdc:	0007b783          	ld	a5,0(a5)
   14ce0:	00f6c6b3          	xor	a3,a3,a5
   14ce4:	fc043783          	ld	a5,-64(s0)
   14ce8:	0107d793          	srli	a5,a5,0x10
   14cec:	0ff7f793          	andi	a5,a5,255
   14cf0:	0007861b          	addiw	a2,a5,0
   14cf4:	000237b7          	lui	a5,0x23
   14cf8:	20060613          	addi	a2,a2,512
   14cfc:	00361613          	slli	a2,a2,0x3
   14d00:	78878793          	addi	a5,a5,1928 # 23788 <it_tab>
   14d04:	00f607b3          	add	a5,a2,a5
   14d08:	0007b783          	ld	a5,0(a5)
   14d0c:	00f6c6b3          	xor	a3,a3,a5
   14d10:	fb843783          	ld	a5,-72(s0)
   14d14:	0187d793          	srli	a5,a5,0x18
   14d18:	0ff7f793          	andi	a5,a5,255
   14d1c:	0007861b          	addiw	a2,a5,0
   14d20:	000237b7          	lui	a5,0x23
   14d24:	30060613          	addi	a2,a2,768
   14d28:	00361613          	slli	a2,a2,0x3
   14d2c:	78878793          	addi	a5,a5,1928 # 23788 <it_tab>
   14d30:	00f607b3          	add	a5,a2,a5
   14d34:	0007b783          	ld	a5,0(a5)
   14d38:	00f6c7b3          	xor	a5,a3,a5
   14d3c:	00f747b3          	xor	a5,a4,a5
   14d40:	fcf43823          	sd	a5,-48(s0)
   14d44:	fe843783          	ld	a5,-24(s0)
   14d48:	05078793          	addi	a5,a5,80
   14d4c:	0007b703          	ld	a4,0(a5)
   14d50:	fb843783          	ld	a5,-72(s0)
   14d54:	0ff7f793          	andi	a5,a5,255
   14d58:	0007869b          	addiw	a3,a5,0
   14d5c:	000237b7          	lui	a5,0x23
   14d60:	00369693          	slli	a3,a3,0x3
   14d64:	78878793          	addi	a5,a5,1928 # 23788 <it_tab>
   14d68:	00f687b3          	add	a5,a3,a5
   14d6c:	0007b683          	ld	a3,0(a5)
   14d70:	fb043783          	ld	a5,-80(s0)
   14d74:	0087d793          	srli	a5,a5,0x8
   14d78:	0ff7f793          	andi	a5,a5,255
   14d7c:	0007861b          	addiw	a2,a5,0
   14d80:	000237b7          	lui	a5,0x23
   14d84:	10060613          	addi	a2,a2,256
   14d88:	00361613          	slli	a2,a2,0x3
   14d8c:	78878793          	addi	a5,a5,1928 # 23788 <it_tab>
   14d90:	00f607b3          	add	a5,a2,a5
   14d94:	0007b783          	ld	a5,0(a5)
   14d98:	00f6c6b3          	xor	a3,a3,a5
   14d9c:	fa843783          	ld	a5,-88(s0)
   14da0:	0107d793          	srli	a5,a5,0x10
   14da4:	0ff7f793          	andi	a5,a5,255
   14da8:	0007861b          	addiw	a2,a5,0
   14dac:	000237b7          	lui	a5,0x23
   14db0:	20060613          	addi	a2,a2,512
   14db4:	00361613          	slli	a2,a2,0x3
   14db8:	78878793          	addi	a5,a5,1928 # 23788 <it_tab>
   14dbc:	00f607b3          	add	a5,a2,a5
   14dc0:	0007b783          	ld	a5,0(a5)
   14dc4:	00f6c6b3          	xor	a3,a3,a5
   14dc8:	fc043783          	ld	a5,-64(s0)
   14dcc:	0187d793          	srli	a5,a5,0x18
   14dd0:	0ff7f793          	andi	a5,a5,255
   14dd4:	0007861b          	addiw	a2,a5,0
   14dd8:	000237b7          	lui	a5,0x23
   14ddc:	30060613          	addi	a2,a2,768
   14de0:	00361613          	slli	a2,a2,0x3
   14de4:	78878793          	addi	a5,a5,1928 # 23788 <it_tab>
   14de8:	00f607b3          	add	a5,a2,a5
   14dec:	0007b783          	ld	a5,0(a5)
   14df0:	00f6c7b3          	xor	a5,a3,a5
   14df4:	00f747b3          	xor	a5,a4,a5
   14df8:	fcf43c23          	sd	a5,-40(s0)
   14dfc:	fe843783          	ld	a5,-24(s0)
   14e00:	05878793          	addi	a5,a5,88
   14e04:	0007b703          	ld	a4,0(a5)
   14e08:	fc043783          	ld	a5,-64(s0)
   14e0c:	0ff7f793          	andi	a5,a5,255
   14e10:	0007869b          	addiw	a3,a5,0
   14e14:	000237b7          	lui	a5,0x23
   14e18:	00369693          	slli	a3,a3,0x3
   14e1c:	78878793          	addi	a5,a5,1928 # 23788 <it_tab>
   14e20:	00f687b3          	add	a5,a3,a5
   14e24:	0007b683          	ld	a3,0(a5)
   14e28:	fb843783          	ld	a5,-72(s0)
   14e2c:	0087d793          	srli	a5,a5,0x8
   14e30:	0ff7f793          	andi	a5,a5,255
   14e34:	0007861b          	addiw	a2,a5,0
   14e38:	000237b7          	lui	a5,0x23
   14e3c:	10060613          	addi	a2,a2,256
   14e40:	00361613          	slli	a2,a2,0x3
   14e44:	78878793          	addi	a5,a5,1928 # 23788 <it_tab>
   14e48:	00f607b3          	add	a5,a2,a5
   14e4c:	0007b783          	ld	a5,0(a5)
   14e50:	00f6c6b3          	xor	a3,a3,a5
   14e54:	fb043783          	ld	a5,-80(s0)
   14e58:	0107d793          	srli	a5,a5,0x10
   14e5c:	0ff7f793          	andi	a5,a5,255
   14e60:	0007861b          	addiw	a2,a5,0
   14e64:	000237b7          	lui	a5,0x23
   14e68:	20060613          	addi	a2,a2,512
   14e6c:	00361613          	slli	a2,a2,0x3
   14e70:	78878793          	addi	a5,a5,1928 # 23788 <it_tab>
   14e74:	00f607b3          	add	a5,a2,a5
   14e78:	0007b783          	ld	a5,0(a5)
   14e7c:	00f6c6b3          	xor	a3,a3,a5
   14e80:	fa843783          	ld	a5,-88(s0)
   14e84:	0187d793          	srli	a5,a5,0x18
   14e88:	0ff7f793          	andi	a5,a5,255
   14e8c:	0007861b          	addiw	a2,a5,0
   14e90:	000237b7          	lui	a5,0x23
   14e94:	30060613          	addi	a2,a2,768
   14e98:	00361613          	slli	a2,a2,0x3
   14e9c:	78878793          	addi	a5,a5,1928 # 23788 <it_tab>
   14ea0:	00f607b3          	add	a5,a2,a5
   14ea4:	0007b783          	ld	a5,0(a5)
   14ea8:	00f6c7b3          	xor	a5,a3,a5
   14eac:	00f747b3          	xor	a5,a4,a5
   14eb0:	fef43023          	sd	a5,-32(s0)
   14eb4:	fe843783          	ld	a5,-24(s0)
   14eb8:	06078793          	addi	a5,a5,96
   14ebc:	0007b703          	ld	a4,0(a5)
   14ec0:	fc843783          	ld	a5,-56(s0)
   14ec4:	0ff7f793          	andi	a5,a5,255
   14ec8:	0007869b          	addiw	a3,a5,0
   14ecc:	000237b7          	lui	a5,0x23
   14ed0:	00369693          	slli	a3,a3,0x3
   14ed4:	78878793          	addi	a5,a5,1928 # 23788 <it_tab>
   14ed8:	00f687b3          	add	a5,a3,a5
   14edc:	0007b683          	ld	a3,0(a5)
   14ee0:	fe043783          	ld	a5,-32(s0)
   14ee4:	0087d793          	srli	a5,a5,0x8
   14ee8:	0ff7f793          	andi	a5,a5,255
   14eec:	0007861b          	addiw	a2,a5,0
   14ef0:	000237b7          	lui	a5,0x23
   14ef4:	10060613          	addi	a2,a2,256
   14ef8:	00361613          	slli	a2,a2,0x3
   14efc:	78878793          	addi	a5,a5,1928 # 23788 <it_tab>
   14f00:	00f607b3          	add	a5,a2,a5
   14f04:	0007b783          	ld	a5,0(a5)
   14f08:	00f6c6b3          	xor	a3,a3,a5
   14f0c:	fd843783          	ld	a5,-40(s0)
   14f10:	0107d793          	srli	a5,a5,0x10
   14f14:	0ff7f793          	andi	a5,a5,255
   14f18:	0007861b          	addiw	a2,a5,0
   14f1c:	000237b7          	lui	a5,0x23
   14f20:	20060613          	addi	a2,a2,512
   14f24:	00361613          	slli	a2,a2,0x3
   14f28:	78878793          	addi	a5,a5,1928 # 23788 <it_tab>
   14f2c:	00f607b3          	add	a5,a2,a5
   14f30:	0007b783          	ld	a5,0(a5)
   14f34:	00f6c6b3          	xor	a3,a3,a5
   14f38:	fd043783          	ld	a5,-48(s0)
   14f3c:	0187d793          	srli	a5,a5,0x18
   14f40:	0ff7f793          	andi	a5,a5,255
   14f44:	0007861b          	addiw	a2,a5,0
   14f48:	000237b7          	lui	a5,0x23
   14f4c:	30060613          	addi	a2,a2,768
   14f50:	00361613          	slli	a2,a2,0x3
   14f54:	78878793          	addi	a5,a5,1928 # 23788 <it_tab>
   14f58:	00f607b3          	add	a5,a2,a5
   14f5c:	0007b783          	ld	a5,0(a5)
   14f60:	00f6c7b3          	xor	a5,a3,a5
   14f64:	00f747b3          	xor	a5,a4,a5
   14f68:	faf43423          	sd	a5,-88(s0)
   14f6c:	fe843783          	ld	a5,-24(s0)
   14f70:	06878793          	addi	a5,a5,104
   14f74:	0007b703          	ld	a4,0(a5)
   14f78:	fd043783          	ld	a5,-48(s0)
   14f7c:	0ff7f793          	andi	a5,a5,255
   14f80:	0007869b          	addiw	a3,a5,0
   14f84:	000237b7          	lui	a5,0x23
   14f88:	00369693          	slli	a3,a3,0x3
   14f8c:	78878793          	addi	a5,a5,1928 # 23788 <it_tab>
   14f90:	00f687b3          	add	a5,a3,a5
   14f94:	0007b683          	ld	a3,0(a5)
   14f98:	fc843783          	ld	a5,-56(s0)
   14f9c:	0087d793          	srli	a5,a5,0x8
   14fa0:	0ff7f793          	andi	a5,a5,255
   14fa4:	0007861b          	addiw	a2,a5,0
   14fa8:	000237b7          	lui	a5,0x23
   14fac:	10060613          	addi	a2,a2,256
   14fb0:	00361613          	slli	a2,a2,0x3
   14fb4:	78878793          	addi	a5,a5,1928 # 23788 <it_tab>
   14fb8:	00f607b3          	add	a5,a2,a5
   14fbc:	0007b783          	ld	a5,0(a5)
   14fc0:	00f6c6b3          	xor	a3,a3,a5
   14fc4:	fe043783          	ld	a5,-32(s0)
   14fc8:	0107d793          	srli	a5,a5,0x10
   14fcc:	0ff7f793          	andi	a5,a5,255
   14fd0:	0007861b          	addiw	a2,a5,0
   14fd4:	000237b7          	lui	a5,0x23
   14fd8:	20060613          	addi	a2,a2,512
   14fdc:	00361613          	slli	a2,a2,0x3
   14fe0:	78878793          	addi	a5,a5,1928 # 23788 <it_tab>
   14fe4:	00f607b3          	add	a5,a2,a5
   14fe8:	0007b783          	ld	a5,0(a5)
   14fec:	00f6c6b3          	xor	a3,a3,a5
   14ff0:	fd843783          	ld	a5,-40(s0)
   14ff4:	0187d793          	srli	a5,a5,0x18
   14ff8:	0ff7f793          	andi	a5,a5,255
   14ffc:	0007861b          	addiw	a2,a5,0
   15000:	000237b7          	lui	a5,0x23
   15004:	30060613          	addi	a2,a2,768
   15008:	00361613          	slli	a2,a2,0x3
   1500c:	78878793          	addi	a5,a5,1928 # 23788 <it_tab>
   15010:	00f607b3          	add	a5,a2,a5
   15014:	0007b783          	ld	a5,0(a5)
   15018:	00f6c7b3          	xor	a5,a3,a5
   1501c:	00f747b3          	xor	a5,a4,a5
   15020:	faf43823          	sd	a5,-80(s0)
   15024:	fe843783          	ld	a5,-24(s0)
   15028:	07078793          	addi	a5,a5,112
   1502c:	0007b703          	ld	a4,0(a5)
   15030:	fd843783          	ld	a5,-40(s0)
   15034:	0ff7f793          	andi	a5,a5,255
   15038:	0007869b          	addiw	a3,a5,0
   1503c:	000237b7          	lui	a5,0x23
   15040:	00369693          	slli	a3,a3,0x3
   15044:	78878793          	addi	a5,a5,1928 # 23788 <it_tab>
   15048:	00f687b3          	add	a5,a3,a5
   1504c:	0007b683          	ld	a3,0(a5)
   15050:	fd043783          	ld	a5,-48(s0)
   15054:	0087d793          	srli	a5,a5,0x8
   15058:	0ff7f793          	andi	a5,a5,255
   1505c:	0007861b          	addiw	a2,a5,0
   15060:	000237b7          	lui	a5,0x23
   15064:	10060613          	addi	a2,a2,256
   15068:	00361613          	slli	a2,a2,0x3
   1506c:	78878793          	addi	a5,a5,1928 # 23788 <it_tab>
   15070:	00f607b3          	add	a5,a2,a5
   15074:	0007b783          	ld	a5,0(a5)
   15078:	00f6c6b3          	xor	a3,a3,a5
   1507c:	fc843783          	ld	a5,-56(s0)
   15080:	0107d793          	srli	a5,a5,0x10
   15084:	0ff7f793          	andi	a5,a5,255
   15088:	0007861b          	addiw	a2,a5,0
   1508c:	000237b7          	lui	a5,0x23
   15090:	20060613          	addi	a2,a2,512
   15094:	00361613          	slli	a2,a2,0x3
   15098:	78878793          	addi	a5,a5,1928 # 23788 <it_tab>
   1509c:	00f607b3          	add	a5,a2,a5
   150a0:	0007b783          	ld	a5,0(a5)
   150a4:	00f6c6b3          	xor	a3,a3,a5
   150a8:	fe043783          	ld	a5,-32(s0)
   150ac:	0187d793          	srli	a5,a5,0x18
   150b0:	0ff7f793          	andi	a5,a5,255
   150b4:	0007861b          	addiw	a2,a5,0
   150b8:	000237b7          	lui	a5,0x23
   150bc:	30060613          	addi	a2,a2,768
   150c0:	00361613          	slli	a2,a2,0x3
   150c4:	78878793          	addi	a5,a5,1928 # 23788 <it_tab>
   150c8:	00f607b3          	add	a5,a2,a5
   150cc:	0007b783          	ld	a5,0(a5)
   150d0:	00f6c7b3          	xor	a5,a3,a5
   150d4:	00f747b3          	xor	a5,a4,a5
   150d8:	faf43c23          	sd	a5,-72(s0)
   150dc:	fe843783          	ld	a5,-24(s0)
   150e0:	07878793          	addi	a5,a5,120
   150e4:	0007b703          	ld	a4,0(a5)
   150e8:	fe043783          	ld	a5,-32(s0)
   150ec:	0ff7f793          	andi	a5,a5,255
   150f0:	0007869b          	addiw	a3,a5,0
   150f4:	000237b7          	lui	a5,0x23
   150f8:	00369693          	slli	a3,a3,0x3
   150fc:	78878793          	addi	a5,a5,1928 # 23788 <it_tab>
   15100:	00f687b3          	add	a5,a3,a5
   15104:	0007b683          	ld	a3,0(a5)
   15108:	fd843783          	ld	a5,-40(s0)
   1510c:	0087d793          	srli	a5,a5,0x8
   15110:	0ff7f793          	andi	a5,a5,255
   15114:	0007861b          	addiw	a2,a5,0
   15118:	000237b7          	lui	a5,0x23
   1511c:	10060613          	addi	a2,a2,256
   15120:	00361613          	slli	a2,a2,0x3
   15124:	78878793          	addi	a5,a5,1928 # 23788 <it_tab>
   15128:	00f607b3          	add	a5,a2,a5
   1512c:	0007b783          	ld	a5,0(a5)
   15130:	00f6c6b3          	xor	a3,a3,a5
   15134:	fd043783          	ld	a5,-48(s0)
   15138:	0107d793          	srli	a5,a5,0x10
   1513c:	0ff7f793          	andi	a5,a5,255
   15140:	0007861b          	addiw	a2,a5,0
   15144:	000237b7          	lui	a5,0x23
   15148:	20060613          	addi	a2,a2,512
   1514c:	00361613          	slli	a2,a2,0x3
   15150:	78878793          	addi	a5,a5,1928 # 23788 <it_tab>
   15154:	00f607b3          	add	a5,a2,a5
   15158:	0007b783          	ld	a5,0(a5)
   1515c:	00f6c6b3          	xor	a3,a3,a5
   15160:	fc843783          	ld	a5,-56(s0)
   15164:	0187d793          	srli	a5,a5,0x18
   15168:	0ff7f793          	andi	a5,a5,255
   1516c:	0007861b          	addiw	a2,a5,0
   15170:	000237b7          	lui	a5,0x23
   15174:	30060613          	addi	a2,a2,768
   15178:	00361613          	slli	a2,a2,0x3
   1517c:	78878793          	addi	a5,a5,1928 # 23788 <it_tab>
   15180:	00f607b3          	add	a5,a2,a5
   15184:	0007b783          	ld	a5,0(a5)
   15188:	00f6c7b3          	xor	a5,a3,a5
   1518c:	00f747b3          	xor	a5,a4,a5
   15190:	fcf43023          	sd	a5,-64(s0)
   15194:	fe843783          	ld	a5,-24(s0)
   15198:	08078793          	addi	a5,a5,128
   1519c:	0007b703          	ld	a4,0(a5)
   151a0:	fa843783          	ld	a5,-88(s0)
   151a4:	0ff7f793          	andi	a5,a5,255
   151a8:	0007869b          	addiw	a3,a5,0
   151ac:	000237b7          	lui	a5,0x23
   151b0:	00369693          	slli	a3,a3,0x3
   151b4:	78878793          	addi	a5,a5,1928 # 23788 <it_tab>
   151b8:	00f687b3          	add	a5,a3,a5
   151bc:	0007b683          	ld	a3,0(a5)
   151c0:	fc043783          	ld	a5,-64(s0)
   151c4:	0087d793          	srli	a5,a5,0x8
   151c8:	0ff7f793          	andi	a5,a5,255
   151cc:	0007861b          	addiw	a2,a5,0
   151d0:	000237b7          	lui	a5,0x23
   151d4:	10060613          	addi	a2,a2,256
   151d8:	00361613          	slli	a2,a2,0x3
   151dc:	78878793          	addi	a5,a5,1928 # 23788 <it_tab>
   151e0:	00f607b3          	add	a5,a2,a5
   151e4:	0007b783          	ld	a5,0(a5)
   151e8:	00f6c6b3          	xor	a3,a3,a5
   151ec:	fb843783          	ld	a5,-72(s0)
   151f0:	0107d793          	srli	a5,a5,0x10
   151f4:	0ff7f793          	andi	a5,a5,255
   151f8:	0007861b          	addiw	a2,a5,0
   151fc:	000237b7          	lui	a5,0x23
   15200:	20060613          	addi	a2,a2,512
   15204:	00361613          	slli	a2,a2,0x3
   15208:	78878793          	addi	a5,a5,1928 # 23788 <it_tab>
   1520c:	00f607b3          	add	a5,a2,a5
   15210:	0007b783          	ld	a5,0(a5)
   15214:	00f6c6b3          	xor	a3,a3,a5
   15218:	fb043783          	ld	a5,-80(s0)
   1521c:	0187d793          	srli	a5,a5,0x18
   15220:	0ff7f793          	andi	a5,a5,255
   15224:	0007861b          	addiw	a2,a5,0
   15228:	000237b7          	lui	a5,0x23
   1522c:	30060613          	addi	a2,a2,768
   15230:	00361613          	slli	a2,a2,0x3
   15234:	78878793          	addi	a5,a5,1928 # 23788 <it_tab>
   15238:	00f607b3          	add	a5,a2,a5
   1523c:	0007b783          	ld	a5,0(a5)
   15240:	00f6c7b3          	xor	a5,a3,a5
   15244:	00f747b3          	xor	a5,a4,a5
   15248:	fcf43423          	sd	a5,-56(s0)
   1524c:	fe843783          	ld	a5,-24(s0)
   15250:	08878793          	addi	a5,a5,136
   15254:	0007b703          	ld	a4,0(a5)
   15258:	fb043783          	ld	a5,-80(s0)
   1525c:	0ff7f793          	andi	a5,a5,255
   15260:	0007869b          	addiw	a3,a5,0
   15264:	000237b7          	lui	a5,0x23
   15268:	00369693          	slli	a3,a3,0x3
   1526c:	78878793          	addi	a5,a5,1928 # 23788 <it_tab>
   15270:	00f687b3          	add	a5,a3,a5
   15274:	0007b683          	ld	a3,0(a5)
   15278:	fa843783          	ld	a5,-88(s0)
   1527c:	0087d793          	srli	a5,a5,0x8
   15280:	0ff7f793          	andi	a5,a5,255
   15284:	0007861b          	addiw	a2,a5,0
   15288:	000237b7          	lui	a5,0x23
   1528c:	10060613          	addi	a2,a2,256
   15290:	00361613          	slli	a2,a2,0x3
   15294:	78878793          	addi	a5,a5,1928 # 23788 <it_tab>
   15298:	00f607b3          	add	a5,a2,a5
   1529c:	0007b783          	ld	a5,0(a5)
   152a0:	00f6c6b3          	xor	a3,a3,a5
   152a4:	fc043783          	ld	a5,-64(s0)
   152a8:	0107d793          	srli	a5,a5,0x10
   152ac:	0ff7f793          	andi	a5,a5,255
   152b0:	0007861b          	addiw	a2,a5,0
   152b4:	000237b7          	lui	a5,0x23
   152b8:	20060613          	addi	a2,a2,512
   152bc:	00361613          	slli	a2,a2,0x3
   152c0:	78878793          	addi	a5,a5,1928 # 23788 <it_tab>
   152c4:	00f607b3          	add	a5,a2,a5
   152c8:	0007b783          	ld	a5,0(a5)
   152cc:	00f6c6b3          	xor	a3,a3,a5
   152d0:	fb843783          	ld	a5,-72(s0)
   152d4:	0187d793          	srli	a5,a5,0x18
   152d8:	0ff7f793          	andi	a5,a5,255
   152dc:	0007861b          	addiw	a2,a5,0
   152e0:	000237b7          	lui	a5,0x23
   152e4:	30060613          	addi	a2,a2,768
   152e8:	00361613          	slli	a2,a2,0x3
   152ec:	78878793          	addi	a5,a5,1928 # 23788 <it_tab>
   152f0:	00f607b3          	add	a5,a2,a5
   152f4:	0007b783          	ld	a5,0(a5)
   152f8:	00f6c7b3          	xor	a5,a3,a5
   152fc:	00f747b3          	xor	a5,a4,a5
   15300:	fcf43823          	sd	a5,-48(s0)
   15304:	fe843783          	ld	a5,-24(s0)
   15308:	09078793          	addi	a5,a5,144
   1530c:	0007b703          	ld	a4,0(a5)
   15310:	fb843783          	ld	a5,-72(s0)
   15314:	0ff7f793          	andi	a5,a5,255
   15318:	0007869b          	addiw	a3,a5,0
   1531c:	000237b7          	lui	a5,0x23
   15320:	00369693          	slli	a3,a3,0x3
   15324:	78878793          	addi	a5,a5,1928 # 23788 <it_tab>
   15328:	00f687b3          	add	a5,a3,a5
   1532c:	0007b683          	ld	a3,0(a5)
   15330:	fb043783          	ld	a5,-80(s0)
   15334:	0087d793          	srli	a5,a5,0x8
   15338:	0ff7f793          	andi	a5,a5,255
   1533c:	0007861b          	addiw	a2,a5,0
   15340:	000237b7          	lui	a5,0x23
   15344:	10060613          	addi	a2,a2,256
   15348:	00361613          	slli	a2,a2,0x3
   1534c:	78878793          	addi	a5,a5,1928 # 23788 <it_tab>
   15350:	00f607b3          	add	a5,a2,a5
   15354:	0007b783          	ld	a5,0(a5)
   15358:	00f6c6b3          	xor	a3,a3,a5
   1535c:	fa843783          	ld	a5,-88(s0)
   15360:	0107d793          	srli	a5,a5,0x10
   15364:	0ff7f793          	andi	a5,a5,255
   15368:	0007861b          	addiw	a2,a5,0
   1536c:	000237b7          	lui	a5,0x23
   15370:	20060613          	addi	a2,a2,512
   15374:	00361613          	slli	a2,a2,0x3
   15378:	78878793          	addi	a5,a5,1928 # 23788 <it_tab>
   1537c:	00f607b3          	add	a5,a2,a5
   15380:	0007b783          	ld	a5,0(a5)
   15384:	00f6c6b3          	xor	a3,a3,a5
   15388:	fc043783          	ld	a5,-64(s0)
   1538c:	0187d793          	srli	a5,a5,0x18
   15390:	0ff7f793          	andi	a5,a5,255
   15394:	0007861b          	addiw	a2,a5,0
   15398:	000237b7          	lui	a5,0x23
   1539c:	30060613          	addi	a2,a2,768
   153a0:	00361613          	slli	a2,a2,0x3
   153a4:	78878793          	addi	a5,a5,1928 # 23788 <it_tab>
   153a8:	00f607b3          	add	a5,a2,a5
   153ac:	0007b783          	ld	a5,0(a5)
   153b0:	00f6c7b3          	xor	a5,a3,a5
   153b4:	00f747b3          	xor	a5,a4,a5
   153b8:	fcf43c23          	sd	a5,-40(s0)
   153bc:	fe843783          	ld	a5,-24(s0)
   153c0:	09878793          	addi	a5,a5,152
   153c4:	0007b703          	ld	a4,0(a5)
   153c8:	fc043783          	ld	a5,-64(s0)
   153cc:	0ff7f793          	andi	a5,a5,255
   153d0:	0007869b          	addiw	a3,a5,0
   153d4:	000237b7          	lui	a5,0x23
   153d8:	00369693          	slli	a3,a3,0x3
   153dc:	78878793          	addi	a5,a5,1928 # 23788 <it_tab>
   153e0:	00f687b3          	add	a5,a3,a5
   153e4:	0007b683          	ld	a3,0(a5)
   153e8:	fb843783          	ld	a5,-72(s0)
   153ec:	0087d793          	srli	a5,a5,0x8
   153f0:	0ff7f793          	andi	a5,a5,255
   153f4:	0007861b          	addiw	a2,a5,0
   153f8:	000237b7          	lui	a5,0x23
   153fc:	10060613          	addi	a2,a2,256
   15400:	00361613          	slli	a2,a2,0x3
   15404:	78878793          	addi	a5,a5,1928 # 23788 <it_tab>
   15408:	00f607b3          	add	a5,a2,a5
   1540c:	0007b783          	ld	a5,0(a5)
   15410:	00f6c6b3          	xor	a3,a3,a5
   15414:	fb043783          	ld	a5,-80(s0)
   15418:	0107d793          	srli	a5,a5,0x10
   1541c:	0ff7f793          	andi	a5,a5,255
   15420:	0007861b          	addiw	a2,a5,0
   15424:	000237b7          	lui	a5,0x23
   15428:	20060613          	addi	a2,a2,512
   1542c:	00361613          	slli	a2,a2,0x3
   15430:	78878793          	addi	a5,a5,1928 # 23788 <it_tab>
   15434:	00f607b3          	add	a5,a2,a5
   15438:	0007b783          	ld	a5,0(a5)
   1543c:	00f6c6b3          	xor	a3,a3,a5
   15440:	fa843783          	ld	a5,-88(s0)
   15444:	0187d793          	srli	a5,a5,0x18
   15448:	0ff7f793          	andi	a5,a5,255
   1544c:	0007861b          	addiw	a2,a5,0
   15450:	000237b7          	lui	a5,0x23
   15454:	30060613          	addi	a2,a2,768
   15458:	00361613          	slli	a2,a2,0x3
   1545c:	78878793          	addi	a5,a5,1928 # 23788 <it_tab>
   15460:	00f607b3          	add	a5,a2,a5
   15464:	0007b783          	ld	a5,0(a5)
   15468:	00f6c7b3          	xor	a5,a3,a5
   1546c:	00f747b3          	xor	a5,a4,a5
   15470:	fef43023          	sd	a5,-32(s0)
   15474:	fe843783          	ld	a5,-24(s0)
   15478:	0a078793          	addi	a5,a5,160
   1547c:	0007b703          	ld	a4,0(a5)
   15480:	fc843783          	ld	a5,-56(s0)
   15484:	0ff7f793          	andi	a5,a5,255
   15488:	0007869b          	addiw	a3,a5,0
   1548c:	000237b7          	lui	a5,0x23
   15490:	00369693          	slli	a3,a3,0x3
   15494:	78878793          	addi	a5,a5,1928 # 23788 <it_tab>
   15498:	00f687b3          	add	a5,a3,a5
   1549c:	0007b683          	ld	a3,0(a5)
   154a0:	fe043783          	ld	a5,-32(s0)
   154a4:	0087d793          	srli	a5,a5,0x8
   154a8:	0ff7f793          	andi	a5,a5,255
   154ac:	0007861b          	addiw	a2,a5,0
   154b0:	000237b7          	lui	a5,0x23
   154b4:	10060613          	addi	a2,a2,256
   154b8:	00361613          	slli	a2,a2,0x3
   154bc:	78878793          	addi	a5,a5,1928 # 23788 <it_tab>
   154c0:	00f607b3          	add	a5,a2,a5
   154c4:	0007b783          	ld	a5,0(a5)
   154c8:	00f6c6b3          	xor	a3,a3,a5
   154cc:	fd843783          	ld	a5,-40(s0)
   154d0:	0107d793          	srli	a5,a5,0x10
   154d4:	0ff7f793          	andi	a5,a5,255
   154d8:	0007861b          	addiw	a2,a5,0
   154dc:	000237b7          	lui	a5,0x23
   154e0:	20060613          	addi	a2,a2,512
   154e4:	00361613          	slli	a2,a2,0x3
   154e8:	78878793          	addi	a5,a5,1928 # 23788 <it_tab>
   154ec:	00f607b3          	add	a5,a2,a5
   154f0:	0007b783          	ld	a5,0(a5)
   154f4:	00f6c6b3          	xor	a3,a3,a5
   154f8:	fd043783          	ld	a5,-48(s0)
   154fc:	0187d793          	srli	a5,a5,0x18
   15500:	0ff7f793          	andi	a5,a5,255
   15504:	0007861b          	addiw	a2,a5,0
   15508:	000237b7          	lui	a5,0x23
   1550c:	30060613          	addi	a2,a2,768
   15510:	00361613          	slli	a2,a2,0x3
   15514:	78878793          	addi	a5,a5,1928 # 23788 <it_tab>
   15518:	00f607b3          	add	a5,a2,a5
   1551c:	0007b783          	ld	a5,0(a5)
   15520:	00f6c7b3          	xor	a5,a3,a5
   15524:	00f747b3          	xor	a5,a4,a5
   15528:	faf43423          	sd	a5,-88(s0)
   1552c:	fe843783          	ld	a5,-24(s0)
   15530:	0a878793          	addi	a5,a5,168
   15534:	0007b703          	ld	a4,0(a5)
   15538:	fd043783          	ld	a5,-48(s0)
   1553c:	0ff7f793          	andi	a5,a5,255
   15540:	0007869b          	addiw	a3,a5,0
   15544:	000237b7          	lui	a5,0x23
   15548:	00369693          	slli	a3,a3,0x3
   1554c:	78878793          	addi	a5,a5,1928 # 23788 <it_tab>
   15550:	00f687b3          	add	a5,a3,a5
   15554:	0007b683          	ld	a3,0(a5)
   15558:	fc843783          	ld	a5,-56(s0)
   1555c:	0087d793          	srli	a5,a5,0x8
   15560:	0ff7f793          	andi	a5,a5,255
   15564:	0007861b          	addiw	a2,a5,0
   15568:	000237b7          	lui	a5,0x23
   1556c:	10060613          	addi	a2,a2,256
   15570:	00361613          	slli	a2,a2,0x3
   15574:	78878793          	addi	a5,a5,1928 # 23788 <it_tab>
   15578:	00f607b3          	add	a5,a2,a5
   1557c:	0007b783          	ld	a5,0(a5)
   15580:	00f6c6b3          	xor	a3,a3,a5
   15584:	fe043783          	ld	a5,-32(s0)
   15588:	0107d793          	srli	a5,a5,0x10
   1558c:	0ff7f793          	andi	a5,a5,255
   15590:	0007861b          	addiw	a2,a5,0
   15594:	000237b7          	lui	a5,0x23
   15598:	20060613          	addi	a2,a2,512
   1559c:	00361613          	slli	a2,a2,0x3
   155a0:	78878793          	addi	a5,a5,1928 # 23788 <it_tab>
   155a4:	00f607b3          	add	a5,a2,a5
   155a8:	0007b783          	ld	a5,0(a5)
   155ac:	00f6c6b3          	xor	a3,a3,a5
   155b0:	fd843783          	ld	a5,-40(s0)
   155b4:	0187d793          	srli	a5,a5,0x18
   155b8:	0ff7f793          	andi	a5,a5,255
   155bc:	0007861b          	addiw	a2,a5,0
   155c0:	000237b7          	lui	a5,0x23
   155c4:	30060613          	addi	a2,a2,768
   155c8:	00361613          	slli	a2,a2,0x3
   155cc:	78878793          	addi	a5,a5,1928 # 23788 <it_tab>
   155d0:	00f607b3          	add	a5,a2,a5
   155d4:	0007b783          	ld	a5,0(a5)
   155d8:	00f6c7b3          	xor	a5,a3,a5
   155dc:	00f747b3          	xor	a5,a4,a5
   155e0:	faf43823          	sd	a5,-80(s0)
   155e4:	fe843783          	ld	a5,-24(s0)
   155e8:	0b078793          	addi	a5,a5,176
   155ec:	0007b703          	ld	a4,0(a5)
   155f0:	fd843783          	ld	a5,-40(s0)
   155f4:	0ff7f793          	andi	a5,a5,255
   155f8:	0007869b          	addiw	a3,a5,0
   155fc:	000237b7          	lui	a5,0x23
   15600:	00369693          	slli	a3,a3,0x3
   15604:	78878793          	addi	a5,a5,1928 # 23788 <it_tab>
   15608:	00f687b3          	add	a5,a3,a5
   1560c:	0007b683          	ld	a3,0(a5)
   15610:	fd043783          	ld	a5,-48(s0)
   15614:	0087d793          	srli	a5,a5,0x8
   15618:	0ff7f793          	andi	a5,a5,255
   1561c:	0007861b          	addiw	a2,a5,0
   15620:	000237b7          	lui	a5,0x23
   15624:	10060613          	addi	a2,a2,256
   15628:	00361613          	slli	a2,a2,0x3
   1562c:	78878793          	addi	a5,a5,1928 # 23788 <it_tab>
   15630:	00f607b3          	add	a5,a2,a5
   15634:	0007b783          	ld	a5,0(a5)
   15638:	00f6c6b3          	xor	a3,a3,a5
   1563c:	fc843783          	ld	a5,-56(s0)
   15640:	0107d793          	srli	a5,a5,0x10
   15644:	0ff7f793          	andi	a5,a5,255
   15648:	0007861b          	addiw	a2,a5,0
   1564c:	000237b7          	lui	a5,0x23
   15650:	20060613          	addi	a2,a2,512
   15654:	00361613          	slli	a2,a2,0x3
   15658:	78878793          	addi	a5,a5,1928 # 23788 <it_tab>
   1565c:	00f607b3          	add	a5,a2,a5
   15660:	0007b783          	ld	a5,0(a5)
   15664:	00f6c6b3          	xor	a3,a3,a5
   15668:	fe043783          	ld	a5,-32(s0)
   1566c:	0187d793          	srli	a5,a5,0x18
   15670:	0ff7f793          	andi	a5,a5,255
   15674:	0007861b          	addiw	a2,a5,0
   15678:	000237b7          	lui	a5,0x23
   1567c:	30060613          	addi	a2,a2,768
   15680:	00361613          	slli	a2,a2,0x3
   15684:	78878793          	addi	a5,a5,1928 # 23788 <it_tab>
   15688:	00f607b3          	add	a5,a2,a5
   1568c:	0007b783          	ld	a5,0(a5)
   15690:	00f6c7b3          	xor	a5,a3,a5
   15694:	00f747b3          	xor	a5,a4,a5
   15698:	faf43c23          	sd	a5,-72(s0)
   1569c:	fe843783          	ld	a5,-24(s0)
   156a0:	0b878793          	addi	a5,a5,184
   156a4:	0007b703          	ld	a4,0(a5)
   156a8:	fe043783          	ld	a5,-32(s0)
   156ac:	0ff7f793          	andi	a5,a5,255
   156b0:	0007869b          	addiw	a3,a5,0
   156b4:	000237b7          	lui	a5,0x23
   156b8:	00369693          	slli	a3,a3,0x3
   156bc:	78878793          	addi	a5,a5,1928 # 23788 <it_tab>
   156c0:	00f687b3          	add	a5,a3,a5
   156c4:	0007b683          	ld	a3,0(a5)
   156c8:	fd843783          	ld	a5,-40(s0)
   156cc:	0087d793          	srli	a5,a5,0x8
   156d0:	0ff7f793          	andi	a5,a5,255
   156d4:	0007861b          	addiw	a2,a5,0
   156d8:	000237b7          	lui	a5,0x23
   156dc:	10060613          	addi	a2,a2,256
   156e0:	00361613          	slli	a2,a2,0x3
   156e4:	78878793          	addi	a5,a5,1928 # 23788 <it_tab>
   156e8:	00f607b3          	add	a5,a2,a5
   156ec:	0007b783          	ld	a5,0(a5)
   156f0:	00f6c6b3          	xor	a3,a3,a5
   156f4:	fd043783          	ld	a5,-48(s0)
   156f8:	0107d793          	srli	a5,a5,0x10
   156fc:	0ff7f793          	andi	a5,a5,255
   15700:	0007861b          	addiw	a2,a5,0
   15704:	000237b7          	lui	a5,0x23
   15708:	20060613          	addi	a2,a2,512
   1570c:	00361613          	slli	a2,a2,0x3
   15710:	78878793          	addi	a5,a5,1928 # 23788 <it_tab>
   15714:	00f607b3          	add	a5,a2,a5
   15718:	0007b783          	ld	a5,0(a5)
   1571c:	00f6c6b3          	xor	a3,a3,a5
   15720:	fc843783          	ld	a5,-56(s0)
   15724:	0187d793          	srli	a5,a5,0x18
   15728:	0ff7f793          	andi	a5,a5,255
   1572c:	0007861b          	addiw	a2,a5,0
   15730:	000237b7          	lui	a5,0x23
   15734:	30060613          	addi	a2,a2,768
   15738:	00361613          	slli	a2,a2,0x3
   1573c:	78878793          	addi	a5,a5,1928 # 23788 <it_tab>
   15740:	00f607b3          	add	a5,a2,a5
   15744:	0007b783          	ld	a5,0(a5)
   15748:	00f6c7b3          	xor	a5,a3,a5
   1574c:	00f747b3          	xor	a5,a4,a5
   15750:	fcf43023          	sd	a5,-64(s0)
   15754:	fe843783          	ld	a5,-24(s0)
   15758:	0c078793          	addi	a5,a5,192
   1575c:	0007b703          	ld	a4,0(a5)
   15760:	fa843783          	ld	a5,-88(s0)
   15764:	0ff7f793          	andi	a5,a5,255
   15768:	0007869b          	addiw	a3,a5,0
   1576c:	000237b7          	lui	a5,0x23
   15770:	00369693          	slli	a3,a3,0x3
   15774:	78878793          	addi	a5,a5,1928 # 23788 <it_tab>
   15778:	00f687b3          	add	a5,a3,a5
   1577c:	0007b683          	ld	a3,0(a5)
   15780:	fc043783          	ld	a5,-64(s0)
   15784:	0087d793          	srli	a5,a5,0x8
   15788:	0ff7f793          	andi	a5,a5,255
   1578c:	0007861b          	addiw	a2,a5,0
   15790:	000237b7          	lui	a5,0x23
   15794:	10060613          	addi	a2,a2,256
   15798:	00361613          	slli	a2,a2,0x3
   1579c:	78878793          	addi	a5,a5,1928 # 23788 <it_tab>
   157a0:	00f607b3          	add	a5,a2,a5
   157a4:	0007b783          	ld	a5,0(a5)
   157a8:	00f6c6b3          	xor	a3,a3,a5
   157ac:	fb843783          	ld	a5,-72(s0)
   157b0:	0107d793          	srli	a5,a5,0x10
   157b4:	0ff7f793          	andi	a5,a5,255
   157b8:	0007861b          	addiw	a2,a5,0
   157bc:	000237b7          	lui	a5,0x23
   157c0:	20060613          	addi	a2,a2,512
   157c4:	00361613          	slli	a2,a2,0x3
   157c8:	78878793          	addi	a5,a5,1928 # 23788 <it_tab>
   157cc:	00f607b3          	add	a5,a2,a5
   157d0:	0007b783          	ld	a5,0(a5)
   157d4:	00f6c6b3          	xor	a3,a3,a5
   157d8:	fb043783          	ld	a5,-80(s0)
   157dc:	0187d793          	srli	a5,a5,0x18
   157e0:	0ff7f793          	andi	a5,a5,255
   157e4:	0007861b          	addiw	a2,a5,0
   157e8:	000237b7          	lui	a5,0x23
   157ec:	30060613          	addi	a2,a2,768
   157f0:	00361613          	slli	a2,a2,0x3
   157f4:	78878793          	addi	a5,a5,1928 # 23788 <it_tab>
   157f8:	00f607b3          	add	a5,a2,a5
   157fc:	0007b783          	ld	a5,0(a5)
   15800:	00f6c7b3          	xor	a5,a3,a5
   15804:	00f747b3          	xor	a5,a4,a5
   15808:	fcf43423          	sd	a5,-56(s0)
   1580c:	fe843783          	ld	a5,-24(s0)
   15810:	0c878793          	addi	a5,a5,200
   15814:	0007b703          	ld	a4,0(a5)
   15818:	fb043783          	ld	a5,-80(s0)
   1581c:	0ff7f793          	andi	a5,a5,255
   15820:	0007869b          	addiw	a3,a5,0
