
aes.o:     file format elf64-littleriscv


Disassembly of section .text:

0000000000000000 <set_key>:
       0:	0075f793          	andi	a5,a1,7
       4:	02079463          	bne	a5,zero,2c <.L2>
       8:	ff058793          	addi	a5,a1,-16
       c:	01000713          	addi	a4,zero,16
      10:	02f77863          	bgeu	a4,a5,40 <.L31>
      14:	00059c63          	bne	a1,zero,2c <.L2>
      18:	0006b503          	ld	a0,0(a3)
      1c:	00251513          	slli	a0,a0,0x2
      20:	0105151b          	slliw	a0,a0,0x10
      24:	4105551b          	sraiw	a0,a0,0x10
      28:	00008067          	jalr	zero,0(ra)

000000000000002c <.L2>:
      2c:	4106c783          	lbu	a5,1040(a3)
      30:	00000513          	addi	a0,zero,0
      34:	ffc7f793          	andi	a5,a5,-4
      38:	40f68823          	sb	a5,1040(a3)
      3c:	00008067          	jalr	zero,0(ra)

0000000000000040 <.L31>:
      40:	00367613          	andi	a2,a2,3
      44:	fe0604e3          	beq	a2,zero,2c <.L2>
      48:	4106c883          	lbu	a7,1040(a3)
      4c:	0025d593          	srli	a1,a1,0x2
      50:	00658793          	addi	a5,a1,6
      54:	ffc8f893          	andi	a7,a7,-4
      58:	00c8e8b3          	or	a7,a7,a2
      5c:	00f6b423          	sd	a5,8(a3)
      60:	41168823          	sb	a7,1040(a3)
      64:	00b6b023          	sd	a1,0(a3)
      68:	00053703          	ld	a4,0(a0)
      6c:	00758e93          	addi	t4,a1,7
      70:	002e9e93          	slli	t4,t4,0x2
      74:	00e6b823          	sd	a4,16(a3)
      78:	00453303          	ld	t1,4(a0)
      7c:	fe010113          	addi	sp,sp,-32
      80:	40be8eb3          	sub	t4,t4,a1
      84:	0066bc23          	sd	t1,24(a3)
      88:	00853803          	ld	a6,8(a0)
      8c:	01068793          	addi	a5,a3,16
      90:	003e9e93          	slli	t4,t4,0x3
      94:	0306b023          	sd	a6,32(a3)
      98:	00c53603          	ld	a2,12(a0)
      9c:	00813c23          	sd	s0,24(sp)
      a0:	00913823          	sd	s1,16(sp)
      a4:	01213423          	sd	s2,8(sp)
      a8:	00600e13          	addi	t3,zero,6
      ac:	02c6b423          	sd	a2,40(a3)
      b0:	01d78eb3          	add	t4,a5,t4
      b4:	27c58463          	beq	a1,t3,31c <.L8>
      b8:	00800e13          	addi	t3,zero,8
      bc:	3fc58263          	beq	a1,t3,4a0 <.L9>
      c0:	00400513          	addi	a0,zero,4
      c4:	32a58463          	beq	a1,a0,3ec <.L32>

00000000000000c8 <.L7>:
      c8:	0038f613          	andi	a2,a7,3
      cc:	00100593          	addi	a1,zero,1
      d0:	00100513          	addi	a0,zero,1
      d4:	22b60a63          	beq	a2,a1,308 <.L6>
      d8:	0086b703          	ld	a4,8(a3)
      dc:	0106b603          	ld	a2,16(a3)
      e0:	21068793          	addi	a5,a3,528
      e4:	00571713          	slli	a4,a4,0x5
      e8:	00e787b3          	add	a5,a5,a4
      ec:	00c7b023          	sd	a2,0(a5)
      f0:	0186b703          	ld	a4,24(a3)
      f4:	fe078813          	addi	a6,a5,-32
      f8:	03068893          	addi	a7,a3,48
      fc:	00e7b423          	sd	a4,8(a5)
     100:	0206b703          	ld	a4,32(a3)
     104:	00e7b823          	sd	a4,16(a5)
     108:	0286b703          	ld	a4,40(a3)
     10c:	00e7bc23          	sd	a4,24(a5)
     110:	0086b783          	ld	a5,8(a3)
     114:	1cf5f863          	bgeu	a1,a5,2e4 <.L14>
     118:	000007b7          	lui	a5,0x0
     11c:	00078793          	addi	a5,a5,0 # 0 <set_key>

0000000000000120 <.L15>:
     120:	0008b703          	ld	a4,0(a7)
     124:	02088893          	addi	a7,a7,32
     128:	fe080813          	addi	a6,a6,-32
     12c:	00875313          	srli	t1,a4,0x8
     130:	01075593          	srli	a1,a4,0x10
     134:	0ff37313          	andi	t1,t1,255
     138:	0ff5f593          	andi	a1,a1,255
     13c:	0187561b          	srliw	a2,a4,0x18
     140:	10030313          	addi	t1,t1,256
     144:	20058593          	addi	a1,a1,512
     148:	00331313          	slli	t1,t1,0x3
     14c:	00359593          	slli	a1,a1,0x3
     150:	0ff77713          	andi	a4,a4,255
     154:	0006061b          	addiw	a2,a2,0
     158:	00b785b3          	add	a1,a5,a1
     15c:	00678333          	add	t1,a5,t1
     160:	00371713          	slli	a4,a4,0x3
     164:	30060613          	addi	a2,a2,768
     168:	0005be03          	ld	t3,0(a1)
     16c:	00033303          	ld	t1,0(t1)
     170:	00e78733          	add	a4,a5,a4
     174:	00361613          	slli	a2,a2,0x3
     178:	00073583          	ld	a1,0(a4)
     17c:	00c78733          	add	a4,a5,a2
     180:	00073603          	ld	a2,0(a4)
     184:	01c34733          	xor	a4,t1,t3
     188:	00b74733          	xor	a4,a4,a1
     18c:	00c74733          	xor	a4,a4,a2
     190:	02e83023          	sd	a4,32(a6)
     194:	fe88b703          	ld	a4,-24(a7)
     198:	00150513          	addi	a0,a0,1
     19c:	00875313          	srli	t1,a4,0x8
     1a0:	01075593          	srli	a1,a4,0x10
     1a4:	0ff37313          	andi	t1,t1,255
     1a8:	0ff5f593          	andi	a1,a1,255
     1ac:	0187561b          	srliw	a2,a4,0x18
     1b0:	10030313          	addi	t1,t1,256
     1b4:	20058593          	addi	a1,a1,512
     1b8:	00331313          	slli	t1,t1,0x3
     1bc:	00359593          	slli	a1,a1,0x3
     1c0:	0ff77713          	andi	a4,a4,255
     1c4:	0006061b          	addiw	a2,a2,0
     1c8:	00b785b3          	add	a1,a5,a1
     1cc:	00678333          	add	t1,a5,t1
     1d0:	00371713          	slli	a4,a4,0x3
     1d4:	30060613          	addi	a2,a2,768
     1d8:	0005be03          	ld	t3,0(a1)
     1dc:	00033303          	ld	t1,0(t1)
     1e0:	00e78733          	add	a4,a5,a4
     1e4:	00361613          	slli	a2,a2,0x3
     1e8:	00073583          	ld	a1,0(a4)
     1ec:	00c78733          	add	a4,a5,a2
     1f0:	00073603          	ld	a2,0(a4)
     1f4:	01c34733          	xor	a4,t1,t3
     1f8:	00b74733          	xor	a4,a4,a1
     1fc:	00c74733          	xor	a4,a4,a2
     200:	02e83423          	sd	a4,40(a6)
     204:	ff08b703          	ld	a4,-16(a7)
     208:	00875313          	srli	t1,a4,0x8
     20c:	01075593          	srli	a1,a4,0x10
     210:	0ff37313          	andi	t1,t1,255
     214:	0ff5f593          	andi	a1,a1,255
     218:	0187561b          	srliw	a2,a4,0x18
     21c:	10030313          	addi	t1,t1,256
     220:	20058593          	addi	a1,a1,512
     224:	00331313          	slli	t1,t1,0x3
     228:	00359593          	slli	a1,a1,0x3
     22c:	0ff77713          	andi	a4,a4,255
     230:	0006061b          	addiw	a2,a2,0
     234:	00b785b3          	add	a1,a5,a1
     238:	00678333          	add	t1,a5,t1
     23c:	00371713          	slli	a4,a4,0x3
     240:	30060613          	addi	a2,a2,768
     244:	0005be03          	ld	t3,0(a1)
     248:	00033303          	ld	t1,0(t1)
     24c:	00e78733          	add	a4,a5,a4
     250:	00361613          	slli	a2,a2,0x3
     254:	00073583          	ld	a1,0(a4)
     258:	00c78733          	add	a4,a5,a2
     25c:	00073603          	ld	a2,0(a4)
     260:	01c34733          	xor	a4,t1,t3
     264:	00b74733          	xor	a4,a4,a1
     268:	00c74733          	xor	a4,a4,a2
     26c:	02e83823          	sd	a4,48(a6)
     270:	ff88b703          	ld	a4,-8(a7)
     274:	00875313          	srli	t1,a4,0x8
     278:	01075593          	srli	a1,a4,0x10
     27c:	0ff37313          	andi	t1,t1,255
     280:	0ff5f593          	andi	a1,a1,255
     284:	0187561b          	srliw	a2,a4,0x18
     288:	10030313          	addi	t1,t1,256
     28c:	20058593          	addi	a1,a1,512
     290:	00331313          	slli	t1,t1,0x3
     294:	00359593          	slli	a1,a1,0x3
     298:	0ff77713          	andi	a4,a4,255
     29c:	0006061b          	addiw	a2,a2,0
     2a0:	00b785b3          	add	a1,a5,a1
     2a4:	00678333          	add	t1,a5,t1
     2a8:	00371713          	slli	a4,a4,0x3
     2ac:	30060613          	addi	a2,a2,768
     2b0:	0005be03          	ld	t3,0(a1)
     2b4:	00e78733          	add	a4,a5,a4
     2b8:	00361613          	slli	a2,a2,0x3
     2bc:	00033303          	ld	t1,0(t1)
     2c0:	00073583          	ld	a1,0(a4)
     2c4:	00c78733          	add	a4,a5,a2
     2c8:	00073603          	ld	a2,0(a4)
     2cc:	01c34733          	xor	a4,t1,t3
     2d0:	00b74733          	xor	a4,a4,a1
     2d4:	00c74733          	xor	a4,a4,a2
     2d8:	02e83c23          	sd	a4,56(a6)
     2dc:	0086b703          	ld	a4,8(a3)
     2e0:	e4e560e3          	bltu	a0,a4,120 <.L15>

00000000000002e4 <.L14>:
     2e4:	0008b783          	ld	a5,0(a7)
     2e8:	00100513          	addi	a0,zero,1
     2ec:	00f83023          	sd	a5,0(a6)
     2f0:	0088b783          	ld	a5,8(a7)
     2f4:	00f83423          	sd	a5,8(a6)
     2f8:	0108b783          	ld	a5,16(a7)
     2fc:	00f83823          	sd	a5,16(a6)
     300:	0188b783          	ld	a5,24(a7)
     304:	00f83c23          	sd	a5,24(a6)

0000000000000308 <.L6>:
     308:	01813403          	ld	s0,24(sp)
     30c:	01013483          	ld	s1,16(sp)
     310:	00813903          	ld	s2,8(sp)
     314:	02010113          	addi	sp,sp,32
     318:	00008067          	jalr	zero,0(ra)

000000000000031c <.L8>:
     31c:	01053f03          	ld	t5,16(a0)
     320:	000008b7          	lui	a7,0x0
     324:	000002b7          	lui	t0,0x0
     328:	03e6b823          	sd	t5,48(a3)
     32c:	01453f83          	ld	t6,20(a0)
     330:	00030593          	addi	a1,t1,0
     334:	00028293          	addi	t0,t0,0 # 0 <set_key>
     338:	03f6bc23          	sd	t6,56(a3)
     33c:	00088513          	addi	a0,a7,0 # 0 <set_key>

0000000000000340 <.L12>:
     340:	0ffff893          	andi	a7,t6,255
     344:	010fde13          	srli	t3,t6,0x10
     348:	30088893          	addi	a7,a7,768
     34c:	005fd393          	srli	t2,t6,0x5
     350:	018fd31b          	srliw	t1,t6,0x18
     354:	00389893          	slli	a7,a7,0x3
     358:	0ffe7e13          	andi	t3,t3,255
     35c:	7f83f393          	andi	t2,t2,2040
     360:	011508b3          	add	a7,a0,a7
     364:	100e0e13          	addi	t3,t3,256
     368:	0003031b          	addiw	t1,t1,0
     36c:	0008b883          	ld	a7,0(a7)
     370:	007503b3          	add	t2,a0,t2
     374:	003e1e13          	slli	t3,t3,0x3
     378:	20030313          	addi	t1,t1,512
     37c:	0003b383          	ld	t2,0(t2)
     380:	01c50e33          	add	t3,a0,t3
     384:	00331313          	slli	t1,t1,0x3
     388:	000e3e03          	ld	t3,0(t3)
     38c:	00650333          	add	t1,a0,t1
     390:	01174733          	xor	a4,a4,a7
     394:	00033303          	ld	t1,0(t1)
     398:	0002b883          	ld	a7,0(t0)
     39c:	00774733          	xor	a4,a4,t2
     3a0:	01c74733          	xor	a4,a4,t3
     3a4:	00674733          	xor	a4,a4,t1
     3a8:	01174733          	xor	a4,a4,a7
     3ac:	00e5c5b3          	xor	a1,a1,a4
     3b0:	00b84833          	xor	a6,a6,a1
     3b4:	01064633          	xor	a2,a2,a6
     3b8:	00cf4f33          	xor	t5,t5,a2
     3bc:	01efcfb3          	xor	t6,t6,t5
     3c0:	02e7b823          	sd	a4,48(a5)
     3c4:	02b7bc23          	sd	a1,56(a5)
     3c8:	0507b023          	sd	a6,64(a5)
     3cc:	04c7b423          	sd	a2,72(a5)
     3d0:	05e7b823          	sd	t5,80(a5)
     3d4:	05f7bc23          	sd	t6,88(a5)
     3d8:	03078793          	addi	a5,a5,48
     3dc:	00828293          	addi	t0,t0,8
     3e0:	f7d7e0e3          	bltu	a5,t4,340 <.L12>
     3e4:	4106c883          	lbu	a7,1040(a3)
     3e8:	ce1ff06f          	jal	zero,c8 <.L7>

00000000000003ec <.L32>:
     3ec:	000008b7          	lui	a7,0x0
     3f0:	00000f37          	lui	t5,0x0
     3f4:	00030593          	addi	a1,t1,0
     3f8:	00070f93          	addi	t6,a4,0
     3fc:	000f0f13          	addi	t5,t5,0 # 0 <set_key>
     400:	00088513          	addi	a0,a7,0 # 0 <set_key>

0000000000000404 <.L11>:
     404:	0ff67e13          	andi	t3,a2,255
     408:	01065313          	srli	t1,a2,0x10
     40c:	300e0e13          	addi	t3,t3,768
     410:	00565293          	srli	t0,a2,0x5
     414:	0186589b          	srliw	a7,a2,0x18
     418:	003e1e13          	slli	t3,t3,0x3
     41c:	0ff37313          	andi	t1,t1,255
     420:	01c50e33          	add	t3,a0,t3
     424:	7f82f293          	andi	t0,t0,2040
     428:	10030313          	addi	t1,t1,256
     42c:	0008889b          	addiw	a7,a7,0
     430:	000e3703          	ld	a4,0(t3)
     434:	005502b3          	add	t0,a0,t0
     438:	00331313          	slli	t1,t1,0x3
     43c:	20088893          	addi	a7,a7,512
     440:	0002be03          	ld	t3,0(t0)
     444:	00650333          	add	t1,a0,t1
     448:	00389893          	slli	a7,a7,0x3
     44c:	00033303          	ld	t1,0(t1)
     450:	011508b3          	add	a7,a0,a7
     454:	00efc733          	xor	a4,t6,a4
     458:	0008b883          	ld	a7,0(a7)
     45c:	000f3f83          	ld	t6,0(t5)
     460:	01c74733          	xor	a4,a4,t3
     464:	00674733          	xor	a4,a4,t1
     468:	01174733          	xor	a4,a4,a7
     46c:	01f74fb3          	xor	t6,a4,t6
     470:	01f5c5b3          	xor	a1,a1,t6
     474:	00b84833          	xor	a6,a6,a1
     478:	01064633          	xor	a2,a2,a6
     47c:	03f7b023          	sd	t6,32(a5)
     480:	02b7b423          	sd	a1,40(a5)
     484:	0307b823          	sd	a6,48(a5)
     488:	02c7bc23          	sd	a2,56(a5)
     48c:	02078793          	addi	a5,a5,32
     490:	008f0f13          	addi	t5,t5,8
     494:	f7d7e8e3          	bltu	a5,t4,404 <.L11>
     498:	4106c883          	lbu	a7,1040(a3)
     49c:	c2dff06f          	jal	zero,c8 <.L7>

00000000000004a0 <.L9>:
     4a0:	01053f83          	ld	t6,16(a0)
     4a4:	000008b7          	lui	a7,0x0
     4a8:	00000437          	lui	s0,0x0
     4ac:	03f6b823          	sd	t6,48(a3)
     4b0:	01453383          	ld	t2,20(a0)
     4b4:	00030593          	addi	a1,t1,0
     4b8:	00040413          	addi	s0,s0,0 # 0 <set_key>
     4bc:	0276bc23          	sd	t2,56(a3)
     4c0:	01853283          	ld	t0,24(a0)
     4c4:	0456b023          	sd	t0,64(a3)
     4c8:	01c53f03          	ld	t5,28(a0)
     4cc:	00088513          	addi	a0,a7,0 # 0 <set_key>
     4d0:	05e6b423          	sd	t5,72(a3)

00000000000004d4 <.L13>:
     4d4:	0fff7893          	andi	a7,t5,255
     4d8:	010f5e13          	srli	t3,t5,0x10
     4dc:	30088893          	addi	a7,a7,768
     4e0:	005f5493          	srli	s1,t5,0x5
     4e4:	018f531b          	srliw	t1,t5,0x18
     4e8:	00389893          	slli	a7,a7,0x3
     4ec:	0ffe7e13          	andi	t3,t3,255
     4f0:	7f84f493          	andi	s1,s1,2040
     4f4:	011508b3          	add	a7,a0,a7
     4f8:	100e0e13          	addi	t3,t3,256
     4fc:	0003031b          	addiw	t1,t1,0
     500:	0008b883          	ld	a7,0(a7)
     504:	009504b3          	add	s1,a0,s1
     508:	003e1e13          	slli	t3,t3,0x3
     50c:	20030313          	addi	t1,t1,512
     510:	0004b483          	ld	s1,0(s1)
     514:	01c50e33          	add	t3,a0,t3
     518:	00331313          	slli	t1,t1,0x3
     51c:	000e3e03          	ld	t3,0(t3)
     520:	00650333          	add	t1,a0,t1
     524:	01174733          	xor	a4,a4,a7
     528:	00033303          	ld	t1,0(t1)
     52c:	00043883          	ld	a7,0(s0)
     530:	00974733          	xor	a4,a4,s1
     534:	01c74733          	xor	a4,a4,t3
     538:	00674733          	xor	a4,a4,t1
     53c:	01174733          	xor	a4,a4,a7
     540:	00e5c5b3          	xor	a1,a1,a4
     544:	00b84833          	xor	a6,a6,a1
     548:	01064633          	xor	a2,a2,a6
     54c:	00865e13          	srli	t3,a2,0x8
     550:	0ff67493          	andi	s1,a2,255
     554:	0ffe7e13          	andi	t3,t3,255
     558:	01065313          	srli	t1,a2,0x10
     55c:	00349493          	slli	s1,s1,0x3
     560:	100e0e13          	addi	t3,t3,256
     564:	0ff37313          	andi	t1,t1,255
     568:	0186589b          	srliw	a7,a2,0x18
     56c:	009504b3          	add	s1,a0,s1
     570:	003e1e13          	slli	t3,t3,0x3
     574:	20030313          	addi	t1,t1,512
     578:	0008889b          	addiw	a7,a7,0
     57c:	01c50e33          	add	t3,a0,t3
     580:	0004b483          	ld	s1,0(s1)
     584:	00331313          	slli	t1,t1,0x3
     588:	30088893          	addi	a7,a7,768
     58c:	000e3903          	ld	s2,0(t3)
     590:	00650333          	add	t1,a0,t1
     594:	00389893          	slli	a7,a7,0x3
     598:	00033e03          	ld	t3,0(t1)
     59c:	011508b3          	add	a7,a0,a7
     5a0:	009fcfb3          	xor	t6,t6,s1
     5a4:	0008b303          	ld	t1,0(a7)
     5a8:	012fc8b3          	xor	a7,t6,s2
     5ac:	01c8c8b3          	xor	a7,a7,t3
     5b0:	0068cfb3          	xor	t6,a7,t1
     5b4:	01f3c3b3          	xor	t2,t2,t6
     5b8:	0072c2b3          	xor	t0,t0,t2
     5bc:	005f4f33          	xor	t5,t5,t0
     5c0:	04e7b023          	sd	a4,64(a5)
     5c4:	04b7b423          	sd	a1,72(a5)
     5c8:	0507b823          	sd	a6,80(a5)
     5cc:	04c7bc23          	sd	a2,88(a5)
     5d0:	07f7b023          	sd	t6,96(a5)
     5d4:	0677b423          	sd	t2,104(a5)
     5d8:	0657b823          	sd	t0,112(a5)
     5dc:	07e7bc23          	sd	t5,120(a5)
     5e0:	04078793          	addi	a5,a5,64
     5e4:	00840413          	addi	s0,s0,8
     5e8:	efd7e6e3          	bltu	a5,t4,4d4 <.L13>
     5ec:	4106c883          	lbu	a7,1040(a3)
     5f0:	ad9ff06f          	jal	zero,c8 <.L7>

00000000000005f4 <encrypt>:
     5f4:	41064783          	lbu	a5,1040(a2)
     5f8:	0017f793          	andi	a5,a5,1
     5fc:	0c078e63          	beq	a5,zero,6d8 <.L40>
     600:	00053383          	ld	t2,0(a0)
     604:	00453e83          	ld	t4,4(a0)
     608:	00853803          	ld	a6,8(a0)
     60c:	01063e03          	ld	t3,16(a2)
     610:	00c53503          	ld	a0,12(a0)
     614:	01863703          	ld	a4,24(a2)
     618:	02063783          	ld	a5,32(a2)
     61c:	02863683          	ld	a3,40(a2)
     620:	00863883          	ld	a7,8(a2)
     624:	fa010113          	addi	sp,sp,-96
     628:	04813c23          	sd	s0,88(sp)
     62c:	04913823          	sd	s1,80(sp)
     630:	05213423          	sd	s2,72(sp)
     634:	05313023          	sd	s3,64(sp)
     638:	03413c23          	sd	s4,56(sp)
     63c:	03513823          	sd	s5,48(sp)
     640:	03613423          	sd	s6,40(sp)
     644:	03713023          	sd	s7,32(sp)
     648:	01813c23          	sd	s8,24(sp)
     64c:	01913823          	sd	s9,16(sp)
     650:	01a13423          	sd	s10,8(sp)
     654:	01b13023          	sd	s11,0(sp)
     658:	00c00313          	addi	t1,zero,12
     65c:	00d546b3          	xor	a3,a0,a3
     660:	01c3ce33          	xor	t3,t2,t3
     664:	00eec733          	xor	a4,t4,a4
     668:	00f84833          	xor	a6,a6,a5
     66c:	03060513          	addi	a0,a2,48
     670:	06688863          	beq	a7,t1,6e0 <.L36>
     674:	00e00793          	addi	a5,zero,14
     678:	00f89463          	bne	a7,a5,680 <encrypt+0x8c>
     67c:	4c80106f          	jal	zero,1b44 <.L37>
     680:	00a00793          	addi	a5,zero,10
     684:	00f89463          	bne	a7,a5,68c <.L35>
     688:	4b00106f          	jal	zero,1b38 <.L46>

000000000000068c <.L35>:
     68c:	01c5b023          	sd	t3,0(a1)
     690:	00e5b223          	sd	a4,4(a1)
     694:	05813403          	ld	s0,88(sp)
     698:	0105b423          	sd	a6,8(a1)
     69c:	00d5b623          	sd	a3,12(a1)
     6a0:	05013483          	ld	s1,80(sp)
     6a4:	04813903          	ld	s2,72(sp)
     6a8:	04013983          	ld	s3,64(sp)
     6ac:	03813a03          	ld	s4,56(sp)
     6b0:	03013a83          	ld	s5,48(sp)
     6b4:	02813b03          	ld	s6,40(sp)
     6b8:	02013b83          	ld	s7,32(sp)
     6bc:	01813c03          	ld	s8,24(sp)
     6c0:	01013c83          	ld	s9,16(sp)
     6c4:	00813d03          	ld	s10,8(sp)
     6c8:	00013d83          	ld	s11,0(sp)
     6cc:	00100513          	addi	a0,zero,1
     6d0:	06010113          	addi	sp,sp,96
     6d4:	00008067          	jalr	zero,0(ra)

00000000000006d8 <.L40>:
     6d8:	00000513          	addi	a0,zero,0
     6dc:	00008067          	jalr	zero,0(ra)

00000000000006e0 <.L36>:
     6e0:	03063e83          	ld	t4,48(a2)
     6e4:	000007b7          	lui	a5,0x0
     6e8:	00078793          	addi	a5,a5,0 # 0 <set_key>

00000000000006ec <.L39>:
     6ec:	00875293          	srli	t0,a4,0x8
     6f0:	00885993          	srli	s3,a6,0x8
     6f4:	0086d913          	srli	s2,a3,0x8
     6f8:	008e5493          	srli	s1,t3,0x8
     6fc:	010e5613          	srli	a2,t3,0x10
     700:	0ffe7c13          	andi	s8,t3,255
     704:	01085413          	srli	s0,a6,0x10
     708:	0ff77b93          	andi	s7,a4,255
     70c:	0106d393          	srli	t2,a3,0x10
     710:	0ff87b13          	andi	s6,a6,255
     714:	0ff6fa93          	andi	s5,a3,255
     718:	01075f93          	srli	t6,a4,0x10
     71c:	0ff2f293          	andi	t0,t0,255
     720:	0ff9f993          	andi	s3,s3,255
     724:	0ff97913          	andi	s2,s2,255
     728:	0ff4f493          	andi	s1,s1,255
     72c:	0186df1b          	srliw	t5,a3,0x18
     730:	0187531b          	srliw	t1,a4,0x18
     734:	0188589b          	srliw	a7,a6,0x18
     738:	10028a13          	addi	s4,t0,256
     73c:	018e5e1b          	srliw	t3,t3,0x18
     740:	0ff67293          	andi	t0,a2,255
     744:	003c1c13          	slli	s8,s8,0x3
     748:	0ff47413          	andi	s0,s0,255
     74c:	003b9b93          	slli	s7,s7,0x3
     750:	10098993          	addi	s3,s3,256
     754:	0ff3f393          	andi	t2,t2,255
     758:	003b1b13          	slli	s6,s6,0x3
     75c:	10090913          	addi	s2,s2,256
     760:	003a9a93          	slli	s5,s5,0x3
     764:	10048493          	addi	s1,s1,256
     768:	0fffff93          	andi	t6,t6,255
     76c:	01878c33          	add	s8,a5,s8
     770:	003a1a13          	slli	s4,s4,0x3
     774:	20040413          	addi	s0,s0,512
     778:	000f0f1b          	addiw	t5,t5,0
     77c:	01778bb3          	add	s7,a5,s7
     780:	00399993          	slli	s3,s3,0x3
     784:	20038393          	addi	t2,t2,512
     788:	000e0e1b          	addiw	t3,t3,0
     78c:	01678b33          	add	s6,a5,s6
     790:	00391913          	slli	s2,s2,0x3
     794:	20028293          	addi	t0,t0,512
     798:	0003031b          	addiw	t1,t1,0
     79c:	01578ab3          	add	s5,a5,s5
     7a0:	00349493          	slli	s1,s1,0x3
     7a4:	200f8f93          	addi	t6,t6,512
     7a8:	0008889b          	addiw	a7,a7,0
     7ac:	00853603          	ld	a2,8(a0)
     7b0:	01053683          	ld	a3,16(a0)
     7b4:	01853703          	ld	a4,24(a0)
     7b8:	000c3803          	ld	a6,0(s8)
     7bc:	000bbb83          	ld	s7,0(s7)
     7c0:	000b3b03          	ld	s6,0(s6)
     7c4:	000aba83          	ld	s5,0(s5)
     7c8:	01478a33          	add	s4,a5,s4
     7cc:	00341413          	slli	s0,s0,0x3
     7d0:	300f0f13          	addi	t5,t5,768
     7d4:	013789b3          	add	s3,a5,s3
     7d8:	00339393          	slli	t2,t2,0x3
     7dc:	300e0e13          	addi	t3,t3,768
     7e0:	01278933          	add	s2,a5,s2
     7e4:	00329293          	slli	t0,t0,0x3
     7e8:	30030313          	addi	t1,t1,768
     7ec:	009784b3          	add	s1,a5,s1
     7f0:	003f9f93          	slli	t6,t6,0x3
     7f4:	30088893          	addi	a7,a7,768
     7f8:	000a3a03          	ld	s4,0(s4)
     7fc:	0009b983          	ld	s3,0(s3)
     800:	00093903          	ld	s2,0(s2)
     804:	0004b483          	ld	s1,0(s1)
     808:	00878433          	add	s0,a5,s0
     80c:	003f1f13          	slli	t5,t5,0x3
     810:	007783b3          	add	t2,a5,t2
     814:	003e1e13          	slli	t3,t3,0x3
     818:	005782b3          	add	t0,a5,t0
     81c:	00331313          	slli	t1,t1,0x3
     820:	01f78fb3          	add	t6,a5,t6
     824:	00389893          	slli	a7,a7,0x3
     828:	00043403          	ld	s0,0(s0)
     82c:	0003b383          	ld	t2,0(t2)
     830:	0002b283          	ld	t0,0(t0)
     834:	000fbf83          	ld	t6,0(t6)
     838:	01e78f33          	add	t5,a5,t5
     83c:	01c78e33          	add	t3,a5,t3
     840:	00678333          	add	t1,a5,t1
     844:	011788b3          	add	a7,a5,a7
     848:	000f3f03          	ld	t5,0(t5)
     84c:	000e3e03          	ld	t3,0(t3)
     850:	00033303          	ld	t1,0(t1)
     854:	0008b883          	ld	a7,0(a7)
     858:	010ec833          	xor	a6,t4,a6
     85c:	01764633          	xor	a2,a2,s7
     860:	0166c6b3          	xor	a3,a3,s6
     864:	01574733          	xor	a4,a4,s5
     868:	01484833          	xor	a6,a6,s4
     86c:	01364633          	xor	a2,a2,s3
     870:	0126c6b3          	xor	a3,a3,s2
     874:	00974733          	xor	a4,a4,s1
     878:	00884833          	xor	a6,a6,s0
     87c:	00764633          	xor	a2,a2,t2
     880:	0056c6b3          	xor	a3,a3,t0
     884:	01f74733          	xor	a4,a4,t6
     888:	01e84833          	xor	a6,a6,t5
     88c:	01c64633          	xor	a2,a2,t3
     890:	0066c6b3          	xor	a3,a3,t1
     894:	01174733          	xor	a4,a4,a7
     898:	00865a13          	srli	s4,a2,0x8
     89c:	0106d913          	srli	s2,a3,0x10
     8a0:	0187539b          	srliw	t2,a4,0x18
     8a4:	0086d993          	srli	s3,a3,0x8
     8a8:	01075493          	srli	s1,a4,0x10
     8ac:	01885a9b          	srliw	s5,a6,0x18
     8b0:	00875413          	srli	s0,a4,0x8
     8b4:	01085293          	srli	t0,a6,0x10
     8b8:	00885f93          	srli	t6,a6,0x8
     8bc:	0ffa7a13          	andi	s4,s4,255
     8c0:	0ff97913          	andi	s2,s2,255
     8c4:	0003839b          	addiw	t2,t2,0
     8c8:	0ff9f993          	andi	s3,s3,255
     8cc:	0ff4f493          	andi	s1,s1,255
     8d0:	000a8a9b          	addiw	s5,s5,0
     8d4:	0ff47413          	andi	s0,s0,255
     8d8:	0ff2f293          	andi	t0,t0,255
     8dc:	0ff87f13          	andi	t5,a6,255
     8e0:	0ff67b13          	andi	s6,a2,255
     8e4:	0ff6fc13          	andi	s8,a3,255
     8e8:	01065e93          	srli	t4,a2,0x10
     8ec:	100a0a13          	addi	s4,s4,256
     8f0:	20090913          	addi	s2,s2,512
     8f4:	30038393          	addi	t2,t2,768
     8f8:	10098993          	addi	s3,s3,256
     8fc:	20048493          	addi	s1,s1,512
     900:	300a8a93          	addi	s5,s5,768
     904:	10040413          	addi	s0,s0,256
     908:	20028293          	addi	t0,t0,512
     90c:	0ff77713          	andi	a4,a4,255
     910:	0fffff93          	andi	t6,t6,255
     914:	0186561b          	srliw	a2,a2,0x18
     918:	00371713          	slli	a4,a4,0x3
     91c:	0186d69b          	srliw	a3,a3,0x18
     920:	003f1f13          	slli	t5,t5,0x3
     924:	003a1a13          	slli	s4,s4,0x3
     928:	00391913          	slli	s2,s2,0x3
     92c:	00339393          	slli	t2,t2,0x3
     930:	003b1b13          	slli	s6,s6,0x3
     934:	00399993          	slli	s3,s3,0x3
     938:	00349493          	slli	s1,s1,0x3
     93c:	003a9a93          	slli	s5,s5,0x3
     940:	003c1c13          	slli	s8,s8,0x3
     944:	00341413          	slli	s0,s0,0x3
     948:	00329293          	slli	t0,t0,0x3
     94c:	100f8f93          	addi	t6,t6,256
     950:	0ffefe93          	andi	t4,t4,255
     954:	00e788b3          	add	a7,a5,a4
     958:	01e78f33          	add	t5,a5,t5
     95c:	01578ab3          	add	s5,a5,s5
     960:	01878c33          	add	s8,a5,s8
     964:	00060e1b          	addiw	t3,a2,0
     968:	0006831b          	addiw	t1,a3,0
     96c:	01478a33          	add	s4,a5,s4
     970:	01278933          	add	s2,a5,s2
     974:	007783b3          	add	t2,a5,t2
     978:	01678b33          	add	s6,a5,s6
     97c:	013789b3          	add	s3,a5,s3
     980:	009784b3          	add	s1,a5,s1
     984:	00878433          	add	s0,a5,s0
     988:	005782b3          	add	t0,a5,t0
     98c:	003f9f93          	slli	t6,t6,0x3
     990:	200e8e93          	addi	t4,t4,512
     994:	02053603          	ld	a2,32(a0)
     998:	02853703          	ld	a4,40(a0)
     99c:	03053803          	ld	a6,48(a0)
     9a0:	000f3b83          	ld	s7,0(t5)
     9a4:	000a3a03          	ld	s4,0(s4)
     9a8:	000abf03          	ld	t5,0(s5)
     9ac:	00093903          	ld	s2,0(s2)
     9b0:	000c3a83          	ld	s5,0(s8)
     9b4:	0003b383          	ld	t2,0(t2)
     9b8:	000b3b03          	ld	s6,0(s6)
     9bc:	0009b983          	ld	s3,0(s3)
     9c0:	0004b483          	ld	s1,0(s1)
     9c4:	00043403          	ld	s0,0(s0)
     9c8:	300e0e13          	addi	t3,t3,768
     9cc:	0002b283          	ld	t0,0(t0)
     9d0:	01f78fb3          	add	t6,a5,t6
     9d4:	03853683          	ld	a3,56(a0)
     9d8:	0008bc03          	ld	s8,0(a7)
     9dc:	003e9e93          	slli	t4,t4,0x3
     9e0:	30030313          	addi	t1,t1,768
     9e4:	003e1e13          	slli	t3,t3,0x3
     9e8:	000fbf83          	ld	t6,0(t6)
     9ec:	01d78eb3          	add	t4,a5,t4
     9f0:	00331313          	slli	t1,t1,0x3
     9f4:	01c78e33          	add	t3,a5,t3
     9f8:	000ebe83          	ld	t4,0(t4)
     9fc:	00678333          	add	t1,a5,t1
     a00:	000e3883          	ld	a7,0(t3)
     a04:	01764633          	xor	a2,a2,s7
     a08:	01674733          	xor	a4,a4,s6
     a0c:	01584833          	xor	a6,a6,s5
     a10:	0186c6b3          	xor	a3,a3,s8
     a14:	00033303          	ld	t1,0(t1)
     a18:	01464633          	xor	a2,a2,s4
     a1c:	01374733          	xor	a4,a4,s3
     a20:	00884833          	xor	a6,a6,s0
     a24:	01f6c6b3          	xor	a3,a3,t6
     a28:	01264633          	xor	a2,a2,s2
     a2c:	00974733          	xor	a4,a4,s1
     a30:	00584833          	xor	a6,a6,t0
     a34:	01d6c6b3          	xor	a3,a3,t4
     a38:	00764e33          	xor	t3,a2,t2
     a3c:	01e74733          	xor	a4,a4,t5
     a40:	01184833          	xor	a6,a6,a7
     a44:	0066c6b3          	xor	a3,a3,t1
     a48:	04050513          	addi	a0,a0,64

0000000000000a4c <.L38>:
     a4c:	00875f93          	srli	t6,a4,0x8
     a50:	00885493          	srli	s1,a6,0x8
     a54:	0086d393          	srli	t2,a3,0x8
     a58:	008e5413          	srli	s0,t3,0x8
     a5c:	0ffe7913          	andi	s2,t3,255
     a60:	010e5613          	srli	a2,t3,0x10
     a64:	01085c13          	srli	s8,a6,0x10
     a68:	0ff77893          	andi	a7,a4,255
     a6c:	0106d293          	srli	t0,a3,0x10
     a70:	0ff87a13          	andi	s4,a6,255
     a74:	0ff6f993          	andi	s3,a3,255
     a78:	01075f13          	srli	t5,a4,0x10
     a7c:	0fffff93          	andi	t6,t6,255
     a80:	0ff4f493          	andi	s1,s1,255
     a84:	0ff3f393          	andi	t2,t2,255
     a88:	0ff47413          	andi	s0,s0,255
     a8c:	0186de9b          	srliw	t4,a3,0x18
     a90:	0187531b          	srliw	t1,a4,0x18
     a94:	00391693          	slli	a3,s2,0x3
     a98:	018e5e1b          	srliw	t3,t3,0x18
     a9c:	100f8913          	addi	s2,t6,256
     aa0:	0188581b          	srliw	a6,a6,0x18
     aa4:	0ff67f93          	andi	t6,a2,255
     aa8:	0ffc7c13          	andi	s8,s8,255
     aac:	00389893          	slli	a7,a7,0x3
     ab0:	10048493          	addi	s1,s1,256
     ab4:	0ff2f293          	andi	t0,t0,255
     ab8:	003a1a13          	slli	s4,s4,0x3
     abc:	10038393          	addi	t2,t2,256
     ac0:	00399993          	slli	s3,s3,0x3
     ac4:	10040413          	addi	s0,s0,256
     ac8:	0fff7f13          	andi	t5,t5,255
     acc:	00d786b3          	add	a3,a5,a3
     ad0:	011788b3          	add	a7,a5,a7
     ad4:	01478a33          	add	s4,a5,s4
     ad8:	013789b3          	add	s3,a5,s3
     adc:	00391913          	slli	s2,s2,0x3
     ae0:	200c0c13          	addi	s8,s8,512
     ae4:	000e8e9b          	addiw	t4,t4,0
     ae8:	00349493          	slli	s1,s1,0x3
     aec:	20028293          	addi	t0,t0,512
     af0:	000e0e1b          	addiw	t3,t3,0
     af4:	00339393          	slli	t2,t2,0x3
     af8:	200f8f93          	addi	t6,t6,512
     afc:	0003031b          	addiw	t1,t1,0
     b00:	00341413          	slli	s0,s0,0x3
     b04:	200f0f13          	addi	t5,t5,512
     b08:	0008081b          	addiw	a6,a6,0
     b0c:	0006bb83          	ld	s7,0(a3)
     b10:	0008bb03          	ld	s6,0(a7)
     b14:	000a3a83          	ld	s5,0(s4)
     b18:	00053603          	ld	a2,0(a0)
     b1c:	0009ba03          	ld	s4,0(s3)
     b20:	00853683          	ld	a3,8(a0)
     b24:	01053883          	ld	a7,16(a0)
     b28:	01853703          	ld	a4,24(a0)
     b2c:	01278933          	add	s2,a5,s2
     b30:	009784b3          	add	s1,a5,s1
     b34:	007783b3          	add	t2,a5,t2
     b38:	00878433          	add	s0,a5,s0
     b3c:	003c1c13          	slli	s8,s8,0x3
     b40:	300e8e93          	addi	t4,t4,768
     b44:	00329293          	slli	t0,t0,0x3
     b48:	300e0e13          	addi	t3,t3,768
     b4c:	003f9f93          	slli	t6,t6,0x3
     b50:	30030313          	addi	t1,t1,768
     b54:	003f1f13          	slli	t5,t5,0x3
     b58:	30080813          	addi	a6,a6,768
     b5c:	00093983          	ld	s3,0(s2)
     b60:	00043403          	ld	s0,0(s0)
     b64:	0004b903          	ld	s2,0(s1)
     b68:	01878c33          	add	s8,a5,s8
     b6c:	0003b483          	ld	s1,0(t2)
     b70:	005782b3          	add	t0,a5,t0
     b74:	01f78fb3          	add	t6,a5,t6
     b78:	01e78f33          	add	t5,a5,t5
     b7c:	003e9e93          	slli	t4,t4,0x3
     b80:	003e1e13          	slli	t3,t3,0x3
     b84:	00331313          	slli	t1,t1,0x3
     b88:	00381813          	slli	a6,a6,0x3
     b8c:	000c3383          	ld	t2,0(s8)
     b90:	0002b283          	ld	t0,0(t0)
     b94:	000fbf83          	ld	t6,0(t6)
     b98:	000f3f03          	ld	t5,0(t5)
     b9c:	01d78eb3          	add	t4,a5,t4
     ba0:	01c78e33          	add	t3,a5,t3
     ba4:	00678333          	add	t1,a5,t1
     ba8:	01078833          	add	a6,a5,a6
     bac:	000ebe83          	ld	t4,0(t4)
     bb0:	000e3e03          	ld	t3,0(t3)
     bb4:	00033303          	ld	t1,0(t1)
     bb8:	00083803          	ld	a6,0(a6)
     bbc:	01764633          	xor	a2,a2,s7
     bc0:	0166c6b3          	xor	a3,a3,s6
     bc4:	0158c8b3          	xor	a7,a7,s5
     bc8:	01474733          	xor	a4,a4,s4
     bcc:	01364633          	xor	a2,a2,s3
     bd0:	0126c6b3          	xor	a3,a3,s2
     bd4:	0098c8b3          	xor	a7,a7,s1
     bd8:	00874733          	xor	a4,a4,s0
     bdc:	00764633          	xor	a2,a2,t2
     be0:	0056c6b3          	xor	a3,a3,t0
     be4:	01f8c8b3          	xor	a7,a7,t6
     be8:	01e74733          	xor	a4,a4,t5
     bec:	01d64633          	xor	a2,a2,t4
     bf0:	01c6c6b3          	xor	a3,a3,t3
     bf4:	0068c8b3          	xor	a7,a7,t1
     bf8:	01074733          	xor	a4,a4,a6
     bfc:	0086d413          	srli	s0,a3,0x8
     c00:	0108df13          	srli	t5,a7,0x10
     c04:	0187531b          	srliw	t1,a4,0x18
     c08:	0088de93          	srli	t4,a7,0x8
     c0c:	01075e13          	srli	t3,a4,0x10
     c10:	0186581b          	srliw	a6,a2,0x18
     c14:	00875913          	srli	s2,a4,0x8
     c18:	00865c93          	srli	s9,a2,0x8
     c1c:	0ff47413          	andi	s0,s0,255
     c20:	0fff7f13          	andi	t5,t5,255
     c24:	0003031b          	addiw	t1,t1,0
     c28:	0ffefe93          	andi	t4,t4,255
     c2c:	0ffe7e13          	andi	t3,t3,255
     c30:	0008081b          	addiw	a6,a6,0
     c34:	0ff97913          	andi	s2,s2,255
     c38:	0ff67993          	andi	s3,a2,255
     c3c:	0ff6f393          	andi	t2,a3,255
     c40:	0ff8fa93          	andi	s5,a7,255
     c44:	01065613          	srli	a2,a2,0x10
     c48:	0ff77713          	andi	a4,a4,255
     c4c:	0106df93          	srli	t6,a3,0x10
     c50:	10040413          	addi	s0,s0,256
     c54:	200f0f13          	addi	t5,t5,512
     c58:	30030313          	addi	t1,t1,768
     c5c:	100e8e93          	addi	t4,t4,256
     c60:	200e0e13          	addi	t3,t3,512
     c64:	30080813          	addi	a6,a6,768
     c68:	10090913          	addi	s2,s2,256
     c6c:	0ffcfc93          	andi	s9,s9,255
     c70:	00331313          	slli	t1,t1,0x3
     c74:	00381813          	slli	a6,a6,0x3
     c78:	0ff67493          	andi	s1,a2,255
     c7c:	0186d69b          	srliw	a3,a3,0x18
     c80:	00371293          	slli	t0,a4,0x3
     c84:	00399993          	slli	s3,s3,0x3
     c88:	00341413          	slli	s0,s0,0x3
     c8c:	003f1f13          	slli	t5,t5,0x3
     c90:	00339393          	slli	t2,t2,0x3
     c94:	003e9e93          	slli	t4,t4,0x3
     c98:	003e1e13          	slli	t3,t3,0x3
     c9c:	003a9a93          	slli	s5,s5,0x3
     ca0:	00391913          	slli	s2,s2,0x3
     ca4:	100c8c93          	addi	s9,s9,256
     ca8:	0fffff93          	andi	t6,t6,255
     cac:	0188d89b          	srliw	a7,a7,0x18
     cb0:	00678733          	add	a4,a5,t1
     cb4:	01078633          	add	a2,a5,a6
     cb8:	013789b3          	add	s3,a5,s3
     cbc:	00878433          	add	s0,a5,s0
     cc0:	01e78f33          	add	t5,a5,t5
     cc4:	007783b3          	add	t2,a5,t2
     cc8:	01d78eb3          	add	t4,a5,t4
     ccc:	01c78e33          	add	t3,a5,t3
     cd0:	01578ab3          	add	s5,a5,s5
     cd4:	005782b3          	add	t0,a5,t0
     cd8:	01278933          	add	s2,a5,s2
     cdc:	20048493          	addi	s1,s1,512
     ce0:	0006831b          	addiw	t1,a3,0
     ce4:	003c9c93          	slli	s9,s9,0x3
     ce8:	200f8f93          	addi	t6,t6,512
     cec:	0008889b          	addiw	a7,a7,0
     cf0:	0009bb83          	ld	s7,0(s3)
     cf4:	00043a03          	ld	s4,0(s0)
     cf8:	0003b983          	ld	s3,0(t2)
     cfc:	000f3403          	ld	s0,0(t5)
     d00:	000eb383          	ld	t2,0(t4)
     d04:	00073f03          	ld	t5,0(a4)
     d08:	000e3e83          	ld	t4,0(t3)
     d0c:	000abb03          	ld	s6,0(s5)
     d10:	00063e03          	ld	t3,0(a2)
     d14:	02053803          	ld	a6,32(a0)
     d18:	02853703          	ld	a4,40(a0)
     d1c:	03053603          	ld	a2,48(a0)
     d20:	01978cb3          	add	s9,a5,s9
     d24:	00093903          	ld	s2,0(s2)
     d28:	00349c13          	slli	s8,s1,0x3
     d2c:	0002ba83          	ld	s5,0(t0)
     d30:	03853683          	ld	a3,56(a0)
     d34:	30030313          	addi	t1,t1,768
     d38:	003f9f93          	slli	t6,t6,0x3
     d3c:	30088893          	addi	a7,a7,768
     d40:	000cb483          	ld	s1,0(s9)
     d44:	01878c33          	add	s8,a5,s8
     d48:	01f78fb3          	add	t6,a5,t6
     d4c:	00331313          	slli	t1,t1,0x3
     d50:	00389893          	slli	a7,a7,0x3
     d54:	000c3283          	ld	t0,0(s8)
     d58:	000fbf83          	ld	t6,0(t6)
     d5c:	00678333          	add	t1,a5,t1
     d60:	011788b3          	add	a7,a5,a7
     d64:	00033303          	ld	t1,0(t1)
     d68:	0008b883          	ld	a7,0(a7)
     d6c:	01784833          	xor	a6,a6,s7
     d70:	01664633          	xor	a2,a2,s6
     d74:	0156c6b3          	xor	a3,a3,s5
     d78:	01484833          	xor	a6,a6,s4
     d7c:	01374733          	xor	a4,a4,s3
     d80:	01264633          	xor	a2,a2,s2
     d84:	0096c6b3          	xor	a3,a3,s1
     d88:	00884833          	xor	a6,a6,s0
     d8c:	00774733          	xor	a4,a4,t2
     d90:	00564633          	xor	a2,a2,t0
     d94:	01f6c6b3          	xor	a3,a3,t6
     d98:	01e84833          	xor	a6,a6,t5
     d9c:	00664633          	xor	a2,a2,t1
     da0:	0116c6b3          	xor	a3,a3,a7
     da4:	01d74733          	xor	a4,a4,t4
     da8:	01c74733          	xor	a4,a4,t3
     dac:	00865e93          	srli	t4,a2,0x8
     db0:	0086d393          	srli	t2,a3,0x8
     db4:	00885493          	srli	s1,a6,0x8
     db8:	0106d893          	srli	a7,a3,0x10
     dbc:	00875413          	srli	s0,a4,0x8
     dc0:	0ff77a93          	andi	s5,a4,255
     dc4:	0ffefe93          	andi	t4,t4,255
     dc8:	0ff67b13          	andi	s6,a2,255
     dcc:	0ff3f393          	andi	t2,t2,255
     dd0:	01085e13          	srli	t3,a6,0x10
     dd4:	0ff6f313          	andi	t1,a3,255
     dd8:	01075f93          	srli	t6,a4,0x10
     ddc:	0ff4f493          	andi	s1,s1,255
     de0:	0ff87a13          	andi	s4,a6,255
     de4:	01065f13          	srli	t5,a2,0x10
     de8:	100e8993          	addi	s3,t4,256
     dec:	0188581b          	srliw	a6,a6,0x18
     df0:	0ff8fe93          	andi	t4,a7,255
     df4:	003b1b13          	slli	s6,s6,0x3
     df8:	10038913          	addi	s2,t2,256
     dfc:	00331313          	slli	t1,t1,0x3
     e00:	0186561b          	srliw	a2,a2,0x18
     e04:	0ff47413          	andi	s0,s0,255
     e08:	003a9a93          	slli	s5,s5,0x3
     e0c:	0ffe7e13          	andi	t3,t3,255
     e10:	0187571b          	srliw	a4,a4,0x18
     e14:	10048493          	addi	s1,s1,256
     e18:	0fffff93          	andi	t6,t6,255
     e1c:	006782b3          	add	t0,a5,t1
     e20:	01578ab3          	add	s5,a5,s5
     e24:	0186d89b          	srliw	a7,a3,0x18
     e28:	200e8393          	addi	t2,t4,512
     e2c:	016786b3          	add	a3,a5,s6
     e30:	00080e9b          	addiw	t4,a6,0
     e34:	200e0e13          	addi	t3,t3,512
     e38:	0007071b          	addiw	a4,a4,0
     e3c:	0006031b          	addiw	t1,a2,0
     e40:	003a1a13          	slli	s4,s4,0x3
     e44:	10040413          	addi	s0,s0,256
     e48:	0fff7f13          	andi	t5,t5,255
     e4c:	00399993          	slli	s3,s3,0x3
     e50:	00391913          	slli	s2,s2,0x3
     e54:	00349493          	slli	s1,s1,0x3
     e58:	200f8f93          	addi	t6,t6,512
     e5c:	000abb83          	ld	s7,0(s5)
     e60:	0006bb03          	ld	s6,0(a3)
     e64:	0002ba83          	ld	s5,0(t0)
     e68:	04853803          	ld	a6,72(a0)
     e6c:	05053603          	ld	a2,80(a0)
     e70:	05853683          	ld	a3,88(a0)
     e74:	01478a33          	add	s4,a5,s4
     e78:	013789b3          	add	s3,a5,s3
     e7c:	01278933          	add	s2,a5,s2
     e80:	003e1293          	slli	t0,t3,0x3
     e84:	009784b3          	add	s1,a5,s1
     e88:	30070e13          	addi	t3,a4,768
     e8c:	00341413          	slli	s0,s0,0x3
     e90:	200f0f13          	addi	t5,t5,512
     e94:	0008889b          	addiw	a7,a7,0
     e98:	00339393          	slli	t2,t2,0x3
     e9c:	300e8e93          	addi	t4,t4,768
     ea0:	003f9f93          	slli	t6,t6,0x3
     ea4:	30030313          	addi	t1,t1,768
     ea8:	04053703          	ld	a4,64(a0)
     eac:	000a3a03          	ld	s4,0(s4)
     eb0:	0009b983          	ld	s3,0(s3)
     eb4:	00093903          	ld	s2,0(s2)
     eb8:	0004b483          	ld	s1,0(s1)
     ebc:	00878433          	add	s0,a5,s0
     ec0:	007783b3          	add	t2,a5,t2
     ec4:	005782b3          	add	t0,a5,t0
     ec8:	01f78fb3          	add	t6,a5,t6
     ecc:	003f1f13          	slli	t5,t5,0x3
     ed0:	30088893          	addi	a7,a7,768
     ed4:	003e9e93          	slli	t4,t4,0x3
     ed8:	003e1e13          	slli	t3,t3,0x3
     edc:	00331313          	slli	t1,t1,0x3
     ee0:	00043403          	ld	s0,0(s0)
     ee4:	0003b383          	ld	t2,0(t2)
     ee8:	0002b283          	ld	t0,0(t0)
     eec:	000fbf83          	ld	t6,0(t6)
     ef0:	01e78f33          	add	t5,a5,t5
     ef4:	01d78eb3          	add	t4,a5,t4
     ef8:	01c78e33          	add	t3,a5,t3
     efc:	00678333          	add	t1,a5,t1
     f00:	00389893          	slli	a7,a7,0x3
     f04:	000f3f03          	ld	t5,0(t5)
     f08:	000ebe83          	ld	t4,0(t4)
     f0c:	000e3e03          	ld	t3,0(t3)
     f10:	00033303          	ld	t1,0(t1)
     f14:	011788b3          	add	a7,a5,a7
     f18:	01784833          	xor	a6,a6,s7
     f1c:	01664633          	xor	a2,a2,s6
     f20:	0156c6b3          	xor	a3,a3,s5
     f24:	0008b883          	ld	a7,0(a7)
     f28:	01474733          	xor	a4,a4,s4
     f2c:	01384833          	xor	a6,a6,s3
     f30:	01264633          	xor	a2,a2,s2
     f34:	0096c6b3          	xor	a3,a3,s1
     f38:	00874733          	xor	a4,a4,s0
     f3c:	00784833          	xor	a6,a6,t2
     f40:	00564633          	xor	a2,a2,t0
     f44:	01f6c6b3          	xor	a3,a3,t6
     f48:	01d84833          	xor	a6,a6,t4
     f4c:	01c64633          	xor	a2,a2,t3
     f50:	0066c6b3          	xor	a3,a3,t1
     f54:	01e74733          	xor	a4,a4,t5
     f58:	01174733          	xor	a4,a4,a7
     f5c:	00885e13          	srli	t3,a6,0x8
     f60:	01065313          	srli	t1,a2,0x10
     f64:	0186d89b          	srliw	a7,a3,0x18
     f68:	00865f13          	srli	t5,a2,0x8
     f6c:	0086d993          	srli	s3,a3,0x8
     f70:	00875493          	srli	s1,a4,0x8
     f74:	0ffe7e13          	andi	t3,t3,255
     f78:	0ff37313          	andi	t1,t1,255
     f7c:	0008889b          	addiw	a7,a7,0
     f80:	0ff67b93          	andi	s7,a2,255
     f84:	0ff77b13          	andi	s6,a4,255
     f88:	100e0e13          	addi	t3,t3,256
     f8c:	20030313          	addi	t1,t1,512
     f90:	0ff87a93          	andi	s5,a6,255
     f94:	0fff7f13          	andi	t5,t5,255
     f98:	0106dc93          	srli	s9,a3,0x10
     f9c:	01075f93          	srli	t6,a4,0x10
     fa0:	0ff6f693          	andi	a3,a3,255
     fa4:	01085e93          	srli	t4,a6,0x10
     fa8:	30088893          	addi	a7,a7,768
     fac:	0ff9f993          	andi	s3,s3,255
     fb0:	0ff4f493          	andi	s1,s1,255
     fb4:	00331413          	slli	s0,t1,0x3
     fb8:	003e1a13          	slli	s4,t3,0x3
     fbc:	100f0913          	addi	s2,t5,256
     fc0:	0187571b          	srliw	a4,a4,0x18
     fc4:	003b9f13          	slli	t5,s7,0x3
     fc8:	0188531b          	srliw	t1,a6,0x18
     fcc:	00369393          	slli	t2,a3,0x3
     fd0:	0186561b          	srliw	a2,a2,0x18
     fd4:	003b1b13          	slli	s6,s6,0x3
     fd8:	00389893          	slli	a7,a7,0x3
     fdc:	003a9a93          	slli	s5,s5,0x3
     fe0:	0ffcfc93          	andi	s9,s9,255
     fe4:	10098993          	addi	s3,s3,256
     fe8:	0fffff93          	andi	t6,t6,255
     fec:	10048493          	addi	s1,s1,256
     ff0:	0ffefe93          	andi	t4,t4,255
     ff4:	01678b33          	add	s6,a5,s6
     ff8:	008786b3          	add	a3,a5,s0
     ffc:	011788b3          	add	a7,a5,a7
    1000:	01578ab3          	add	s5,a5,s5
    1004:	007783b3          	add	t2,a5,t2
    1008:	01478a33          	add	s4,a5,s4
    100c:	00070e1b          	addiw	t3,a4,0
    1010:	00399993          	slli	s3,s3,0x3
    1014:	01e78733          	add	a4,a5,t5
    1018:	00349493          	slli	s1,s1,0x3
    101c:	0006081b          	addiw	a6,a2,0
    1020:	00391913          	slli	s2,s2,0x3
    1024:	200c8c93          	addi	s9,s9,512
    1028:	200f8f93          	addi	t6,t6,512
    102c:	0003031b          	addiw	t1,t1,0
    1030:	200e8e93          	addi	t4,t4,512
    1034:	000b3c03          	ld	s8,0(s6)
    1038:	0006b403          	ld	s0,0(a3)
    103c:	06053603          	ld	a2,96(a0)
    1040:	000a3a03          	ld	s4,0(s4)
    1044:	01278933          	add	s2,a5,s2
    1048:	0008bf03          	ld	t5,0(a7)
    104c:	009782b3          	add	t0,a5,s1
    1050:	000abb83          	ld	s7,0(s5)
    1054:	00073b03          	ld	s6,0(a4)
    1058:	0003ba83          	ld	s5,0(t2)
    105c:	06853683          	ld	a3,104(a0)
    1060:	013783b3          	add	t2,a5,s3
    1064:	07053883          	ld	a7,112(a0)
    1068:	07853703          	ld	a4,120(a0)
    106c:	003c9c93          	slli	s9,s9,0x3
    1070:	300e0e13          	addi	t3,t3,768
    1074:	003f9f93          	slli	t6,t6,0x3
    1078:	30030313          	addi	t1,t1,768
    107c:	003e9e93          	slli	t4,t4,0x3
    1080:	30080813          	addi	a6,a6,768
    1084:	00093983          	ld	s3,0(s2)
    1088:	0002b483          	ld	s1,0(t0)
    108c:	0003b903          	ld	s2,0(t2)
    1090:	019782b3          	add	t0,a5,s9
    1094:	01f78fb3          	add	t6,a5,t6
    1098:	01d78eb3          	add	t4,a5,t4
    109c:	003e1e13          	slli	t3,t3,0x3
    10a0:	00331313          	slli	t1,t1,0x3
    10a4:	00381813          	slli	a6,a6,0x3
    10a8:	0002b383          	ld	t2,0(t0)
    10ac:	01c78e33          	add	t3,a5,t3
    10b0:	000fb283          	ld	t0,0(t6)
    10b4:	00678333          	add	t1,a5,t1
    10b8:	000ebf83          	ld	t6,0(t4)
    10bc:	01078833          	add	a6,a5,a6
    10c0:	000e3e83          	ld	t4,0(t3)
    10c4:	00083803          	ld	a6,0(a6)
    10c8:	00033e03          	ld	t3,0(t1)
    10cc:	01864633          	xor	a2,a2,s8
    10d0:	0176c6b3          	xor	a3,a3,s7
    10d4:	0168c8b3          	xor	a7,a7,s6
    10d8:	01574733          	xor	a4,a4,s5
    10dc:	01464633          	xor	a2,a2,s4
    10e0:	0136c6b3          	xor	a3,a3,s3
    10e4:	0128c8b3          	xor	a7,a7,s2
    10e8:	00974733          	xor	a4,a4,s1
    10ec:	00864633          	xor	a2,a2,s0
    10f0:	0076c6b3          	xor	a3,a3,t2
    10f4:	0058c8b3          	xor	a7,a7,t0
    10f8:	01f74733          	xor	a4,a4,t6
    10fc:	01d6c6b3          	xor	a3,a3,t4
    1100:	01e64633          	xor	a2,a2,t5
    1104:	01c8c8b3          	xor	a7,a7,t3
    1108:	01074733          	xor	a4,a4,a6
    110c:	0086d293          	srli	t0,a3,0x8
    1110:	0108df93          	srli	t6,a7,0x10
    1114:	01875f1b          	srliw	t5,a4,0x18
    1118:	0088de93          	srli	t4,a7,0x8
    111c:	01075e13          	srli	t3,a4,0x10
    1120:	0186581b          	srliw	a6,a2,0x18
    1124:	00875913          	srli	s2,a4,0x8
    1128:	01065c13          	srli	s8,a2,0x10
    112c:	0186d41b          	srliw	s0,a3,0x18
    1130:	000f0f1b          	addiw	t5,t5,0
    1134:	0ffe7e13          	andi	t3,t3,255
    1138:	0008081b          	addiw	a6,a6,0
    113c:	00865493          	srli	s1,a2,0x8
    1140:	0ff2f293          	andi	t0,t0,255
    1144:	0fffff93          	andi	t6,t6,255
    1148:	0ffefe93          	andi	t4,t4,255
    114c:	0ff97913          	andi	s2,s2,255
    1150:	0ffc7c13          	andi	s8,s8,255
    1154:	0004041b          	addiw	s0,s0,0
    1158:	300f0993          	addi	s3,t5,768
    115c:	0ff6f393          	andi	t2,a3,255
    1160:	200e0c93          	addi	s9,t3,512
    1164:	30080b13          	addi	s6,a6,768
    1168:	0ff8ff13          	andi	t5,a7,255
    116c:	0ff77713          	andi	a4,a4,255
    1170:	0106d313          	srli	t1,a3,0x10
    1174:	0ff67613          	andi	a2,a2,255
    1178:	10028293          	addi	t0,t0,256
    117c:	200f8f93          	addi	t6,t6,512
    1180:	100e8e93          	addi	t4,t4,256
    1184:	10090913          	addi	s2,s2,256
    1188:	200c0c13          	addi	s8,s8,512
    118c:	30040413          	addi	s0,s0,768
    1190:	0ff4f493          	andi	s1,s1,255
    1194:	00399993          	slli	s3,s3,0x3
    1198:	00341413          	slli	s0,s0,0x3
    119c:	00371a93          	slli	s5,a4,0x3
    11a0:	00361613          	slli	a2,a2,0x3
    11a4:	00329293          	slli	t0,t0,0x3
    11a8:	003f9f93          	slli	t6,t6,0x3
    11ac:	00339393          	slli	t2,t2,0x3
    11b0:	003e9e93          	slli	t4,t4,0x3
    11b4:	003c9c93          	slli	s9,s9,0x3
    11b8:	003b1b13          	slli	s6,s6,0x3
    11bc:	003f1f13          	slli	t5,t5,0x3
    11c0:	00391913          	slli	s2,s2,0x3
    11c4:	003c1c13          	slli	s8,s8,0x3
    11c8:	10048493          	addi	s1,s1,256
    11cc:	0ff37313          	andi	t1,t1,255
    11d0:	0188d89b          	srliw	a7,a7,0x18
    11d4:	01378733          	add	a4,a5,s3
    11d8:	008786b3          	add	a3,a5,s0
    11dc:	00c78633          	add	a2,a5,a2
    11e0:	005782b3          	add	t0,a5,t0
    11e4:	01f78fb3          	add	t6,a5,t6
    11e8:	007783b3          	add	t2,a5,t2
    11ec:	01d78eb3          	add	t4,a5,t4
    11f0:	01978cb3          	add	s9,a5,s9
    11f4:	01678b33          	add	s6,a5,s6
    11f8:	01e78f33          	add	t5,a5,t5
    11fc:	01878c33          	add	s8,a5,s8
    1200:	01278933          	add	s2,a5,s2
    1204:	01578ab3          	add	s5,a5,s5
    1208:	00349493          	slli	s1,s1,0x3
    120c:	20030313          	addi	t1,t1,512
    1210:	0008889b          	addiw	a7,a7,0
    1214:	00063b83          	ld	s7,0(a2)
    1218:	0002ba03          	ld	s4,0(t0)
    121c:	000fb403          	ld	s0,0(t6)
    1220:	0003b983          	ld	s3,0(t2)
    1224:	00073f83          	ld	t6,0(a4)
    1228:	000eb383          	ld	t2,0(t4)
    122c:	000b3e03          	ld	t3,0(s6)
    1230:	000cbe83          	ld	t4,0(s9)
    1234:	000f3b03          	ld	s6,0(t5)
    1238:	000c3283          	ld	t0,0(s8)
    123c:	0006bf03          	ld	t5,0(a3)
    1240:	08053803          	ld	a6,128(a0)
    1244:	08853703          	ld	a4,136(a0)
    1248:	09053603          	ld	a2,144(a0)
    124c:	00093903          	ld	s2,0(s2)
    1250:	09853683          	ld	a3,152(a0)
    1254:	009784b3          	add	s1,a5,s1
    1258:	000aba83          	ld	s5,0(s5)
    125c:	00331313          	slli	t1,t1,0x3
    1260:	30088893          	addi	a7,a7,768
    1264:	0004b483          	ld	s1,0(s1)
    1268:	00678333          	add	t1,a5,t1
    126c:	00389893          	slli	a7,a7,0x3
    1270:	00033303          	ld	t1,0(t1)
    1274:	011788b3          	add	a7,a5,a7
    1278:	0008b883          	ld	a7,0(a7)
    127c:	01784833          	xor	a6,a6,s7
    1280:	01664633          	xor	a2,a2,s6
    1284:	0156c6b3          	xor	a3,a3,s5
    1288:	01484833          	xor	a6,a6,s4
    128c:	01374733          	xor	a4,a4,s3
    1290:	01264633          	xor	a2,a2,s2
    1294:	0096c6b3          	xor	a3,a3,s1
    1298:	00884833          	xor	a6,a6,s0
    129c:	00774733          	xor	a4,a4,t2
    12a0:	00564633          	xor	a2,a2,t0
    12a4:	0066c6b3          	xor	a3,a3,t1
    12a8:	0116c6b3          	xor	a3,a3,a7
    12ac:	01f84833          	xor	a6,a6,t6
    12b0:	01e64633          	xor	a2,a2,t5
    12b4:	01d74733          	xor	a4,a4,t4
    12b8:	01c74733          	xor	a4,a4,t3
    12bc:	00865e93          	srli	t4,a2,0x8
    12c0:	0086d313          	srli	t1,a3,0x8
    12c4:	00885913          	srli	s2,a6,0x8
    12c8:	0ff67893          	andi	a7,a2,255
    12cc:	00875413          	srli	s0,a4,0x8
    12d0:	0ff77b93          	andi	s7,a4,255
    12d4:	0ffefe93          	andi	t4,t4,255
    12d8:	0106d393          	srli	t2,a3,0x10
    12dc:	0ff37313          	andi	t1,t1,255
    12e0:	01085e13          	srli	t3,a6,0x10
    12e4:	0ff6fb13          	andi	s6,a3,255
    12e8:	01075c93          	srli	s9,a4,0x10
    12ec:	0ff97913          	andi	s2,s2,255
    12f0:	0ff87a93          	andi	s5,a6,255
    12f4:	01065493          	srli	s1,a2,0x10
    12f8:	100e8a13          	addi	s4,t4,256
    12fc:	0188581b          	srliw	a6,a6,0x18
    1300:	00389e93          	slli	t4,a7,0x3
    1304:	10030993          	addi	s3,t1,256
    1308:	003b1b13          	slli	s6,s6,0x3
    130c:	0186561b          	srliw	a2,a2,0x18
    1310:	0ff47413          	andi	s0,s0,255
    1314:	003b9b93          	slli	s7,s7,0x3
    1318:	0ff3f393          	andi	t2,t2,255
    131c:	0ffe7e13          	andi	t3,t3,255
    1320:	0187571b          	srliw	a4,a4,0x18
    1324:	10090913          	addi	s2,s2,256
    1328:	0ffcfc93          	andi	s9,s9,255
    132c:	01778bb3          	add	s7,a5,s7
    1330:	00080f9b          	addiw	t6,a6,0
    1334:	016782b3          	add	t0,a5,s6
    1338:	00060f1b          	addiw	t5,a2,0
    133c:	0186d89b          	srliw	a7,a3,0x18
    1340:	200e0e13          	addi	t3,t3,512
    1344:	01d786b3          	add	a3,a5,t4
    1348:	0007071b          	addiw	a4,a4,0
    134c:	200c8c93          	addi	s9,s9,512
    1350:	003a9a93          	slli	s5,s5,0x3
    1354:	10040413          	addi	s0,s0,256
    1358:	0ff4f493          	andi	s1,s1,255
    135c:	003a1a13          	slli	s4,s4,0x3
    1360:	20038393          	addi	t2,t2,512
    1364:	00399993          	slli	s3,s3,0x3
    1368:	00391913          	slli	s2,s2,0x3
    136c:	000bbc03          	ld	s8,0(s7)
    1370:	0002bb03          	ld	s6,0(t0)
    1374:	0006bb83          	ld	s7,0(a3)
    1378:	0a853803          	ld	a6,168(a0)
    137c:	0b053603          	ld	a2,176(a0)
    1380:	0b853683          	ld	a3,184(a0)
    1384:	01578ab3          	add	s5,a5,s5
    1388:	20048493          	addi	s1,s1,512
    138c:	01478a33          	add	s4,a5,s4
    1390:	300f8e93          	addi	t4,t6,768
    1394:	013789b3          	add	s3,a5,s3
    1398:	003e1293          	slli	t0,t3,0x3
    139c:	01278933          	add	s2,a5,s2
    13a0:	30070e13          	addi	t3,a4,768
    13a4:	003c9f93          	slli	t6,s9,0x3
    13a8:	300f0313          	addi	t1,t5,768
    13ac:	00341413          	slli	s0,s0,0x3
    13b0:	0008889b          	addiw	a7,a7,0
    13b4:	00339393          	slli	t2,t2,0x3
    13b8:	0a053703          	ld	a4,160(a0)
    13bc:	000aba83          	ld	s5,0(s5)
    13c0:	000a3a03          	ld	s4,0(s4)
    13c4:	0009b983          	ld	s3,0(s3)
    13c8:	00093903          	ld	s2,0(s2)
    13cc:	00878433          	add	s0,a5,s0
    13d0:	007783b3          	add	t2,a5,t2
    13d4:	005782b3          	add	t0,a5,t0
    13d8:	01f78fb3          	add	t6,a5,t6
    13dc:	00349f13          	slli	t5,s1,0x3
    13e0:	30088893          	addi	a7,a7,768
    13e4:	003e9e93          	slli	t4,t4,0x3
    13e8:	003e1e13          	slli	t3,t3,0x3
    13ec:	00331313          	slli	t1,t1,0x3
    13f0:	00043483          	ld	s1,0(s0)
    13f4:	01d78eb3          	add	t4,a5,t4
    13f8:	0003b403          	ld	s0,0(t2)
    13fc:	01c78e33          	add	t3,a5,t3
    1400:	0002b383          	ld	t2,0(t0)
    1404:	00678333          	add	t1,a5,t1
    1408:	000fb283          	ld	t0,0(t6)
    140c:	01e78f33          	add	t5,a5,t5
    1410:	00389893          	slli	a7,a7,0x3
    1414:	000ebf83          	ld	t6,0(t4)
    1418:	000f3f03          	ld	t5,0(t5)
    141c:	000e3e83          	ld	t4,0(t3)
    1420:	011788b3          	add	a7,a5,a7
    1424:	00033e03          	ld	t3,0(t1)
    1428:	01884833          	xor	a6,a6,s8
    142c:	01764633          	xor	a2,a2,s7
    1430:	0166c6b3          	xor	a3,a3,s6
    1434:	0008b303          	ld	t1,0(a7)
    1438:	01574733          	xor	a4,a4,s5
    143c:	01484833          	xor	a6,a6,s4
    1440:	01364633          	xor	a2,a2,s3
    1444:	0126c6b3          	xor	a3,a3,s2
    1448:	00974733          	xor	a4,a4,s1
    144c:	00884833          	xor	a6,a6,s0
    1450:	00764633          	xor	a2,a2,t2
    1454:	0056c6b3          	xor	a3,a3,t0
    1458:	01d64633          	xor	a2,a2,t4
    145c:	01f84833          	xor	a6,a6,t6
    1460:	01c6c6b3          	xor	a3,a3,t3
    1464:	01e74733          	xor	a4,a4,t5
    1468:	00674733          	xor	a4,a4,t1
    146c:	00885e93          	srli	t4,a6,0x8
    1470:	01065e13          	srli	t3,a2,0x10
    1474:	0186d31b          	srliw	t1,a3,0x18
    1478:	00865f93          	srli	t6,a2,0x8
    147c:	0106df13          	srli	t5,a3,0x10
    1480:	0fffff93          	andi	t6,t6,255
    1484:	0fff7f13          	andi	t5,t5,255
    1488:	0086dc13          	srli	s8,a3,0x8
    148c:	00875413          	srli	s0,a4,0x8
    1490:	0ffefe93          	andi	t4,t4,255
    1494:	0ffe7e13          	andi	t3,t3,255
    1498:	0003031b          	addiw	t1,t1,0
    149c:	0ff77993          	andi	s3,a4,255
    14a0:	100e8e93          	addi	t4,t4,256
    14a4:	30030313          	addi	t1,t1,768
    14a8:	0ff87b13          	andi	s6,a6,255
    14ac:	100f8913          	addi	s2,t6,256
    14b0:	200f0293          	addi	t0,t5,512
    14b4:	0ff67a93          	andi	s5,a2,255
    14b8:	01075f93          	srli	t6,a4,0x10
    14bc:	01085f13          	srli	t5,a6,0x10
    14c0:	200e0e13          	addi	t3,t3,512
    14c4:	0ffc7c13          	andi	s8,s8,255
    14c8:	0ff6f693          	andi	a3,a3,255
    14cc:	0ff47413          	andi	s0,s0,255
    14d0:	003e9393          	slli	t2,t4,0x3
    14d4:	00331a13          	slli	s4,t1,0x3
    14d8:	0188581b          	srliw	a6,a6,0x18
    14dc:	00369693          	slli	a3,a3,0x3
    14e0:	0186589b          	srliw	a7,a2,0x18
    14e4:	00399993          	slli	s3,s3,0x3
    14e8:	003e1e13          	slli	t3,t3,0x3
    14ec:	003b1b13          	slli	s6,s6,0x3
    14f0:	00391913          	slli	s2,s2,0x3
    14f4:	00329293          	slli	t0,t0,0x3
    14f8:	0187571b          	srliw	a4,a4,0x18
    14fc:	003a9a93          	slli	s5,s5,0x3
    1500:	100c0c13          	addi	s8,s8,256
    1504:	0fffff93          	andi	t6,t6,255
    1508:	10040413          	addi	s0,s0,256
    150c:	0fff7f13          	andi	t5,t5,255
    1510:	00d784b3          	add	s1,a5,a3
    1514:	013789b3          	add	s3,a5,s3
    1518:	007783b3          	add	t2,a5,t2
    151c:	01c78e33          	add	t3,a5,t3
    1520:	01478a33          	add	s4,a5,s4
    1524:	01678b33          	add	s6,a5,s6
    1528:	01278933          	add	s2,a5,s2
    152c:	005782b3          	add	t0,a5,t0
    1530:	0007071b          	addiw	a4,a4,0
    1534:	01578ab3          	add	s5,a5,s5
    1538:	0008031b          	addiw	t1,a6,0
    153c:	003c1c13          	slli	s8,s8,0x3
    1540:	200f8f93          	addi	t6,t6,512
    1544:	00341413          	slli	s0,s0,0x3
    1548:	200f0f13          	addi	t5,t5,512
    154c:	0008889b          	addiw	a7,a7,0
    1550:	0009bb83          	ld	s7,0(s3)
    1554:	000a3e83          	ld	t4,0(s4)
    1558:	0003b983          	ld	s3,0(t2)
    155c:	0c053803          	ld	a6,192(a0)
    1560:	000e3383          	ld	t2,0(t3)
    1564:	0c853603          	ld	a2,200(a0)
    1568:	000b3b03          	ld	s6,0(s6)
    156c:	00093903          	ld	s2,0(s2)
    1570:	01878c33          	add	s8,a5,s8
    1574:	0002b283          	ld	t0,0(t0)
    1578:	30070e13          	addi	t3,a4,768
    157c:	0004ba03          	ld	s4,0(s1)
    1580:	0d053683          	ld	a3,208(a0)
    1584:	000aba83          	ld	s5,0(s5)
    1588:	0d853703          	ld	a4,216(a0)
    158c:	00878433          	add	s0,a5,s0
    1590:	003f9f93          	slli	t6,t6,0x3
    1594:	30030313          	addi	t1,t1,768
    1598:	003f1f13          	slli	t5,t5,0x3
    159c:	30088893          	addi	a7,a7,768
    15a0:	000c3483          	ld	s1,0(s8)
    15a4:	00043403          	ld	s0,0(s0)
    15a8:	01f78fb3          	add	t6,a5,t6
    15ac:	01e78f33          	add	t5,a5,t5
    15b0:	003e1e13          	slli	t3,t3,0x3
    15b4:	00331313          	slli	t1,t1,0x3
    15b8:	00389893          	slli	a7,a7,0x3
    15bc:	000fbf83          	ld	t6,0(t6)
    15c0:	000f3f03          	ld	t5,0(t5)
    15c4:	01c78e33          	add	t3,a5,t3
    15c8:	00678333          	add	t1,a5,t1
    15cc:	011788b3          	add	a7,a5,a7
    15d0:	000e3e03          	ld	t3,0(t3)
    15d4:	00033303          	ld	t1,0(t1)
    15d8:	0008b883          	ld	a7,0(a7)
    15dc:	01784833          	xor	a6,a6,s7
    15e0:	01664633          	xor	a2,a2,s6
    15e4:	0156c6b3          	xor	a3,a3,s5
    15e8:	01474733          	xor	a4,a4,s4
    15ec:	01384833          	xor	a6,a6,s3
    15f0:	01264633          	xor	a2,a2,s2
    15f4:	0096c6b3          	xor	a3,a3,s1
    15f8:	00874733          	xor	a4,a4,s0
    15fc:	00784833          	xor	a6,a6,t2
    1600:	00564633          	xor	a2,a2,t0
    1604:	01f6c6b3          	xor	a3,a3,t6
    1608:	01e74733          	xor	a4,a4,t5
    160c:	01d84833          	xor	a6,a6,t4
    1610:	01c64633          	xor	a2,a2,t3
    1614:	0066c6b3          	xor	a3,a3,t1
    1618:	01174733          	xor	a4,a4,a7
    161c:	00865313          	srli	t1,a2,0x8
    1620:	0086d893          	srli	a7,a3,0x8
    1624:	00875413          	srli	s0,a4,0x8
    1628:	00885993          	srli	s3,a6,0x8
    162c:	0ff6fe93          	andi	t4,a3,255
    1630:	0ff87a93          	andi	s5,a6,255
    1634:	0106d293          	srli	t0,a3,0x10
    1638:	0ff67a13          	andi	s4,a2,255
    163c:	0ff8f893          	andi	a7,a7,255
    1640:	01075c93          	srli	s9,a4,0x10
    1644:	01085393          	srli	t2,a6,0x10
    1648:	0ff77913          	andi	s2,a4,255
    164c:	01065f13          	srli	t5,a2,0x10
    1650:	0ff37313          	andi	t1,t1,255
    1654:	0ff47413          	andi	s0,s0,255
    1658:	0ff9f993          	andi	s3,s3,255
    165c:	0187571b          	srliw	a4,a4,0x18
    1660:	10088493          	addi	s1,a7,256
    1664:	0188581b          	srliw	a6,a6,0x18
    1668:	003e9893          	slli	a7,t4,0x3
    166c:	0186561b          	srliw	a2,a2,0x18
    1670:	0186d69b          	srliw	a3,a3,0x18
    1674:	003a9a93          	slli	s5,s5,0x3
    1678:	10030313          	addi	t1,t1,256
    167c:	0ff2f293          	andi	t0,t0,255
    1680:	003a1a13          	slli	s4,s4,0x3
    1684:	0ffcfc93          	andi	s9,s9,255
    1688:	10040413          	addi	s0,s0,256
    168c:	0ff3f393          	andi	t2,t2,255
    1690:	00391913          	slli	s2,s2,0x3
    1694:	10098993          	addi	s3,s3,256
    1698:	0fff7f13          	andi	t5,t5,255
    169c:	01578ab3          	add	s5,a5,s5
    16a0:	01478a33          	add	s4,a5,s4
    16a4:	00060e1b          	addiw	t3,a2,0
    16a8:	01278933          	add	s2,a5,s2
    16ac:	00331313          	slli	t1,t1,0x3
    16b0:	00070f9b          	addiw	t6,a4,0
    16b4:	00080e9b          	addiw	t4,a6,0
    16b8:	01178733          	add	a4,a5,a7
    16bc:	00399993          	slli	s3,s3,0x3
    16c0:	0006889b          	addiw	a7,a3,0
    16c4:	20028293          	addi	t0,t0,512
    16c8:	00349493          	slli	s1,s1,0x3
    16cc:	200c8c93          	addi	s9,s9,512
    16d0:	00341413          	slli	s0,s0,0x3
    16d4:	20038393          	addi	t2,t2,512
    16d8:	200f0f13          	addi	t5,t5,512
    16dc:	000abb83          	ld	s7,0(s5)
    16e0:	000a3b03          	ld	s6,0(s4)
    16e4:	00073a83          	ld	s5,0(a4)
    16e8:	00093a03          	ld	s4,0(s2)
    16ec:	0e053803          	ld	a6,224(a0)
    16f0:	00678933          	add	s2,a5,t1
    16f4:	0e853603          	ld	a2,232(a0)
    16f8:	0f053683          	ld	a3,240(a0)
    16fc:	0f853703          	ld	a4,248(a0)
    1700:	009784b3          	add	s1,a5,s1
    1704:	00878433          	add	s0,a5,s0
    1708:	300f8f93          	addi	t6,t6,768
    170c:	003c9c93          	slli	s9,s9,0x3
    1710:	300e8e93          	addi	t4,t4,768
    1714:	00339393          	slli	t2,t2,0x3
    1718:	300e0313          	addi	t1,t3,768
    171c:	00329293          	slli	t0,t0,0x3
    1720:	01378e33          	add	t3,a5,s3
    1724:	003f1f13          	slli	t5,t5,0x3
    1728:	30088893          	addi	a7,a7,768
    172c:	00093983          	ld	s3,0(s2)
    1730:	005782b3          	add	t0,a5,t0
    1734:	0004b903          	ld	s2,0(s1)
    1738:	003f9c13          	slli	s8,t6,0x3
    173c:	00043483          	ld	s1,0(s0)
    1740:	01978fb3          	add	t6,a5,s9
    1744:	000e3403          	ld	s0,0(t3)
    1748:	01e78f33          	add	t5,a5,t5
    174c:	003e9e13          	slli	t3,t4,0x3
    1750:	00331313          	slli	t1,t1,0x3
    1754:	00778eb3          	add	t4,a5,t2
    1758:	00389893          	slli	a7,a7,0x3
    175c:	0002b383          	ld	t2,0(t0)
    1760:	000f3f03          	ld	t5,0(t5)
    1764:	000fb283          	ld	t0,0(t6)
    1768:	01c78e33          	add	t3,a5,t3
    176c:	000ebf83          	ld	t6,0(t4)
    1770:	00678333          	add	t1,a5,t1
    1774:	01878eb3          	add	t4,a5,s8
    1778:	011788b3          	add	a7,a5,a7
    177c:	000ebe83          	ld	t4,0(t4)
    1780:	000e3e03          	ld	t3,0(t3)
    1784:	00033303          	ld	t1,0(t1)
    1788:	0008b883          	ld	a7,0(a7)
    178c:	01784833          	xor	a6,a6,s7
    1790:	01664633          	xor	a2,a2,s6
    1794:	0156c6b3          	xor	a3,a3,s5
    1798:	01474733          	xor	a4,a4,s4
    179c:	01384833          	xor	a6,a6,s3
    17a0:	01264633          	xor	a2,a2,s2
    17a4:	0096c6b3          	xor	a3,a3,s1
    17a8:	00874733          	xor	a4,a4,s0
    17ac:	00784833          	xor	a6,a6,t2
    17b0:	00564633          	xor	a2,a2,t0
    17b4:	01f6c6b3          	xor	a3,a3,t6
    17b8:	01e74733          	xor	a4,a4,t5
    17bc:	01d84833          	xor	a6,a6,t4
    17c0:	01c64633          	xor	a2,a2,t3
    17c4:	0066c6b3          	xor	a3,a3,t1
    17c8:	01174733          	xor	a4,a4,a7
    17cc:	00865313          	srli	t1,a2,0x8
    17d0:	0086d893          	srli	a7,a3,0x8
    17d4:	00875493          	srli	s1,a4,0x8
    17d8:	00885413          	srli	s0,a6,0x8
    17dc:	0ff77f93          	andi	t6,a4,255
    17e0:	0ff87a13          	andi	s4,a6,255
    17e4:	0ff37313          	andi	t1,t1,255
    17e8:	0106d393          	srli	t2,a3,0x10
    17ec:	0ff67f13          	andi	t5,a2,255
    17f0:	01075993          	srli	s3,a4,0x10
    17f4:	0ff6fe13          	andi	t3,a3,255
    17f8:	01085c93          	srli	s9,a6,0x10
    17fc:	01065e93          	srli	t4,a2,0x10
    1800:	0ff8f893          	andi	a7,a7,255
    1804:	0ff4f493          	andi	s1,s1,255
    1808:	0ff47413          	andi	s0,s0,255
    180c:	10030913          	addi	s2,t1,256
    1810:	0187571b          	srliw	a4,a4,0x18
    1814:	003f1f13          	slli	t5,t5,0x3
    1818:	0186561b          	srliw	a2,a2,0x18
    181c:	003f9313          	slli	t1,t6,0x3
    1820:	0186d69b          	srliw	a3,a3,0x18
    1824:	003a1a13          	slli	s4,s4,0x3
    1828:	0ff3f393          	andi	t2,t2,255
    182c:	10088893          	addi	a7,a7,256
    1830:	0ff9f993          	andi	s3,s3,255
    1834:	0188581b          	srliw	a6,a6,0x18
    1838:	003e1e13          	slli	t3,t3,0x3
    183c:	10048493          	addi	s1,s1,256
    1840:	0ffcfc93          	andi	s9,s9,255
    1844:	10040413          	addi	s0,s0,256
    1848:	0ffefe93          	andi	t4,t4,255
    184c:	01478a33          	add	s4,a5,s4
    1850:	0007029b          	addiw	t0,a4,0
    1854:	01c78e33          	add	t3,a5,t3
    1858:	01e78733          	add	a4,a5,t5
    185c:	00678333          	add	t1,a5,t1
    1860:	20098993          	addi	s3,s3,512
    1864:	00060f9b          	addiw	t6,a2,0
    1868:	00068f1b          	addiw	t5,a3,0
    186c:	00391913          	slli	s2,s2,0x3
    1870:	20038393          	addi	t2,t2,512
    1874:	00389893          	slli	a7,a7,0x3
    1878:	0008081b          	addiw	a6,a6,0
    187c:	00349493          	slli	s1,s1,0x3
    1880:	200c8c93          	addi	s9,s9,512
    1884:	00341413          	slli	s0,s0,0x3
    1888:	200e8e93          	addi	t4,t4,512
    188c:	10053603          	ld	a2,256(a0)
    1890:	01278933          	add	s2,a5,s2
    1894:	000a3b83          	ld	s7,0(s4)
    1898:	00073b03          	ld	s6,0(a4)
    189c:	000e3a83          	ld	s5,0(t3)
    18a0:	00033a03          	ld	s4,0(t1)
    18a4:	11853e03          	ld	t3,280(a0)
    18a8:	10853683          	ld	a3,264(a0)
    18ac:	11053703          	ld	a4,272(a0)
    18b0:	011788b3          	add	a7,a5,a7
    18b4:	30028313          	addi	t1,t0,768
    18b8:	30080813          	addi	a6,a6,768
    18bc:	00399293          	slli	t0,s3,0x3
    18c0:	009784b3          	add	s1,a5,s1
    18c4:	300f8f93          	addi	t6,t6,768
    18c8:	00878433          	add	s0,a5,s0
    18cc:	300f0f13          	addi	t5,t5,768
    18d0:	00339393          	slli	t2,t2,0x3
    18d4:	003c9c93          	slli	s9,s9,0x3
    18d8:	003e9e93          	slli	t4,t4,0x3
    18dc:	00093983          	ld	s3,0(s2)
    18e0:	0004b483          	ld	s1,0(s1)
    18e4:	0008b903          	ld	s2,0(a7)
    18e8:	00043403          	ld	s0,0(s0)
    18ec:	01d78eb3          	add	t4,a5,t4
    18f0:	003f1c13          	slli	s8,t5,0x3
    18f4:	007783b3          	add	t2,a5,t2
    18f8:	005782b3          	add	t0,a5,t0
    18fc:	00381893          	slli	a7,a6,0x3
    1900:	01978cb3          	add	s9,a5,s9
    1904:	003f9813          	slli	a6,t6,0x3
    1908:	00331313          	slli	t1,t1,0x3
    190c:	000ebf03          	ld	t5,0(t4)
    1910:	0003b383          	ld	t2,0(t2)
    1914:	0002b283          	ld	t0,0(t0)
    1918:	000cbf83          	ld	t6,0(s9)
    191c:	00678333          	add	t1,a5,t1
    1920:	011788b3          	add	a7,a5,a7
    1924:	01078833          	add	a6,a5,a6
    1928:	018787b3          	add	a5,a5,s8
    192c:	00033e83          	ld	t4,0(t1)
    1930:	01764633          	xor	a2,a2,s7
    1934:	0008b303          	ld	t1,0(a7)
    1938:	0166c6b3          	xor	a3,a3,s6
    193c:	00083883          	ld	a7,0(a6)
    1940:	01574733          	xor	a4,a4,s5
    1944:	0007b803          	ld	a6,0(a5)
    1948:	014e47b3          	xor	a5,t3,s4
    194c:	01364633          	xor	a2,a2,s3
    1950:	0126c6b3          	xor	a3,a3,s2
    1954:	00974733          	xor	a4,a4,s1
    1958:	0087c7b3          	xor	a5,a5,s0
    195c:	00764633          	xor	a2,a2,t2
    1960:	0056c6b3          	xor	a3,a3,t0
    1964:	01f74733          	xor	a4,a4,t6
    1968:	01e7c7b3          	xor	a5,a5,t5
    196c:	01d64633          	xor	a2,a2,t4
    1970:	0066c6b3          	xor	a3,a3,t1
    1974:	01174733          	xor	a4,a4,a7
    1978:	0107c7b3          	xor	a5,a5,a6
    197c:	0086d493          	srli	s1,a3,0x8
    1980:	01075f93          	srli	t6,a4,0x10
    1984:	0187de1b          	srliw	t3,a5,0x18
    1988:	00875f13          	srli	t5,a4,0x8
    198c:	0107d313          	srli	t1,a5,0x10
    1990:	0186581b          	srliw	a6,a2,0x18
    1994:	0087d913          	srli	s2,a5,0x8
    1998:	00865b93          	srli	s7,a2,0x8
    199c:	0ff4f493          	andi	s1,s1,255
    19a0:	0fffff93          	andi	t6,t6,255
    19a4:	000e0e1b          	addiw	t3,t3,0
    19a8:	0fff7f13          	andi	t5,t5,255
    19ac:	0ff37313          	andi	t1,t1,255
    19b0:	0008081b          	addiw	a6,a6,0
    19b4:	0ff97913          	andi	s2,s2,255
    19b8:	0ff67a13          	andi	s4,a2,255
    19bc:	0ff6f413          	andi	s0,a3,255
    19c0:	0ff77993          	andi	s3,a4,255
    19c4:	0ff7f793          	andi	a5,a5,255
    19c8:	0106d893          	srli	a7,a3,0x10
    19cc:	10048493          	addi	s1,s1,256
    19d0:	200f8f93          	addi	t6,t6,512
    19d4:	300e0e13          	addi	t3,t3,768
    19d8:	100f0f13          	addi	t5,t5,256
    19dc:	20030313          	addi	t1,t1,512
    19e0:	30080813          	addi	a6,a6,768
    19e4:	10090913          	addi	s2,s2,256
    19e8:	01065613          	srli	a2,a2,0x10
    19ec:	0ffbfb93          	andi	s7,s7,255
    19f0:	00000b37          	lui	s6,0x0
    19f4:	000b0b13          	addi	s6,s6,0 # 0 <set_key>
    19f8:	00381813          	slli	a6,a6,0x3
    19fc:	0ff67613          	andi	a2,a2,255
    1a00:	0186d69b          	srliw	a3,a3,0x18
    1a04:	00379e93          	slli	t4,a5,0x3
    1a08:	0187571b          	srliw	a4,a4,0x18
    1a0c:	003a1a13          	slli	s4,s4,0x3
    1a10:	00349493          	slli	s1,s1,0x3
    1a14:	003f9f93          	slli	t6,t6,0x3
    1a18:	003e1e13          	slli	t3,t3,0x3
    1a1c:	00341413          	slli	s0,s0,0x3
    1a20:	003f1f13          	slli	t5,t5,0x3
    1a24:	00331313          	slli	t1,t1,0x3
    1a28:	00399993          	slli	s3,s3,0x3
    1a2c:	00391913          	slli	s2,s2,0x3
    1a30:	100b8b93          	addi	s7,s7,256
    1a34:	0ff8f893          	andi	a7,a7,255
    1a38:	016807b3          	add	a5,a6,s6
    1a3c:	20060393          	addi	t2,a2,512
    1a40:	0007029b          	addiw	t0,a4,0
    1a44:	016a0a33          	add	s4,s4,s6
    1a48:	01640433          	add	s0,s0,s6
    1a4c:	016f0f33          	add	t5,t5,s6
    1a50:	01630333          	add	t1,t1,s6
    1a54:	01690933          	add	s2,s2,s6
    1a58:	0006881b          	addiw	a6,a3,0
    1a5c:	016e8eb3          	add	t4,t4,s6
    1a60:	016484b3          	add	s1,s1,s6
    1a64:	016f8fb3          	add	t6,t6,s6
    1a68:	016e0e33          	add	t3,t3,s6
    1a6c:	016989b3          	add	s3,s3,s6
    1a70:	003b9b93          	slli	s7,s7,0x3
    1a74:	20088893          	addi	a7,a7,512
    1a78:	12053603          	ld	a2,288(a0)
    1a7c:	000a3a83          	ld	s5,0(s4)
    1a80:	12853703          	ld	a4,296(a0)
    1a84:	00043a03          	ld	s4,0(s0)
    1a88:	0004b483          	ld	s1,0(s1)
    1a8c:	000f3403          	ld	s0,0(t5)
    1a90:	000fbf83          	ld	t6,0(t6)
    1a94:	00033f03          	ld	t5,0(t1)
    1a98:	000e3e03          	ld	t3,0(t3)
    1a9c:	0007b303          	ld	t1,0(a5)
    1aa0:	0009b983          	ld	s3,0(s3)
    1aa4:	13053783          	ld	a5,304(a0)
    1aa8:	00339c13          	slli	s8,t2,0x3
    1aac:	30080813          	addi	a6,a6,768
    1ab0:	00093383          	ld	t2,0(s2)
    1ab4:	016b8bb3          	add	s7,s7,s6
    1ab8:	13853683          	ld	a3,312(a0)
    1abc:	000eb903          	ld	s2,0(t4)
    1ac0:	30028513          	addi	a0,t0,768
    1ac4:	00389893          	slli	a7,a7,0x3
    1ac8:	016c0c33          	add	s8,s8,s6
    1acc:	00381813          	slli	a6,a6,0x3
    1ad0:	000bb283          	ld	t0,0(s7)
    1ad4:	016888b3          	add	a7,a7,s6
    1ad8:	00351513          	slli	a0,a0,0x3
    1adc:	000c3e83          	ld	t4,0(s8)
    1ae0:	01680833          	add	a6,a6,s6
    1ae4:	0008b883          	ld	a7,0(a7)
    1ae8:	01650533          	add	a0,a0,s6
    1aec:	01564633          	xor	a2,a2,s5
    1af0:	01474733          	xor	a4,a4,s4
    1af4:	0137c7b3          	xor	a5,a5,s3
    1af8:	00083803          	ld	a6,0(a6)
    1afc:	0126c6b3          	xor	a3,a3,s2
    1b00:	00053503          	ld	a0,0(a0)
    1b04:	00964633          	xor	a2,a2,s1
    1b08:	00874733          	xor	a4,a4,s0
    1b0c:	0077c7b3          	xor	a5,a5,t2
    1b10:	0056c6b3          	xor	a3,a3,t0
    1b14:	01f64633          	xor	a2,a2,t6
    1b18:	01e74733          	xor	a4,a4,t5
    1b1c:	01d7c7b3          	xor	a5,a5,t4
    1b20:	0116c6b3          	xor	a3,a3,a7
    1b24:	01c64e33          	xor	t3,a2,t3
    1b28:	00674733          	xor	a4,a4,t1
    1b2c:	0107c833          	xor	a6,a5,a6
    1b30:	00a6c6b3          	xor	a3,a3,a0
    1b34:	b59fe06f          	jal	zero,68c <.L35>

0000000000001b38 <.L46>:
    1b38:	000007b7          	lui	a5,0x0
    1b3c:	00078793          	addi	a5,a5,0 # 0 <set_key>
    1b40:	f0dfe06f          	jal	zero,a4c <.L38>

0000000000001b44 <.L37>:
    1b44:	00875493          	srli	s1,a4,0x8
    1b48:	00885413          	srli	s0,a6,0x8
    1b4c:	0086d293          	srli	t0,a3,0x8
    1b50:	008e5f93          	srli	t6,t3,0x8
    1b54:	0ffe7f13          	andi	t5,t3,255
    1b58:	01085d93          	srli	s11,a6,0x10
    1b5c:	0ff77513          	andi	a0,a4,255
    1b60:	0106dd13          	srli	s10,a3,0x10
    1b64:	0ff87e93          	andi	t4,a6,255
    1b68:	010e5c93          	srli	s9,t3,0x10
    1b6c:	0ff6f313          	andi	t1,a3,255
    1b70:	01075c13          	srli	s8,a4,0x10
    1b74:	0ff4f493          	andi	s1,s1,255
    1b78:	0ff47413          	andi	s0,s0,255
    1b7c:	0ff2f293          	andi	t0,t0,255
    1b80:	0fffff93          	andi	t6,t6,255
    1b84:	000007b7          	lui	a5,0x0
    1b88:	00078793          	addi	a5,a5,0 # 0 <set_key>
    1b8c:	0186d69b          	srliw	a3,a3,0x18
    1b90:	0187571b          	srliw	a4,a4,0x18
    1b94:	0188581b          	srliw	a6,a6,0x18
    1b98:	018e5e1b          	srliw	t3,t3,0x18
    1b9c:	003f1f13          	slli	t5,t5,0x3
    1ba0:	10048493          	addi	s1,s1,256
    1ba4:	0ffdfd93          	andi	s11,s11,255
    1ba8:	00351513          	slli	a0,a0,0x3
    1bac:	10040413          	addi	s0,s0,256
    1bb0:	0ffd7d13          	andi	s10,s10,255
    1bb4:	003e9e93          	slli	t4,t4,0x3
    1bb8:	10028293          	addi	t0,t0,256
    1bbc:	0ffcfc93          	andi	s9,s9,255
    1bc0:	00331313          	slli	t1,t1,0x3
    1bc4:	100f8f93          	addi	t6,t6,256
    1bc8:	0ffc7c13          	andi	s8,s8,255
    1bcc:	0006899b          	addiw	s3,a3,0
    1bd0:	0007091b          	addiw	s2,a4,0
    1bd4:	01e78f33          	add	t5,a5,t5
    1bd8:	00a78533          	add	a0,a5,a0
    1bdc:	01d78eb3          	add	t4,a5,t4
    1be0:	00678333          	add	t1,a5,t1
    1be4:	0008089b          	addiw	a7,a6,0
    1be8:	00349493          	slli	s1,s1,0x3
    1bec:	200d8d93          	addi	s11,s11,512
    1bf0:	00341413          	slli	s0,s0,0x3
    1bf4:	200d0d13          	addi	s10,s10,512
    1bf8:	000e0e1b          	addiw	t3,t3,0
    1bfc:	00329293          	slli	t0,t0,0x3
    1c00:	200c8c93          	addi	s9,s9,512
    1c04:	003f9f93          	slli	t6,t6,0x3
    1c08:	200c0c13          	addi	s8,s8,512
    1c0c:	000f3b83          	ld	s7,0(t5)
    1c10:	00053b03          	ld	s6,0(a0)
    1c14:	000eba83          	ld	s5,0(t4)
    1c18:	00033a03          	ld	s4,0(t1)
    1c1c:	03063683          	ld	a3,48(a2)
    1c20:	03863803          	ld	a6,56(a2)
    1c24:	04063503          	ld	a0,64(a2)
    1c28:	04863703          	ld	a4,72(a2)
    1c2c:	009784b3          	add	s1,a5,s1
    1c30:	30098e93          	addi	t4,s3,768
    1c34:	00878433          	add	s0,a5,s0
    1c38:	005782b3          	add	t0,a5,t0
    1c3c:	30090313          	addi	t1,s2,768
    1c40:	01f78fb3          	add	t6,a5,t6
    1c44:	003d9d93          	slli	s11,s11,0x3
    1c48:	003d1d13          	slli	s10,s10,0x3
    1c4c:	300e0e13          	addi	t3,t3,768
    1c50:	003c9c93          	slli	s9,s9,0x3
    1c54:	003c1c13          	slli	s8,s8,0x3
    1c58:	30088893          	addi	a7,a7,768
    1c5c:	0004b983          	ld	s3,0(s1)
    1c60:	00043903          	ld	s2,0(s0)
    1c64:	0002b483          	ld	s1,0(t0)
    1c68:	000fb403          	ld	s0,0(t6)
    1c6c:	01978cb3          	add	s9,a5,s9
    1c70:	01878c33          	add	s8,a5,s8
    1c74:	01b78db3          	add	s11,a5,s11
    1c78:	003e9e93          	slli	t4,t4,0x3
    1c7c:	01a78d33          	add	s10,a5,s10
    1c80:	003e1e13          	slli	t3,t3,0x3
    1c84:	00331313          	slli	t1,t1,0x3
    1c88:	00389893          	slli	a7,a7,0x3
    1c8c:	000cbf83          	ld	t6,0(s9)
    1c90:	000c3f03          	ld	t5,0(s8)
    1c94:	000db383          	ld	t2,0(s11)
    1c98:	000d3283          	ld	t0,0(s10)
    1c9c:	01d78eb3          	add	t4,a5,t4
    1ca0:	01c78e33          	add	t3,a5,t3
    1ca4:	00678333          	add	t1,a5,t1
    1ca8:	011788b3          	add	a7,a5,a7
    1cac:	000ebe83          	ld	t4,0(t4)
    1cb0:	000e3e03          	ld	t3,0(t3)
    1cb4:	00033303          	ld	t1,0(t1)
    1cb8:	0008b883          	ld	a7,0(a7)
    1cbc:	0176c6b3          	xor	a3,a3,s7
    1cc0:	01684833          	xor	a6,a6,s6
    1cc4:	01554533          	xor	a0,a0,s5
    1cc8:	01474733          	xor	a4,a4,s4
    1ccc:	0136c6b3          	xor	a3,a3,s3
    1cd0:	01284833          	xor	a6,a6,s2
    1cd4:	00954533          	xor	a0,a0,s1
    1cd8:	00874733          	xor	a4,a4,s0
    1cdc:	0076c6b3          	xor	a3,a3,t2
    1ce0:	00584833          	xor	a6,a6,t0
    1ce4:	01f54533          	xor	a0,a0,t6
    1ce8:	01e74733          	xor	a4,a4,t5
    1cec:	01d6c6b3          	xor	a3,a3,t4
    1cf0:	01c84833          	xor	a6,a6,t3
    1cf4:	00654533          	xor	a0,a0,t1
    1cf8:	01174733          	xor	a4,a4,a7
    1cfc:	00885a13          	srli	s4,a6,0x8
    1d00:	01055493          	srli	s1,a0,0x10
    1d04:	0187539b          	srliw	t2,a4,0x18
    1d08:	00855993          	srli	s3,a0,0x8
    1d0c:	01075413          	srli	s0,a4,0x10
    1d10:	0186d29b          	srliw	t0,a3,0x18
    1d14:	00875913          	srli	s2,a4,0x8
    1d18:	0086df93          	srli	t6,a3,0x8
    1d1c:	0ffa7a13          	andi	s4,s4,255
    1d20:	0ff4f493          	andi	s1,s1,255
    1d24:	0003839b          	addiw	t2,t2,0
    1d28:	0ff9f993          	andi	s3,s3,255
    1d2c:	0ff47413          	andi	s0,s0,255
    1d30:	0002829b          	addiw	t0,t0,0
    1d34:	0ff97913          	andi	s2,s2,255
    1d38:	0ff6fb93          	andi	s7,a3,255
    1d3c:	0ff87b13          	andi	s6,a6,255
    1d40:	0ff57a93          	andi	s5,a0,255
    1d44:	01085f13          	srli	t5,a6,0x10
    1d48:	100a0a13          	addi	s4,s4,256
    1d4c:	20048493          	addi	s1,s1,512
    1d50:	30038393          	addi	t2,t2,768
    1d54:	10098993          	addi	s3,s3,256
    1d58:	20040413          	addi	s0,s0,512
    1d5c:	30028293          	addi	t0,t0,768
    1d60:	10090913          	addi	s2,s2,256
    1d64:	0106d693          	srli	a3,a3,0x10
    1d68:	0ff77713          	andi	a4,a4,255
    1d6c:	0fffff93          	andi	t6,t6,255
    1d70:	0188581b          	srliw	a6,a6,0x18
    1d74:	00371713          	slli	a4,a4,0x3
    1d78:	0185551b          	srliw	a0,a0,0x18
    1d7c:	003b9b93          	slli	s7,s7,0x3
    1d80:	003a1a13          	slli	s4,s4,0x3
    1d84:	00349493          	slli	s1,s1,0x3
    1d88:	00339393          	slli	t2,t2,0x3
    1d8c:	003b1b13          	slli	s6,s6,0x3
    1d90:	00399993          	slli	s3,s3,0x3
    1d94:	00341413          	slli	s0,s0,0x3
    1d98:	00329293          	slli	t0,t0,0x3
    1d9c:	003a9a93          	slli	s5,s5,0x3
    1da0:	00391913          	slli	s2,s2,0x3
    1da4:	0ff6f693          	andi	a3,a3,255
    1da8:	100f8f93          	addi	t6,t6,256
    1dac:	0fff7f13          	andi	t5,t5,255
    1db0:	00e78333          	add	t1,a5,a4
    1db4:	01778bb3          	add	s7,a5,s7
    1db8:	01678b33          	add	s6,a5,s6
    1dbc:	01578ab3          	add	s5,a5,s5
    1dc0:	20068693          	addi	a3,a3,512
    1dc4:	00080e9b          	addiw	t4,a6,0
    1dc8:	0005089b          	addiw	a7,a0,0
    1dcc:	01478a33          	add	s4,a5,s4
    1dd0:	009784b3          	add	s1,a5,s1
    1dd4:	007783b3          	add	t2,a5,t2
    1dd8:	013789b3          	add	s3,a5,s3
    1ddc:	00878433          	add	s0,a5,s0
    1de0:	005782b3          	add	t0,a5,t0
    1de4:	01278933          	add	s2,a5,s2
    1de8:	003f9f93          	slli	t6,t6,0x3
    1dec:	200f0f13          	addi	t5,t5,512
    1df0:	000bbc03          	ld	s8,0(s7)
    1df4:	05863503          	ld	a0,88(a2)
    1df8:	000b3703          	ld	a4,0(s6)
    1dfc:	000abb83          	ld	s7,0(s5)
    1e00:	05063e03          	ld	t3,80(a2)
    1e04:	00369a93          	slli	s5,a3,0x3
    1e08:	000a3a03          	ld	s4,0(s4)
    1e0c:	0004b483          	ld	s1,0(s1)
    1e10:	0003b383          	ld	t2,0(t2)
    1e14:	0009b983          	ld	s3,0(s3)
    1e18:	00043403          	ld	s0,0(s0)
    1e1c:	0002b283          	ld	t0,0(t0)
    1e20:	06063803          	ld	a6,96(a2)
    1e24:	01f78fb3          	add	t6,a5,t6
    1e28:	00093903          	ld	s2,0(s2)
    1e2c:	003f1f13          	slli	t5,t5,0x3
    1e30:	00033b03          	ld	s6,0(t1)
    1e34:	30088893          	addi	a7,a7,768
    1e38:	300e8e93          	addi	t4,t4,768
    1e3c:	06863683          	ld	a3,104(a2)
    1e40:	01578cb3          	add	s9,a5,s5
    1e44:	01e78333          	add	t1,a5,t5
    1e48:	000fba83          	ld	s5,0(t6)
    1e4c:	00389f13          	slli	t5,a7,0x3
    1e50:	003e9e93          	slli	t4,t4,0x3
    1e54:	01d78eb3          	add	t4,a5,t4
    1e58:	000cbf83          	ld	t6,0(s9)
    1e5c:	00033303          	ld	t1,0(t1)
    1e60:	01e78f33          	add	t5,a5,t5
    1e64:	00e54733          	xor	a4,a0,a4
    1e68:	000eb883          	ld	a7,0(t4)
    1e6c:	000f3503          	ld	a0,0(t5)
    1e70:	018e4e33          	xor	t3,t3,s8
    1e74:	01784833          	xor	a6,a6,s7
    1e78:	0166c6b3          	xor	a3,a3,s6
    1e7c:	014e4e33          	xor	t3,t3,s4
    1e80:	01374733          	xor	a4,a4,s3
    1e84:	01284833          	xor	a6,a6,s2
    1e88:	0156c6b3          	xor	a3,a3,s5
    1e8c:	009e4e33          	xor	t3,t3,s1
    1e90:	00874733          	xor	a4,a4,s0
    1e94:	01f84833          	xor	a6,a6,t6
    1e98:	0066c6b3          	xor	a3,a3,t1
    1e9c:	00a6c6b3          	xor	a3,a3,a0
    1ea0:	07063e83          	ld	t4,112(a2)
    1ea4:	007e4e33          	xor	t3,t3,t2
    1ea8:	00574733          	xor	a4,a4,t0
    1eac:	01184833          	xor	a6,a6,a7
    1eb0:	07060513          	addi	a0,a2,112
    1eb4:	839fe06f          	jal	zero,6ec <.L39>

0000000000001eb8 <decrypt>:
    1eb8:	41064783          	lbu	a5,1040(a2)
    1ebc:	0027f793          	andi	a5,a5,2
    1ec0:	0c078e63          	beq	a5,zero,1f9c <.L54>
    1ec4:	00453803          	ld	a6,4(a0)
    1ec8:	00053f03          	ld	t5,0(a0)
    1ecc:	00853303          	ld	t1,8(a0)
    1ed0:	00c53e83          	ld	t4,12(a0)
    1ed4:	21063703          	ld	a4,528(a2)
    1ed8:	21863683          	ld	a3,536(a2)
    1edc:	22063783          	ld	a5,544(a2)
    1ee0:	22863503          	ld	a0,552(a2)
    1ee4:	00863883          	ld	a7,8(a2)
    1ee8:	fa010113          	addi	sp,sp,-96
    1eec:	04813c23          	sd	s0,88(sp)
    1ef0:	04913823          	sd	s1,80(sp)
    1ef4:	05213423          	sd	s2,72(sp)
    1ef8:	05313023          	sd	s3,64(sp)
    1efc:	03413c23          	sd	s4,56(sp)
    1f00:	03513823          	sd	s5,48(sp)
    1f04:	03613423          	sd	s6,40(sp)
    1f08:	03713023          	sd	s7,32(sp)
    1f0c:	01813c23          	sd	s8,24(sp)
    1f10:	01913823          	sd	s9,16(sp)
    1f14:	01a13423          	sd	s10,8(sp)
    1f18:	01b13023          	sd	s11,0(sp)
    1f1c:	00c00e13          	addi	t3,zero,12
    1f20:	00d846b3          	xor	a3,a6,a3
    1f24:	00ef4733          	xor	a4,t5,a4
    1f28:	00f34333          	xor	t1,t1,a5
    1f2c:	00aec533          	xor	a0,t4,a0
    1f30:	23060813          	addi	a6,a2,560
    1f34:	07c88863          	beq	a7,t3,1fa4 <.L50>
    1f38:	00e00793          	addi	a5,zero,14
    1f3c:	00f89463          	bne	a7,a5,1f44 <decrypt+0x8c>
    1f40:	4c80106f          	jal	zero,3408 <.L51>
    1f44:	00a00793          	addi	a5,zero,10
    1f48:	00f89463          	bne	a7,a5,1f50 <.L49>
    1f4c:	4b00106f          	jal	zero,33fc <.L60>

0000000000001f50 <.L49>:
    1f50:	00e5b023          	sd	a4,0(a1)
    1f54:	00d5b223          	sd	a3,4(a1)
    1f58:	05813403          	ld	s0,88(sp)
    1f5c:	0065b423          	sd	t1,8(a1)
    1f60:	00a5b623          	sd	a0,12(a1)
    1f64:	05013483          	ld	s1,80(sp)
    1f68:	04813903          	ld	s2,72(sp)
    1f6c:	04013983          	ld	s3,64(sp)
    1f70:	03813a03          	ld	s4,56(sp)
    1f74:	03013a83          	ld	s5,48(sp)
    1f78:	02813b03          	ld	s6,40(sp)
    1f7c:	02013b83          	ld	s7,32(sp)
    1f80:	01813c03          	ld	s8,24(sp)
    1f84:	01013c83          	ld	s9,16(sp)
    1f88:	00813d03          	ld	s10,8(sp)
    1f8c:	00013d83          	ld	s11,0(sp)
    1f90:	00100513          	addi	a0,zero,1
    1f94:	06010113          	addi	sp,sp,96
    1f98:	00008067          	jalr	zero,0(ra)

0000000000001f9c <.L54>:
    1f9c:	00000513          	addi	a0,zero,0
    1fa0:	00008067          	jalr	zero,0(ra)

0000000000001fa4 <.L50>:
    1fa4:	23063e03          	ld	t3,560(a2)
    1fa8:	000007b7          	lui	a5,0x0
    1fac:	00078793          	addi	a5,a5,0 # 0 <set_key>

0000000000001fb0 <.L53>:
    1fb0:	00855f93          	srli	t6,a0,0x8
    1fb4:	00875913          	srli	s2,a4,0x8
    1fb8:	0086d493          	srli	s1,a3,0x8
    1fbc:	00835413          	srli	s0,t1,0x8
    1fc0:	01075613          	srli	a2,a4,0x10
    1fc4:	0ff77b93          	andi	s7,a4,255
    1fc8:	01035393          	srli	t2,t1,0x10
    1fcc:	0ff6fb13          	andi	s6,a3,255
    1fd0:	01055293          	srli	t0,a0,0x10
    1fd4:	0ff37a93          	andi	s5,t1,255
    1fd8:	0ff57a13          	andi	s4,a0,255
    1fdc:	0106df13          	srli	t5,a3,0x10
    1fe0:	0fffff93          	andi	t6,t6,255
    1fe4:	0ff97913          	andi	s2,s2,255
    1fe8:	0ff4f493          	andi	s1,s1,255
    1fec:	0ff47413          	andi	s0,s0,255
    1ff0:	0186de9b          	srliw	t4,a3,0x18
    1ff4:	0185589b          	srliw	a7,a0,0x18
    1ff8:	01875c1b          	srliw	s8,a4,0x18
    1ffc:	100f8993          	addi	s3,t6,256
    2000:	0183531b          	srliw	t1,t1,0x18
    2004:	0ff67f93          	andi	t6,a2,255
    2008:	003b9b93          	slli	s7,s7,0x3
    200c:	0ff3f393          	andi	t2,t2,255
    2010:	003b1b13          	slli	s6,s6,0x3
    2014:	10090913          	addi	s2,s2,256
    2018:	0ff2f293          	andi	t0,t0,255
    201c:	003a9a93          	slli	s5,s5,0x3
    2020:	10048493          	addi	s1,s1,256
    2024:	003a1a13          	slli	s4,s4,0x3
    2028:	10040413          	addi	s0,s0,256
    202c:	0fff7f13          	andi	t5,t5,255
    2030:	01778bb3          	add	s7,a5,s7
    2034:	01678b33          	add	s6,a5,s6
    2038:	01578ab3          	add	s5,a5,s5
    203c:	01478a33          	add	s4,a5,s4
    2040:	00399993          	slli	s3,s3,0x3
    2044:	20038393          	addi	t2,t2,512
    2048:	000e8e9b          	addiw	t4,t4,0
    204c:	00391913          	slli	s2,s2,0x3
    2050:	20028293          	addi	t0,t0,512
    2054:	0003031b          	addiw	t1,t1,0
    2058:	00349493          	slli	s1,s1,0x3
    205c:	200f8f93          	addi	t6,t6,512
    2060:	0008889b          	addiw	a7,a7,0
    2064:	00341413          	slli	s0,s0,0x3
    2068:	200f0f13          	addi	t5,t5,512
    206c:	000c0c1b          	addiw	s8,s8,0
    2070:	00883603          	ld	a2,8(a6)
    2074:	01083683          	ld	a3,16(a6)
    2078:	01883703          	ld	a4,24(a6)
    207c:	000bb503          	ld	a0,0(s7)
    2080:	013789b3          	add	s3,a5,s3
    2084:	000b3b83          	ld	s7,0(s6)
    2088:	01278933          	add	s2,a5,s2
    208c:	000abb03          	ld	s6,0(s5)
    2090:	009784b3          	add	s1,a5,s1
    2094:	000a3a83          	ld	s5,0(s4)
    2098:	00878433          	add	s0,a5,s0
    209c:	00339393          	slli	t2,t2,0x3
    20a0:	300e8e93          	addi	t4,t4,768
    20a4:	00329293          	slli	t0,t0,0x3
    20a8:	30030313          	addi	t1,t1,768
    20ac:	003f9f93          	slli	t6,t6,0x3
    20b0:	30088893          	addi	a7,a7,768
    20b4:	003f1f13          	slli	t5,t5,0x3
    20b8:	300c0c13          	addi	s8,s8,768
    20bc:	0009ba03          	ld	s4,0(s3)
    20c0:	007783b3          	add	t2,a5,t2
    20c4:	00093983          	ld	s3,0(s2)
    20c8:	005782b3          	add	t0,a5,t0
    20cc:	0004b903          	ld	s2,0(s1)
    20d0:	01f78fb3          	add	t6,a5,t6
    20d4:	00043483          	ld	s1,0(s0)
    20d8:	01e78f33          	add	t5,a5,t5
    20dc:	003e9e93          	slli	t4,t4,0x3
    20e0:	00331313          	slli	t1,t1,0x3
    20e4:	00389893          	slli	a7,a7,0x3
    20e8:	003c1c13          	slli	s8,s8,0x3
    20ec:	0003b403          	ld	s0,0(t2)
    20f0:	01d78eb3          	add	t4,a5,t4
    20f4:	0002b383          	ld	t2,0(t0)
    20f8:	00678333          	add	t1,a5,t1
    20fc:	000fb283          	ld	t0,0(t6)
    2100:	011788b3          	add	a7,a5,a7
    2104:	000f3f83          	ld	t6,0(t5)
    2108:	01878c33          	add	s8,a5,s8
    210c:	000ebf03          	ld	t5,0(t4)
    2110:	00ae4533          	xor	a0,t3,a0
    2114:	00033e83          	ld	t4,0(t1)
    2118:	01764633          	xor	a2,a2,s7
    211c:	0008b303          	ld	t1,0(a7)
    2120:	0166c6b3          	xor	a3,a3,s6
    2124:	000c3883          	ld	a7,0(s8)
    2128:	01574733          	xor	a4,a4,s5
    212c:	01454533          	xor	a0,a0,s4
    2130:	01364633          	xor	a2,a2,s3
    2134:	0126c6b3          	xor	a3,a3,s2
    2138:	00974733          	xor	a4,a4,s1
    213c:	00854533          	xor	a0,a0,s0
    2140:	00764633          	xor	a2,a2,t2
    2144:	0056c6b3          	xor	a3,a3,t0
    2148:	01f74733          	xor	a4,a4,t6
    214c:	01e54533          	xor	a0,a0,t5
    2150:	01d64633          	xor	a2,a2,t4
    2154:	0066c6b3          	xor	a3,a3,t1
    2158:	01174733          	xor	a4,a4,a7
    215c:	00875a13          	srli	s4,a4,0x8
    2160:	0106d493          	srli	s1,a3,0x10
    2164:	0186529b          	srliw	t0,a2,0x18
    2168:	00855993          	srli	s3,a0,0x8
    216c:	01075413          	srli	s0,a4,0x10
    2170:	0186df9b          	srliw	t6,a3,0x18
    2174:	00865913          	srli	s2,a2,0x8
    2178:	01055393          	srli	t2,a0,0x10
    217c:	0086de13          	srli	t3,a3,0x8
    2180:	0ffa7a13          	andi	s4,s4,255
    2184:	0ff4f493          	andi	s1,s1,255
    2188:	0002829b          	addiw	t0,t0,0
    218c:	0ff9f993          	andi	s3,s3,255
    2190:	0ff47413          	andi	s0,s0,255
    2194:	000f8f9b          	addiw	t6,t6,0
    2198:	0ff97913          	andi	s2,s2,255
    219c:	0ff3f393          	andi	t2,t2,255
    21a0:	0ff57b93          	andi	s7,a0,255
    21a4:	0ff67b13          	andi	s6,a2,255
    21a8:	0ff6f313          	andi	t1,a3,255
    21ac:	0ff77a93          	andi	s5,a4,255
    21b0:	100a0a13          	addi	s4,s4,256
    21b4:	20048493          	addi	s1,s1,512
    21b8:	30028293          	addi	t0,t0,768
    21bc:	10098993          	addi	s3,s3,256
    21c0:	20040413          	addi	s0,s0,512
    21c4:	300f8f93          	addi	t6,t6,768
    21c8:	10090913          	addi	s2,s2,256
    21cc:	20038393          	addi	t2,t2,512
    21d0:	0ffe7e13          	andi	t3,t3,255
    21d4:	01065613          	srli	a2,a2,0x10
    21d8:	0187571b          	srliw	a4,a4,0x18
    21dc:	0ff67613          	andi	a2,a2,255
    21e0:	0185551b          	srliw	a0,a0,0x18
    21e4:	003b9b93          	slli	s7,s7,0x3
    21e8:	003a1a13          	slli	s4,s4,0x3
    21ec:	00349493          	slli	s1,s1,0x3
    21f0:	00329293          	slli	t0,t0,0x3
    21f4:	003b1b13          	slli	s6,s6,0x3
    21f8:	00399993          	slli	s3,s3,0x3
    21fc:	00341413          	slli	s0,s0,0x3
    2200:	003f9f93          	slli	t6,t6,0x3
    2204:	00331313          	slli	t1,t1,0x3
    2208:	00391913          	slli	s2,s2,0x3
    220c:	00339393          	slli	t2,t2,0x3
    2210:	003a9a93          	slli	s5,s5,0x3
    2214:	100e0e13          	addi	t3,t3,256
    2218:	0007089b          	addiw	a7,a4,0
    221c:	01578ab3          	add	s5,a5,s5
    2220:	20060e93          	addi	t4,a2,512
    2224:	00050f1b          	addiw	t5,a0,0
    2228:	01778bb3          	add	s7,a5,s7
    222c:	01478a33          	add	s4,a5,s4
    2230:	009784b3          	add	s1,a5,s1
    2234:	005782b3          	add	t0,a5,t0
    2238:	01678b33          	add	s6,a5,s6
    223c:	013789b3          	add	s3,a5,s3
    2240:	00878433          	add	s0,a5,s0
    2244:	01f78fb3          	add	t6,a5,t6
    2248:	00678333          	add	t1,a5,t1
    224c:	01278933          	add	s2,a5,s2
    2250:	007783b3          	add	t2,a5,t2
    2254:	003e1e13          	slli	t3,t3,0x3
    2258:	02083703          	ld	a4,32(a6)
    225c:	02883683          	ld	a3,40(a6)
    2260:	03083603          	ld	a2,48(a6)
    2264:	00033303          	ld	t1,0(t1)
    2268:	000bbb83          	ld	s7,0(s7)
    226c:	000a3a03          	ld	s4,0(s4)
    2270:	0004b483          	ld	s1,0(s1)
    2274:	0002b283          	ld	t0,0(t0)
    2278:	000b3b03          	ld	s6,0(s6)
    227c:	0009b983          	ld	s3,0(s3)
    2280:	00043403          	ld	s0,0(s0)
    2284:	000fbf83          	ld	t6,0(t6)
    2288:	00093903          	ld	s2,0(s2)
    228c:	01c78e33          	add	t3,a5,t3
    2290:	0003b383          	ld	t2,0(t2)
    2294:	30088893          	addi	a7,a7,768
    2298:	03883503          	ld	a0,56(a6)
    229c:	000abc03          	ld	s8,0(s5)
    22a0:	003e9e93          	slli	t4,t4,0x3
    22a4:	300f0f13          	addi	t5,t5,768
    22a8:	000e3a83          	ld	s5,0(t3)
    22ac:	00389893          	slli	a7,a7,0x3
    22b0:	01d78eb3          	add	t4,a5,t4
    22b4:	003f1f13          	slli	t5,t5,0x3
    22b8:	011788b3          	add	a7,a5,a7
    22bc:	000ebe03          	ld	t3,0(t4)
    22c0:	01e78f33          	add	t5,a5,t5
    22c4:	00664633          	xor	a2,a2,t1
    22c8:	01774733          	xor	a4,a4,s7
    22cc:	0008b303          	ld	t1,0(a7)
    22d0:	0166c6b3          	xor	a3,a3,s6
    22d4:	01854533          	xor	a0,a0,s8
    22d8:	000f3883          	ld	a7,0(t5)
    22dc:	01474733          	xor	a4,a4,s4
    22e0:	0136c6b3          	xor	a3,a3,s3
    22e4:	01264633          	xor	a2,a2,s2
    22e8:	01554533          	xor	a0,a0,s5
    22ec:	00974733          	xor	a4,a4,s1
    22f0:	0086c6b3          	xor	a3,a3,s0
    22f4:	00764633          	xor	a2,a2,t2
    22f8:	01c54533          	xor	a0,a0,t3
    22fc:	00574733          	xor	a4,a4,t0
    2300:	01f6c6b3          	xor	a3,a3,t6
    2304:	00664333          	xor	t1,a2,t1
    2308:	01154533          	xor	a0,a0,a7
    230c:	04080813          	addi	a6,a6,64

0000000000002310 <.L52>:
    2310:	00855f93          	srli	t6,a0,0x8
    2314:	00875293          	srli	t0,a4,0x8
    2318:	0086d493          	srli	s1,a3,0x8
    231c:	00835413          	srli	s0,t1,0x8
    2320:	01055c13          	srli	s8,a0,0x10
    2324:	0ff37b93          	andi	s7,t1,255
    2328:	01075b13          	srli	s6,a4,0x10
    232c:	0ff77613          	andi	a2,a4,255
    2330:	01035393          	srli	t2,t1,0x10
    2334:	0ff6fa93          	andi	s5,a3,255
    2338:	0ff57a13          	andi	s4,a0,255
    233c:	0106df13          	srli	t5,a3,0x10
    2340:	0fffff93          	andi	t6,t6,255
    2344:	0ff2f293          	andi	t0,t0,255
    2348:	0ff4f493          	andi	s1,s1,255
    234c:	0ff47413          	andi	s0,s0,255
    2350:	0186de9b          	srliw	t4,a3,0x18
    2354:	01835e1b          	srliw	t3,t1,0x18
    2358:	0187589b          	srliw	a7,a4,0x18
    235c:	0185531b          	srliw	t1,a0,0x18
    2360:	003b9713          	slli	a4,s7,0x3
    2364:	100f8993          	addi	s3,t6,256
    2368:	10028913          	addi	s2,t0,256
    236c:	0ffb7f93          	andi	t6,s6,255
    2370:	0ffc7293          	andi	t0,s8,255
    2374:	00361613          	slli	a2,a2,0x3
    2378:	0ff3f393          	andi	t2,t2,255
    237c:	003a9a93          	slli	s5,s5,0x3
    2380:	10048493          	addi	s1,s1,256
    2384:	003a1a13          	slli	s4,s4,0x3
    2388:	10040413          	addi	s0,s0,256
    238c:	0fff7f13          	andi	t5,t5,255
    2390:	00e786b3          	add	a3,a5,a4
    2394:	00c78633          	add	a2,a5,a2
    2398:	01578ab3          	add	s5,a5,s5
    239c:	01478a33          	add	s4,a5,s4
    23a0:	00399993          	slli	s3,s3,0x3
    23a4:	20038393          	addi	t2,t2,512
    23a8:	000e8e9b          	addiw	t4,t4,0
    23ac:	00391913          	slli	s2,s2,0x3
    23b0:	20028293          	addi	t0,t0,512
    23b4:	000e0e1b          	addiw	t3,t3,0
    23b8:	00349493          	slli	s1,s1,0x3
    23bc:	200f8f93          	addi	t6,t6,512
    23c0:	0003031b          	addiw	t1,t1,0
    23c4:	00341413          	slli	s0,s0,0x3
    23c8:	200f0f13          	addi	t5,t5,512
    23cc:	0008889b          	addiw	a7,a7,0
    23d0:	00063c83          	ld	s9,0(a2)
    23d4:	000abc03          	ld	s8,0(s5)
    23d8:	0006bb83          	ld	s7,0(a3)
    23dc:	000a3b03          	ld	s6,0(s4)
    23e0:	00083503          	ld	a0,0(a6)
    23e4:	00883603          	ld	a2,8(a6)
    23e8:	01083703          	ld	a4,16(a6)
    23ec:	01883683          	ld	a3,24(a6)
    23f0:	013789b3          	add	s3,a5,s3
    23f4:	01278933          	add	s2,a5,s2
    23f8:	009784b3          	add	s1,a5,s1
    23fc:	00878433          	add	s0,a5,s0
    2400:	00339393          	slli	t2,t2,0x3
    2404:	300e8e93          	addi	t4,t4,768
    2408:	00329293          	slli	t0,t0,0x3
    240c:	300e0e13          	addi	t3,t3,768
    2410:	003f9f93          	slli	t6,t6,0x3
    2414:	30030313          	addi	t1,t1,768
    2418:	003f1f13          	slli	t5,t5,0x3
    241c:	30088893          	addi	a7,a7,768
    2420:	0009ba83          	ld	s5,0(s3)
    2424:	00093a03          	ld	s4,0(s2)
    2428:	0004b983          	ld	s3,0(s1)
    242c:	00043903          	ld	s2,0(s0)
    2430:	007783b3          	add	t2,a5,t2
    2434:	005782b3          	add	t0,a5,t0
    2438:	01f78fb3          	add	t6,a5,t6
    243c:	01e78f33          	add	t5,a5,t5
    2440:	003e9e93          	slli	t4,t4,0x3
    2444:	003e1e13          	slli	t3,t3,0x3
    2448:	00331313          	slli	t1,t1,0x3
    244c:	00389893          	slli	a7,a7,0x3
    2450:	0003b483          	ld	s1,0(t2)
    2454:	0002b403          	ld	s0,0(t0)
    2458:	000fb383          	ld	t2,0(t6)
    245c:	000f3283          	ld	t0,0(t5)
    2460:	01d78eb3          	add	t4,a5,t4
    2464:	01c78e33          	add	t3,a5,t3
    2468:	00678333          	add	t1,a5,t1
    246c:	011788b3          	add	a7,a5,a7
    2470:	000ebf83          	ld	t6,0(t4)
    2474:	000e3f03          	ld	t5,0(t3)
    2478:	00033e83          	ld	t4,0(t1)
    247c:	0008be03          	ld	t3,0(a7)
    2480:	01954533          	xor	a0,a0,s9
    2484:	01864633          	xor	a2,a2,s8
    2488:	01774733          	xor	a4,a4,s7
    248c:	0166c6b3          	xor	a3,a3,s6
    2490:	01554533          	xor	a0,a0,s5
    2494:	01464633          	xor	a2,a2,s4
    2498:	01374733          	xor	a4,a4,s3
    249c:	0126c6b3          	xor	a3,a3,s2
    24a0:	00954533          	xor	a0,a0,s1
    24a4:	00864633          	xor	a2,a2,s0
    24a8:	00774733          	xor	a4,a4,t2
    24ac:	0056c6b3          	xor	a3,a3,t0
    24b0:	01e64633          	xor	a2,a2,t5
    24b4:	01f54533          	xor	a0,a0,t6
    24b8:	01d74733          	xor	a4,a4,t4
    24bc:	01c6c6b3          	xor	a3,a3,t3
    24c0:	0086d413          	srli	s0,a3,0x8
    24c4:	01075393          	srli	t2,a4,0x10
    24c8:	0186529b          	srliw	t0,a2,0x18
    24cc:	00855f93          	srli	t6,a0,0x8
    24d0:	0106df13          	srli	t5,a3,0x10
    24d4:	01875e1b          	srliw	t3,a4,0x18
    24d8:	00865893          	srli	a7,a2,0x8
    24dc:	0ff77913          	andi	s2,a4,255
    24e0:	01055313          	srli	t1,a0,0x10
    24e4:	0ff57a93          	andi	s5,a0,255
    24e8:	0002829b          	addiw	t0,t0,0
    24ec:	0ff67493          	andi	s1,a2,255
    24f0:	0fffff93          	andi	t6,t6,255
    24f4:	000e0e1b          	addiw	t3,t3,0
    24f8:	0ff8f893          	andi	a7,a7,255
    24fc:	00875e93          	srli	t4,a4,0x8
    2500:	0ff47413          	andi	s0,s0,255
    2504:	0ff3f393          	andi	t2,t2,255
    2508:	0fff7f13          	andi	t5,t5,255
    250c:	30028c93          	addi	s9,t0,768
    2510:	100f8a13          	addi	s4,t6,256
    2514:	300e0993          	addi	s3,t3,768
    2518:	00391f93          	slli	t6,s2,0x3
    251c:	10088713          	addi	a4,a7,256
    2520:	0ff37293          	andi	t0,t1,255
    2524:	0186de1b          	srliw	t3,a3,0x18
    2528:	01065893          	srli	a7,a2,0x10
    252c:	0ff6f693          	andi	a3,a3,255
    2530:	003a9a93          	slli	s5,s5,0x3
    2534:	10040413          	addi	s0,s0,256
    2538:	20038393          	addi	t2,t2,512
    253c:	00349493          	slli	s1,s1,0x3
    2540:	200f0f13          	addi	t5,t5,512
    2544:	0ffefe93          	andi	t4,t4,255
    2548:	01578ab3          	add	s5,a5,s5
    254c:	009784b3          	add	s1,a5,s1
    2550:	01f78fb3          	add	t6,a5,t6
    2554:	00369913          	slli	s2,a3,0x3
    2558:	0185531b          	srliw	t1,a0,0x18
    255c:	00341413          	slli	s0,s0,0x3
    2560:	00339393          	slli	t2,t2,0x3
    2564:	003c9c93          	slli	s9,s9,0x3
    2568:	003a1a13          	slli	s4,s4,0x3
    256c:	003f1f13          	slli	t5,t5,0x3
    2570:	00399993          	slli	s3,s3,0x3
    2574:	00371713          	slli	a4,a4,0x3
    2578:	20028293          	addi	t0,t0,512
    257c:	000e0e1b          	addiw	t3,t3,0
    2580:	100e8e93          	addi	t4,t4,256
    2584:	0ff8f893          	andi	a7,a7,255
    2588:	000abc03          	ld	s8,0(s5)
    258c:	0004bb83          	ld	s7,0(s1)
    2590:	000fbb03          	ld	s6,0(t6)
    2594:	02083503          	ld	a0,32(a6)
    2598:	02883603          	ld	a2,40(a6)
    259c:	03083683          	ld	a3,48(a6)
    25a0:	00878433          	add	s0,a5,s0
    25a4:	007783b3          	add	t2,a5,t2
    25a8:	01978cb3          	add	s9,a5,s9
    25ac:	01e78f33          	add	t5,a5,t5
    25b0:	013789b3          	add	s3,a5,s3
    25b4:	00e78733          	add	a4,a5,a4
    25b8:	01478a33          	add	s4,a5,s4
    25bc:	01278933          	add	s2,a5,s2
    25c0:	00329293          	slli	t0,t0,0x3
    25c4:	300e0e13          	addi	t3,t3,768
    25c8:	003e9e93          	slli	t4,t4,0x3
    25cc:	20088893          	addi	a7,a7,512
    25d0:	0003031b          	addiw	t1,t1,0
    25d4:	00043a83          	ld	s5,0(s0)
    25d8:	0003b483          	ld	s1,0(t2)
    25dc:	000cbf83          	ld	t6,0(s9)
    25e0:	000f3403          	ld	s0,0(t5)
    25e4:	000a3a03          	ld	s4,0(s4)
    25e8:	0009bf03          	ld	t5,0(s3)
    25ec:	005782b3          	add	t0,a5,t0
    25f0:	00073983          	ld	s3,0(a4)
    25f4:	01d78eb3          	add	t4,a5,t4
    25f8:	03883703          	ld	a4,56(a6)
    25fc:	00093903          	ld	s2,0(s2)
    2600:	003e1e13          	slli	t3,t3,0x3
    2604:	00389893          	slli	a7,a7,0x3
    2608:	30030313          	addi	t1,t1,768
    260c:	0002b383          	ld	t2,0(t0)
    2610:	01c78e33          	add	t3,a5,t3
    2614:	000eb283          	ld	t0,0(t4)
    2618:	011788b3          	add	a7,a5,a7
    261c:	00331313          	slli	t1,t1,0x3
    2620:	000e3e83          	ld	t4,0(t3)
    2624:	01854533          	xor	a0,a0,s8
    2628:	0008be03          	ld	t3,0(a7)
    262c:	01764633          	xor	a2,a2,s7
    2630:	006788b3          	add	a7,a5,t1
    2634:	0166c6b3          	xor	a3,a3,s6
    2638:	0008b883          	ld	a7,0(a7)
    263c:	01554533          	xor	a0,a0,s5
    2640:	01464633          	xor	a2,a2,s4
    2644:	0136c6b3          	xor	a3,a3,s3
    2648:	01274733          	xor	a4,a4,s2
    264c:	00954533          	xor	a0,a0,s1
    2650:	00864633          	xor	a2,a2,s0
    2654:	0076c6b3          	xor	a3,a3,t2
    2658:	00574733          	xor	a4,a4,t0
    265c:	01e64633          	xor	a2,a2,t5
    2660:	01f54533          	xor	a0,a0,t6
    2664:	01d6c6b3          	xor	a3,a3,t4
    2668:	01c74733          	xor	a4,a4,t3
    266c:	01174733          	xor	a4,a4,a7
    2670:	00855313          	srli	t1,a0,0x8
    2674:	00865893          	srli	a7,a2,0x8
    2678:	0086d493          	srli	s1,a3,0x8
    267c:	0ff77293          	andi	t0,a4,255
    2680:	00875413          	srli	s0,a4,0x8
    2684:	0ff67e13          	andi	t3,a2,255
    2688:	0ff37313          	andi	t1,t1,255
    268c:	01075393          	srli	t2,a4,0x10
    2690:	0ff6fa93          	andi	s5,a3,255
    2694:	0ff8f893          	andi	a7,a7,255
    2698:	01055c13          	srli	s8,a0,0x10
    269c:	01065f93          	srli	t6,a2,0x10
    26a0:	0ff4f493          	andi	s1,s1,255
    26a4:	0ff57a13          	andi	s4,a0,255
    26a8:	0106df13          	srli	t5,a3,0x10
    26ac:	003e1e13          	slli	t3,t3,0x3
    26b0:	10030993          	addi	s3,t1,256
    26b4:	0186de9b          	srliw	t4,a3,0x18
    26b8:	10088913          	addi	s2,a7,256
    26bc:	0187571b          	srliw	a4,a4,0x18
    26c0:	00329693          	slli	a3,t0,0x3
    26c4:	0185551b          	srliw	a0,a0,0x18
    26c8:	0ff47413          	andi	s0,s0,255
    26cc:	0ff3f393          	andi	t2,t2,255
    26d0:	003a9a93          	slli	s5,s5,0x3
    26d4:	0ffc7c13          	andi	s8,s8,255
    26d8:	10048493          	addi	s1,s1,256
    26dc:	0fffff93          	andi	t6,t6,255
    26e0:	00d782b3          	add	t0,a5,a3
    26e4:	01578ab3          	add	s5,a5,s5
    26e8:	0186589b          	srliw	a7,a2,0x18
    26ec:	200c0c13          	addi	s8,s8,512
    26f0:	01c78633          	add	a2,a5,t3
    26f4:	0005031b          	addiw	t1,a0,0
    26f8:	00070e1b          	addiw	t3,a4,0
    26fc:	003a1a13          	slli	s4,s4,0x3
    2700:	10040413          	addi	s0,s0,256
    2704:	0fff7f13          	andi	t5,t5,255
    2708:	00399993          	slli	s3,s3,0x3
    270c:	20038393          	addi	t2,t2,512
    2710:	000e8e9b          	addiw	t4,t4,0
    2714:	00391913          	slli	s2,s2,0x3
    2718:	00349493          	slli	s1,s1,0x3
    271c:	200f8f93          	addi	t6,t6,512
    2720:	00063b83          	ld	s7,0(a2)
    2724:	000abb03          	ld	s6,0(s5)
    2728:	04883503          	ld	a0,72(a6)
    272c:	0002ba83          	ld	s5,0(t0)
    2730:	05083603          	ld	a2,80(a6)
    2734:	05883683          	ld	a3,88(a6)
    2738:	01478a33          	add	s4,a5,s4
    273c:	013789b3          	add	s3,a5,s3
    2740:	01278933          	add	s2,a5,s2
    2744:	003c1293          	slli	t0,s8,0x3
    2748:	009784b3          	add	s1,a5,s1
    274c:	00341413          	slli	s0,s0,0x3
    2750:	200f0f13          	addi	t5,t5,512
    2754:	0008889b          	addiw	a7,a7,0
    2758:	00339393          	slli	t2,t2,0x3
    275c:	300e8e93          	addi	t4,t4,768
    2760:	300e0e13          	addi	t3,t3,768
    2764:	003f9f93          	slli	t6,t6,0x3
    2768:	30030313          	addi	t1,t1,768
    276c:	04083703          	ld	a4,64(a6)
    2770:	000a3a03          	ld	s4,0(s4)
    2774:	0009b983          	ld	s3,0(s3)
    2778:	00093903          	ld	s2,0(s2)
    277c:	0004b483          	ld	s1,0(s1)
    2780:	00878433          	add	s0,a5,s0
    2784:	007783b3          	add	t2,a5,t2
    2788:	005782b3          	add	t0,a5,t0
    278c:	01f78fb3          	add	t6,a5,t6
    2790:	003f1f13          	slli	t5,t5,0x3
    2794:	30088893          	addi	a7,a7,768
    2798:	003e9e93          	slli	t4,t4,0x3
    279c:	003e1e13          	slli	t3,t3,0x3
    27a0:	00331313          	slli	t1,t1,0x3
    27a4:	00043403          	ld	s0,0(s0)
    27a8:	0003b383          	ld	t2,0(t2)
    27ac:	0002b283          	ld	t0,0(t0)
    27b0:	000fbf83          	ld	t6,0(t6)
    27b4:	01e78f33          	add	t5,a5,t5
    27b8:	01d78eb3          	add	t4,a5,t4
    27bc:	01c78e33          	add	t3,a5,t3
    27c0:	00678333          	add	t1,a5,t1
    27c4:	00389893          	slli	a7,a7,0x3
    27c8:	000f3f03          	ld	t5,0(t5)
    27cc:	000ebe83          	ld	t4,0(t4)
    27d0:	000e3e03          	ld	t3,0(t3)
    27d4:	00033303          	ld	t1,0(t1)
    27d8:	011788b3          	add	a7,a5,a7
    27dc:	01754533          	xor	a0,a0,s7
    27e0:	01664633          	xor	a2,a2,s6
    27e4:	0156c6b3          	xor	a3,a3,s5
    27e8:	0008b883          	ld	a7,0(a7)
    27ec:	01474733          	xor	a4,a4,s4
    27f0:	01354533          	xor	a0,a0,s3
    27f4:	01264633          	xor	a2,a2,s2
    27f8:	0096c6b3          	xor	a3,a3,s1
    27fc:	00874733          	xor	a4,a4,s0
    2800:	00754533          	xor	a0,a0,t2
    2804:	00564633          	xor	a2,a2,t0
    2808:	01f6c6b3          	xor	a3,a3,t6
    280c:	01c64633          	xor	a2,a2,t3
    2810:	01d54533          	xor	a0,a0,t4
    2814:	0066c6b3          	xor	a3,a3,t1
    2818:	01e74733          	xor	a4,a4,t5
    281c:	01174733          	xor	a4,a4,a7
    2820:	0086de13          	srli	t3,a3,0x8
    2824:	01065313          	srli	t1,a2,0x10
    2828:	0185589b          	srliw	a7,a0,0x18
    282c:	00875f13          	srli	t5,a4,0x8
    2830:	00855493          	srli	s1,a0,0x8
    2834:	00865293          	srli	t0,a2,0x8
    2838:	0ffe7e13          	andi	t3,t3,255
    283c:	0ff37313          	andi	t1,t1,255
    2840:	0008889b          	addiw	a7,a7,0
    2844:	0ff77b93          	andi	s7,a4,255
    2848:	100e0e13          	addi	t3,t3,256
    284c:	20030313          	addi	t1,t1,512
    2850:	0ff57b13          	andi	s6,a0,255
    2854:	0fff7f13          	andi	t5,t5,255
    2858:	0106dc13          	srli	s8,a3,0x10
    285c:	0ff67a93          	andi	s5,a2,255
    2860:	01075f93          	srli	t6,a4,0x10
    2864:	0ff6fc93          	andi	s9,a3,255
    2868:	01055513          	srli	a0,a0,0x10
    286c:	30088893          	addi	a7,a7,768
    2870:	0ff4f493          	andi	s1,s1,255
    2874:	0ff2f293          	andi	t0,t0,255
    2878:	003e1413          	slli	s0,t3,0x3
    287c:	00331393          	slli	t2,t1,0x3
    2880:	00389893          	slli	a7,a7,0x3
    2884:	100f0913          	addi	s2,t5,256
    2888:	01865e1b          	srliw	t3,a2,0x18
    288c:	0186d69b          	srliw	a3,a3,0x18
    2890:	10028293          	addi	t0,t0,256
    2894:	0ff57e93          	andi	t4,a0,255
    2898:	0187571b          	srliw	a4,a4,0x18
    289c:	003b9b93          	slli	s7,s7,0x3
    28a0:	003b1b13          	slli	s6,s6,0x3
    28a4:	0ffc7c13          	andi	s8,s8,255
    28a8:	003a9a93          	slli	s5,s5,0x3
    28ac:	10048493          	addi	s1,s1,256
    28b0:	0fffff93          	andi	t6,t6,255
    28b4:	003c9c93          	slli	s9,s9,0x3
    28b8:	01178a33          	add	s4,a5,a7
    28bc:	008789b3          	add	s3,a5,s0
    28c0:	01978cb3          	add	s9,a5,s9
    28c4:	0007041b          	addiw	s0,a4,0
    28c8:	01778bb3          	add	s7,a5,s7
    28cc:	007783b3          	add	t2,a5,t2
    28d0:	01678b33          	add	s6,a5,s6
    28d4:	01578ab3          	add	s5,a5,s5
    28d8:	0006831b          	addiw	t1,a3,0
    28dc:	00329513          	slli	a0,t0,0x3
    28e0:	00391913          	slli	s2,s2,0x3
    28e4:	200c0c13          	addi	s8,s8,512
    28e8:	000e0e1b          	addiw	t3,t3,0
    28ec:	00349493          	slli	s1,s1,0x3
    28f0:	200f8f93          	addi	t6,t6,512
    28f4:	200e8e93          	addi	t4,t4,512
    28f8:	00a782b3          	add	t0,a5,a0
    28fc:	06083883          	ld	a7,96(a6)
    2900:	000bbb83          	ld	s7,0(s7)
    2904:	0009b983          	ld	s3,0(s3)
    2908:	0003b383          	ld	t2,0(t2)
    290c:	01278933          	add	s2,a5,s2
    2910:	000a3f03          	ld	t5,0(s4)
    2914:	003c1c13          	slli	s8,s8,0x3
    2918:	000cba03          	ld	s4,0(s9)
    291c:	06883603          	ld	a2,104(a6)
    2920:	000b3b03          	ld	s6,0(s6)
    2924:	07083683          	ld	a3,112(a6)
    2928:	000aba83          	ld	s5,0(s5)
    292c:	07883703          	ld	a4,120(a6)
    2930:	009784b3          	add	s1,a5,s1
    2934:	30040513          	addi	a0,s0,768
    2938:	300e0e13          	addi	t3,t3,768
    293c:	003f9f93          	slli	t6,t6,0x3
    2940:	30030313          	addi	t1,t1,768
    2944:	003e9e93          	slli	t4,t4,0x3
    2948:	0002b403          	ld	s0,0(t0)
    294c:	00093903          	ld	s2,0(s2)
    2950:	0004b483          	ld	s1,0(s1)
    2954:	018782b3          	add	t0,a5,s8
    2958:	01f78fb3          	add	t6,a5,t6
    295c:	01d78eb3          	add	t4,a5,t4
    2960:	003e1e13          	slli	t3,t3,0x3
    2964:	00331313          	slli	t1,t1,0x3
    2968:	00351513          	slli	a0,a0,0x3
    296c:	0002b283          	ld	t0,0(t0)
    2970:	000fbf83          	ld	t6,0(t6)
    2974:	000ebe83          	ld	t4,0(t4)
    2978:	01c78e33          	add	t3,a5,t3
    297c:	00678333          	add	t1,a5,t1
    2980:	00a78533          	add	a0,a5,a0
    2984:	000e3e03          	ld	t3,0(t3)
    2988:	00033303          	ld	t1,0(t1)
    298c:	00053503          	ld	a0,0(a0)
    2990:	0178c8b3          	xor	a7,a7,s7
    2994:	01664633          	xor	a2,a2,s6
    2998:	0156c6b3          	xor	a3,a3,s5
    299c:	01474733          	xor	a4,a4,s4
    29a0:	0138c8b3          	xor	a7,a7,s3
    29a4:	01264633          	xor	a2,a2,s2
    29a8:	0096c6b3          	xor	a3,a3,s1
    29ac:	00874733          	xor	a4,a4,s0
    29b0:	0078c8b3          	xor	a7,a7,t2
    29b4:	00564633          	xor	a2,a2,t0
    29b8:	01f6c6b3          	xor	a3,a3,t6
    29bc:	01d74733          	xor	a4,a4,t4
    29c0:	01e8c8b3          	xor	a7,a7,t5
    29c4:	01c64633          	xor	a2,a2,t3
    29c8:	0066c6b3          	xor	a3,a3,t1
    29cc:	00a74733          	xor	a4,a4,a0
    29d0:	00875393          	srli	t2,a4,0x8
    29d4:	0106df13          	srli	t5,a3,0x10
    29d8:	0186541b          	srliw	s0,a2,0x18
    29dc:	0088d293          	srli	t0,a7,0x8
    29e0:	01075e93          	srli	t4,a4,0x10
    29e4:	0186d51b          	srliw	a0,a3,0x18
    29e8:	00865493          	srli	s1,a2,0x8
    29ec:	0108df93          	srli	t6,a7,0x10
    29f0:	01875c1b          	srliw	s8,a4,0x18
    29f4:	0086da13          	srli	s4,a3,0x8
    29f8:	0ff3f393          	andi	t2,t2,255
    29fc:	0fff7f13          	andi	t5,t5,255
    2a00:	0004041b          	addiw	s0,s0,0
    2a04:	0ff2f293          	andi	t0,t0,255
    2a08:	0ffefe93          	andi	t4,t4,255
    2a0c:	0005051b          	addiw	a0,a0,0
    2a10:	0ff4f493          	andi	s1,s1,255
    2a14:	0fffff93          	andi	t6,t6,255
    2a18:	000c0c1b          	addiw	s8,s8,0
    2a1c:	0ff8f993          	andi	s3,a7,255
    2a20:	0ff67913          	andi	s2,a2,255
    2a24:	0ff6f693          	andi	a3,a3,255
    2a28:	01065613          	srli	a2,a2,0x10
    2a2c:	10038393          	addi	t2,t2,256
    2a30:	200f0f13          	addi	t5,t5,512
    2a34:	30040413          	addi	s0,s0,768
    2a38:	10028293          	addi	t0,t0,256
    2a3c:	200e8e93          	addi	t4,t4,512
    2a40:	30050513          	addi	a0,a0,768
    2a44:	10048493          	addi	s1,s1,256
    2a48:	200f8f93          	addi	t6,t6,512
    2a4c:	300c0c13          	addi	s8,s8,768
    2a50:	0ff77713          	andi	a4,a4,255
    2a54:	0ffa7a13          	andi	s4,s4,255
    2a58:	00341413          	slli	s0,s0,0x3
    2a5c:	00351513          	slli	a0,a0,0x3
    2a60:	00369e13          	slli	t3,a3,0x3
    2a64:	00371713          	slli	a4,a4,0x3
    2a68:	0ff67313          	andi	t1,a2,255
    2a6c:	00399993          	slli	s3,s3,0x3
    2a70:	00339393          	slli	t2,t2,0x3
    2a74:	003f1f13          	slli	t5,t5,0x3
    2a78:	00391913          	slli	s2,s2,0x3
    2a7c:	00329293          	slli	t0,t0,0x3
    2a80:	003e9e93          	slli	t4,t4,0x3
    2a84:	00349493          	slli	s1,s1,0x3
    2a88:	003f9f93          	slli	t6,t6,0x3
    2a8c:	003c1c13          	slli	s8,s8,0x3
    2a90:	100a0a13          	addi	s4,s4,256
    2a94:	0188d89b          	srliw	a7,a7,0x18
    2a98:	00878633          	add	a2,a5,s0
    2a9c:	00a786b3          	add	a3,a5,a0
    2aa0:	00e78433          	add	s0,a5,a4
    2aa4:	013789b3          	add	s3,a5,s3
    2aa8:	007783b3          	add	t2,a5,t2
    2aac:	01e78f33          	add	t5,a5,t5
    2ab0:	01278933          	add	s2,a5,s2
    2ab4:	005782b3          	add	t0,a5,t0
    2ab8:	01d78eb3          	add	t4,a5,t4
    2abc:	01c78e33          	add	t3,a5,t3
    2ac0:	01878c33          	add	s8,a5,s8
    2ac4:	009784b3          	add	s1,a5,s1
    2ac8:	01f78fb3          	add	t6,a5,t6
    2acc:	003a1a13          	slli	s4,s4,0x3
    2ad0:	20030313          	addi	t1,t1,512
    2ad4:	0008889b          	addiw	a7,a7,0
    2ad8:	0009bb83          	ld	s7,0(s3)
    2adc:	00093b03          	ld	s6,0(s2)
    2ae0:	0003b983          	ld	s3,0(t2)
    2ae4:	0002b903          	ld	s2,0(t0)
    2ae8:	000f3383          	ld	t2,0(t5)
    2aec:	000eb283          	ld	t0,0(t4)
    2af0:	00063f03          	ld	t5,0(a2)
    2af4:	0006be83          	ld	t4,0(a3)
    2af8:	000e3a83          	ld	s5,0(t3)
    2afc:	08083503          	ld	a0,128(a6)
    2b00:	000c3e03          	ld	t3,0(s8)
    2b04:	08883603          	ld	a2,136(a6)
    2b08:	01478c33          	add	s8,a5,s4
    2b0c:	09083683          	ld	a3,144(a6)
    2b10:	0004b483          	ld	s1,0(s1)
    2b14:	000fbf83          	ld	t6,0(t6)
    2b18:	09883703          	ld	a4,152(a6)
    2b1c:	00331313          	slli	t1,t1,0x3
    2b20:	00043a03          	ld	s4,0(s0)
    2b24:	30088893          	addi	a7,a7,768
    2b28:	000c3403          	ld	s0,0(s8)
    2b2c:	00678333          	add	t1,a5,t1
    2b30:	00389893          	slli	a7,a7,0x3
    2b34:	00033303          	ld	t1,0(t1)
    2b38:	011788b3          	add	a7,a5,a7
    2b3c:	0008b883          	ld	a7,0(a7)
    2b40:	01754533          	xor	a0,a0,s7
    2b44:	01664633          	xor	a2,a2,s6
    2b48:	0156c6b3          	xor	a3,a3,s5
    2b4c:	01474733          	xor	a4,a4,s4
    2b50:	01354533          	xor	a0,a0,s3
    2b54:	01264633          	xor	a2,a2,s2
    2b58:	0096c6b3          	xor	a3,a3,s1
    2b5c:	00874733          	xor	a4,a4,s0
    2b60:	00754533          	xor	a0,a0,t2
    2b64:	00564633          	xor	a2,a2,t0
    2b68:	01f6c6b3          	xor	a3,a3,t6
    2b6c:	00674733          	xor	a4,a4,t1
    2b70:	01e54533          	xor	a0,a0,t5
    2b74:	01d64633          	xor	a2,a2,t4
    2b78:	01c6c6b3          	xor	a3,a3,t3
    2b7c:	01174733          	xor	a4,a4,a7
    2b80:	00875293          	srli	t0,a4,0x8
    2b84:	00855313          	srli	t1,a0,0x8
    2b88:	00865493          	srli	s1,a2,0x8
    2b8c:	0086d413          	srli	s0,a3,0x8
    2b90:	01075893          	srli	a7,a4,0x10
    2b94:	0ff57b93          	andi	s7,a0,255
    2b98:	0ff2f293          	andi	t0,t0,255
    2b9c:	0106d393          	srli	t2,a3,0x10
    2ba0:	0ff67b13          	andi	s6,a2,255
    2ba4:	0ff37313          	andi	t1,t1,255
    2ba8:	0ff6fa93          	andi	s5,a3,255
    2bac:	01055f13          	srli	t5,a0,0x10
    2bb0:	0ff77a13          	andi	s4,a4,255
    2bb4:	01065f93          	srli	t6,a2,0x10
    2bb8:	0ff4f493          	andi	s1,s1,255
    2bbc:	0ff47413          	andi	s0,s0,255
    2bc0:	003b9b93          	slli	s7,s7,0x3
    2bc4:	10028993          	addi	s3,t0,256
    2bc8:	01865e9b          	srliw	t4,a2,0x18
    2bcc:	003b1b13          	slli	s6,s6,0x3
    2bd0:	10030913          	addi	s2,t1,256
    2bd4:	0ff8f293          	andi	t0,a7,255
    2bd8:	0186de1b          	srliw	t3,a3,0x18
    2bdc:	0187571b          	srliw	a4,a4,0x18
    2be0:	0185589b          	srliw	a7,a0,0x18
    2be4:	0ff3f393          	andi	t2,t2,255
    2be8:	003a9a93          	slli	s5,s5,0x3
    2bec:	10048493          	addi	s1,s1,256
    2bf0:	0fff7f13          	andi	t5,t5,255
    2bf4:	003a1a13          	slli	s4,s4,0x3
    2bf8:	10040413          	addi	s0,s0,256
    2bfc:	0fffff93          	andi	t6,t6,255
    2c00:	01778633          	add	a2,a5,s7
    2c04:	016786b3          	add	a3,a5,s6
    2c08:	01578ab3          	add	s5,a5,s5
    2c0c:	01478a33          	add	s4,a5,s4
    2c10:	0007031b          	addiw	t1,a4,0
    2c14:	00399993          	slli	s3,s3,0x3
    2c18:	20038393          	addi	t2,t2,512
    2c1c:	000e8e9b          	addiw	t4,t4,0
    2c20:	00391913          	slli	s2,s2,0x3
    2c24:	20028293          	addi	t0,t0,512
    2c28:	000e0e1b          	addiw	t3,t3,0
    2c2c:	00349493          	slli	s1,s1,0x3
    2c30:	200f0f13          	addi	t5,t5,512
    2c34:	00341413          	slli	s0,s0,0x3
    2c38:	200f8f93          	addi	t6,t6,512
    2c3c:	0008889b          	addiw	a7,a7,0
    2c40:	00063c03          	ld	s8,0(a2)
    2c44:	0006bb83          	ld	s7,0(a3)
    2c48:	000abb03          	ld	s6,0(s5)
    2c4c:	0a083503          	ld	a0,160(a6)
    2c50:	000a3a83          	ld	s5,0(s4)
    2c54:	0a883603          	ld	a2,168(a6)
    2c58:	0b083683          	ld	a3,176(a6)
    2c5c:	0b883703          	ld	a4,184(a6)
    2c60:	013789b3          	add	s3,a5,s3
    2c64:	01278933          	add	s2,a5,s2
    2c68:	009784b3          	add	s1,a5,s1
    2c6c:	00878433          	add	s0,a5,s0
    2c70:	00339393          	slli	t2,t2,0x3
    2c74:	300e8e93          	addi	t4,t4,768
    2c78:	00329293          	slli	t0,t0,0x3
    2c7c:	300e0e13          	addi	t3,t3,768
    2c80:	003f1f13          	slli	t5,t5,0x3
    2c84:	30030313          	addi	t1,t1,768
    2c88:	003f9f93          	slli	t6,t6,0x3
    2c8c:	30088893          	addi	a7,a7,768
    2c90:	0009ba03          	ld	s4,0(s3)
    2c94:	007783b3          	add	t2,a5,t2
    2c98:	00093983          	ld	s3,0(s2)
    2c9c:	005782b3          	add	t0,a5,t0
    2ca0:	0004b903          	ld	s2,0(s1)
    2ca4:	01e78f33          	add	t5,a5,t5
    2ca8:	00043483          	ld	s1,0(s0)
    2cac:	01f78fb3          	add	t6,a5,t6
    2cb0:	003e9e93          	slli	t4,t4,0x3
    2cb4:	003e1e13          	slli	t3,t3,0x3
    2cb8:	00331313          	slli	t1,t1,0x3
    2cbc:	00389893          	slli	a7,a7,0x3
    2cc0:	0003b403          	ld	s0,0(t2)
    2cc4:	000fbf83          	ld	t6,0(t6)
    2cc8:	0002b383          	ld	t2,0(t0)
    2ccc:	01d78eb3          	add	t4,a5,t4
    2cd0:	000f3283          	ld	t0,0(t5)
    2cd4:	01c78e33          	add	t3,a5,t3
    2cd8:	00678333          	add	t1,a5,t1
    2cdc:	011788b3          	add	a7,a5,a7
    2ce0:	000ebf03          	ld	t5,0(t4)
    2ce4:	01854533          	xor	a0,a0,s8
    2ce8:	000e3e83          	ld	t4,0(t3)
    2cec:	01764633          	xor	a2,a2,s7
    2cf0:	00033e03          	ld	t3,0(t1)
    2cf4:	0166c6b3          	xor	a3,a3,s6
    2cf8:	0008b303          	ld	t1,0(a7)
    2cfc:	01574733          	xor	a4,a4,s5
    2d00:	01454533          	xor	a0,a0,s4
    2d04:	01364633          	xor	a2,a2,s3
    2d08:	0126c6b3          	xor	a3,a3,s2
    2d0c:	00974733          	xor	a4,a4,s1
    2d10:	00854533          	xor	a0,a0,s0
    2d14:	00764633          	xor	a2,a2,t2
    2d18:	0056c6b3          	xor	a3,a3,t0
    2d1c:	01f74733          	xor	a4,a4,t6
    2d20:	01e54533          	xor	a0,a0,t5
    2d24:	00674733          	xor	a4,a4,t1
    2d28:	01d64633          	xor	a2,a2,t4
    2d2c:	01c6c6b3          	xor	a3,a3,t3
    2d30:	00875e93          	srli	t4,a4,0x8
    2d34:	0106de13          	srli	t3,a3,0x10
    2d38:	0186531b          	srliw	t1,a2,0x18
    2d3c:	00855f93          	srli	t6,a0,0x8
    2d40:	01075f13          	srli	t5,a4,0x10
    2d44:	0fffff93          	andi	t6,t6,255
    2d48:	0fff7f13          	andi	t5,t5,255
    2d4c:	00865c13          	srli	s8,a2,0x8
    2d50:	0086d413          	srli	s0,a3,0x8
    2d54:	0ffefe93          	andi	t4,t4,255
    2d58:	0ffe7e13          	andi	t3,t3,255
    2d5c:	0003031b          	addiw	t1,t1,0
    2d60:	0ff57993          	andi	s3,a0,255
    2d64:	200e0e13          	addi	t3,t3,512
    2d68:	30030313          	addi	t1,t1,768
    2d6c:	0ff67b13          	andi	s6,a2,255
    2d70:	100f8913          	addi	s2,t6,256
    2d74:	200f0293          	addi	t0,t5,512
    2d78:	0ff6fa93          	andi	s5,a3,255
    2d7c:	01055f93          	srli	t6,a0,0x10
    2d80:	0ff77c93          	andi	s9,a4,255
    2d84:	100e8e93          	addi	t4,t4,256
    2d88:	0ffc7c13          	andi	s8,s8,255
    2d8c:	0ff47413          	andi	s0,s0,255
    2d90:	01065613          	srli	a2,a2,0x10
    2d94:	003e1393          	slli	t2,t3,0x3
    2d98:	00331a13          	slli	s4,t1,0x3
    2d9c:	0186de1b          	srliw	t3,a3,0x18
    2da0:	0187531b          	srliw	t1,a4,0x18
    2da4:	0ff67613          	andi	a2,a2,255
    2da8:	0185589b          	srliw	a7,a0,0x18
    2dac:	00399993          	slli	s3,s3,0x3
    2db0:	003e9e93          	slli	t4,t4,0x3
    2db4:	003b1b13          	slli	s6,s6,0x3
    2db8:	00391913          	slli	s2,s2,0x3
    2dbc:	00329293          	slli	t0,t0,0x3
    2dc0:	003a9a93          	slli	s5,s5,0x3
    2dc4:	100c0c13          	addi	s8,s8,256
    2dc8:	0fffff93          	andi	t6,t6,255
    2dcc:	003c9c93          	slli	s9,s9,0x3
    2dd0:	10040413          	addi	s0,s0,256
    2dd4:	013789b3          	add	s3,a5,s3
    2dd8:	01d78eb3          	add	t4,a5,t4
    2ddc:	01478a33          	add	s4,a5,s4
    2de0:	01978cb3          	add	s9,a5,s9
    2de4:	20060493          	addi	s1,a2,512
    2de8:	007783b3          	add	t2,a5,t2
    2dec:	01678b33          	add	s6,a5,s6
    2df0:	01278933          	add	s2,a5,s2
    2df4:	005782b3          	add	t0,a5,t0
    2df8:	01578ab3          	add	s5,a5,s5
    2dfc:	000e0e1b          	addiw	t3,t3,0
    2e00:	003c1c13          	slli	s8,s8,0x3
    2e04:	200f8f93          	addi	t6,t6,512
    2e08:	0003031b          	addiw	t1,t1,0
    2e0c:	00341413          	slli	s0,s0,0x3
    2e10:	0008889b          	addiw	a7,a7,0
    2e14:	0009bb83          	ld	s7,0(s3)
    2e18:	0c083503          	ld	a0,192(a6)
    2e1c:	000eb983          	ld	s3,0(t4)
    2e20:	0003b383          	ld	t2,0(t2)
    2e24:	000a3e83          	ld	t4,0(s4)
    2e28:	0c883603          	ld	a2,200(a6)
    2e2c:	000b3b03          	ld	s6,0(s6)
    2e30:	00093903          	ld	s2,0(s2)
    2e34:	01878c33          	add	s8,a5,s8
    2e38:	0002b283          	ld	t0,0(t0)
    2e3c:	00878433          	add	s0,a5,s0
    2e40:	000cba03          	ld	s4,0(s9)
    2e44:	0d083683          	ld	a3,208(a6)
    2e48:	000aba83          	ld	s5,0(s5)
    2e4c:	0d883703          	ld	a4,216(a6)
    2e50:	00349f13          	slli	t5,s1,0x3
    2e54:	300e0e13          	addi	t3,t3,768
    2e58:	003f9f93          	slli	t6,t6,0x3
    2e5c:	30030313          	addi	t1,t1,768
    2e60:	30088893          	addi	a7,a7,768
    2e64:	000c3483          	ld	s1,0(s8)
    2e68:	00043403          	ld	s0,0(s0)
    2e6c:	01f78fb3          	add	t6,a5,t6
    2e70:	01e78f33          	add	t5,a5,t5
    2e74:	003e1e13          	slli	t3,t3,0x3
    2e78:	00331313          	slli	t1,t1,0x3
    2e7c:	00389893          	slli	a7,a7,0x3
    2e80:	000fbf83          	ld	t6,0(t6)
    2e84:	000f3f03          	ld	t5,0(t5)
    2e88:	01c78e33          	add	t3,a5,t3
    2e8c:	00678333          	add	t1,a5,t1
    2e90:	011788b3          	add	a7,a5,a7
    2e94:	000e3e03          	ld	t3,0(t3)
    2e98:	00033303          	ld	t1,0(t1)
    2e9c:	0008b883          	ld	a7,0(a7)
    2ea0:	01754533          	xor	a0,a0,s7
    2ea4:	01664633          	xor	a2,a2,s6
    2ea8:	0156c6b3          	xor	a3,a3,s5
    2eac:	01474733          	xor	a4,a4,s4
    2eb0:	01354533          	xor	a0,a0,s3
    2eb4:	01264633          	xor	a2,a2,s2
    2eb8:	0096c6b3          	xor	a3,a3,s1
    2ebc:	00874733          	xor	a4,a4,s0
    2ec0:	00754533          	xor	a0,a0,t2
    2ec4:	00564633          	xor	a2,a2,t0
    2ec8:	01f6c6b3          	xor	a3,a3,t6
    2ecc:	01e74733          	xor	a4,a4,t5
    2ed0:	01c64633          	xor	a2,a2,t3
    2ed4:	0066c6b3          	xor	a3,a3,t1
    2ed8:	01174733          	xor	a4,a4,a7
    2edc:	01d54533          	xor	a0,a0,t4
    2ee0:	00875313          	srli	t1,a4,0x8
    2ee4:	00855893          	srli	a7,a0,0x8
    2ee8:	00865493          	srli	s1,a2,0x8
    2eec:	0086d413          	srli	s0,a3,0x8
    2ef0:	0ff57b93          	andi	s7,a0,255
    2ef4:	0106d393          	srli	t2,a3,0x10
    2ef8:	0ff67b13          	andi	s6,a2,255
    2efc:	0ff8f893          	andi	a7,a7,255
    2f00:	01075293          	srli	t0,a4,0x10
    2f04:	0ff6fa93          	andi	s5,a3,255
    2f08:	01055e93          	srli	t4,a0,0x10
    2f0c:	0ff77a13          	andi	s4,a4,255
    2f10:	01065f13          	srli	t5,a2,0x10
    2f14:	0ff37313          	andi	t1,t1,255
    2f18:	0ff4f493          	andi	s1,s1,255
    2f1c:	0ff47413          	andi	s0,s0,255
    2f20:	10030313          	addi	t1,t1,256
    2f24:	0186561b          	srliw	a2,a2,0x18
    2f28:	10088913          	addi	s2,a7,256
    2f2c:	0186d69b          	srliw	a3,a3,0x18
    2f30:	0187571b          	srliw	a4,a4,0x18
    2f34:	0185551b          	srliw	a0,a0,0x18
    2f38:	003b9b93          	slli	s7,s7,0x3
    2f3c:	0ff3f393          	andi	t2,t2,255
    2f40:	003b1b13          	slli	s6,s6,0x3
    2f44:	0ff2f293          	andi	t0,t0,255
    2f48:	003a9a93          	slli	s5,s5,0x3
    2f4c:	10048493          	addi	s1,s1,256
    2f50:	0ffefe93          	andi	t4,t4,255
    2f54:	003a1a13          	slli	s4,s4,0x3
    2f58:	10040413          	addi	s0,s0,256
    2f5c:	0fff7f13          	andi	t5,t5,255
    2f60:	01778bb3          	add	s7,a5,s7
    2f64:	00331993          	slli	s3,t1,0x3
    2f68:	00060e1b          	addiw	t3,a2,0
    2f6c:	01678b33          	add	s6,a5,s6
    2f70:	0006831b          	addiw	t1,a3,0
    2f74:	01578ab3          	add	s5,a5,s5
    2f78:	00070f9b          	addiw	t6,a4,0
    2f7c:	01478a33          	add	s4,a5,s4
    2f80:	0005089b          	addiw	a7,a0,0
    2f84:	20038393          	addi	t2,t2,512
    2f88:	00391913          	slli	s2,s2,0x3
    2f8c:	20028293          	addi	t0,t0,512
    2f90:	00349493          	slli	s1,s1,0x3
    2f94:	200e8e93          	addi	t4,t4,512
    2f98:	00341413          	slli	s0,s0,0x3
    2f9c:	200f0f13          	addi	t5,t5,512
    2fa0:	0e083503          	ld	a0,224(a6)
    2fa4:	000bbb83          	ld	s7,0(s7)
    2fa8:	0e883603          	ld	a2,232(a6)
    2fac:	000b3b03          	ld	s6,0(s6)
    2fb0:	0f083683          	ld	a3,240(a6)
    2fb4:	000aba83          	ld	s5,0(s5)
    2fb8:	0f883703          	ld	a4,248(a6)
    2fbc:	000a3a03          	ld	s4,0(s4)
    2fc0:	013789b3          	add	s3,a5,s3
    2fc4:	01278933          	add	s2,a5,s2
    2fc8:	009784b3          	add	s1,a5,s1
    2fcc:	300f8f93          	addi	t6,t6,768
    2fd0:	00878433          	add	s0,a5,s0
    2fd4:	00339393          	slli	t2,t2,0x3
    2fd8:	300e0e13          	addi	t3,t3,768
    2fdc:	00329293          	slli	t0,t0,0x3
    2fe0:	30030313          	addi	t1,t1,768
    2fe4:	003e9e93          	slli	t4,t4,0x3
    2fe8:	003f1f13          	slli	t5,t5,0x3
    2fec:	30088893          	addi	a7,a7,768
    2ff0:	0009b983          	ld	s3,0(s3)
    2ff4:	00093903          	ld	s2,0(s2)
    2ff8:	0004b483          	ld	s1,0(s1)
    2ffc:	00043403          	ld	s0,0(s0)
    3000:	01d78eb3          	add	t4,a5,t4
    3004:	003f9c13          	slli	s8,t6,0x3
    3008:	007783b3          	add	t2,a5,t2
    300c:	003e1e13          	slli	t3,t3,0x3
    3010:	005782b3          	add	t0,a5,t0
    3014:	00331313          	slli	t1,t1,0x3
    3018:	01e78f33          	add	t5,a5,t5
    301c:	00389893          	slli	a7,a7,0x3
    3020:	000ebf83          	ld	t6,0(t4)
    3024:	0003b383          	ld	t2,0(t2)
    3028:	0002b283          	ld	t0,0(t0)
    302c:	000f3f03          	ld	t5,0(t5)
    3030:	01c78eb3          	add	t4,a5,t3
    3034:	011788b3          	add	a7,a5,a7
    3038:	00678e33          	add	t3,a5,t1
    303c:	01878333          	add	t1,a5,s8
    3040:	000ebe83          	ld	t4,0(t4)
    3044:	000e3e03          	ld	t3,0(t3)
    3048:	00033303          	ld	t1,0(t1)
    304c:	0008b883          	ld	a7,0(a7)
    3050:	01754533          	xor	a0,a0,s7
    3054:	01664633          	xor	a2,a2,s6
    3058:	0156c6b3          	xor	a3,a3,s5
    305c:	01474733          	xor	a4,a4,s4
    3060:	01354533          	xor	a0,a0,s3
    3064:	01264633          	xor	a2,a2,s2
    3068:	0096c6b3          	xor	a3,a3,s1
    306c:	00874733          	xor	a4,a4,s0
    3070:	00754533          	xor	a0,a0,t2
    3074:	00564633          	xor	a2,a2,t0
    3078:	01f6c6b3          	xor	a3,a3,t6
    307c:	01e74733          	xor	a4,a4,t5
    3080:	01d54533          	xor	a0,a0,t4
    3084:	0066c6b3          	xor	a3,a3,t1
    3088:	01174733          	xor	a4,a4,a7
    308c:	01c64633          	xor	a2,a2,t3
    3090:	00875313          	srli	t1,a4,0x8
    3094:	00855893          	srli	a7,a0,0x8
    3098:	00865413          	srli	s0,a2,0x8
    309c:	0086d393          	srli	t2,a3,0x8
    30a0:	0ff6ff13          	andi	t5,a3,255
    30a4:	0ff77a93          	andi	s5,a4,255
    30a8:	0ff57a13          	andi	s4,a0,255
    30ac:	0ff37313          	andi	t1,t1,255
    30b0:	0106d293          	srli	t0,a3,0x10
    30b4:	0ff67e13          	andi	t3,a2,255
    30b8:	0ff8f893          	andi	a7,a7,255
    30bc:	01075c93          	srli	s9,a4,0x10
    30c0:	01055993          	srli	s3,a0,0x10
    30c4:	01065e93          	srli	t4,a2,0x10
    30c8:	0ff47413          	andi	s0,s0,255
    30cc:	0ff3f393          	andi	t2,t2,255
    30d0:	10030913          	addi	s2,t1,256
    30d4:	0186561b          	srliw	a2,a2,0x18
    30d8:	10088493          	addi	s1,a7,256
    30dc:	0186d69b          	srliw	a3,a3,0x18
    30e0:	003f1313          	slli	t1,t5,0x3
    30e4:	0187571b          	srliw	a4,a4,0x18
    30e8:	003a9893          	slli	a7,s5,0x3
    30ec:	01855c1b          	srliw	s8,a0,0x18
    30f0:	003a1a13          	slli	s4,s4,0x3
    30f4:	0ff2f293          	andi	t0,t0,255
    30f8:	003e1e13          	slli	t3,t3,0x3
    30fc:	0ffcfc93          	andi	s9,s9,255
    3100:	10040413          	addi	s0,s0,256
    3104:	0ff9f993          	andi	s3,s3,255
    3108:	10038393          	addi	t2,t2,256
    310c:	0ffefe93          	andi	t4,t4,255
    3110:	01478a33          	add	s4,a5,s4
    3114:	00060f9b          	addiw	t6,a2,0
    3118:	01c78e33          	add	t3,a5,t3
    311c:	00068f1b          	addiw	t5,a3,0
    3120:	00678333          	add	t1,a5,t1
    3124:	011788b3          	add	a7,a5,a7
    3128:	20098993          	addi	s3,s3,512
    312c:	0007051b          	addiw	a0,a4,0
    3130:	00391913          	slli	s2,s2,0x3
    3134:	20028293          	addi	t0,t0,512
    3138:	00349493          	slli	s1,s1,0x3
    313c:	200c8c93          	addi	s9,s9,512
    3140:	00341413          	slli	s0,s0,0x3
    3144:	00339393          	slli	t2,t2,0x3
    3148:	200e8e93          	addi	t4,t4,512
    314c:	000c0c1b          	addiw	s8,s8,0
    3150:	10083603          	ld	a2,256(a6)
    3154:	01278933          	add	s2,a5,s2
    3158:	000a3b83          	ld	s7,0(s4)
    315c:	000e3b03          	ld	s6,0(t3)
    3160:	00033a83          	ld	s5,0(t1)
    3164:	11883e03          	ld	t3,280(a6)
    3168:	0008ba03          	ld	s4,0(a7)
    316c:	10883683          	ld	a3,264(a6)
    3170:	11083703          	ld	a4,272(a6)
    3174:	009784b3          	add	s1,a5,s1
    3178:	00878433          	add	s0,a5,s0
    317c:	007783b3          	add	t2,a5,t2
    3180:	300f8313          	addi	t1,t6,768
    3184:	300f0893          	addi	a7,t5,768
    3188:	00329293          	slli	t0,t0,0x3
    318c:	00399f13          	slli	t5,s3,0x3
    3190:	003c9f93          	slli	t6,s9,0x3
    3194:	30050513          	addi	a0,a0,768
    3198:	003e9e93          	slli	t4,t4,0x3
    319c:	300c0c13          	addi	s8,s8,768
    31a0:	00093983          	ld	s3,0(s2)
    31a4:	005782b3          	add	t0,a5,t0
    31a8:	0004b903          	ld	s2,0(s1)
    31ac:	01f78fb3          	add	t6,a5,t6
    31b0:	00043483          	ld	s1,0(s0)
    31b4:	01e78f33          	add	t5,a5,t5
    31b8:	0003b403          	ld	s0,0(t2)
    31bc:	01d78eb3          	add	t4,a5,t4
    31c0:	003c1c13          	slli	s8,s8,0x3
    31c4:	00331313          	slli	t1,t1,0x3
    31c8:	00389893          	slli	a7,a7,0x3
    31cc:	00351513          	slli	a0,a0,0x3
    31d0:	0002b383          	ld	t2,0(t0)
    31d4:	011788b3          	add	a7,a5,a7
    31d8:	000fb283          	ld	t0,0(t6)
    31dc:	00a78533          	add	a0,a5,a0
    31e0:	000f3f83          	ld	t6,0(t5)
    31e4:	00678333          	add	t1,a5,t1
    31e8:	000ebf03          	ld	t5,0(t4)
    31ec:	018787b3          	add	a5,a5,s8
    31f0:	0008be83          	ld	t4,0(a7)
    31f4:	00033303          	ld	t1,0(t1)
    31f8:	00053883          	ld	a7,0(a0)
    31fc:	01764633          	xor	a2,a2,s7
    3200:	0007b503          	ld	a0,0(a5)
    3204:	0166c6b3          	xor	a3,a3,s6
    3208:	014e47b3          	xor	a5,t3,s4
    320c:	01574733          	xor	a4,a4,s5
    3210:	01364633          	xor	a2,a2,s3
    3214:	0126c6b3          	xor	a3,a3,s2
    3218:	00974733          	xor	a4,a4,s1
    321c:	0087c7b3          	xor	a5,a5,s0
    3220:	00764633          	xor	a2,a2,t2
    3224:	0056c6b3          	xor	a3,a3,t0
    3228:	01f74733          	xor	a4,a4,t6
    322c:	01e7c7b3          	xor	a5,a5,t5
    3230:	00664333          	xor	t1,a2,t1
    3234:	01d6c6b3          	xor	a3,a3,t4
    3238:	01174733          	xor	a4,a4,a7
    323c:	00a7c7b3          	xor	a5,a5,a0
    3240:	0087df93          	srli	t6,a5,0x8
    3244:	01075e13          	srli	t3,a4,0x10
    3248:	0186da1b          	srliw	s4,a3,0x18
    324c:	00835413          	srli	s0,t1,0x8
    3250:	0107df13          	srli	t5,a5,0x10
    3254:	01875e9b          	srliw	t4,a4,0x18
    3258:	0086d393          	srli	t2,a3,0x8
    325c:	00875b93          	srli	s7,a4,0x8
    3260:	0fffff93          	andi	t6,t6,255
    3264:	0ffe7e13          	andi	t3,t3,255
    3268:	000a0a1b          	addiw	s4,s4,0
    326c:	0ff47413          	andi	s0,s0,255
    3270:	0fff7f13          	andi	t5,t5,255
    3274:	000e8e9b          	addiw	t4,t4,0
    3278:	0ff3f393          	andi	t2,t2,255
    327c:	0ff37493          	andi	s1,t1,255
    3280:	0ff6f993          	andi	s3,a3,255
    3284:	0ff77713          	andi	a4,a4,255
    3288:	01035293          	srli	t0,t1,0x10
    328c:	0ff7f913          	andi	s2,a5,255
    3290:	0106d693          	srli	a3,a3,0x10
    3294:	00000637          	lui	a2,0x0
    3298:	100f8f93          	addi	t6,t6,256
    329c:	200e0e13          	addi	t3,t3,512
    32a0:	300a0a13          	addi	s4,s4,768
    32a4:	10040413          	addi	s0,s0,256
    32a8:	200f0f13          	addi	t5,t5,512
    32ac:	300e8e93          	addi	t4,t4,768
    32b0:	10038393          	addi	t2,t2,256
    32b4:	0ffbfb93          	andi	s7,s7,255
    32b8:	00060b13          	addi	s6,a2,0 # 0 <set_key>
    32bc:	003a1a13          	slli	s4,s4,0x3
    32c0:	003e9e93          	slli	t4,t4,0x3
    32c4:	00371513          	slli	a0,a4,0x3
    32c8:	0187d79b          	srliw	a5,a5,0x18
    32cc:	0ff6f893          	andi	a7,a3,255
    32d0:	0183561b          	srliw	a2,t1,0x18
    32d4:	00349493          	slli	s1,s1,0x3
    32d8:	003f9f93          	slli	t6,t6,0x3
    32dc:	003e1e13          	slli	t3,t3,0x3
    32e0:	00399993          	slli	s3,s3,0x3
    32e4:	00341413          	slli	s0,s0,0x3
    32e8:	003f1f13          	slli	t5,t5,0x3
    32ec:	00339393          	slli	t2,t2,0x3
    32f0:	0ff2f293          	andi	t0,t0,255
    32f4:	00391913          	slli	s2,s2,0x3
    32f8:	100b8b93          	addi	s7,s7,256
    32fc:	016a06b3          	add	a3,s4,s6
    3300:	016484b3          	add	s1,s1,s6
    3304:	016f8fb3          	add	t6,t6,s6
    3308:	016e0e33          	add	t3,t3,s6
    330c:	016989b3          	add	s3,s3,s6
    3310:	016e8333          	add	t1,t4,s6
    3314:	01650533          	add	a0,a0,s6
    3318:	00078e9b          	addiw	t4,a5,0
    331c:	01640433          	add	s0,s0,s6
    3320:	016f0f33          	add	t5,t5,s6
    3324:	016383b3          	add	t2,t2,s6
    3328:	20028293          	addi	t0,t0,512
    332c:	01690933          	add	s2,s2,s6
    3330:	003b9b93          	slli	s7,s7,0x3
    3334:	20088893          	addi	a7,a7,512
    3338:	0006061b          	addiw	a2,a2,0
    333c:	12083703          	ld	a4,288(a6)
    3340:	0004ba83          	ld	s5,0(s1)
    3344:	0009ba03          	ld	s4,0(s3)
    3348:	000fb483          	ld	s1,0(t6)
    334c:	00033303          	ld	t1,0(t1)
    3350:	000e3f83          	ld	t6,0(t3)
    3354:	13083783          	ld	a5,304(a6)
    3358:	0006be03          	ld	t3,0(a3)
    335c:	00053983          	ld	s3,0(a0)
    3360:	12883683          	ld	a3,296(a6)
    3364:	00043403          	ld	s0,0(s0)
    3368:	000f3f03          	ld	t5,0(t5)
    336c:	00329293          	slli	t0,t0,0x3
    3370:	0003b383          	ld	t2,0(t2)
    3374:	300e8e93          	addi	t4,t4,768
    3378:	13883503          	ld	a0,312(a6)
    337c:	00093903          	ld	s2,0(s2)
    3380:	016b8bb3          	add	s7,s7,s6
    3384:	00389893          	slli	a7,a7,0x3
    3388:	30060613          	addi	a2,a2,768
    338c:	01628c33          	add	s8,t0,s6
    3390:	003e9813          	slli	a6,t4,0x3
    3394:	000bb283          	ld	t0,0(s7)
    3398:	016888b3          	add	a7,a7,s6
    339c:	00361613          	slli	a2,a2,0x3
    33a0:	000c3e83          	ld	t4,0(s8)
    33a4:	01680833          	add	a6,a6,s6
    33a8:	0008b883          	ld	a7,0(a7)
    33ac:	01660633          	add	a2,a2,s6
    33b0:	01254533          	xor	a0,a0,s2
    33b4:	01574733          	xor	a4,a4,s5
    33b8:	0146c6b3          	xor	a3,a3,s4
    33bc:	0137c7b3          	xor	a5,a5,s3
    33c0:	00083803          	ld	a6,0(a6)
    33c4:	00063903          	ld	s2,0(a2)
    33c8:	00974733          	xor	a4,a4,s1
    33cc:	0086c6b3          	xor	a3,a3,s0
    33d0:	0077c7b3          	xor	a5,a5,t2
    33d4:	00554533          	xor	a0,a0,t0
    33d8:	01f74733          	xor	a4,a4,t6
    33dc:	01e6c6b3          	xor	a3,a3,t5
    33e0:	01d7c7b3          	xor	a5,a5,t4
    33e4:	01154533          	xor	a0,a0,a7
    33e8:	0066c6b3          	xor	a3,a3,t1
    33ec:	01c74733          	xor	a4,a4,t3
    33f0:	0107c333          	xor	t1,a5,a6
    33f4:	01254533          	xor	a0,a0,s2
    33f8:	b59fe06f          	jal	zero,1f50 <.L49>

00000000000033fc <.L60>:
    33fc:	000007b7          	lui	a5,0x0
    3400:	00078793          	addi	a5,a5,0 # 0 <set_key>
    3404:	f0dfe06f          	jal	zero,2310 <.L52>

0000000000003408 <.L51>:
    3408:	00855413          	srli	s0,a0,0x8
    340c:	00875393          	srli	t2,a4,0x8
    3410:	0086d293          	srli	t0,a3,0x8
    3414:	00835f93          	srli	t6,t1,0x8
    3418:	0ff77f13          	andi	t5,a4,255
    341c:	01035d93          	srli	s11,t1,0x10
    3420:	0ff6fe93          	andi	t4,a3,255
    3424:	01055d13          	srli	s10,a0,0x10
    3428:	0ff37e13          	andi	t3,t1,255
    342c:	01075c93          	srli	s9,a4,0x10
    3430:	0ff57893          	andi	a7,a0,255
    3434:	0106dc13          	srli	s8,a3,0x10
    3438:	0ff47413          	andi	s0,s0,255
    343c:	0ff3f393          	andi	t2,t2,255
    3440:	0ff2f293          	andi	t0,t0,255
    3444:	0fffff93          	andi	t6,t6,255
    3448:	000007b7          	lui	a5,0x0
    344c:	00078793          	addi	a5,a5,0 # 0 <set_key>
    3450:	0186d69b          	srliw	a3,a3,0x18
    3454:	0185551b          	srliw	a0,a0,0x18
    3458:	0187571b          	srliw	a4,a4,0x18
    345c:	0183531b          	srliw	t1,t1,0x18
    3460:	003f1f13          	slli	t5,t5,0x3
    3464:	10040413          	addi	s0,s0,256
    3468:	0ffdfd93          	andi	s11,s11,255
    346c:	003e9e93          	slli	t4,t4,0x3
    3470:	10038393          	addi	t2,t2,256
    3474:	0ffd7d13          	andi	s10,s10,255
    3478:	003e1e13          	slli	t3,t3,0x3
    347c:	10028293          	addi	t0,t0,256
    3480:	0ffcfc93          	andi	s9,s9,255
    3484:	00389893          	slli	a7,a7,0x3
    3488:	100f8f93          	addi	t6,t6,256
    348c:	0ffc7c13          	andi	s8,s8,255
    3490:	0006899b          	addiw	s3,a3,0
    3494:	0005091b          	addiw	s2,a0,0
    3498:	0007049b          	addiw	s1,a4,0
    349c:	01e78f33          	add	t5,a5,t5
    34a0:	01d78eb3          	add	t4,a5,t4
    34a4:	01c78e33          	add	t3,a5,t3
    34a8:	011788b3          	add	a7,a5,a7
    34ac:	00341413          	slli	s0,s0,0x3
    34b0:	200d8d93          	addi	s11,s11,512
    34b4:	00339393          	slli	t2,t2,0x3
    34b8:	200d0d13          	addi	s10,s10,512
    34bc:	0003031b          	addiw	t1,t1,0
    34c0:	00329293          	slli	t0,t0,0x3
    34c4:	200c8c93          	addi	s9,s9,512
    34c8:	003f9f93          	slli	t6,t6,0x3
    34cc:	200c0c13          	addi	s8,s8,512
    34d0:	000f3b83          	ld	s7,0(t5)
    34d4:	000ebb03          	ld	s6,0(t4)
    34d8:	000e3a83          	ld	s5,0(t3)
    34dc:	0008ba03          	ld	s4,0(a7)
    34e0:	23063803          	ld	a6,560(a2)
    34e4:	23863503          	ld	a0,568(a2)
    34e8:	24063703          	ld	a4,576(a2)
    34ec:	24863683          	ld	a3,584(a2)
    34f0:	00878433          	add	s0,a5,s0
    34f4:	30098e93          	addi	t4,s3,768
    34f8:	007783b3          	add	t2,a5,t2
    34fc:	005782b3          	add	t0,a5,t0
    3500:	30090e13          	addi	t3,s2,768
    3504:	01f78fb3          	add	t6,a5,t6
    3508:	30048893          	addi	a7,s1,768
    350c:	003d9d93          	slli	s11,s11,0x3
    3510:	003d1d13          	slli	s10,s10,0x3
    3514:	30030313          	addi	t1,t1,768
    3518:	003c9c93          	slli	s9,s9,0x3
    351c:	003c1c13          	slli	s8,s8,0x3
    3520:	00043983          	ld	s3,0(s0)
    3524:	0003b903          	ld	s2,0(t2)
    3528:	0002b483          	ld	s1,0(t0)
    352c:	000fb403          	ld	s0,0(t6)
    3530:	003e1e13          	slli	t3,t3,0x3
    3534:	01878c33          	add	s8,a5,s8
    3538:	01b78db3          	add	s11,a5,s11
    353c:	003e9e93          	slli	t4,t4,0x3
    3540:	01a78d33          	add	s10,a5,s10
    3544:	00331313          	slli	t1,t1,0x3
    3548:	01978cb3          	add	s9,a5,s9
    354c:	00389893          	slli	a7,a7,0x3
    3550:	000c3f03          	ld	t5,0(s8)
    3554:	000db383          	ld	t2,0(s11)
    3558:	000d3283          	ld	t0,0(s10)
    355c:	000cbf83          	ld	t6,0(s9)
    3560:	01c78c33          	add	s8,a5,t3
    3564:	00678333          	add	t1,a5,t1
    3568:	01d78eb3          	add	t4,a5,t4
    356c:	011788b3          	add	a7,a5,a7
    3570:	00033e03          	ld	t3,0(t1)
    3574:	000ebe83          	ld	t4,0(t4)
    3578:	000c3303          	ld	t1,0(s8)
    357c:	0008b883          	ld	a7,0(a7)
    3580:	01784833          	xor	a6,a6,s7
    3584:	01654533          	xor	a0,a0,s6
    3588:	01574733          	xor	a4,a4,s5
    358c:	0146c6b3          	xor	a3,a3,s4
    3590:	01384833          	xor	a6,a6,s3
    3594:	01254533          	xor	a0,a0,s2
    3598:	00974733          	xor	a4,a4,s1
    359c:	0086c6b3          	xor	a3,a3,s0
    35a0:	00784833          	xor	a6,a6,t2
    35a4:	00554533          	xor	a0,a0,t0
    35a8:	01f74733          	xor	a4,a4,t6
    35ac:	01e6c6b3          	xor	a3,a3,t5
    35b0:	01d84833          	xor	a6,a6,t4
    35b4:	01c54533          	xor	a0,a0,t3
    35b8:	0116c6b3          	xor	a3,a3,a7
    35bc:	00674733          	xor	a4,a4,t1
    35c0:	0086da13          	srli	s4,a3,0x8
    35c4:	01075493          	srli	s1,a4,0x10
    35c8:	0185539b          	srliw	t2,a0,0x18
    35cc:	00885413          	srli	s0,a6,0x8
    35d0:	0106d293          	srli	t0,a3,0x10
    35d4:	0187531b          	srliw	t1,a4,0x18
    35d8:	00855913          	srli	s2,a0,0x8
    35dc:	00875f93          	srli	t6,a4,0x8
    35e0:	0ffa7a13          	andi	s4,s4,255
    35e4:	0ff4f493          	andi	s1,s1,255
    35e8:	0003839b          	addiw	t2,t2,0
    35ec:	0ff47413          	andi	s0,s0,255
    35f0:	0ff2f293          	andi	t0,t0,255
    35f4:	0003031b          	addiw	t1,t1,0
    35f8:	0ff97913          	andi	s2,s2,255
    35fc:	0ff87b13          	andi	s6,a6,255
    3600:	0ff57993          	andi	s3,a0,255
    3604:	01085f13          	srli	t5,a6,0x10
    3608:	0ff6fa93          	andi	s5,a3,255
    360c:	100a0a13          	addi	s4,s4,256
    3610:	20048493          	addi	s1,s1,512
    3614:	30038393          	addi	t2,t2,768
    3618:	10040413          	addi	s0,s0,256
    361c:	20028293          	addi	t0,t0,512
    3620:	30030313          	addi	t1,t1,768
    3624:	0ff77713          	andi	a4,a4,255
    3628:	10090913          	addi	s2,s2,256
    362c:	0fffff93          	andi	t6,t6,255
    3630:	01055513          	srli	a0,a0,0x10
    3634:	00371713          	slli	a4,a4,0x3
    3638:	0186d69b          	srliw	a3,a3,0x18
    363c:	0ff57513          	andi	a0,a0,255
    3640:	003b1b13          	slli	s6,s6,0x3
    3644:	003a1a13          	slli	s4,s4,0x3
    3648:	00349493          	slli	s1,s1,0x3
    364c:	00339393          	slli	t2,t2,0x3
    3650:	00399993          	slli	s3,s3,0x3
    3654:	00341413          	slli	s0,s0,0x3
    3658:	00329293          	slli	t0,t0,0x3
    365c:	00331313          	slli	t1,t1,0x3
    3660:	00391913          	slli	s2,s2,0x3
    3664:	0fff7f13          	andi	t5,t5,255
    3668:	003a9a93          	slli	s5,s5,0x3
    366c:	100f8f93          	addi	t6,t6,256
    3670:	0188581b          	srliw	a6,a6,0x18
    3674:	00e78eb3          	add	t4,a5,a4
    3678:	01678b33          	add	s6,a5,s6
    367c:	013789b3          	add	s3,a5,s3
    3680:	00878433          	add	s0,a5,s0
    3684:	005782b3          	add	t0,a5,t0
    3688:	00678333          	add	t1,a5,t1
    368c:	0006889b          	addiw	a7,a3,0
    3690:	20050e13          	addi	t3,a0,512
    3694:	01478a33          	add	s4,a5,s4
    3698:	009784b3          	add	s1,a5,s1
    369c:	007783b3          	add	t2,a5,t2
    36a0:	01278933          	add	s2,a5,s2
    36a4:	200f0f13          	addi	t5,t5,512
    36a8:	01578ab3          	add	s5,a5,s5
    36ac:	003f9f93          	slli	t6,t6,0x3
    36b0:	0008081b          	addiw	a6,a6,0
    36b4:	000b3c03          	ld	s8,0(s6)
    36b8:	0009bb83          	ld	s7,0(s3)
    36bc:	000ebb03          	ld	s6,0(t4)
    36c0:	00043983          	ld	s3,0(s0)
    36c4:	25063703          	ld	a4,592(a2)
    36c8:	0002b403          	ld	s0,0(t0)
    36cc:	000a3a03          	ld	s4,0(s4)
    36d0:	00033283          	ld	t0,0(t1)
    36d4:	0004b483          	ld	s1,0(s1)
    36d8:	0003b383          	ld	t2,0(t2)
    36dc:	25863683          	ld	a3,600(a2)
    36e0:	26063303          	ld	t1,608(a2)
    36e4:	003e1e13          	slli	t3,t3,0x3
    36e8:	00093903          	ld	s2,0(s2)
    36ec:	30080813          	addi	a6,a6,768
    36f0:	003f1f13          	slli	t5,t5,0x3
    36f4:	30088893          	addi	a7,a7,768
    36f8:	26863503          	ld	a0,616(a2)
    36fc:	000aba83          	ld	s5,0(s5)
    3700:	01f78fb3          	add	t6,a5,t6
    3704:	01c78eb3          	add	t4,a5,t3
    3708:	01e78f33          	add	t5,a5,t5
    370c:	00381e13          	slli	t3,a6,0x3
    3710:	00389893          	slli	a7,a7,0x3
    3714:	000fbf83          	ld	t6,0(t6)
    3718:	011788b3          	add	a7,a5,a7
    371c:	01c78e33          	add	t3,a5,t3
    3720:	000f3f03          	ld	t5,0(t5)
    3724:	000ebe83          	ld	t4,0(t4)
    3728:	0008b803          	ld	a6,0(a7)
    372c:	01874733          	xor	a4,a4,s8
    3730:	000e3883          	ld	a7,0(t3)
    3734:	0176c6b3          	xor	a3,a3,s7
    3738:	01634333          	xor	t1,t1,s6
    373c:	01554533          	xor	a0,a0,s5
    3740:	01474733          	xor	a4,a4,s4
    3744:	0136c6b3          	xor	a3,a3,s3
    3748:	01234333          	xor	t1,t1,s2
    374c:	01f54533          	xor	a0,a0,t6
    3750:	00974733          	xor	a4,a4,s1
    3754:	0086c6b3          	xor	a3,a3,s0
    3758:	01e34333          	xor	t1,t1,t5
    375c:	01d54533          	xor	a0,a0,t4
    3760:	01034333          	xor	t1,t1,a6
    3764:	27063e03          	ld	t3,624(a2)
    3768:	00774733          	xor	a4,a4,t2
    376c:	0056c6b3          	xor	a3,a3,t0
    3770:	01154533          	xor	a0,a0,a7
    3774:	27060813          	addi	a6,a2,624
    3778:	839fe06f          	jal	zero,1fb0 <.L53>
