
aes.o:     file format elf64-littleriscv


Disassembly of section .text:

0000000000000000 <set_key>:
       0:	fb010113          	addi	sp,sp,-80
       4:	04813423          	sd	s0,72(sp)
       8:	05010413          	addi	s0,sp,80
       c:	fca43423          	sd	a0,-56(s0)
      10:	fcb43023          	sd	a1,-64(s0)
      14:	00060793          	addi	a5,a2,0
      18:	fad43823          	sd	a3,-80(s0)
      1c:	faf42e23          	sw	a5,-68(s0)
      20:	fc043783          	ld	a5,-64(s0)
      24:	0077f793          	andi	a5,a5,7
      28:	02079e63          	bne	a5,zero,64 <.L2>
      2c:	fc043703          	ld	a4,-64(s0)
      30:	00f00793          	addi	a5,zero,15
      34:	02e7f863          	bgeu	a5,a4,64 <.L2>
      38:	fc043703          	ld	a4,-64(s0)
      3c:	02000793          	addi	a5,zero,32
      40:	02e7e263          	bltu	a5,a4,64 <.L2>
      44:	fbc42783          	lw	a5,-68(s0)
      48:	0017f793          	andi	a5,a5,1
      4c:	0007879b          	addiw	a5,a5,0
      50:	04079a63          	bne	a5,zero,a4 <.L3>
      54:	fbc42783          	lw	a5,-68(s0)
      58:	0027f793          	andi	a5,a5,2
      5c:	0007879b          	addiw	a5,a5,0
      60:	04079263          	bne	a5,zero,a4 <.L3>

0000000000000064 <.L2>:
      64:	fc043783          	ld	a5,-64(s0)
      68:	02078263          	beq	a5,zero,8c <.L4>
      6c:	fb043783          	ld	a5,-80(s0)
      70:	4107c783          	lbu	a5,1040(a5)
      74:	ffc7f793          	andi	a5,a5,-4
      78:	0ff7f713          	andi	a4,a5,255
      7c:	fb043783          	ld	a5,-80(s0)
      80:	40e78823          	sb	a4,1040(a5)
      84:	00000793          	addi	a5,zero,0
      88:	4cd0006f          	jal	zero,d54 <.L6>

000000000000008c <.L4>:
      8c:	fb043783          	ld	a5,-80(s0)
      90:	0007b783          	ld	a5,0(a5)
      94:	00279793          	slli	a5,a5,0x2
      98:	0107979b          	slliw	a5,a5,0x10
      9c:	4107d79b          	sraiw	a5,a5,0x10
      a0:	4b50006f          	jal	zero,d54 <.L6>

00000000000000a4 <.L3>:
      a4:	fb043783          	ld	a5,-80(s0)
      a8:	4107c783          	lbu	a5,1040(a5)
      ac:	0187979b          	slliw	a5,a5,0x18
      b0:	4187d79b          	sraiw	a5,a5,0x18
      b4:	ffc7f793          	andi	a5,a5,-4
      b8:	0187971b          	slliw	a4,a5,0x18
      bc:	4187571b          	sraiw	a4,a4,0x18
      c0:	fbc42783          	lw	a5,-68(s0)
      c4:	0187979b          	slliw	a5,a5,0x18
      c8:	4187d79b          	sraiw	a5,a5,0x18
      cc:	0037f793          	andi	a5,a5,3
      d0:	0187979b          	slliw	a5,a5,0x18
      d4:	4187d79b          	sraiw	a5,a5,0x18
      d8:	00f767b3          	or	a5,a4,a5
      dc:	0187979b          	slliw	a5,a5,0x18
      e0:	4187d79b          	sraiw	a5,a5,0x18
      e4:	0ff7f713          	andi	a4,a5,255
      e8:	fb043783          	ld	a5,-80(s0)
      ec:	40e78823          	sb	a4,1040(a5)
      f0:	fc043783          	ld	a5,-64(s0)
      f4:	0027d713          	srli	a4,a5,0x2
      f8:	fb043783          	ld	a5,-80(s0)
      fc:	00e7b023          	sd	a4,0(a5)
     100:	fb043783          	ld	a5,-80(s0)
     104:	0007b783          	ld	a5,0(a5)
     108:	00400713          	addi	a4,zero,4
     10c:	00e7f463          	bgeu	a5,a4,114 <.L7>
     110:	00400793          	addi	a5,zero,4

0000000000000114 <.L7>:
     114:	00678713          	addi	a4,a5,6
     118:	fb043783          	ld	a5,-80(s0)
     11c:	00e7b423          	sd	a4,8(a5)
     120:	fc843783          	ld	a5,-56(s0)
     124:	0007b703          	ld	a4,0(a5)
     128:	fb043783          	ld	a5,-80(s0)
     12c:	00e7b823          	sd	a4,16(a5)
     130:	fc843783          	ld	a5,-56(s0)
     134:	0047b703          	ld	a4,4(a5)
     138:	fb043783          	ld	a5,-80(s0)
     13c:	00e7bc23          	sd	a4,24(a5)
     140:	fc843783          	ld	a5,-56(s0)
     144:	0087b703          	ld	a4,8(a5)
     148:	fb043783          	ld	a5,-80(s0)
     14c:	02e7b023          	sd	a4,32(a5)
     150:	fc843783          	ld	a5,-56(s0)
     154:	00c7b703          	ld	a4,12(a5)
     158:	fb043783          	ld	a5,-80(s0)
     15c:	02e7b423          	sd	a4,40(a5)
     160:	fb043783          	ld	a5,-80(s0)
     164:	01078793          	addi	a5,a5,16
     168:	fef43423          	sd	a5,-24(s0)
     16c:	fb043783          	ld	a5,-80(s0)
     170:	0087b783          	ld	a5,8(a5)
     174:	00178793          	addi	a5,a5,1
     178:	00279713          	slli	a4,a5,0x2
     17c:	fb043783          	ld	a5,-80(s0)
     180:	0007b783          	ld	a5,0(a5)
     184:	40f707b3          	sub	a5,a4,a5
     188:	00379793          	slli	a5,a5,0x3
     18c:	fe843703          	ld	a4,-24(s0)
     190:	00f707b3          	add	a5,a4,a5
     194:	fef43023          	sd	a5,-32(s0)
     198:	fc043c23          	sd	zero,-40(s0)
     19c:	fb043783          	ld	a5,-80(s0)
     1a0:	0007b783          	ld	a5,0(a5)
     1a4:	00600713          	addi	a4,zero,6
     1a8:	1ae78863          	beq	a5,a4,358 <.L9>
     1ac:	00800713          	addi	a4,zero,8
     1b0:	3ae78663          	beq	a5,a4,55c <.L10>
     1b4:	00400713          	addi	a4,zero,4
     1b8:	6ce79863          	bne	a5,a4,888 <.L8>
     1bc:	0080006f          	jal	zero,1c4 <.L11>

00000000000001c0 <.L17>:
     1c0:	00000013          	addi	zero,zero,0

00000000000001c4 <.L11>:
     1c4:	fe843783          	ld	a5,-24(s0)
     1c8:	0007b703          	ld	a4,0(a5)
     1cc:	fe843783          	ld	a5,-24(s0)
     1d0:	01878793          	addi	a5,a5,24
     1d4:	0007b783          	ld	a5,0(a5)
     1d8:	0087d793          	srli	a5,a5,0x8
     1dc:	0ff7f793          	andi	a5,a5,255
     1e0:	0007869b          	addiw	a3,a5,0
     1e4:	000007b7          	lui	a5,0x0
     1e8:	00369693          	slli	a3,a3,0x3
     1ec:	00078793          	addi	a5,a5,0 # 0 <set_key>
     1f0:	00f687b3          	add	a5,a3,a5
     1f4:	0007b683          	ld	a3,0(a5)
     1f8:	fe843783          	ld	a5,-24(s0)
     1fc:	01878793          	addi	a5,a5,24
     200:	0007b783          	ld	a5,0(a5)
     204:	0107d793          	srli	a5,a5,0x10
     208:	0ff7f793          	andi	a5,a5,255
     20c:	0007861b          	addiw	a2,a5,0
     210:	000007b7          	lui	a5,0x0
     214:	10060613          	addi	a2,a2,256
     218:	00361613          	slli	a2,a2,0x3
     21c:	00078793          	addi	a5,a5,0 # 0 <set_key>
     220:	00f607b3          	add	a5,a2,a5
     224:	0007b783          	ld	a5,0(a5)
     228:	00f6c6b3          	xor	a3,a3,a5
     22c:	fe843783          	ld	a5,-24(s0)
     230:	01878793          	addi	a5,a5,24
     234:	0007b783          	ld	a5,0(a5)
     238:	0187d793          	srli	a5,a5,0x18
     23c:	0ff7f793          	andi	a5,a5,255
     240:	0007861b          	addiw	a2,a5,0
     244:	000007b7          	lui	a5,0x0
     248:	20060613          	addi	a2,a2,512
     24c:	00361613          	slli	a2,a2,0x3
     250:	00078793          	addi	a5,a5,0 # 0 <set_key>
     254:	00f607b3          	add	a5,a2,a5
     258:	0007b783          	ld	a5,0(a5)
     25c:	00f6c6b3          	xor	a3,a3,a5
     260:	fe843783          	ld	a5,-24(s0)
     264:	01878793          	addi	a5,a5,24
     268:	0007b783          	ld	a5,0(a5)
     26c:	0ff7f793          	andi	a5,a5,255
     270:	0007861b          	addiw	a2,a5,0
     274:	000007b7          	lui	a5,0x0
     278:	30060613          	addi	a2,a2,768
     27c:	00361613          	slli	a2,a2,0x3
     280:	00078793          	addi	a5,a5,0 # 0 <set_key>
     284:	00f607b3          	add	a5,a2,a5
     288:	0007b783          	ld	a5,0(a5)
     28c:	00f6c7b3          	xor	a5,a3,a5
     290:	00f746b3          	xor	a3,a4,a5
     294:	fd843783          	ld	a5,-40(s0)
     298:	00178713          	addi	a4,a5,1
     29c:	fce43c23          	sd	a4,-40(s0)
     2a0:	00000637          	lui	a2,0x0
     2a4:	00379713          	slli	a4,a5,0x3
     2a8:	00060793          	addi	a5,a2,0 # 0 <set_key>
     2ac:	00f707b3          	add	a5,a4,a5
     2b0:	0007b703          	ld	a4,0(a5)
     2b4:	fe843783          	ld	a5,-24(s0)
     2b8:	02078793          	addi	a5,a5,32
     2bc:	00e6c733          	xor	a4,a3,a4
     2c0:	00e7b023          	sd	a4,0(a5)
     2c4:	fe843783          	ld	a5,-24(s0)
     2c8:	00878793          	addi	a5,a5,8
     2cc:	0007b683          	ld	a3,0(a5)
     2d0:	fe843783          	ld	a5,-24(s0)
     2d4:	02078793          	addi	a5,a5,32
     2d8:	0007b703          	ld	a4,0(a5)
     2dc:	fe843783          	ld	a5,-24(s0)
     2e0:	02878793          	addi	a5,a5,40
     2e4:	00e6c733          	xor	a4,a3,a4
     2e8:	00e7b023          	sd	a4,0(a5)
     2ec:	fe843783          	ld	a5,-24(s0)
     2f0:	01078793          	addi	a5,a5,16
     2f4:	0007b683          	ld	a3,0(a5)
     2f8:	fe843783          	ld	a5,-24(s0)
     2fc:	02878793          	addi	a5,a5,40
     300:	0007b703          	ld	a4,0(a5)
     304:	fe843783          	ld	a5,-24(s0)
     308:	03078793          	addi	a5,a5,48
     30c:	00e6c733          	xor	a4,a3,a4
     310:	00e7b023          	sd	a4,0(a5)
     314:	fe843783          	ld	a5,-24(s0)
     318:	01878793          	addi	a5,a5,24
     31c:	0007b683          	ld	a3,0(a5)
     320:	fe843783          	ld	a5,-24(s0)
     324:	03078793          	addi	a5,a5,48
     328:	0007b703          	ld	a4,0(a5)
     32c:	fe843783          	ld	a5,-24(s0)
     330:	03878793          	addi	a5,a5,56
     334:	00e6c733          	xor	a4,a3,a4
     338:	00e7b023          	sd	a4,0(a5)
     33c:	fe843783          	ld	a5,-24(s0)
     340:	02078793          	addi	a5,a5,32
     344:	fef43423          	sd	a5,-24(s0)
     348:	fe843703          	ld	a4,-24(s0)
     34c:	fe043783          	ld	a5,-32(s0)
     350:	e6f768e3          	bltu	a4,a5,1c0 <.L17>
     354:	5340006f          	jal	zero,888 <.L8>

0000000000000358 <.L9>:
     358:	fc843783          	ld	a5,-56(s0)
     35c:	0107b703          	ld	a4,16(a5)
     360:	fb043783          	ld	a5,-80(s0)
     364:	02e7b823          	sd	a4,48(a5)
     368:	fc843783          	ld	a5,-56(s0)
     36c:	0147b703          	ld	a4,20(a5)
     370:	fb043783          	ld	a5,-80(s0)
     374:	02e7bc23          	sd	a4,56(a5)

0000000000000378 <.L12>:
     378:	fe843783          	ld	a5,-24(s0)
     37c:	0007b703          	ld	a4,0(a5)
     380:	fe843783          	ld	a5,-24(s0)
     384:	02878793          	addi	a5,a5,40
     388:	0007b783          	ld	a5,0(a5)
     38c:	0087d793          	srli	a5,a5,0x8
     390:	0ff7f793          	andi	a5,a5,255
     394:	0007869b          	addiw	a3,a5,0
     398:	000007b7          	lui	a5,0x0
     39c:	00369693          	slli	a3,a3,0x3
     3a0:	00078793          	addi	a5,a5,0 # 0 <set_key>
     3a4:	00f687b3          	add	a5,a3,a5
     3a8:	0007b683          	ld	a3,0(a5)
     3ac:	fe843783          	ld	a5,-24(s0)
     3b0:	02878793          	addi	a5,a5,40
     3b4:	0007b783          	ld	a5,0(a5)
     3b8:	0107d793          	srli	a5,a5,0x10
     3bc:	0ff7f793          	andi	a5,a5,255
     3c0:	0007861b          	addiw	a2,a5,0
     3c4:	000007b7          	lui	a5,0x0
     3c8:	10060613          	addi	a2,a2,256
     3cc:	00361613          	slli	a2,a2,0x3
     3d0:	00078793          	addi	a5,a5,0 # 0 <set_key>
     3d4:	00f607b3          	add	a5,a2,a5
     3d8:	0007b783          	ld	a5,0(a5)
     3dc:	00f6c6b3          	xor	a3,a3,a5
     3e0:	fe843783          	ld	a5,-24(s0)
     3e4:	02878793          	addi	a5,a5,40
     3e8:	0007b783          	ld	a5,0(a5)
     3ec:	0187d793          	srli	a5,a5,0x18
     3f0:	0ff7f793          	andi	a5,a5,255
     3f4:	0007861b          	addiw	a2,a5,0
     3f8:	000007b7          	lui	a5,0x0
     3fc:	20060613          	addi	a2,a2,512
     400:	00361613          	slli	a2,a2,0x3
     404:	00078793          	addi	a5,a5,0 # 0 <set_key>
     408:	00f607b3          	add	a5,a2,a5
     40c:	0007b783          	ld	a5,0(a5)
     410:	00f6c6b3          	xor	a3,a3,a5
     414:	fe843783          	ld	a5,-24(s0)
     418:	02878793          	addi	a5,a5,40
     41c:	0007b783          	ld	a5,0(a5)
     420:	0ff7f793          	andi	a5,a5,255
     424:	0007861b          	addiw	a2,a5,0
     428:	000007b7          	lui	a5,0x0
     42c:	30060613          	addi	a2,a2,768
     430:	00361613          	slli	a2,a2,0x3
     434:	00078793          	addi	a5,a5,0 # 0 <set_key>
     438:	00f607b3          	add	a5,a2,a5
     43c:	0007b783          	ld	a5,0(a5)
     440:	00f6c7b3          	xor	a5,a3,a5
     444:	00f746b3          	xor	a3,a4,a5
     448:	fd843783          	ld	a5,-40(s0)
     44c:	00178713          	addi	a4,a5,1
     450:	fce43c23          	sd	a4,-40(s0)
     454:	00000637          	lui	a2,0x0
     458:	00379713          	slli	a4,a5,0x3
     45c:	00060793          	addi	a5,a2,0 # 0 <set_key>
     460:	00f707b3          	add	a5,a4,a5
     464:	0007b703          	ld	a4,0(a5)
     468:	fe843783          	ld	a5,-24(s0)
     46c:	03078793          	addi	a5,a5,48
     470:	00e6c733          	xor	a4,a3,a4
     474:	00e7b023          	sd	a4,0(a5)
     478:	fe843783          	ld	a5,-24(s0)
     47c:	00878793          	addi	a5,a5,8
     480:	0007b683          	ld	a3,0(a5)
     484:	fe843783          	ld	a5,-24(s0)
     488:	03078793          	addi	a5,a5,48
     48c:	0007b703          	ld	a4,0(a5)
     490:	fe843783          	ld	a5,-24(s0)
     494:	03878793          	addi	a5,a5,56
     498:	00e6c733          	xor	a4,a3,a4
     49c:	00e7b023          	sd	a4,0(a5)
     4a0:	fe843783          	ld	a5,-24(s0)
     4a4:	01078793          	addi	a5,a5,16
     4a8:	0007b683          	ld	a3,0(a5)
     4ac:	fe843783          	ld	a5,-24(s0)
     4b0:	03878793          	addi	a5,a5,56
     4b4:	0007b703          	ld	a4,0(a5)
     4b8:	fe843783          	ld	a5,-24(s0)
     4bc:	04078793          	addi	a5,a5,64
     4c0:	00e6c733          	xor	a4,a3,a4
     4c4:	00e7b023          	sd	a4,0(a5)
     4c8:	fe843783          	ld	a5,-24(s0)
     4cc:	01878793          	addi	a5,a5,24
     4d0:	0007b683          	ld	a3,0(a5)
     4d4:	fe843783          	ld	a5,-24(s0)
     4d8:	04078793          	addi	a5,a5,64
     4dc:	0007b703          	ld	a4,0(a5)
     4e0:	fe843783          	ld	a5,-24(s0)
     4e4:	04878793          	addi	a5,a5,72
     4e8:	00e6c733          	xor	a4,a3,a4
     4ec:	00e7b023          	sd	a4,0(a5)
     4f0:	fe843783          	ld	a5,-24(s0)
     4f4:	02078793          	addi	a5,a5,32
     4f8:	0007b683          	ld	a3,0(a5)
     4fc:	fe843783          	ld	a5,-24(s0)
     500:	04878793          	addi	a5,a5,72
     504:	0007b703          	ld	a4,0(a5)
     508:	fe843783          	ld	a5,-24(s0)
     50c:	05078793          	addi	a5,a5,80
     510:	00e6c733          	xor	a4,a3,a4
     514:	00e7b023          	sd	a4,0(a5)
     518:	fe843783          	ld	a5,-24(s0)
     51c:	02878793          	addi	a5,a5,40
     520:	0007b683          	ld	a3,0(a5)
     524:	fe843783          	ld	a5,-24(s0)
     528:	05078793          	addi	a5,a5,80
     52c:	0007b703          	ld	a4,0(a5)
     530:	fe843783          	ld	a5,-24(s0)
     534:	05878793          	addi	a5,a5,88
     538:	00e6c733          	xor	a4,a3,a4
     53c:	00e7b023          	sd	a4,0(a5)
     540:	fe843783          	ld	a5,-24(s0)
     544:	03078793          	addi	a5,a5,48
     548:	fef43423          	sd	a5,-24(s0)
     54c:	fe843703          	ld	a4,-24(s0)
     550:	fe043783          	ld	a5,-32(s0)
     554:	e2f762e3          	bltu	a4,a5,378 <.L12>
     558:	3300006f          	jal	zero,888 <.L8>

000000000000055c <.L10>:
     55c:	fc843783          	ld	a5,-56(s0)
     560:	0107b703          	ld	a4,16(a5)
     564:	fb043783          	ld	a5,-80(s0)
     568:	02e7b823          	sd	a4,48(a5)
     56c:	fc843783          	ld	a5,-56(s0)
     570:	0147b703          	ld	a4,20(a5)
     574:	fb043783          	ld	a5,-80(s0)
     578:	02e7bc23          	sd	a4,56(a5)
     57c:	fc843783          	ld	a5,-56(s0)
     580:	0187b703          	ld	a4,24(a5)
     584:	fb043783          	ld	a5,-80(s0)
     588:	04e7b023          	sd	a4,64(a5)
     58c:	fc843783          	ld	a5,-56(s0)
     590:	01c7b703          	ld	a4,28(a5)
     594:	fb043783          	ld	a5,-80(s0)
     598:	04e7b423          	sd	a4,72(a5)

000000000000059c <.L13>:
     59c:	fe843783          	ld	a5,-24(s0)
     5a0:	0007b703          	ld	a4,0(a5)
     5a4:	fe843783          	ld	a5,-24(s0)
     5a8:	03878793          	addi	a5,a5,56
     5ac:	0007b783          	ld	a5,0(a5)
     5b0:	0087d793          	srli	a5,a5,0x8
     5b4:	0ff7f793          	andi	a5,a5,255
     5b8:	0007869b          	addiw	a3,a5,0
     5bc:	000007b7          	lui	a5,0x0
     5c0:	00369693          	slli	a3,a3,0x3
     5c4:	00078793          	addi	a5,a5,0 # 0 <set_key>
     5c8:	00f687b3          	add	a5,a3,a5
     5cc:	0007b683          	ld	a3,0(a5)
     5d0:	fe843783          	ld	a5,-24(s0)
     5d4:	03878793          	addi	a5,a5,56
     5d8:	0007b783          	ld	a5,0(a5)
     5dc:	0107d793          	srli	a5,a5,0x10
     5e0:	0ff7f793          	andi	a5,a5,255
     5e4:	0007861b          	addiw	a2,a5,0
     5e8:	000007b7          	lui	a5,0x0
     5ec:	10060613          	addi	a2,a2,256
     5f0:	00361613          	slli	a2,a2,0x3
     5f4:	00078793          	addi	a5,a5,0 # 0 <set_key>
     5f8:	00f607b3          	add	a5,a2,a5
     5fc:	0007b783          	ld	a5,0(a5)
     600:	00f6c6b3          	xor	a3,a3,a5
     604:	fe843783          	ld	a5,-24(s0)
     608:	03878793          	addi	a5,a5,56
     60c:	0007b783          	ld	a5,0(a5)
     610:	0187d793          	srli	a5,a5,0x18
     614:	0ff7f793          	andi	a5,a5,255
     618:	0007861b          	addiw	a2,a5,0
     61c:	000007b7          	lui	a5,0x0
     620:	20060613          	addi	a2,a2,512
     624:	00361613          	slli	a2,a2,0x3
     628:	00078793          	addi	a5,a5,0 # 0 <set_key>
     62c:	00f607b3          	add	a5,a2,a5
     630:	0007b783          	ld	a5,0(a5)
     634:	00f6c6b3          	xor	a3,a3,a5
     638:	fe843783          	ld	a5,-24(s0)
     63c:	03878793          	addi	a5,a5,56
     640:	0007b783          	ld	a5,0(a5)
     644:	0ff7f793          	andi	a5,a5,255
     648:	0007861b          	addiw	a2,a5,0
     64c:	000007b7          	lui	a5,0x0
     650:	30060613          	addi	a2,a2,768
     654:	00361613          	slli	a2,a2,0x3
     658:	00078793          	addi	a5,a5,0 # 0 <set_key>
     65c:	00f607b3          	add	a5,a2,a5
     660:	0007b783          	ld	a5,0(a5)
     664:	00f6c7b3          	xor	a5,a3,a5
     668:	00f746b3          	xor	a3,a4,a5
     66c:	fd843783          	ld	a5,-40(s0)
     670:	00178713          	addi	a4,a5,1
     674:	fce43c23          	sd	a4,-40(s0)
     678:	00000637          	lui	a2,0x0
     67c:	00379713          	slli	a4,a5,0x3
     680:	00060793          	addi	a5,a2,0 # 0 <set_key>
     684:	00f707b3          	add	a5,a4,a5
     688:	0007b703          	ld	a4,0(a5)
     68c:	fe843783          	ld	a5,-24(s0)
     690:	04078793          	addi	a5,a5,64
     694:	00e6c733          	xor	a4,a3,a4
     698:	00e7b023          	sd	a4,0(a5)
     69c:	fe843783          	ld	a5,-24(s0)
     6a0:	00878793          	addi	a5,a5,8
     6a4:	0007b683          	ld	a3,0(a5)
     6a8:	fe843783          	ld	a5,-24(s0)
     6ac:	04078793          	addi	a5,a5,64
     6b0:	0007b703          	ld	a4,0(a5)
     6b4:	fe843783          	ld	a5,-24(s0)
     6b8:	04878793          	addi	a5,a5,72
     6bc:	00e6c733          	xor	a4,a3,a4
     6c0:	00e7b023          	sd	a4,0(a5)
     6c4:	fe843783          	ld	a5,-24(s0)
     6c8:	01078793          	addi	a5,a5,16
     6cc:	0007b683          	ld	a3,0(a5)
     6d0:	fe843783          	ld	a5,-24(s0)
     6d4:	04878793          	addi	a5,a5,72
     6d8:	0007b703          	ld	a4,0(a5)
     6dc:	fe843783          	ld	a5,-24(s0)
     6e0:	05078793          	addi	a5,a5,80
     6e4:	00e6c733          	xor	a4,a3,a4
     6e8:	00e7b023          	sd	a4,0(a5)
     6ec:	fe843783          	ld	a5,-24(s0)
     6f0:	01878793          	addi	a5,a5,24
     6f4:	0007b683          	ld	a3,0(a5)
     6f8:	fe843783          	ld	a5,-24(s0)
     6fc:	05078793          	addi	a5,a5,80
     700:	0007b703          	ld	a4,0(a5)
     704:	fe843783          	ld	a5,-24(s0)
     708:	05878793          	addi	a5,a5,88
     70c:	00e6c733          	xor	a4,a3,a4
     710:	00e7b023          	sd	a4,0(a5)
     714:	fe843783          	ld	a5,-24(s0)
     718:	02078793          	addi	a5,a5,32
     71c:	0007b683          	ld	a3,0(a5)
     720:	fe843783          	ld	a5,-24(s0)
     724:	05878793          	addi	a5,a5,88
     728:	0007b783          	ld	a5,0(a5)
     72c:	0ff7f793          	andi	a5,a5,255
     730:	0007871b          	addiw	a4,a5,0
     734:	000007b7          	lui	a5,0x0
     738:	00371713          	slli	a4,a4,0x3
     73c:	00078793          	addi	a5,a5,0 # 0 <set_key>
     740:	00f707b3          	add	a5,a4,a5
     744:	0007b703          	ld	a4,0(a5)
     748:	fe843783          	ld	a5,-24(s0)
     74c:	05878793          	addi	a5,a5,88
     750:	0007b783          	ld	a5,0(a5)
     754:	0087d793          	srli	a5,a5,0x8
     758:	0ff7f793          	andi	a5,a5,255
     75c:	0007861b          	addiw	a2,a5,0
     760:	000007b7          	lui	a5,0x0
     764:	10060613          	addi	a2,a2,256
     768:	00361613          	slli	a2,a2,0x3
     76c:	00078793          	addi	a5,a5,0 # 0 <set_key>
     770:	00f607b3          	add	a5,a2,a5
     774:	0007b783          	ld	a5,0(a5)
     778:	00f74733          	xor	a4,a4,a5
     77c:	fe843783          	ld	a5,-24(s0)
     780:	05878793          	addi	a5,a5,88
     784:	0007b783          	ld	a5,0(a5)
     788:	0107d793          	srli	a5,a5,0x10
     78c:	0ff7f793          	andi	a5,a5,255
     790:	0007861b          	addiw	a2,a5,0
     794:	000007b7          	lui	a5,0x0
     798:	20060613          	addi	a2,a2,512
     79c:	00361613          	slli	a2,a2,0x3
     7a0:	00078793          	addi	a5,a5,0 # 0 <set_key>
     7a4:	00f607b3          	add	a5,a2,a5
     7a8:	0007b783          	ld	a5,0(a5)
     7ac:	00f74733          	xor	a4,a4,a5
     7b0:	fe843783          	ld	a5,-24(s0)
     7b4:	05878793          	addi	a5,a5,88
     7b8:	0007b783          	ld	a5,0(a5)
     7bc:	0187d793          	srli	a5,a5,0x18
     7c0:	0ff7f793          	andi	a5,a5,255
     7c4:	0007861b          	addiw	a2,a5,0
     7c8:	000007b7          	lui	a5,0x0
     7cc:	30060613          	addi	a2,a2,768
     7d0:	00361613          	slli	a2,a2,0x3
     7d4:	00078793          	addi	a5,a5,0 # 0 <set_key>
     7d8:	00f607b3          	add	a5,a2,a5
     7dc:	0007b783          	ld	a5,0(a5)
     7e0:	00f74733          	xor	a4,a4,a5
     7e4:	fe843783          	ld	a5,-24(s0)
     7e8:	06078793          	addi	a5,a5,96
     7ec:	00e6c733          	xor	a4,a3,a4
     7f0:	00e7b023          	sd	a4,0(a5)
     7f4:	fe843783          	ld	a5,-24(s0)
     7f8:	02878793          	addi	a5,a5,40
     7fc:	0007b683          	ld	a3,0(a5)
     800:	fe843783          	ld	a5,-24(s0)
     804:	06078793          	addi	a5,a5,96
     808:	0007b703          	ld	a4,0(a5)
     80c:	fe843783          	ld	a5,-24(s0)
     810:	06878793          	addi	a5,a5,104
     814:	00e6c733          	xor	a4,a3,a4
     818:	00e7b023          	sd	a4,0(a5)
     81c:	fe843783          	ld	a5,-24(s0)
     820:	03078793          	addi	a5,a5,48
     824:	0007b683          	ld	a3,0(a5)
     828:	fe843783          	ld	a5,-24(s0)
     82c:	06878793          	addi	a5,a5,104
     830:	0007b703          	ld	a4,0(a5)
     834:	fe843783          	ld	a5,-24(s0)
     838:	07078793          	addi	a5,a5,112
     83c:	00e6c733          	xor	a4,a3,a4
     840:	00e7b023          	sd	a4,0(a5)
     844:	fe843783          	ld	a5,-24(s0)
     848:	03878793          	addi	a5,a5,56
     84c:	0007b683          	ld	a3,0(a5)
     850:	fe843783          	ld	a5,-24(s0)
     854:	07078793          	addi	a5,a5,112
     858:	0007b703          	ld	a4,0(a5)
     85c:	fe843783          	ld	a5,-24(s0)
     860:	07878793          	addi	a5,a5,120
     864:	00e6c733          	xor	a4,a3,a4
     868:	00e7b023          	sd	a4,0(a5)
     86c:	fe843783          	ld	a5,-24(s0)
     870:	04078793          	addi	a5,a5,64
     874:	fef43423          	sd	a5,-24(s0)
     878:	fe843703          	ld	a4,-24(s0)
     87c:	fe043783          	ld	a5,-32(s0)
     880:	d0f76ee3          	bltu	a4,a5,59c <.L13>
     884:	00000013          	addi	zero,zero,0

0000000000000888 <.L8>:
     888:	fb043783          	ld	a5,-80(s0)
     88c:	4107c783          	lbu	a5,1040(a5)
     890:	0007879b          	addiw	a5,a5,0
     894:	0037f793          	andi	a5,a5,3
     898:	0007879b          	addiw	a5,a5,0
     89c:	00078713          	addi	a4,a5,0
     8a0:	00100793          	addi	a5,zero,1
     8a4:	4af70663          	beq	a4,a5,d50 <.L14>
     8a8:	fb043783          	ld	a5,-80(s0)
     8ac:	21078713          	addi	a4,a5,528
     8b0:	fb043783          	ld	a5,-80(s0)
     8b4:	0087b783          	ld	a5,8(a5)
     8b8:	00579793          	slli	a5,a5,0x5
     8bc:	00f707b3          	add	a5,a4,a5
     8c0:	fef43023          	sd	a5,-32(s0)
     8c4:	fb043783          	ld	a5,-80(s0)
     8c8:	01078793          	addi	a5,a5,16
     8cc:	fef43423          	sd	a5,-24(s0)
     8d0:	fe843703          	ld	a4,-24(s0)
     8d4:	00870793          	addi	a5,a4,8
     8d8:	fef43423          	sd	a5,-24(s0)
     8dc:	fe043783          	ld	a5,-32(s0)
     8e0:	00878693          	addi	a3,a5,8
     8e4:	fed43023          	sd	a3,-32(s0)
     8e8:	00073703          	ld	a4,0(a4)
     8ec:	00e7b023          	sd	a4,0(a5)
     8f0:	fe843703          	ld	a4,-24(s0)
     8f4:	00870793          	addi	a5,a4,8
     8f8:	fef43423          	sd	a5,-24(s0)
     8fc:	fe043783          	ld	a5,-32(s0)
     900:	00878693          	addi	a3,a5,8
     904:	fed43023          	sd	a3,-32(s0)
     908:	00073703          	ld	a4,0(a4)
     90c:	00e7b023          	sd	a4,0(a5)
     910:	fe843703          	ld	a4,-24(s0)
     914:	00870793          	addi	a5,a4,8
     918:	fef43423          	sd	a5,-24(s0)
     91c:	fe043783          	ld	a5,-32(s0)
     920:	00878693          	addi	a3,a5,8
     924:	fed43023          	sd	a3,-32(s0)
     928:	00073703          	ld	a4,0(a4)
     92c:	00e7b023          	sd	a4,0(a5)
     930:	fe843703          	ld	a4,-24(s0)
     934:	00870793          	addi	a5,a4,8
     938:	fef43423          	sd	a5,-24(s0)
     93c:	fe043783          	ld	a5,-32(s0)
     940:	00878693          	addi	a3,a5,8
     944:	fed43023          	sd	a3,-32(s0)
     948:	00073703          	ld	a4,0(a4)
     94c:	00e7b023          	sd	a4,0(a5)
     950:	fe043783          	ld	a5,-32(s0)
     954:	fc078793          	addi	a5,a5,-64
     958:	fef43023          	sd	a5,-32(s0)
     95c:	00100793          	addi	a5,zero,1
     960:	fcf43823          	sd	a5,-48(s0)
     964:	35c0006f          	jal	zero,cc0 <.L15>

0000000000000968 <.L16>:
     968:	fe843783          	ld	a5,-24(s0)
     96c:	0007b783          	ld	a5,0(a5)
     970:	0ff7f793          	andi	a5,a5,255
     974:	0007871b          	addiw	a4,a5,0
     978:	000007b7          	lui	a5,0x0
     97c:	00371713          	slli	a4,a4,0x3
     980:	00078793          	addi	a5,a5,0 # 0 <set_key>
     984:	00f707b3          	add	a5,a4,a5
     988:	0007b703          	ld	a4,0(a5)
     98c:	fe843783          	ld	a5,-24(s0)
     990:	0007b783          	ld	a5,0(a5)
     994:	0087d793          	srli	a5,a5,0x8
     998:	0ff7f793          	andi	a5,a5,255
     99c:	0007869b          	addiw	a3,a5,0
     9a0:	000007b7          	lui	a5,0x0
     9a4:	10068693          	addi	a3,a3,256
     9a8:	00369693          	slli	a3,a3,0x3
     9ac:	00078793          	addi	a5,a5,0 # 0 <set_key>
     9b0:	00f687b3          	add	a5,a3,a5
     9b4:	0007b783          	ld	a5,0(a5)
     9b8:	00f74733          	xor	a4,a4,a5
     9bc:	fe843783          	ld	a5,-24(s0)
     9c0:	0007b783          	ld	a5,0(a5)
     9c4:	0107d793          	srli	a5,a5,0x10
     9c8:	0ff7f793          	andi	a5,a5,255
     9cc:	0007869b          	addiw	a3,a5,0
     9d0:	000007b7          	lui	a5,0x0
     9d4:	20068693          	addi	a3,a3,512
     9d8:	00369693          	slli	a3,a3,0x3
     9dc:	00078793          	addi	a5,a5,0 # 0 <set_key>
     9e0:	00f687b3          	add	a5,a3,a5
     9e4:	0007b783          	ld	a5,0(a5)
     9e8:	00f746b3          	xor	a3,a4,a5
     9ec:	fe843783          	ld	a5,-24(s0)
     9f0:	0007b783          	ld	a5,0(a5)
     9f4:	0187d793          	srli	a5,a5,0x18
     9f8:	0ff7f793          	andi	a5,a5,255
     9fc:	0007871b          	addiw	a4,a5,0
     a00:	000007b7          	lui	a5,0x0
     a04:	30070713          	addi	a4,a4,768
     a08:	00371713          	slli	a4,a4,0x3
     a0c:	00078793          	addi	a5,a5,0 # 0 <set_key>
     a10:	00f707b3          	add	a5,a4,a5
     a14:	0007b703          	ld	a4,0(a5)
     a18:	fe043783          	ld	a5,-32(s0)
     a1c:	00878613          	addi	a2,a5,8
     a20:	fec43023          	sd	a2,-32(s0)
     a24:	00e6c733          	xor	a4,a3,a4
     a28:	00e7b023          	sd	a4,0(a5)
     a2c:	fe843783          	ld	a5,-24(s0)
     a30:	00878793          	addi	a5,a5,8
     a34:	fef43423          	sd	a5,-24(s0)
     a38:	fe843783          	ld	a5,-24(s0)
     a3c:	0007b783          	ld	a5,0(a5)
     a40:	0ff7f793          	andi	a5,a5,255
     a44:	0007871b          	addiw	a4,a5,0
     a48:	000007b7          	lui	a5,0x0
     a4c:	00371713          	slli	a4,a4,0x3
     a50:	00078793          	addi	a5,a5,0 # 0 <set_key>
     a54:	00f707b3          	add	a5,a4,a5
     a58:	0007b703          	ld	a4,0(a5)
     a5c:	fe843783          	ld	a5,-24(s0)
     a60:	0007b783          	ld	a5,0(a5)
     a64:	0087d793          	srli	a5,a5,0x8
     a68:	0ff7f793          	andi	a5,a5,255
     a6c:	0007869b          	addiw	a3,a5,0
     a70:	000007b7          	lui	a5,0x0
     a74:	10068693          	addi	a3,a3,256
     a78:	00369693          	slli	a3,a3,0x3
     a7c:	00078793          	addi	a5,a5,0 # 0 <set_key>
     a80:	00f687b3          	add	a5,a3,a5
     a84:	0007b783          	ld	a5,0(a5)
     a88:	00f74733          	xor	a4,a4,a5
     a8c:	fe843783          	ld	a5,-24(s0)
     a90:	0007b783          	ld	a5,0(a5)
     a94:	0107d793          	srli	a5,a5,0x10
     a98:	0ff7f793          	andi	a5,a5,255
     a9c:	0007869b          	addiw	a3,a5,0
     aa0:	000007b7          	lui	a5,0x0
     aa4:	20068693          	addi	a3,a3,512
     aa8:	00369693          	slli	a3,a3,0x3
     aac:	00078793          	addi	a5,a5,0 # 0 <set_key>
     ab0:	00f687b3          	add	a5,a3,a5
     ab4:	0007b783          	ld	a5,0(a5)
     ab8:	00f746b3          	xor	a3,a4,a5
     abc:	fe843783          	ld	a5,-24(s0)
     ac0:	0007b783          	ld	a5,0(a5)
     ac4:	0187d793          	srli	a5,a5,0x18
     ac8:	0ff7f793          	andi	a5,a5,255
     acc:	0007871b          	addiw	a4,a5,0
     ad0:	000007b7          	lui	a5,0x0
     ad4:	30070713          	addi	a4,a4,768
     ad8:	00371713          	slli	a4,a4,0x3
     adc:	00078793          	addi	a5,a5,0 # 0 <set_key>
     ae0:	00f707b3          	add	a5,a4,a5
     ae4:	0007b703          	ld	a4,0(a5)
     ae8:	fe043783          	ld	a5,-32(s0)
     aec:	00878613          	addi	a2,a5,8
     af0:	fec43023          	sd	a2,-32(s0)
     af4:	00e6c733          	xor	a4,a3,a4
     af8:	00e7b023          	sd	a4,0(a5)
     afc:	fe843783          	ld	a5,-24(s0)
     b00:	00878793          	addi	a5,a5,8
     b04:	fef43423          	sd	a5,-24(s0)
     b08:	fe843783          	ld	a5,-24(s0)
     b0c:	0007b783          	ld	a5,0(a5)
     b10:	0ff7f793          	andi	a5,a5,255
     b14:	0007871b          	addiw	a4,a5,0
     b18:	000007b7          	lui	a5,0x0
     b1c:	00371713          	slli	a4,a4,0x3
     b20:	00078793          	addi	a5,a5,0 # 0 <set_key>
     b24:	00f707b3          	add	a5,a4,a5
     b28:	0007b703          	ld	a4,0(a5)
     b2c:	fe843783          	ld	a5,-24(s0)
     b30:	0007b783          	ld	a5,0(a5)
     b34:	0087d793          	srli	a5,a5,0x8
     b38:	0ff7f793          	andi	a5,a5,255
     b3c:	0007869b          	addiw	a3,a5,0
     b40:	000007b7          	lui	a5,0x0
     b44:	10068693          	addi	a3,a3,256
     b48:	00369693          	slli	a3,a3,0x3
     b4c:	00078793          	addi	a5,a5,0 # 0 <set_key>
     b50:	00f687b3          	add	a5,a3,a5
     b54:	0007b783          	ld	a5,0(a5)
     b58:	00f74733          	xor	a4,a4,a5
     b5c:	fe843783          	ld	a5,-24(s0)
     b60:	0007b783          	ld	a5,0(a5)
     b64:	0107d793          	srli	a5,a5,0x10
     b68:	0ff7f793          	andi	a5,a5,255
     b6c:	0007869b          	addiw	a3,a5,0
     b70:	000007b7          	lui	a5,0x0
     b74:	20068693          	addi	a3,a3,512
     b78:	00369693          	slli	a3,a3,0x3
     b7c:	00078793          	addi	a5,a5,0 # 0 <set_key>
     b80:	00f687b3          	add	a5,a3,a5
     b84:	0007b783          	ld	a5,0(a5)
     b88:	00f746b3          	xor	a3,a4,a5
     b8c:	fe843783          	ld	a5,-24(s0)
     b90:	0007b783          	ld	a5,0(a5)
     b94:	0187d793          	srli	a5,a5,0x18
     b98:	0ff7f793          	andi	a5,a5,255
     b9c:	0007871b          	addiw	a4,a5,0
     ba0:	000007b7          	lui	a5,0x0
     ba4:	30070713          	addi	a4,a4,768
     ba8:	00371713          	slli	a4,a4,0x3
     bac:	00078793          	addi	a5,a5,0 # 0 <set_key>
     bb0:	00f707b3          	add	a5,a4,a5
     bb4:	0007b703          	ld	a4,0(a5)
     bb8:	fe043783          	ld	a5,-32(s0)
     bbc:	00878613          	addi	a2,a5,8
     bc0:	fec43023          	sd	a2,-32(s0)
     bc4:	00e6c733          	xor	a4,a3,a4
     bc8:	00e7b023          	sd	a4,0(a5)
     bcc:	fe843783          	ld	a5,-24(s0)
     bd0:	00878793          	addi	a5,a5,8
     bd4:	fef43423          	sd	a5,-24(s0)
     bd8:	fe843783          	ld	a5,-24(s0)
     bdc:	0007b783          	ld	a5,0(a5)
     be0:	0ff7f793          	andi	a5,a5,255
     be4:	0007871b          	addiw	a4,a5,0
     be8:	000007b7          	lui	a5,0x0
     bec:	00371713          	slli	a4,a4,0x3
     bf0:	00078793          	addi	a5,a5,0 # 0 <set_key>
     bf4:	00f707b3          	add	a5,a4,a5
     bf8:	0007b703          	ld	a4,0(a5)
     bfc:	fe843783          	ld	a5,-24(s0)
     c00:	0007b783          	ld	a5,0(a5)
     c04:	0087d793          	srli	a5,a5,0x8
     c08:	0ff7f793          	andi	a5,a5,255
     c0c:	0007869b          	addiw	a3,a5,0
     c10:	000007b7          	lui	a5,0x0
     c14:	10068693          	addi	a3,a3,256
     c18:	00369693          	slli	a3,a3,0x3
     c1c:	00078793          	addi	a5,a5,0 # 0 <set_key>
     c20:	00f687b3          	add	a5,a3,a5
     c24:	0007b783          	ld	a5,0(a5)
     c28:	00f74733          	xor	a4,a4,a5
     c2c:	fe843783          	ld	a5,-24(s0)
     c30:	0007b783          	ld	a5,0(a5)
     c34:	0107d793          	srli	a5,a5,0x10
     c38:	0ff7f793          	andi	a5,a5,255
     c3c:	0007869b          	addiw	a3,a5,0
     c40:	000007b7          	lui	a5,0x0
     c44:	20068693          	addi	a3,a3,512
     c48:	00369693          	slli	a3,a3,0x3
     c4c:	00078793          	addi	a5,a5,0 # 0 <set_key>
     c50:	00f687b3          	add	a5,a3,a5
     c54:	0007b783          	ld	a5,0(a5)
     c58:	00f746b3          	xor	a3,a4,a5
     c5c:	fe843783          	ld	a5,-24(s0)
     c60:	0007b783          	ld	a5,0(a5)
     c64:	0187d793          	srli	a5,a5,0x18
     c68:	0ff7f793          	andi	a5,a5,255
     c6c:	0007871b          	addiw	a4,a5,0
     c70:	000007b7          	lui	a5,0x0
     c74:	30070713          	addi	a4,a4,768
     c78:	00371713          	slli	a4,a4,0x3
     c7c:	00078793          	addi	a5,a5,0 # 0 <set_key>
     c80:	00f707b3          	add	a5,a4,a5
     c84:	0007b703          	ld	a4,0(a5)
     c88:	fe043783          	ld	a5,-32(s0)
     c8c:	00878613          	addi	a2,a5,8
     c90:	fec43023          	sd	a2,-32(s0)
     c94:	00e6c733          	xor	a4,a3,a4
     c98:	00e7b023          	sd	a4,0(a5)
     c9c:	fe843783          	ld	a5,-24(s0)
     ca0:	00878793          	addi	a5,a5,8
     ca4:	fef43423          	sd	a5,-24(s0)
     ca8:	fe043783          	ld	a5,-32(s0)
     cac:	fc078793          	addi	a5,a5,-64
     cb0:	fef43023          	sd	a5,-32(s0)
     cb4:	fd043783          	ld	a5,-48(s0)
     cb8:	00178793          	addi	a5,a5,1
     cbc:	fcf43823          	sd	a5,-48(s0)

0000000000000cc0 <.L15>:
     cc0:	fb043783          	ld	a5,-80(s0)
     cc4:	0087b783          	ld	a5,8(a5)
     cc8:	fd043703          	ld	a4,-48(s0)
     ccc:	c8f76ee3          	bltu	a4,a5,968 <.L16>
     cd0:	fe843703          	ld	a4,-24(s0)
     cd4:	00870793          	addi	a5,a4,8
     cd8:	fef43423          	sd	a5,-24(s0)
     cdc:	fe043783          	ld	a5,-32(s0)
     ce0:	00878693          	addi	a3,a5,8
     ce4:	fed43023          	sd	a3,-32(s0)
     ce8:	00073703          	ld	a4,0(a4)
     cec:	00e7b023          	sd	a4,0(a5)
     cf0:	fe843703          	ld	a4,-24(s0)
     cf4:	00870793          	addi	a5,a4,8
     cf8:	fef43423          	sd	a5,-24(s0)
     cfc:	fe043783          	ld	a5,-32(s0)
     d00:	00878693          	addi	a3,a5,8
     d04:	fed43023          	sd	a3,-32(s0)
     d08:	00073703          	ld	a4,0(a4)
     d0c:	00e7b023          	sd	a4,0(a5)
     d10:	fe843703          	ld	a4,-24(s0)
     d14:	00870793          	addi	a5,a4,8
     d18:	fef43423          	sd	a5,-24(s0)
     d1c:	fe043783          	ld	a5,-32(s0)
     d20:	00878693          	addi	a3,a5,8
     d24:	fed43023          	sd	a3,-32(s0)
     d28:	00073703          	ld	a4,0(a4)
     d2c:	00e7b023          	sd	a4,0(a5)
     d30:	fe843703          	ld	a4,-24(s0)
     d34:	00870793          	addi	a5,a4,8
     d38:	fef43423          	sd	a5,-24(s0)
     d3c:	fe043783          	ld	a5,-32(s0)
     d40:	00878693          	addi	a3,a5,8
     d44:	fed43023          	sd	a3,-32(s0)
     d48:	00073703          	ld	a4,0(a4)
     d4c:	00e7b023          	sd	a4,0(a5)

0000000000000d50 <.L14>:
     d50:	00100793          	addi	a5,zero,1

0000000000000d54 <.L6>:
     d54:	00078513          	addi	a0,a5,0
     d58:	04813403          	ld	s0,72(sp)
     d5c:	05010113          	addi	sp,sp,80
     d60:	00008067          	jalr	zero,0(ra)

0000000000000d64 <encrypt>:
     d64:	f8010113          	addi	sp,sp,-128
     d68:	06813c23          	sd	s0,120(sp)
     d6c:	08010413          	addi	s0,sp,128
     d70:	f8a43c23          	sd	a0,-104(s0)
     d74:	f8b43823          	sd	a1,-112(s0)
     d78:	f8c43423          	sd	a2,-120(s0)
     d7c:	f8843783          	ld	a5,-120(s0)
     d80:	01078793          	addi	a5,a5,16
     d84:	fef43423          	sd	a5,-24(s0)
     d88:	f8843783          	ld	a5,-120(s0)
     d8c:	4107c783          	lbu	a5,1040(a5)
     d90:	0007879b          	addiw	a5,a5,0
     d94:	0017f793          	andi	a5,a5,1
     d98:	0007879b          	addiw	a5,a5,0
     d9c:	00079663          	bne	a5,zero,da8 <.L19>
     da0:	00000793          	addi	a5,zero,0
     da4:	1390206f          	jal	zero,36dc <.L25>

0000000000000da8 <.L19>:
     da8:	f9843783          	ld	a5,-104(s0)
     dac:	0007b703          	ld	a4,0(a5)
     db0:	fe843783          	ld	a5,-24(s0)
     db4:	0007b783          	ld	a5,0(a5)
     db8:	00f747b3          	xor	a5,a4,a5
     dbc:	faf43423          	sd	a5,-88(s0)
     dc0:	f9843783          	ld	a5,-104(s0)
     dc4:	00478793          	addi	a5,a5,4
     dc8:	0007b703          	ld	a4,0(a5)
     dcc:	fe843783          	ld	a5,-24(s0)
     dd0:	00878793          	addi	a5,a5,8
     dd4:	0007b783          	ld	a5,0(a5)
     dd8:	00f747b3          	xor	a5,a4,a5
     ddc:	faf43823          	sd	a5,-80(s0)
     de0:	f9843783          	ld	a5,-104(s0)
     de4:	00878793          	addi	a5,a5,8
     de8:	0007b703          	ld	a4,0(a5)
     dec:	fe843783          	ld	a5,-24(s0)
     df0:	01078793          	addi	a5,a5,16
     df4:	0007b783          	ld	a5,0(a5)
     df8:	00f747b3          	xor	a5,a4,a5
     dfc:	faf43c23          	sd	a5,-72(s0)
     e00:	f9843783          	ld	a5,-104(s0)
     e04:	00c78793          	addi	a5,a5,12
     e08:	0007b703          	ld	a4,0(a5)
     e0c:	fe843783          	ld	a5,-24(s0)
     e10:	01878793          	addi	a5,a5,24
     e14:	0007b783          	ld	a5,0(a5)
     e18:	00f747b3          	xor	a5,a4,a5
     e1c:	fcf43023          	sd	a5,-64(s0)
     e20:	fe843783          	ld	a5,-24(s0)
     e24:	02078793          	addi	a5,a5,32
     e28:	fef43423          	sd	a5,-24(s0)
     e2c:	f8843783          	ld	a5,-120(s0)
     e30:	0087b783          	ld	a5,8(a5)
     e34:	00c00713          	addi	a4,zero,12
     e38:	5ee78063          	beq	a5,a4,1418 <.L22>
     e3c:	00e00713          	addi	a4,zero,14
     e40:	00e78863          	beq	a5,a4,e50 <.L23>
     e44:	00a00713          	addi	a4,zero,10
     e48:	38e78ce3          	beq	a5,a4,19e0 <.L24>
     e4c:	0510206f          	jal	zero,369c <.L21>

0000000000000e50 <.L23>:
     e50:	fe843783          	ld	a5,-24(s0)
     e54:	0007b703          	ld	a4,0(a5)
     e58:	fa843783          	ld	a5,-88(s0)
     e5c:	0ff7f793          	andi	a5,a5,255
     e60:	0007869b          	addiw	a3,a5,0
     e64:	000007b7          	lui	a5,0x0
     e68:	00369693          	slli	a3,a3,0x3
     e6c:	00078793          	addi	a5,a5,0 # 0 <set_key>
     e70:	00f687b3          	add	a5,a3,a5
     e74:	0007b683          	ld	a3,0(a5)
     e78:	fb043783          	ld	a5,-80(s0)
     e7c:	0087d793          	srli	a5,a5,0x8
     e80:	0ff7f793          	andi	a5,a5,255
     e84:	0007861b          	addiw	a2,a5,0
     e88:	000007b7          	lui	a5,0x0
     e8c:	10060613          	addi	a2,a2,256
     e90:	00361613          	slli	a2,a2,0x3
     e94:	00078793          	addi	a5,a5,0 # 0 <set_key>
     e98:	00f607b3          	add	a5,a2,a5
     e9c:	0007b783          	ld	a5,0(a5)
     ea0:	00f6c6b3          	xor	a3,a3,a5
     ea4:	fb843783          	ld	a5,-72(s0)
     ea8:	0107d793          	srli	a5,a5,0x10
     eac:	0ff7f793          	andi	a5,a5,255
     eb0:	0007861b          	addiw	a2,a5,0
     eb4:	000007b7          	lui	a5,0x0
     eb8:	20060613          	addi	a2,a2,512
     ebc:	00361613          	slli	a2,a2,0x3
     ec0:	00078793          	addi	a5,a5,0 # 0 <set_key>
     ec4:	00f607b3          	add	a5,a2,a5
     ec8:	0007b783          	ld	a5,0(a5)
     ecc:	00f6c6b3          	xor	a3,a3,a5
     ed0:	fc043783          	ld	a5,-64(s0)
     ed4:	0187d793          	srli	a5,a5,0x18
     ed8:	0ff7f793          	andi	a5,a5,255
     edc:	0007861b          	addiw	a2,a5,0
     ee0:	000007b7          	lui	a5,0x0
     ee4:	30060613          	addi	a2,a2,768
     ee8:	00361613          	slli	a2,a2,0x3
     eec:	00078793          	addi	a5,a5,0 # 0 <set_key>
     ef0:	00f607b3          	add	a5,a2,a5
     ef4:	0007b783          	ld	a5,0(a5)
     ef8:	00f6c7b3          	xor	a5,a3,a5
     efc:	00f747b3          	xor	a5,a4,a5
     f00:	fcf43423          	sd	a5,-56(s0)
     f04:	fe843783          	ld	a5,-24(s0)
     f08:	00878793          	addi	a5,a5,8
     f0c:	0007b703          	ld	a4,0(a5)
     f10:	fb043783          	ld	a5,-80(s0)
     f14:	0ff7f793          	andi	a5,a5,255
     f18:	0007869b          	addiw	a3,a5,0
     f1c:	000007b7          	lui	a5,0x0
     f20:	00369693          	slli	a3,a3,0x3
     f24:	00078793          	addi	a5,a5,0 # 0 <set_key>
     f28:	00f687b3          	add	a5,a3,a5
     f2c:	0007b683          	ld	a3,0(a5)
     f30:	fb843783          	ld	a5,-72(s0)
     f34:	0087d793          	srli	a5,a5,0x8
     f38:	0ff7f793          	andi	a5,a5,255
     f3c:	0007861b          	addiw	a2,a5,0
     f40:	000007b7          	lui	a5,0x0
     f44:	10060613          	addi	a2,a2,256
     f48:	00361613          	slli	a2,a2,0x3
     f4c:	00078793          	addi	a5,a5,0 # 0 <set_key>
     f50:	00f607b3          	add	a5,a2,a5
     f54:	0007b783          	ld	a5,0(a5)
     f58:	00f6c6b3          	xor	a3,a3,a5
     f5c:	fc043783          	ld	a5,-64(s0)
     f60:	0107d793          	srli	a5,a5,0x10
     f64:	0ff7f793          	andi	a5,a5,255
     f68:	0007861b          	addiw	a2,a5,0
     f6c:	000007b7          	lui	a5,0x0
     f70:	20060613          	addi	a2,a2,512
     f74:	00361613          	slli	a2,a2,0x3
     f78:	00078793          	addi	a5,a5,0 # 0 <set_key>
     f7c:	00f607b3          	add	a5,a2,a5
     f80:	0007b783          	ld	a5,0(a5)
     f84:	00f6c6b3          	xor	a3,a3,a5
     f88:	fa843783          	ld	a5,-88(s0)
     f8c:	0187d793          	srli	a5,a5,0x18
     f90:	0ff7f793          	andi	a5,a5,255
     f94:	0007861b          	addiw	a2,a5,0
     f98:	000007b7          	lui	a5,0x0
     f9c:	30060613          	addi	a2,a2,768
     fa0:	00361613          	slli	a2,a2,0x3
     fa4:	00078793          	addi	a5,a5,0 # 0 <set_key>
     fa8:	00f607b3          	add	a5,a2,a5
     fac:	0007b783          	ld	a5,0(a5)
     fb0:	00f6c7b3          	xor	a5,a3,a5
     fb4:	00f747b3          	xor	a5,a4,a5
     fb8:	fcf43823          	sd	a5,-48(s0)
     fbc:	fe843783          	ld	a5,-24(s0)
     fc0:	01078793          	addi	a5,a5,16
     fc4:	0007b703          	ld	a4,0(a5)
     fc8:	fb843783          	ld	a5,-72(s0)
     fcc:	0ff7f793          	andi	a5,a5,255
     fd0:	0007869b          	addiw	a3,a5,0
     fd4:	000007b7          	lui	a5,0x0
     fd8:	00369693          	slli	a3,a3,0x3
     fdc:	00078793          	addi	a5,a5,0 # 0 <set_key>
     fe0:	00f687b3          	add	a5,a3,a5
     fe4:	0007b683          	ld	a3,0(a5)
     fe8:	fc043783          	ld	a5,-64(s0)
     fec:	0087d793          	srli	a5,a5,0x8
     ff0:	0ff7f793          	andi	a5,a5,255
     ff4:	0007861b          	addiw	a2,a5,0
     ff8:	000007b7          	lui	a5,0x0
     ffc:	10060613          	addi	a2,a2,256
    1000:	00361613          	slli	a2,a2,0x3
    1004:	00078793          	addi	a5,a5,0 # 0 <set_key>
    1008:	00f607b3          	add	a5,a2,a5
    100c:	0007b783          	ld	a5,0(a5)
    1010:	00f6c6b3          	xor	a3,a3,a5
    1014:	fa843783          	ld	a5,-88(s0)
    1018:	0107d793          	srli	a5,a5,0x10
    101c:	0ff7f793          	andi	a5,a5,255
    1020:	0007861b          	addiw	a2,a5,0
    1024:	000007b7          	lui	a5,0x0
    1028:	20060613          	addi	a2,a2,512
    102c:	00361613          	slli	a2,a2,0x3
    1030:	00078793          	addi	a5,a5,0 # 0 <set_key>
    1034:	00f607b3          	add	a5,a2,a5
    1038:	0007b783          	ld	a5,0(a5)
    103c:	00f6c6b3          	xor	a3,a3,a5
    1040:	fb043783          	ld	a5,-80(s0)
    1044:	0187d793          	srli	a5,a5,0x18
    1048:	0ff7f793          	andi	a5,a5,255
    104c:	0007861b          	addiw	a2,a5,0
    1050:	000007b7          	lui	a5,0x0
    1054:	30060613          	addi	a2,a2,768
    1058:	00361613          	slli	a2,a2,0x3
    105c:	00078793          	addi	a5,a5,0 # 0 <set_key>
    1060:	00f607b3          	add	a5,a2,a5
    1064:	0007b783          	ld	a5,0(a5)
    1068:	00f6c7b3          	xor	a5,a3,a5
    106c:	00f747b3          	xor	a5,a4,a5
    1070:	fcf43c23          	sd	a5,-40(s0)
    1074:	fe843783          	ld	a5,-24(s0)
    1078:	01878793          	addi	a5,a5,24
    107c:	0007b703          	ld	a4,0(a5)
    1080:	fc043783          	ld	a5,-64(s0)
    1084:	0ff7f793          	andi	a5,a5,255
    1088:	0007869b          	addiw	a3,a5,0
    108c:	000007b7          	lui	a5,0x0
    1090:	00369693          	slli	a3,a3,0x3
    1094:	00078793          	addi	a5,a5,0 # 0 <set_key>
    1098:	00f687b3          	add	a5,a3,a5
    109c:	0007b683          	ld	a3,0(a5)
    10a0:	fa843783          	ld	a5,-88(s0)
    10a4:	0087d793          	srli	a5,a5,0x8
    10a8:	0ff7f793          	andi	a5,a5,255
    10ac:	0007861b          	addiw	a2,a5,0
    10b0:	000007b7          	lui	a5,0x0
    10b4:	10060613          	addi	a2,a2,256
    10b8:	00361613          	slli	a2,a2,0x3
    10bc:	00078793          	addi	a5,a5,0 # 0 <set_key>
    10c0:	00f607b3          	add	a5,a2,a5
    10c4:	0007b783          	ld	a5,0(a5)
    10c8:	00f6c6b3          	xor	a3,a3,a5
    10cc:	fb043783          	ld	a5,-80(s0)
    10d0:	0107d793          	srli	a5,a5,0x10
    10d4:	0ff7f793          	andi	a5,a5,255
    10d8:	0007861b          	addiw	a2,a5,0
    10dc:	000007b7          	lui	a5,0x0
    10e0:	20060613          	addi	a2,a2,512
    10e4:	00361613          	slli	a2,a2,0x3
    10e8:	00078793          	addi	a5,a5,0 # 0 <set_key>
    10ec:	00f607b3          	add	a5,a2,a5
    10f0:	0007b783          	ld	a5,0(a5)
    10f4:	00f6c6b3          	xor	a3,a3,a5
    10f8:	fb843783          	ld	a5,-72(s0)
    10fc:	0187d793          	srli	a5,a5,0x18
    1100:	0ff7f793          	andi	a5,a5,255
    1104:	0007861b          	addiw	a2,a5,0
    1108:	000007b7          	lui	a5,0x0
    110c:	30060613          	addi	a2,a2,768
    1110:	00361613          	slli	a2,a2,0x3
    1114:	00078793          	addi	a5,a5,0 # 0 <set_key>
    1118:	00f607b3          	add	a5,a2,a5
    111c:	0007b783          	ld	a5,0(a5)
    1120:	00f6c7b3          	xor	a5,a3,a5
    1124:	00f747b3          	xor	a5,a4,a5
    1128:	fef43023          	sd	a5,-32(s0)
    112c:	fe843783          	ld	a5,-24(s0)
    1130:	02078793          	addi	a5,a5,32
    1134:	0007b703          	ld	a4,0(a5)
    1138:	fc843783          	ld	a5,-56(s0)
    113c:	0ff7f793          	andi	a5,a5,255
    1140:	0007869b          	addiw	a3,a5,0
    1144:	000007b7          	lui	a5,0x0
    1148:	00369693          	slli	a3,a3,0x3
    114c:	00078793          	addi	a5,a5,0 # 0 <set_key>
    1150:	00f687b3          	add	a5,a3,a5
    1154:	0007b683          	ld	a3,0(a5)
    1158:	fd043783          	ld	a5,-48(s0)
    115c:	0087d793          	srli	a5,a5,0x8
    1160:	0ff7f793          	andi	a5,a5,255
    1164:	0007861b          	addiw	a2,a5,0
    1168:	000007b7          	lui	a5,0x0
    116c:	10060613          	addi	a2,a2,256
    1170:	00361613          	slli	a2,a2,0x3
    1174:	00078793          	addi	a5,a5,0 # 0 <set_key>
    1178:	00f607b3          	add	a5,a2,a5
    117c:	0007b783          	ld	a5,0(a5)
    1180:	00f6c6b3          	xor	a3,a3,a5
    1184:	fd843783          	ld	a5,-40(s0)
    1188:	0107d793          	srli	a5,a5,0x10
    118c:	0ff7f793          	andi	a5,a5,255
    1190:	0007861b          	addiw	a2,a5,0
    1194:	000007b7          	lui	a5,0x0
    1198:	20060613          	addi	a2,a2,512
    119c:	00361613          	slli	a2,a2,0x3
    11a0:	00078793          	addi	a5,a5,0 # 0 <set_key>
    11a4:	00f607b3          	add	a5,a2,a5
    11a8:	0007b783          	ld	a5,0(a5)
    11ac:	00f6c6b3          	xor	a3,a3,a5
    11b0:	fe043783          	ld	a5,-32(s0)
    11b4:	0187d793          	srli	a5,a5,0x18
    11b8:	0ff7f793          	andi	a5,a5,255
    11bc:	0007861b          	addiw	a2,a5,0
    11c0:	000007b7          	lui	a5,0x0
    11c4:	30060613          	addi	a2,a2,768
    11c8:	00361613          	slli	a2,a2,0x3
    11cc:	00078793          	addi	a5,a5,0 # 0 <set_key>
    11d0:	00f607b3          	add	a5,a2,a5
    11d4:	0007b783          	ld	a5,0(a5)
    11d8:	00f6c7b3          	xor	a5,a3,a5
    11dc:	00f747b3          	xor	a5,a4,a5
    11e0:	faf43423          	sd	a5,-88(s0)
    11e4:	fe843783          	ld	a5,-24(s0)
    11e8:	02878793          	addi	a5,a5,40
    11ec:	0007b703          	ld	a4,0(a5)
    11f0:	fd043783          	ld	a5,-48(s0)
    11f4:	0ff7f793          	andi	a5,a5,255
    11f8:	0007869b          	addiw	a3,a5,0
    11fc:	000007b7          	lui	a5,0x0
    1200:	00369693          	slli	a3,a3,0x3
    1204:	00078793          	addi	a5,a5,0 # 0 <set_key>
    1208:	00f687b3          	add	a5,a3,a5
    120c:	0007b683          	ld	a3,0(a5)
    1210:	fd843783          	ld	a5,-40(s0)
    1214:	0087d793          	srli	a5,a5,0x8
    1218:	0ff7f793          	andi	a5,a5,255
    121c:	0007861b          	addiw	a2,a5,0
    1220:	000007b7          	lui	a5,0x0
    1224:	10060613          	addi	a2,a2,256
    1228:	00361613          	slli	a2,a2,0x3
    122c:	00078793          	addi	a5,a5,0 # 0 <set_key>
    1230:	00f607b3          	add	a5,a2,a5
    1234:	0007b783          	ld	a5,0(a5)
    1238:	00f6c6b3          	xor	a3,a3,a5
    123c:	fe043783          	ld	a5,-32(s0)
    1240:	0107d793          	srli	a5,a5,0x10
    1244:	0ff7f793          	andi	a5,a5,255
    1248:	0007861b          	addiw	a2,a5,0
    124c:	000007b7          	lui	a5,0x0
    1250:	20060613          	addi	a2,a2,512
    1254:	00361613          	slli	a2,a2,0x3
    1258:	00078793          	addi	a5,a5,0 # 0 <set_key>
    125c:	00f607b3          	add	a5,a2,a5
    1260:	0007b783          	ld	a5,0(a5)
    1264:	00f6c6b3          	xor	a3,a3,a5
    1268:	fc843783          	ld	a5,-56(s0)
    126c:	0187d793          	srli	a5,a5,0x18
    1270:	0ff7f793          	andi	a5,a5,255
    1274:	0007861b          	addiw	a2,a5,0
    1278:	000007b7          	lui	a5,0x0
    127c:	30060613          	addi	a2,a2,768
    1280:	00361613          	slli	a2,a2,0x3
    1284:	00078793          	addi	a5,a5,0 # 0 <set_key>
    1288:	00f607b3          	add	a5,a2,a5
    128c:	0007b783          	ld	a5,0(a5)
    1290:	00f6c7b3          	xor	a5,a3,a5
    1294:	00f747b3          	xor	a5,a4,a5
    1298:	faf43823          	sd	a5,-80(s0)
    129c:	fe843783          	ld	a5,-24(s0)
    12a0:	03078793          	addi	a5,a5,48
    12a4:	0007b703          	ld	a4,0(a5)
    12a8:	fd843783          	ld	a5,-40(s0)
    12ac:	0ff7f793          	andi	a5,a5,255
    12b0:	0007869b          	addiw	a3,a5,0
    12b4:	000007b7          	lui	a5,0x0
    12b8:	00369693          	slli	a3,a3,0x3
    12bc:	00078793          	addi	a5,a5,0 # 0 <set_key>
    12c0:	00f687b3          	add	a5,a3,a5
    12c4:	0007b683          	ld	a3,0(a5)
    12c8:	fe043783          	ld	a5,-32(s0)
    12cc:	0087d793          	srli	a5,a5,0x8
    12d0:	0ff7f793          	andi	a5,a5,255
    12d4:	0007861b          	addiw	a2,a5,0
    12d8:	000007b7          	lui	a5,0x0
    12dc:	10060613          	addi	a2,a2,256
    12e0:	00361613          	slli	a2,a2,0x3
    12e4:	00078793          	addi	a5,a5,0 # 0 <set_key>
    12e8:	00f607b3          	add	a5,a2,a5
    12ec:	0007b783          	ld	a5,0(a5)
    12f0:	00f6c6b3          	xor	a3,a3,a5
    12f4:	fc843783          	ld	a5,-56(s0)
    12f8:	0107d793          	srli	a5,a5,0x10
    12fc:	0ff7f793          	andi	a5,a5,255
    1300:	0007861b          	addiw	a2,a5,0
    1304:	000007b7          	lui	a5,0x0
    1308:	20060613          	addi	a2,a2,512
    130c:	00361613          	slli	a2,a2,0x3
    1310:	00078793          	addi	a5,a5,0 # 0 <set_key>
    1314:	00f607b3          	add	a5,a2,a5
    1318:	0007b783          	ld	a5,0(a5)
    131c:	00f6c6b3          	xor	a3,a3,a5
    1320:	fd043783          	ld	a5,-48(s0)
    1324:	0187d793          	srli	a5,a5,0x18
    1328:	0ff7f793          	andi	a5,a5,255
    132c:	0007861b          	addiw	a2,a5,0
    1330:	000007b7          	lui	a5,0x0
    1334:	30060613          	addi	a2,a2,768
    1338:	00361613          	slli	a2,a2,0x3
    133c:	00078793          	addi	a5,a5,0 # 0 <set_key>
    1340:	00f607b3          	add	a5,a2,a5
    1344:	0007b783          	ld	a5,0(a5)
    1348:	00f6c7b3          	xor	a5,a3,a5
    134c:	00f747b3          	xor	a5,a4,a5
    1350:	faf43c23          	sd	a5,-72(s0)
    1354:	fe843783          	ld	a5,-24(s0)
    1358:	03878793          	addi	a5,a5,56
    135c:	0007b703          	ld	a4,0(a5)
    1360:	fe043783          	ld	a5,-32(s0)
    1364:	0ff7f793          	andi	a5,a5,255
    1368:	0007869b          	addiw	a3,a5,0
    136c:	000007b7          	lui	a5,0x0
    1370:	00369693          	slli	a3,a3,0x3
    1374:	00078793          	addi	a5,a5,0 # 0 <set_key>
    1378:	00f687b3          	add	a5,a3,a5
    137c:	0007b683          	ld	a3,0(a5)
    1380:	fc843783          	ld	a5,-56(s0)
    1384:	0087d793          	srli	a5,a5,0x8
    1388:	0ff7f793          	andi	a5,a5,255
    138c:	0007861b          	addiw	a2,a5,0
    1390:	000007b7          	lui	a5,0x0
    1394:	10060613          	addi	a2,a2,256
    1398:	00361613          	slli	a2,a2,0x3
    139c:	00078793          	addi	a5,a5,0 # 0 <set_key>
    13a0:	00f607b3          	add	a5,a2,a5
    13a4:	0007b783          	ld	a5,0(a5)
    13a8:	00f6c6b3          	xor	a3,a3,a5
    13ac:	fd043783          	ld	a5,-48(s0)
    13b0:	0107d793          	srli	a5,a5,0x10
    13b4:	0ff7f793          	andi	a5,a5,255
    13b8:	0007861b          	addiw	a2,a5,0
    13bc:	000007b7          	lui	a5,0x0
    13c0:	20060613          	addi	a2,a2,512
    13c4:	00361613          	slli	a2,a2,0x3
    13c8:	00078793          	addi	a5,a5,0 # 0 <set_key>
    13cc:	00f607b3          	add	a5,a2,a5
    13d0:	0007b783          	ld	a5,0(a5)
    13d4:	00f6c6b3          	xor	a3,a3,a5
    13d8:	fd843783          	ld	a5,-40(s0)
    13dc:	0187d793          	srli	a5,a5,0x18
    13e0:	0ff7f793          	andi	a5,a5,255
    13e4:	0007861b          	addiw	a2,a5,0
    13e8:	000007b7          	lui	a5,0x0
    13ec:	30060613          	addi	a2,a2,768
    13f0:	00361613          	slli	a2,a2,0x3
    13f4:	00078793          	addi	a5,a5,0 # 0 <set_key>
    13f8:	00f607b3          	add	a5,a2,a5
    13fc:	0007b783          	ld	a5,0(a5)
    1400:	00f6c7b3          	xor	a5,a3,a5
    1404:	00f747b3          	xor	a5,a4,a5
    1408:	fcf43023          	sd	a5,-64(s0)
    140c:	fe843783          	ld	a5,-24(s0)
    1410:	04078793          	addi	a5,a5,64
    1414:	fef43423          	sd	a5,-24(s0)

0000000000001418 <.L22>:
    1418:	fe843783          	ld	a5,-24(s0)
    141c:	0007b703          	ld	a4,0(a5)
    1420:	fa843783          	ld	a5,-88(s0)
    1424:	0ff7f793          	andi	a5,a5,255
    1428:	0007869b          	addiw	a3,a5,0
    142c:	000007b7          	lui	a5,0x0
    1430:	00369693          	slli	a3,a3,0x3
    1434:	00078793          	addi	a5,a5,0 # 0 <set_key>
    1438:	00f687b3          	add	a5,a3,a5
    143c:	0007b683          	ld	a3,0(a5)
    1440:	fb043783          	ld	a5,-80(s0)
    1444:	0087d793          	srli	a5,a5,0x8
    1448:	0ff7f793          	andi	a5,a5,255
    144c:	0007861b          	addiw	a2,a5,0
    1450:	000007b7          	lui	a5,0x0
    1454:	10060613          	addi	a2,a2,256
    1458:	00361613          	slli	a2,a2,0x3
    145c:	00078793          	addi	a5,a5,0 # 0 <set_key>
    1460:	00f607b3          	add	a5,a2,a5
    1464:	0007b783          	ld	a5,0(a5)
    1468:	00f6c6b3          	xor	a3,a3,a5
    146c:	fb843783          	ld	a5,-72(s0)
    1470:	0107d793          	srli	a5,a5,0x10
    1474:	0ff7f793          	andi	a5,a5,255
    1478:	0007861b          	addiw	a2,a5,0
    147c:	000007b7          	lui	a5,0x0
    1480:	20060613          	addi	a2,a2,512
    1484:	00361613          	slli	a2,a2,0x3
    1488:	00078793          	addi	a5,a5,0 # 0 <set_key>
    148c:	00f607b3          	add	a5,a2,a5
    1490:	0007b783          	ld	a5,0(a5)
    1494:	00f6c6b3          	xor	a3,a3,a5
    1498:	fc043783          	ld	a5,-64(s0)
    149c:	0187d793          	srli	a5,a5,0x18
    14a0:	0ff7f793          	andi	a5,a5,255
    14a4:	0007861b          	addiw	a2,a5,0
    14a8:	000007b7          	lui	a5,0x0
    14ac:	30060613          	addi	a2,a2,768
    14b0:	00361613          	slli	a2,a2,0x3
    14b4:	00078793          	addi	a5,a5,0 # 0 <set_key>
    14b8:	00f607b3          	add	a5,a2,a5
    14bc:	0007b783          	ld	a5,0(a5)
    14c0:	00f6c7b3          	xor	a5,a3,a5
    14c4:	00f747b3          	xor	a5,a4,a5
    14c8:	fcf43423          	sd	a5,-56(s0)
    14cc:	fe843783          	ld	a5,-24(s0)
    14d0:	00878793          	addi	a5,a5,8
    14d4:	0007b703          	ld	a4,0(a5)
    14d8:	fb043783          	ld	a5,-80(s0)
    14dc:	0ff7f793          	andi	a5,a5,255
    14e0:	0007869b          	addiw	a3,a5,0
    14e4:	000007b7          	lui	a5,0x0
    14e8:	00369693          	slli	a3,a3,0x3
    14ec:	00078793          	addi	a5,a5,0 # 0 <set_key>
    14f0:	00f687b3          	add	a5,a3,a5
    14f4:	0007b683          	ld	a3,0(a5)
    14f8:	fb843783          	ld	a5,-72(s0)
    14fc:	0087d793          	srli	a5,a5,0x8
    1500:	0ff7f793          	andi	a5,a5,255
    1504:	0007861b          	addiw	a2,a5,0
    1508:	000007b7          	lui	a5,0x0
    150c:	10060613          	addi	a2,a2,256
    1510:	00361613          	slli	a2,a2,0x3
    1514:	00078793          	addi	a5,a5,0 # 0 <set_key>
    1518:	00f607b3          	add	a5,a2,a5
    151c:	0007b783          	ld	a5,0(a5)
    1520:	00f6c6b3          	xor	a3,a3,a5
    1524:	fc043783          	ld	a5,-64(s0)
    1528:	0107d793          	srli	a5,a5,0x10
    152c:	0ff7f793          	andi	a5,a5,255
    1530:	0007861b          	addiw	a2,a5,0
    1534:	000007b7          	lui	a5,0x0
    1538:	20060613          	addi	a2,a2,512
    153c:	00361613          	slli	a2,a2,0x3
    1540:	00078793          	addi	a5,a5,0 # 0 <set_key>
    1544:	00f607b3          	add	a5,a2,a5
    1548:	0007b783          	ld	a5,0(a5)
    154c:	00f6c6b3          	xor	a3,a3,a5
    1550:	fa843783          	ld	a5,-88(s0)
    1554:	0187d793          	srli	a5,a5,0x18
    1558:	0ff7f793          	andi	a5,a5,255
    155c:	0007861b          	addiw	a2,a5,0
    1560:	000007b7          	lui	a5,0x0
    1564:	30060613          	addi	a2,a2,768
    1568:	00361613          	slli	a2,a2,0x3
    156c:	00078793          	addi	a5,a5,0 # 0 <set_key>
    1570:	00f607b3          	add	a5,a2,a5
    1574:	0007b783          	ld	a5,0(a5)
    1578:	00f6c7b3          	xor	a5,a3,a5
    157c:	00f747b3          	xor	a5,a4,a5
    1580:	fcf43823          	sd	a5,-48(s0)
    1584:	fe843783          	ld	a5,-24(s0)
    1588:	01078793          	addi	a5,a5,16
    158c:	0007b703          	ld	a4,0(a5)
    1590:	fb843783          	ld	a5,-72(s0)
    1594:	0ff7f793          	andi	a5,a5,255
    1598:	0007869b          	addiw	a3,a5,0
    159c:	000007b7          	lui	a5,0x0
    15a0:	00369693          	slli	a3,a3,0x3
    15a4:	00078793          	addi	a5,a5,0 # 0 <set_key>
    15a8:	00f687b3          	add	a5,a3,a5
    15ac:	0007b683          	ld	a3,0(a5)
    15b0:	fc043783          	ld	a5,-64(s0)
    15b4:	0087d793          	srli	a5,a5,0x8
    15b8:	0ff7f793          	andi	a5,a5,255
    15bc:	0007861b          	addiw	a2,a5,0
    15c0:	000007b7          	lui	a5,0x0
    15c4:	10060613          	addi	a2,a2,256
    15c8:	00361613          	slli	a2,a2,0x3
    15cc:	00078793          	addi	a5,a5,0 # 0 <set_key>
    15d0:	00f607b3          	add	a5,a2,a5
    15d4:	0007b783          	ld	a5,0(a5)
    15d8:	00f6c6b3          	xor	a3,a3,a5
    15dc:	fa843783          	ld	a5,-88(s0)
    15e0:	0107d793          	srli	a5,a5,0x10
    15e4:	0ff7f793          	andi	a5,a5,255
    15e8:	0007861b          	addiw	a2,a5,0
    15ec:	000007b7          	lui	a5,0x0
    15f0:	20060613          	addi	a2,a2,512
    15f4:	00361613          	slli	a2,a2,0x3
    15f8:	00078793          	addi	a5,a5,0 # 0 <set_key>
    15fc:	00f607b3          	add	a5,a2,a5
    1600:	0007b783          	ld	a5,0(a5)
    1604:	00f6c6b3          	xor	a3,a3,a5
    1608:	fb043783          	ld	a5,-80(s0)
    160c:	0187d793          	srli	a5,a5,0x18
    1610:	0ff7f793          	andi	a5,a5,255
    1614:	0007861b          	addiw	a2,a5,0
    1618:	000007b7          	lui	a5,0x0
    161c:	30060613          	addi	a2,a2,768
    1620:	00361613          	slli	a2,a2,0x3
    1624:	00078793          	addi	a5,a5,0 # 0 <set_key>
    1628:	00f607b3          	add	a5,a2,a5
    162c:	0007b783          	ld	a5,0(a5)
    1630:	00f6c7b3          	xor	a5,a3,a5
    1634:	00f747b3          	xor	a5,a4,a5
    1638:	fcf43c23          	sd	a5,-40(s0)
    163c:	fe843783          	ld	a5,-24(s0)
    1640:	01878793          	addi	a5,a5,24
    1644:	0007b703          	ld	a4,0(a5)
    1648:	fc043783          	ld	a5,-64(s0)
    164c:	0ff7f793          	andi	a5,a5,255
    1650:	0007869b          	addiw	a3,a5,0
    1654:	000007b7          	lui	a5,0x0
    1658:	00369693          	slli	a3,a3,0x3
    165c:	00078793          	addi	a5,a5,0 # 0 <set_key>
    1660:	00f687b3          	add	a5,a3,a5
    1664:	0007b683          	ld	a3,0(a5)
    1668:	fa843783          	ld	a5,-88(s0)
    166c:	0087d793          	srli	a5,a5,0x8
    1670:	0ff7f793          	andi	a5,a5,255
    1674:	0007861b          	addiw	a2,a5,0
    1678:	000007b7          	lui	a5,0x0
    167c:	10060613          	addi	a2,a2,256
    1680:	00361613          	slli	a2,a2,0x3
    1684:	00078793          	addi	a5,a5,0 # 0 <set_key>
    1688:	00f607b3          	add	a5,a2,a5
    168c:	0007b783          	ld	a5,0(a5)
    1690:	00f6c6b3          	xor	a3,a3,a5
    1694:	fb043783          	ld	a5,-80(s0)
    1698:	0107d793          	srli	a5,a5,0x10
    169c:	0ff7f793          	andi	a5,a5,255
    16a0:	0007861b          	addiw	a2,a5,0
    16a4:	000007b7          	lui	a5,0x0
    16a8:	20060613          	addi	a2,a2,512
    16ac:	00361613          	slli	a2,a2,0x3
    16b0:	00078793          	addi	a5,a5,0 # 0 <set_key>
    16b4:	00f607b3          	add	a5,a2,a5
    16b8:	0007b783          	ld	a5,0(a5)
    16bc:	00f6c6b3          	xor	a3,a3,a5
    16c0:	fb843783          	ld	a5,-72(s0)
    16c4:	0187d793          	srli	a5,a5,0x18
    16c8:	0ff7f793          	andi	a5,a5,255
    16cc:	0007861b          	addiw	a2,a5,0
    16d0:	000007b7          	lui	a5,0x0
    16d4:	30060613          	addi	a2,a2,768
    16d8:	00361613          	slli	a2,a2,0x3
    16dc:	00078793          	addi	a5,a5,0 # 0 <set_key>
    16e0:	00f607b3          	add	a5,a2,a5
    16e4:	0007b783          	ld	a5,0(a5)
    16e8:	00f6c7b3          	xor	a5,a3,a5
    16ec:	00f747b3          	xor	a5,a4,a5
    16f0:	fef43023          	sd	a5,-32(s0)
    16f4:	fe843783          	ld	a5,-24(s0)
    16f8:	02078793          	addi	a5,a5,32
    16fc:	0007b703          	ld	a4,0(a5)
    1700:	fc843783          	ld	a5,-56(s0)
    1704:	0ff7f793          	andi	a5,a5,255
    1708:	0007869b          	addiw	a3,a5,0
    170c:	000007b7          	lui	a5,0x0
    1710:	00369693          	slli	a3,a3,0x3
    1714:	00078793          	addi	a5,a5,0 # 0 <set_key>
    1718:	00f687b3          	add	a5,a3,a5
    171c:	0007b683          	ld	a3,0(a5)
    1720:	fd043783          	ld	a5,-48(s0)
    1724:	0087d793          	srli	a5,a5,0x8
    1728:	0ff7f793          	andi	a5,a5,255
    172c:	0007861b          	addiw	a2,a5,0
    1730:	000007b7          	lui	a5,0x0
    1734:	10060613          	addi	a2,a2,256
    1738:	00361613          	slli	a2,a2,0x3
    173c:	00078793          	addi	a5,a5,0 # 0 <set_key>
    1740:	00f607b3          	add	a5,a2,a5
    1744:	0007b783          	ld	a5,0(a5)
    1748:	00f6c6b3          	xor	a3,a3,a5
    174c:	fd843783          	ld	a5,-40(s0)
    1750:	0107d793          	srli	a5,a5,0x10
    1754:	0ff7f793          	andi	a5,a5,255
    1758:	0007861b          	addiw	a2,a5,0
    175c:	000007b7          	lui	a5,0x0
    1760:	20060613          	addi	a2,a2,512
    1764:	00361613          	slli	a2,a2,0x3
    1768:	00078793          	addi	a5,a5,0 # 0 <set_key>
    176c:	00f607b3          	add	a5,a2,a5
    1770:	0007b783          	ld	a5,0(a5)
    1774:	00f6c6b3          	xor	a3,a3,a5
    1778:	fe043783          	ld	a5,-32(s0)
    177c:	0187d793          	srli	a5,a5,0x18
    1780:	0ff7f793          	andi	a5,a5,255
    1784:	0007861b          	addiw	a2,a5,0
    1788:	000007b7          	lui	a5,0x0
    178c:	30060613          	addi	a2,a2,768
    1790:	00361613          	slli	a2,a2,0x3
    1794:	00078793          	addi	a5,a5,0 # 0 <set_key>
    1798:	00f607b3          	add	a5,a2,a5
    179c:	0007b783          	ld	a5,0(a5)
    17a0:	00f6c7b3          	xor	a5,a3,a5
    17a4:	00f747b3          	xor	a5,a4,a5
    17a8:	faf43423          	sd	a5,-88(s0)
    17ac:	fe843783          	ld	a5,-24(s0)
    17b0:	02878793          	addi	a5,a5,40
    17b4:	0007b703          	ld	a4,0(a5)
    17b8:	fd043783          	ld	a5,-48(s0)
    17bc:	0ff7f793          	andi	a5,a5,255
    17c0:	0007869b          	addiw	a3,a5,0
    17c4:	000007b7          	lui	a5,0x0
    17c8:	00369693          	slli	a3,a3,0x3
    17cc:	00078793          	addi	a5,a5,0 # 0 <set_key>
    17d0:	00f687b3          	add	a5,a3,a5
    17d4:	0007b683          	ld	a3,0(a5)
    17d8:	fd843783          	ld	a5,-40(s0)
    17dc:	0087d793          	srli	a5,a5,0x8
    17e0:	0ff7f793          	andi	a5,a5,255
    17e4:	0007861b          	addiw	a2,a5,0
    17e8:	000007b7          	lui	a5,0x0
    17ec:	10060613          	addi	a2,a2,256
    17f0:	00361613          	slli	a2,a2,0x3
    17f4:	00078793          	addi	a5,a5,0 # 0 <set_key>
    17f8:	00f607b3          	add	a5,a2,a5
    17fc:	0007b783          	ld	a5,0(a5)
    1800:	00f6c6b3          	xor	a3,a3,a5
    1804:	fe043783          	ld	a5,-32(s0)
    1808:	0107d793          	srli	a5,a5,0x10
    180c:	0ff7f793          	andi	a5,a5,255
    1810:	0007861b          	addiw	a2,a5,0
    1814:	000007b7          	lui	a5,0x0
    1818:	20060613          	addi	a2,a2,512
    181c:	00361613          	slli	a2,a2,0x3
    1820:	00078793          	addi	a5,a5,0 # 0 <set_key>
    1824:	00f607b3          	add	a5,a2,a5
    1828:	0007b783          	ld	a5,0(a5)
    182c:	00f6c6b3          	xor	a3,a3,a5
    1830:	fc843783          	ld	a5,-56(s0)
    1834:	0187d793          	srli	a5,a5,0x18
    1838:	0ff7f793          	andi	a5,a5,255
    183c:	0007861b          	addiw	a2,a5,0
    1840:	000007b7          	lui	a5,0x0
    1844:	30060613          	addi	a2,a2,768
    1848:	00361613          	slli	a2,a2,0x3
    184c:	00078793          	addi	a5,a5,0 # 0 <set_key>
    1850:	00f607b3          	add	a5,a2,a5
    1854:	0007b783          	ld	a5,0(a5)
    1858:	00f6c7b3          	xor	a5,a3,a5
    185c:	00f747b3          	xor	a5,a4,a5
    1860:	faf43823          	sd	a5,-80(s0)
    1864:	fe843783          	ld	a5,-24(s0)
    1868:	03078793          	addi	a5,a5,48
    186c:	0007b703          	ld	a4,0(a5)
    1870:	fd843783          	ld	a5,-40(s0)
    1874:	0ff7f793          	andi	a5,a5,255
    1878:	0007869b          	addiw	a3,a5,0
    187c:	000007b7          	lui	a5,0x0
    1880:	00369693          	slli	a3,a3,0x3
    1884:	00078793          	addi	a5,a5,0 # 0 <set_key>
    1888:	00f687b3          	add	a5,a3,a5
    188c:	0007b683          	ld	a3,0(a5)
    1890:	fe043783          	ld	a5,-32(s0)
    1894:	0087d793          	srli	a5,a5,0x8
    1898:	0ff7f793          	andi	a5,a5,255
    189c:	0007861b          	addiw	a2,a5,0
    18a0:	000007b7          	lui	a5,0x0
    18a4:	10060613          	addi	a2,a2,256
    18a8:	00361613          	slli	a2,a2,0x3
    18ac:	00078793          	addi	a5,a5,0 # 0 <set_key>
    18b0:	00f607b3          	add	a5,a2,a5
    18b4:	0007b783          	ld	a5,0(a5)
    18b8:	00f6c6b3          	xor	a3,a3,a5
    18bc:	fc843783          	ld	a5,-56(s0)
    18c0:	0107d793          	srli	a5,a5,0x10
    18c4:	0ff7f793          	andi	a5,a5,255
    18c8:	0007861b          	addiw	a2,a5,0
    18cc:	000007b7          	lui	a5,0x0
    18d0:	20060613          	addi	a2,a2,512
    18d4:	00361613          	slli	a2,a2,0x3
    18d8:	00078793          	addi	a5,a5,0 # 0 <set_key>
    18dc:	00f607b3          	add	a5,a2,a5
    18e0:	0007b783          	ld	a5,0(a5)
    18e4:	00f6c6b3          	xor	a3,a3,a5
    18e8:	fd043783          	ld	a5,-48(s0)
    18ec:	0187d793          	srli	a5,a5,0x18
    18f0:	0ff7f793          	andi	a5,a5,255
    18f4:	0007861b          	addiw	a2,a5,0
    18f8:	000007b7          	lui	a5,0x0
    18fc:	30060613          	addi	a2,a2,768
    1900:	00361613          	slli	a2,a2,0x3
    1904:	00078793          	addi	a5,a5,0 # 0 <set_key>
    1908:	00f607b3          	add	a5,a2,a5
    190c:	0007b783          	ld	a5,0(a5)
    1910:	00f6c7b3          	xor	a5,a3,a5
    1914:	00f747b3          	xor	a5,a4,a5
    1918:	faf43c23          	sd	a5,-72(s0)
    191c:	fe843783          	ld	a5,-24(s0)
    1920:	03878793          	addi	a5,a5,56
    1924:	0007b703          	ld	a4,0(a5)
    1928:	fe043783          	ld	a5,-32(s0)
    192c:	0ff7f793          	andi	a5,a5,255
    1930:	0007869b          	addiw	a3,a5,0
    1934:	000007b7          	lui	a5,0x0
    1938:	00369693          	slli	a3,a3,0x3
    193c:	00078793          	addi	a5,a5,0 # 0 <set_key>
    1940:	00f687b3          	add	a5,a3,a5
    1944:	0007b683          	ld	a3,0(a5)
    1948:	fc843783          	ld	a5,-56(s0)
    194c:	0087d793          	srli	a5,a5,0x8
    1950:	0ff7f793          	andi	a5,a5,255
    1954:	0007861b          	addiw	a2,a5,0
    1958:	000007b7          	lui	a5,0x0
    195c:	10060613          	addi	a2,a2,256
    1960:	00361613          	slli	a2,a2,0x3
    1964:	00078793          	addi	a5,a5,0 # 0 <set_key>
    1968:	00f607b3          	add	a5,a2,a5
    196c:	0007b783          	ld	a5,0(a5)
    1970:	00f6c6b3          	xor	a3,a3,a5
    1974:	fd043783          	ld	a5,-48(s0)
    1978:	0107d793          	srli	a5,a5,0x10
    197c:	0ff7f793          	andi	a5,a5,255
    1980:	0007861b          	addiw	a2,a5,0
    1984:	000007b7          	lui	a5,0x0
    1988:	20060613          	addi	a2,a2,512
    198c:	00361613          	slli	a2,a2,0x3
    1990:	00078793          	addi	a5,a5,0 # 0 <set_key>
    1994:	00f607b3          	add	a5,a2,a5
    1998:	0007b783          	ld	a5,0(a5)
    199c:	00f6c6b3          	xor	a3,a3,a5
    19a0:	fd843783          	ld	a5,-40(s0)
    19a4:	0187d793          	srli	a5,a5,0x18
    19a8:	0ff7f793          	andi	a5,a5,255
    19ac:	0007861b          	addiw	a2,a5,0
    19b0:	000007b7          	lui	a5,0x0
    19b4:	30060613          	addi	a2,a2,768
    19b8:	00361613          	slli	a2,a2,0x3
    19bc:	00078793          	addi	a5,a5,0 # 0 <set_key>
    19c0:	00f607b3          	add	a5,a2,a5
    19c4:	0007b783          	ld	a5,0(a5)
    19c8:	00f6c7b3          	xor	a5,a3,a5
    19cc:	00f747b3          	xor	a5,a4,a5
    19d0:	fcf43023          	sd	a5,-64(s0)
    19d4:	fe843783          	ld	a5,-24(s0)
    19d8:	04078793          	addi	a5,a5,64
    19dc:	fef43423          	sd	a5,-24(s0)

00000000000019e0 <.L24>:
    19e0:	fe843783          	ld	a5,-24(s0)
    19e4:	0007b703          	ld	a4,0(a5)
    19e8:	fa843783          	ld	a5,-88(s0)
    19ec:	0ff7f793          	andi	a5,a5,255
    19f0:	0007869b          	addiw	a3,a5,0
    19f4:	000007b7          	lui	a5,0x0
    19f8:	00369693          	slli	a3,a3,0x3
    19fc:	00078793          	addi	a5,a5,0 # 0 <set_key>
    1a00:	00f687b3          	add	a5,a3,a5
    1a04:	0007b683          	ld	a3,0(a5)
    1a08:	fb043783          	ld	a5,-80(s0)
    1a0c:	0087d793          	srli	a5,a5,0x8
    1a10:	0ff7f793          	andi	a5,a5,255
    1a14:	0007861b          	addiw	a2,a5,0
    1a18:	000007b7          	lui	a5,0x0
    1a1c:	10060613          	addi	a2,a2,256
    1a20:	00361613          	slli	a2,a2,0x3
    1a24:	00078793          	addi	a5,a5,0 # 0 <set_key>
    1a28:	00f607b3          	add	a5,a2,a5
    1a2c:	0007b783          	ld	a5,0(a5)
    1a30:	00f6c6b3          	xor	a3,a3,a5
    1a34:	fb843783          	ld	a5,-72(s0)
    1a38:	0107d793          	srli	a5,a5,0x10
    1a3c:	0ff7f793          	andi	a5,a5,255
    1a40:	0007861b          	addiw	a2,a5,0
    1a44:	000007b7          	lui	a5,0x0
    1a48:	20060613          	addi	a2,a2,512
    1a4c:	00361613          	slli	a2,a2,0x3
    1a50:	00078793          	addi	a5,a5,0 # 0 <set_key>
    1a54:	00f607b3          	add	a5,a2,a5
    1a58:	0007b783          	ld	a5,0(a5)
    1a5c:	00f6c6b3          	xor	a3,a3,a5
    1a60:	fc043783          	ld	a5,-64(s0)
    1a64:	0187d793          	srli	a5,a5,0x18
    1a68:	0ff7f793          	andi	a5,a5,255
    1a6c:	0007861b          	addiw	a2,a5,0
    1a70:	000007b7          	lui	a5,0x0
    1a74:	30060613          	addi	a2,a2,768
    1a78:	00361613          	slli	a2,a2,0x3
    1a7c:	00078793          	addi	a5,a5,0 # 0 <set_key>
    1a80:	00f607b3          	add	a5,a2,a5
    1a84:	0007b783          	ld	a5,0(a5)
    1a88:	00f6c7b3          	xor	a5,a3,a5
    1a8c:	00f747b3          	xor	a5,a4,a5
    1a90:	fcf43423          	sd	a5,-56(s0)
    1a94:	fe843783          	ld	a5,-24(s0)
    1a98:	00878793          	addi	a5,a5,8
    1a9c:	0007b703          	ld	a4,0(a5)
    1aa0:	fb043783          	ld	a5,-80(s0)
    1aa4:	0ff7f793          	andi	a5,a5,255
    1aa8:	0007869b          	addiw	a3,a5,0
    1aac:	000007b7          	lui	a5,0x0
    1ab0:	00369693          	slli	a3,a3,0x3
    1ab4:	00078793          	addi	a5,a5,0 # 0 <set_key>
    1ab8:	00f687b3          	add	a5,a3,a5
    1abc:	0007b683          	ld	a3,0(a5)
    1ac0:	fb843783          	ld	a5,-72(s0)
    1ac4:	0087d793          	srli	a5,a5,0x8
    1ac8:	0ff7f793          	andi	a5,a5,255
    1acc:	0007861b          	addiw	a2,a5,0
    1ad0:	000007b7          	lui	a5,0x0
    1ad4:	10060613          	addi	a2,a2,256
    1ad8:	00361613          	slli	a2,a2,0x3
    1adc:	00078793          	addi	a5,a5,0 # 0 <set_key>
    1ae0:	00f607b3          	add	a5,a2,a5
    1ae4:	0007b783          	ld	a5,0(a5)
    1ae8:	00f6c6b3          	xor	a3,a3,a5
    1aec:	fc043783          	ld	a5,-64(s0)
    1af0:	0107d793          	srli	a5,a5,0x10
    1af4:	0ff7f793          	andi	a5,a5,255
    1af8:	0007861b          	addiw	a2,a5,0
    1afc:	000007b7          	lui	a5,0x0
    1b00:	20060613          	addi	a2,a2,512
    1b04:	00361613          	slli	a2,a2,0x3
    1b08:	00078793          	addi	a5,a5,0 # 0 <set_key>
    1b0c:	00f607b3          	add	a5,a2,a5
    1b10:	0007b783          	ld	a5,0(a5)
    1b14:	00f6c6b3          	xor	a3,a3,a5
    1b18:	fa843783          	ld	a5,-88(s0)
    1b1c:	0187d793          	srli	a5,a5,0x18
    1b20:	0ff7f793          	andi	a5,a5,255
    1b24:	0007861b          	addiw	a2,a5,0
    1b28:	000007b7          	lui	a5,0x0
    1b2c:	30060613          	addi	a2,a2,768
    1b30:	00361613          	slli	a2,a2,0x3
    1b34:	00078793          	addi	a5,a5,0 # 0 <set_key>
    1b38:	00f607b3          	add	a5,a2,a5
    1b3c:	0007b783          	ld	a5,0(a5)
    1b40:	00f6c7b3          	xor	a5,a3,a5
    1b44:	00f747b3          	xor	a5,a4,a5
    1b48:	fcf43823          	sd	a5,-48(s0)
    1b4c:	fe843783          	ld	a5,-24(s0)
    1b50:	01078793          	addi	a5,a5,16
    1b54:	0007b703          	ld	a4,0(a5)
    1b58:	fb843783          	ld	a5,-72(s0)
    1b5c:	0ff7f793          	andi	a5,a5,255
    1b60:	0007869b          	addiw	a3,a5,0
    1b64:	000007b7          	lui	a5,0x0
    1b68:	00369693          	slli	a3,a3,0x3
    1b6c:	00078793          	addi	a5,a5,0 # 0 <set_key>
    1b70:	00f687b3          	add	a5,a3,a5
    1b74:	0007b683          	ld	a3,0(a5)
    1b78:	fc043783          	ld	a5,-64(s0)
    1b7c:	0087d793          	srli	a5,a5,0x8
    1b80:	0ff7f793          	andi	a5,a5,255
    1b84:	0007861b          	addiw	a2,a5,0
    1b88:	000007b7          	lui	a5,0x0
    1b8c:	10060613          	addi	a2,a2,256
    1b90:	00361613          	slli	a2,a2,0x3
    1b94:	00078793          	addi	a5,a5,0 # 0 <set_key>
    1b98:	00f607b3          	add	a5,a2,a5
    1b9c:	0007b783          	ld	a5,0(a5)
    1ba0:	00f6c6b3          	xor	a3,a3,a5
    1ba4:	fa843783          	ld	a5,-88(s0)
    1ba8:	0107d793          	srli	a5,a5,0x10
    1bac:	0ff7f793          	andi	a5,a5,255
    1bb0:	0007861b          	addiw	a2,a5,0
    1bb4:	000007b7          	lui	a5,0x0
    1bb8:	20060613          	addi	a2,a2,512
    1bbc:	00361613          	slli	a2,a2,0x3
    1bc0:	00078793          	addi	a5,a5,0 # 0 <set_key>
    1bc4:	00f607b3          	add	a5,a2,a5
    1bc8:	0007b783          	ld	a5,0(a5)
    1bcc:	00f6c6b3          	xor	a3,a3,a5
    1bd0:	fb043783          	ld	a5,-80(s0)
    1bd4:	0187d793          	srli	a5,a5,0x18
    1bd8:	0ff7f793          	andi	a5,a5,255
    1bdc:	0007861b          	addiw	a2,a5,0
    1be0:	000007b7          	lui	a5,0x0
    1be4:	30060613          	addi	a2,a2,768
    1be8:	00361613          	slli	a2,a2,0x3
    1bec:	00078793          	addi	a5,a5,0 # 0 <set_key>
    1bf0:	00f607b3          	add	a5,a2,a5
    1bf4:	0007b783          	ld	a5,0(a5)
    1bf8:	00f6c7b3          	xor	a5,a3,a5
    1bfc:	00f747b3          	xor	a5,a4,a5
    1c00:	fcf43c23          	sd	a5,-40(s0)
    1c04:	fe843783          	ld	a5,-24(s0)
    1c08:	01878793          	addi	a5,a5,24
    1c0c:	0007b703          	ld	a4,0(a5)
    1c10:	fc043783          	ld	a5,-64(s0)
    1c14:	0ff7f793          	andi	a5,a5,255
    1c18:	0007869b          	addiw	a3,a5,0
    1c1c:	000007b7          	lui	a5,0x0
    1c20:	00369693          	slli	a3,a3,0x3
    1c24:	00078793          	addi	a5,a5,0 # 0 <set_key>
    1c28:	00f687b3          	add	a5,a3,a5
    1c2c:	0007b683          	ld	a3,0(a5)
    1c30:	fa843783          	ld	a5,-88(s0)
    1c34:	0087d793          	srli	a5,a5,0x8
    1c38:	0ff7f793          	andi	a5,a5,255
    1c3c:	0007861b          	addiw	a2,a5,0
    1c40:	000007b7          	lui	a5,0x0
    1c44:	10060613          	addi	a2,a2,256
    1c48:	00361613          	slli	a2,a2,0x3
    1c4c:	00078793          	addi	a5,a5,0 # 0 <set_key>
    1c50:	00f607b3          	add	a5,a2,a5
    1c54:	0007b783          	ld	a5,0(a5)
    1c58:	00f6c6b3          	xor	a3,a3,a5
    1c5c:	fb043783          	ld	a5,-80(s0)
    1c60:	0107d793          	srli	a5,a5,0x10
    1c64:	0ff7f793          	andi	a5,a5,255
    1c68:	0007861b          	addiw	a2,a5,0
    1c6c:	000007b7          	lui	a5,0x0
    1c70:	20060613          	addi	a2,a2,512
    1c74:	00361613          	slli	a2,a2,0x3
    1c78:	00078793          	addi	a5,a5,0 # 0 <set_key>
    1c7c:	00f607b3          	add	a5,a2,a5
    1c80:	0007b783          	ld	a5,0(a5)
    1c84:	00f6c6b3          	xor	a3,a3,a5
    1c88:	fb843783          	ld	a5,-72(s0)
    1c8c:	0187d793          	srli	a5,a5,0x18
    1c90:	0ff7f793          	andi	a5,a5,255
    1c94:	0007861b          	addiw	a2,a5,0
    1c98:	000007b7          	lui	a5,0x0
    1c9c:	30060613          	addi	a2,a2,768
    1ca0:	00361613          	slli	a2,a2,0x3
    1ca4:	00078793          	addi	a5,a5,0 # 0 <set_key>
    1ca8:	00f607b3          	add	a5,a2,a5
    1cac:	0007b783          	ld	a5,0(a5)
    1cb0:	00f6c7b3          	xor	a5,a3,a5
    1cb4:	00f747b3          	xor	a5,a4,a5
    1cb8:	fef43023          	sd	a5,-32(s0)
    1cbc:	fe843783          	ld	a5,-24(s0)
    1cc0:	02078793          	addi	a5,a5,32
    1cc4:	0007b703          	ld	a4,0(a5)
    1cc8:	fc843783          	ld	a5,-56(s0)
    1ccc:	0ff7f793          	andi	a5,a5,255
    1cd0:	0007869b          	addiw	a3,a5,0
    1cd4:	000007b7          	lui	a5,0x0
    1cd8:	00369693          	slli	a3,a3,0x3
    1cdc:	00078793          	addi	a5,a5,0 # 0 <set_key>
    1ce0:	00f687b3          	add	a5,a3,a5
    1ce4:	0007b683          	ld	a3,0(a5)
    1ce8:	fd043783          	ld	a5,-48(s0)
    1cec:	0087d793          	srli	a5,a5,0x8
    1cf0:	0ff7f793          	andi	a5,a5,255
    1cf4:	0007861b          	addiw	a2,a5,0
    1cf8:	000007b7          	lui	a5,0x0
    1cfc:	10060613          	addi	a2,a2,256
    1d00:	00361613          	slli	a2,a2,0x3
    1d04:	00078793          	addi	a5,a5,0 # 0 <set_key>
    1d08:	00f607b3          	add	a5,a2,a5
    1d0c:	0007b783          	ld	a5,0(a5)
    1d10:	00f6c6b3          	xor	a3,a3,a5
    1d14:	fd843783          	ld	a5,-40(s0)
    1d18:	0107d793          	srli	a5,a5,0x10
    1d1c:	0ff7f793          	andi	a5,a5,255
    1d20:	0007861b          	addiw	a2,a5,0
    1d24:	000007b7          	lui	a5,0x0
    1d28:	20060613          	addi	a2,a2,512
    1d2c:	00361613          	slli	a2,a2,0x3
    1d30:	00078793          	addi	a5,a5,0 # 0 <set_key>
    1d34:	00f607b3          	add	a5,a2,a5
    1d38:	0007b783          	ld	a5,0(a5)
    1d3c:	00f6c6b3          	xor	a3,a3,a5
    1d40:	fe043783          	ld	a5,-32(s0)
    1d44:	0187d793          	srli	a5,a5,0x18
    1d48:	0ff7f793          	andi	a5,a5,255
    1d4c:	0007861b          	addiw	a2,a5,0
    1d50:	000007b7          	lui	a5,0x0
    1d54:	30060613          	addi	a2,a2,768
    1d58:	00361613          	slli	a2,a2,0x3
    1d5c:	00078793          	addi	a5,a5,0 # 0 <set_key>
    1d60:	00f607b3          	add	a5,a2,a5
    1d64:	0007b783          	ld	a5,0(a5)
    1d68:	00f6c7b3          	xor	a5,a3,a5
    1d6c:	00f747b3          	xor	a5,a4,a5
    1d70:	faf43423          	sd	a5,-88(s0)
    1d74:	fe843783          	ld	a5,-24(s0)
    1d78:	02878793          	addi	a5,a5,40
    1d7c:	0007b703          	ld	a4,0(a5)
    1d80:	fd043783          	ld	a5,-48(s0)
    1d84:	0ff7f793          	andi	a5,a5,255
    1d88:	0007869b          	addiw	a3,a5,0
    1d8c:	000007b7          	lui	a5,0x0
    1d90:	00369693          	slli	a3,a3,0x3
    1d94:	00078793          	addi	a5,a5,0 # 0 <set_key>
    1d98:	00f687b3          	add	a5,a3,a5
    1d9c:	0007b683          	ld	a3,0(a5)
    1da0:	fd843783          	ld	a5,-40(s0)
    1da4:	0087d793          	srli	a5,a5,0x8
    1da8:	0ff7f793          	andi	a5,a5,255
    1dac:	0007861b          	addiw	a2,a5,0
    1db0:	000007b7          	lui	a5,0x0
    1db4:	10060613          	addi	a2,a2,256
    1db8:	00361613          	slli	a2,a2,0x3
    1dbc:	00078793          	addi	a5,a5,0 # 0 <set_key>
    1dc0:	00f607b3          	add	a5,a2,a5
    1dc4:	0007b783          	ld	a5,0(a5)
    1dc8:	00f6c6b3          	xor	a3,a3,a5
    1dcc:	fe043783          	ld	a5,-32(s0)
    1dd0:	0107d793          	srli	a5,a5,0x10
    1dd4:	0ff7f793          	andi	a5,a5,255
    1dd8:	0007861b          	addiw	a2,a5,0
    1ddc:	000007b7          	lui	a5,0x0
    1de0:	20060613          	addi	a2,a2,512
    1de4:	00361613          	slli	a2,a2,0x3
    1de8:	00078793          	addi	a5,a5,0 # 0 <set_key>
    1dec:	00f607b3          	add	a5,a2,a5
    1df0:	0007b783          	ld	a5,0(a5)
    1df4:	00f6c6b3          	xor	a3,a3,a5
    1df8:	fc843783          	ld	a5,-56(s0)
    1dfc:	0187d793          	srli	a5,a5,0x18
    1e00:	0ff7f793          	andi	a5,a5,255
    1e04:	0007861b          	addiw	a2,a5,0
    1e08:	000007b7          	lui	a5,0x0
    1e0c:	30060613          	addi	a2,a2,768
    1e10:	00361613          	slli	a2,a2,0x3
    1e14:	00078793          	addi	a5,a5,0 # 0 <set_key>
    1e18:	00f607b3          	add	a5,a2,a5
    1e1c:	0007b783          	ld	a5,0(a5)
    1e20:	00f6c7b3          	xor	a5,a3,a5
    1e24:	00f747b3          	xor	a5,a4,a5
    1e28:	faf43823          	sd	a5,-80(s0)
    1e2c:	fe843783          	ld	a5,-24(s0)
    1e30:	03078793          	addi	a5,a5,48
    1e34:	0007b703          	ld	a4,0(a5)
    1e38:	fd843783          	ld	a5,-40(s0)
    1e3c:	0ff7f793          	andi	a5,a5,255
    1e40:	0007869b          	addiw	a3,a5,0
    1e44:	000007b7          	lui	a5,0x0
    1e48:	00369693          	slli	a3,a3,0x3
    1e4c:	00078793          	addi	a5,a5,0 # 0 <set_key>
    1e50:	00f687b3          	add	a5,a3,a5
    1e54:	0007b683          	ld	a3,0(a5)
    1e58:	fe043783          	ld	a5,-32(s0)
    1e5c:	0087d793          	srli	a5,a5,0x8
    1e60:	0ff7f793          	andi	a5,a5,255
    1e64:	0007861b          	addiw	a2,a5,0
    1e68:	000007b7          	lui	a5,0x0
    1e6c:	10060613          	addi	a2,a2,256
    1e70:	00361613          	slli	a2,a2,0x3
    1e74:	00078793          	addi	a5,a5,0 # 0 <set_key>
    1e78:	00f607b3          	add	a5,a2,a5
    1e7c:	0007b783          	ld	a5,0(a5)
    1e80:	00f6c6b3          	xor	a3,a3,a5
    1e84:	fc843783          	ld	a5,-56(s0)
    1e88:	0107d793          	srli	a5,a5,0x10
    1e8c:	0ff7f793          	andi	a5,a5,255
    1e90:	0007861b          	addiw	a2,a5,0
    1e94:	000007b7          	lui	a5,0x0
    1e98:	20060613          	addi	a2,a2,512
    1e9c:	00361613          	slli	a2,a2,0x3
    1ea0:	00078793          	addi	a5,a5,0 # 0 <set_key>
    1ea4:	00f607b3          	add	a5,a2,a5
    1ea8:	0007b783          	ld	a5,0(a5)
    1eac:	00f6c6b3          	xor	a3,a3,a5
    1eb0:	fd043783          	ld	a5,-48(s0)
    1eb4:	0187d793          	srli	a5,a5,0x18
    1eb8:	0ff7f793          	andi	a5,a5,255
    1ebc:	0007861b          	addiw	a2,a5,0
    1ec0:	000007b7          	lui	a5,0x0
    1ec4:	30060613          	addi	a2,a2,768
    1ec8:	00361613          	slli	a2,a2,0x3
    1ecc:	00078793          	addi	a5,a5,0 # 0 <set_key>
    1ed0:	00f607b3          	add	a5,a2,a5
    1ed4:	0007b783          	ld	a5,0(a5)
    1ed8:	00f6c7b3          	xor	a5,a3,a5
    1edc:	00f747b3          	xor	a5,a4,a5
    1ee0:	faf43c23          	sd	a5,-72(s0)
    1ee4:	fe843783          	ld	a5,-24(s0)
    1ee8:	03878793          	addi	a5,a5,56
    1eec:	0007b703          	ld	a4,0(a5)
    1ef0:	fe043783          	ld	a5,-32(s0)
    1ef4:	0ff7f793          	andi	a5,a5,255
    1ef8:	0007869b          	addiw	a3,a5,0
    1efc:	000007b7          	lui	a5,0x0
    1f00:	00369693          	slli	a3,a3,0x3
    1f04:	00078793          	addi	a5,a5,0 # 0 <set_key>
    1f08:	00f687b3          	add	a5,a3,a5
    1f0c:	0007b683          	ld	a3,0(a5)
    1f10:	fc843783          	ld	a5,-56(s0)
    1f14:	0087d793          	srli	a5,a5,0x8
    1f18:	0ff7f793          	andi	a5,a5,255
    1f1c:	0007861b          	addiw	a2,a5,0
    1f20:	000007b7          	lui	a5,0x0
    1f24:	10060613          	addi	a2,a2,256
    1f28:	00361613          	slli	a2,a2,0x3
    1f2c:	00078793          	addi	a5,a5,0 # 0 <set_key>
    1f30:	00f607b3          	add	a5,a2,a5
    1f34:	0007b783          	ld	a5,0(a5)
    1f38:	00f6c6b3          	xor	a3,a3,a5
    1f3c:	fd043783          	ld	a5,-48(s0)
    1f40:	0107d793          	srli	a5,a5,0x10
    1f44:	0ff7f793          	andi	a5,a5,255
    1f48:	0007861b          	addiw	a2,a5,0
    1f4c:	000007b7          	lui	a5,0x0
    1f50:	20060613          	addi	a2,a2,512
    1f54:	00361613          	slli	a2,a2,0x3
    1f58:	00078793          	addi	a5,a5,0 # 0 <set_key>
    1f5c:	00f607b3          	add	a5,a2,a5
    1f60:	0007b783          	ld	a5,0(a5)
    1f64:	00f6c6b3          	xor	a3,a3,a5
    1f68:	fd843783          	ld	a5,-40(s0)
    1f6c:	0187d793          	srli	a5,a5,0x18
    1f70:	0ff7f793          	andi	a5,a5,255
    1f74:	0007861b          	addiw	a2,a5,0
    1f78:	000007b7          	lui	a5,0x0
    1f7c:	30060613          	addi	a2,a2,768
    1f80:	00361613          	slli	a2,a2,0x3
    1f84:	00078793          	addi	a5,a5,0 # 0 <set_key>
    1f88:	00f607b3          	add	a5,a2,a5
    1f8c:	0007b783          	ld	a5,0(a5)
    1f90:	00f6c7b3          	xor	a5,a3,a5
    1f94:	00f747b3          	xor	a5,a4,a5
    1f98:	fcf43023          	sd	a5,-64(s0)
    1f9c:	fe843783          	ld	a5,-24(s0)
    1fa0:	04078793          	addi	a5,a5,64
    1fa4:	0007b703          	ld	a4,0(a5)
    1fa8:	fa843783          	ld	a5,-88(s0)
    1fac:	0ff7f793          	andi	a5,a5,255
    1fb0:	0007869b          	addiw	a3,a5,0
    1fb4:	000007b7          	lui	a5,0x0
    1fb8:	00369693          	slli	a3,a3,0x3
    1fbc:	00078793          	addi	a5,a5,0 # 0 <set_key>
    1fc0:	00f687b3          	add	a5,a3,a5
    1fc4:	0007b683          	ld	a3,0(a5)
    1fc8:	fb043783          	ld	a5,-80(s0)
    1fcc:	0087d793          	srli	a5,a5,0x8
    1fd0:	0ff7f793          	andi	a5,a5,255
    1fd4:	0007861b          	addiw	a2,a5,0
    1fd8:	000007b7          	lui	a5,0x0
    1fdc:	10060613          	addi	a2,a2,256
    1fe0:	00361613          	slli	a2,a2,0x3
    1fe4:	00078793          	addi	a5,a5,0 # 0 <set_key>
    1fe8:	00f607b3          	add	a5,a2,a5
    1fec:	0007b783          	ld	a5,0(a5)
    1ff0:	00f6c6b3          	xor	a3,a3,a5
    1ff4:	fb843783          	ld	a5,-72(s0)
    1ff8:	0107d793          	srli	a5,a5,0x10
    1ffc:	0ff7f793          	andi	a5,a5,255
    2000:	0007861b          	addiw	a2,a5,0
    2004:	000007b7          	lui	a5,0x0
    2008:	20060613          	addi	a2,a2,512
    200c:	00361613          	slli	a2,a2,0x3
    2010:	00078793          	addi	a5,a5,0 # 0 <set_key>
    2014:	00f607b3          	add	a5,a2,a5
    2018:	0007b783          	ld	a5,0(a5)
    201c:	00f6c6b3          	xor	a3,a3,a5
    2020:	fc043783          	ld	a5,-64(s0)
    2024:	0187d793          	srli	a5,a5,0x18
    2028:	0ff7f793          	andi	a5,a5,255
    202c:	0007861b          	addiw	a2,a5,0
    2030:	000007b7          	lui	a5,0x0
    2034:	30060613          	addi	a2,a2,768
    2038:	00361613          	slli	a2,a2,0x3
    203c:	00078793          	addi	a5,a5,0 # 0 <set_key>
    2040:	00f607b3          	add	a5,a2,a5
    2044:	0007b783          	ld	a5,0(a5)
    2048:	00f6c7b3          	xor	a5,a3,a5
    204c:	00f747b3          	xor	a5,a4,a5
    2050:	fcf43423          	sd	a5,-56(s0)
    2054:	fe843783          	ld	a5,-24(s0)
    2058:	04878793          	addi	a5,a5,72
    205c:	0007b703          	ld	a4,0(a5)
    2060:	fb043783          	ld	a5,-80(s0)
    2064:	0ff7f793          	andi	a5,a5,255
    2068:	0007869b          	addiw	a3,a5,0
    206c:	000007b7          	lui	a5,0x0
    2070:	00369693          	slli	a3,a3,0x3
    2074:	00078793          	addi	a5,a5,0 # 0 <set_key>
    2078:	00f687b3          	add	a5,a3,a5
    207c:	0007b683          	ld	a3,0(a5)
    2080:	fb843783          	ld	a5,-72(s0)
    2084:	0087d793          	srli	a5,a5,0x8
    2088:	0ff7f793          	andi	a5,a5,255
    208c:	0007861b          	addiw	a2,a5,0
    2090:	000007b7          	lui	a5,0x0
    2094:	10060613          	addi	a2,a2,256
    2098:	00361613          	slli	a2,a2,0x3
    209c:	00078793          	addi	a5,a5,0 # 0 <set_key>
    20a0:	00f607b3          	add	a5,a2,a5
    20a4:	0007b783          	ld	a5,0(a5)
    20a8:	00f6c6b3          	xor	a3,a3,a5
    20ac:	fc043783          	ld	a5,-64(s0)
    20b0:	0107d793          	srli	a5,a5,0x10
    20b4:	0ff7f793          	andi	a5,a5,255
    20b8:	0007861b          	addiw	a2,a5,0
    20bc:	000007b7          	lui	a5,0x0
    20c0:	20060613          	addi	a2,a2,512
    20c4:	00361613          	slli	a2,a2,0x3
    20c8:	00078793          	addi	a5,a5,0 # 0 <set_key>
    20cc:	00f607b3          	add	a5,a2,a5
    20d0:	0007b783          	ld	a5,0(a5)
    20d4:	00f6c6b3          	xor	a3,a3,a5
    20d8:	fa843783          	ld	a5,-88(s0)
    20dc:	0187d793          	srli	a5,a5,0x18
    20e0:	0ff7f793          	andi	a5,a5,255
    20e4:	0007861b          	addiw	a2,a5,0
    20e8:	000007b7          	lui	a5,0x0
    20ec:	30060613          	addi	a2,a2,768
    20f0:	00361613          	slli	a2,a2,0x3
    20f4:	00078793          	addi	a5,a5,0 # 0 <set_key>
    20f8:	00f607b3          	add	a5,a2,a5
    20fc:	0007b783          	ld	a5,0(a5)
    2100:	00f6c7b3          	xor	a5,a3,a5
    2104:	00f747b3          	xor	a5,a4,a5
    2108:	fcf43823          	sd	a5,-48(s0)
    210c:	fe843783          	ld	a5,-24(s0)
    2110:	05078793          	addi	a5,a5,80
    2114:	0007b703          	ld	a4,0(a5)
    2118:	fb843783          	ld	a5,-72(s0)
    211c:	0ff7f793          	andi	a5,a5,255
    2120:	0007869b          	addiw	a3,a5,0
    2124:	000007b7          	lui	a5,0x0
    2128:	00369693          	slli	a3,a3,0x3
    212c:	00078793          	addi	a5,a5,0 # 0 <set_key>
    2130:	00f687b3          	add	a5,a3,a5
    2134:	0007b683          	ld	a3,0(a5)
    2138:	fc043783          	ld	a5,-64(s0)
    213c:	0087d793          	srli	a5,a5,0x8
    2140:	0ff7f793          	andi	a5,a5,255
    2144:	0007861b          	addiw	a2,a5,0
    2148:	000007b7          	lui	a5,0x0
    214c:	10060613          	addi	a2,a2,256
    2150:	00361613          	slli	a2,a2,0x3
    2154:	00078793          	addi	a5,a5,0 # 0 <set_key>
    2158:	00f607b3          	add	a5,a2,a5
    215c:	0007b783          	ld	a5,0(a5)
    2160:	00f6c6b3          	xor	a3,a3,a5
    2164:	fa843783          	ld	a5,-88(s0)
    2168:	0107d793          	srli	a5,a5,0x10
    216c:	0ff7f793          	andi	a5,a5,255
    2170:	0007861b          	addiw	a2,a5,0
    2174:	000007b7          	lui	a5,0x0
    2178:	20060613          	addi	a2,a2,512
    217c:	00361613          	slli	a2,a2,0x3
    2180:	00078793          	addi	a5,a5,0 # 0 <set_key>
    2184:	00f607b3          	add	a5,a2,a5
    2188:	0007b783          	ld	a5,0(a5)
    218c:	00f6c6b3          	xor	a3,a3,a5
    2190:	fb043783          	ld	a5,-80(s0)
    2194:	0187d793          	srli	a5,a5,0x18
    2198:	0ff7f793          	andi	a5,a5,255
    219c:	0007861b          	addiw	a2,a5,0
    21a0:	000007b7          	lui	a5,0x0
    21a4:	30060613          	addi	a2,a2,768
    21a8:	00361613          	slli	a2,a2,0x3
    21ac:	00078793          	addi	a5,a5,0 # 0 <set_key>
    21b0:	00f607b3          	add	a5,a2,a5
    21b4:	0007b783          	ld	a5,0(a5)
    21b8:	00f6c7b3          	xor	a5,a3,a5
    21bc:	00f747b3          	xor	a5,a4,a5
    21c0:	fcf43c23          	sd	a5,-40(s0)
    21c4:	fe843783          	ld	a5,-24(s0)
    21c8:	05878793          	addi	a5,a5,88
    21cc:	0007b703          	ld	a4,0(a5)
    21d0:	fc043783          	ld	a5,-64(s0)
    21d4:	0ff7f793          	andi	a5,a5,255
    21d8:	0007869b          	addiw	a3,a5,0
    21dc:	000007b7          	lui	a5,0x0
    21e0:	00369693          	slli	a3,a3,0x3
    21e4:	00078793          	addi	a5,a5,0 # 0 <set_key>
    21e8:	00f687b3          	add	a5,a3,a5
    21ec:	0007b683          	ld	a3,0(a5)
    21f0:	fa843783          	ld	a5,-88(s0)
    21f4:	0087d793          	srli	a5,a5,0x8
    21f8:	0ff7f793          	andi	a5,a5,255
    21fc:	0007861b          	addiw	a2,a5,0
    2200:	000007b7          	lui	a5,0x0
    2204:	10060613          	addi	a2,a2,256
    2208:	00361613          	slli	a2,a2,0x3
    220c:	00078793          	addi	a5,a5,0 # 0 <set_key>
    2210:	00f607b3          	add	a5,a2,a5
    2214:	0007b783          	ld	a5,0(a5)
    2218:	00f6c6b3          	xor	a3,a3,a5
    221c:	fb043783          	ld	a5,-80(s0)
    2220:	0107d793          	srli	a5,a5,0x10
    2224:	0ff7f793          	andi	a5,a5,255
    2228:	0007861b          	addiw	a2,a5,0
    222c:	000007b7          	lui	a5,0x0
    2230:	20060613          	addi	a2,a2,512
    2234:	00361613          	slli	a2,a2,0x3
    2238:	00078793          	addi	a5,a5,0 # 0 <set_key>
    223c:	00f607b3          	add	a5,a2,a5
    2240:	0007b783          	ld	a5,0(a5)
    2244:	00f6c6b3          	xor	a3,a3,a5
    2248:	fb843783          	ld	a5,-72(s0)
    224c:	0187d793          	srli	a5,a5,0x18
    2250:	0ff7f793          	andi	a5,a5,255
    2254:	0007861b          	addiw	a2,a5,0
    2258:	000007b7          	lui	a5,0x0
    225c:	30060613          	addi	a2,a2,768
    2260:	00361613          	slli	a2,a2,0x3
    2264:	00078793          	addi	a5,a5,0 # 0 <set_key>
    2268:	00f607b3          	add	a5,a2,a5
    226c:	0007b783          	ld	a5,0(a5)
    2270:	00f6c7b3          	xor	a5,a3,a5
    2274:	00f747b3          	xor	a5,a4,a5
    2278:	fef43023          	sd	a5,-32(s0)
    227c:	fe843783          	ld	a5,-24(s0)
    2280:	06078793          	addi	a5,a5,96
    2284:	0007b703          	ld	a4,0(a5)
    2288:	fc843783          	ld	a5,-56(s0)
    228c:	0ff7f793          	andi	a5,a5,255
    2290:	0007869b          	addiw	a3,a5,0
    2294:	000007b7          	lui	a5,0x0
    2298:	00369693          	slli	a3,a3,0x3
    229c:	00078793          	addi	a5,a5,0 # 0 <set_key>
    22a0:	00f687b3          	add	a5,a3,a5
    22a4:	0007b683          	ld	a3,0(a5)
    22a8:	fd043783          	ld	a5,-48(s0)
    22ac:	0087d793          	srli	a5,a5,0x8
    22b0:	0ff7f793          	andi	a5,a5,255
    22b4:	0007861b          	addiw	a2,a5,0
    22b8:	000007b7          	lui	a5,0x0
    22bc:	10060613          	addi	a2,a2,256
    22c0:	00361613          	slli	a2,a2,0x3
    22c4:	00078793          	addi	a5,a5,0 # 0 <set_key>
    22c8:	00f607b3          	add	a5,a2,a5
    22cc:	0007b783          	ld	a5,0(a5)
    22d0:	00f6c6b3          	xor	a3,a3,a5
    22d4:	fd843783          	ld	a5,-40(s0)
    22d8:	0107d793          	srli	a5,a5,0x10
    22dc:	0ff7f793          	andi	a5,a5,255
    22e0:	0007861b          	addiw	a2,a5,0
    22e4:	000007b7          	lui	a5,0x0
    22e8:	20060613          	addi	a2,a2,512
    22ec:	00361613          	slli	a2,a2,0x3
    22f0:	00078793          	addi	a5,a5,0 # 0 <set_key>
    22f4:	00f607b3          	add	a5,a2,a5
    22f8:	0007b783          	ld	a5,0(a5)
    22fc:	00f6c6b3          	xor	a3,a3,a5
    2300:	fe043783          	ld	a5,-32(s0)
    2304:	0187d793          	srli	a5,a5,0x18
    2308:	0ff7f793          	andi	a5,a5,255
    230c:	0007861b          	addiw	a2,a5,0
    2310:	000007b7          	lui	a5,0x0
    2314:	30060613          	addi	a2,a2,768
    2318:	00361613          	slli	a2,a2,0x3
    231c:	00078793          	addi	a5,a5,0 # 0 <set_key>
    2320:	00f607b3          	add	a5,a2,a5
    2324:	0007b783          	ld	a5,0(a5)
    2328:	00f6c7b3          	xor	a5,a3,a5
    232c:	00f747b3          	xor	a5,a4,a5
    2330:	faf43423          	sd	a5,-88(s0)
    2334:	fe843783          	ld	a5,-24(s0)
    2338:	06878793          	addi	a5,a5,104
    233c:	0007b703          	ld	a4,0(a5)
    2340:	fd043783          	ld	a5,-48(s0)
    2344:	0ff7f793          	andi	a5,a5,255
    2348:	0007869b          	addiw	a3,a5,0
    234c:	000007b7          	lui	a5,0x0
    2350:	00369693          	slli	a3,a3,0x3
    2354:	00078793          	addi	a5,a5,0 # 0 <set_key>
    2358:	00f687b3          	add	a5,a3,a5
    235c:	0007b683          	ld	a3,0(a5)
    2360:	fd843783          	ld	a5,-40(s0)
    2364:	0087d793          	srli	a5,a5,0x8
    2368:	0ff7f793          	andi	a5,a5,255
    236c:	0007861b          	addiw	a2,a5,0
    2370:	000007b7          	lui	a5,0x0
    2374:	10060613          	addi	a2,a2,256
    2378:	00361613          	slli	a2,a2,0x3
    237c:	00078793          	addi	a5,a5,0 # 0 <set_key>
    2380:	00f607b3          	add	a5,a2,a5
    2384:	0007b783          	ld	a5,0(a5)
    2388:	00f6c6b3          	xor	a3,a3,a5
    238c:	fe043783          	ld	a5,-32(s0)
    2390:	0107d793          	srli	a5,a5,0x10
    2394:	0ff7f793          	andi	a5,a5,255
    2398:	0007861b          	addiw	a2,a5,0
    239c:	000007b7          	lui	a5,0x0
    23a0:	20060613          	addi	a2,a2,512
    23a4:	00361613          	slli	a2,a2,0x3
    23a8:	00078793          	addi	a5,a5,0 # 0 <set_key>
    23ac:	00f607b3          	add	a5,a2,a5
    23b0:	0007b783          	ld	a5,0(a5)
    23b4:	00f6c6b3          	xor	a3,a3,a5
    23b8:	fc843783          	ld	a5,-56(s0)
    23bc:	0187d793          	srli	a5,a5,0x18
    23c0:	0ff7f793          	andi	a5,a5,255
    23c4:	0007861b          	addiw	a2,a5,0
    23c8:	000007b7          	lui	a5,0x0
    23cc:	30060613          	addi	a2,a2,768
    23d0:	00361613          	slli	a2,a2,0x3
    23d4:	00078793          	addi	a5,a5,0 # 0 <set_key>
    23d8:	00f607b3          	add	a5,a2,a5
    23dc:	0007b783          	ld	a5,0(a5)
    23e0:	00f6c7b3          	xor	a5,a3,a5
    23e4:	00f747b3          	xor	a5,a4,a5
    23e8:	faf43823          	sd	a5,-80(s0)
    23ec:	fe843783          	ld	a5,-24(s0)
    23f0:	07078793          	addi	a5,a5,112
    23f4:	0007b703          	ld	a4,0(a5)
    23f8:	fd843783          	ld	a5,-40(s0)
    23fc:	0ff7f793          	andi	a5,a5,255
    2400:	0007869b          	addiw	a3,a5,0
    2404:	000007b7          	lui	a5,0x0
    2408:	00369693          	slli	a3,a3,0x3
    240c:	00078793          	addi	a5,a5,0 # 0 <set_key>
    2410:	00f687b3          	add	a5,a3,a5
    2414:	0007b683          	ld	a3,0(a5)
    2418:	fe043783          	ld	a5,-32(s0)
    241c:	0087d793          	srli	a5,a5,0x8
    2420:	0ff7f793          	andi	a5,a5,255
    2424:	0007861b          	addiw	a2,a5,0
    2428:	000007b7          	lui	a5,0x0
    242c:	10060613          	addi	a2,a2,256
    2430:	00361613          	slli	a2,a2,0x3
    2434:	00078793          	addi	a5,a5,0 # 0 <set_key>
    2438:	00f607b3          	add	a5,a2,a5
    243c:	0007b783          	ld	a5,0(a5)
    2440:	00f6c6b3          	xor	a3,a3,a5
    2444:	fc843783          	ld	a5,-56(s0)
    2448:	0107d793          	srli	a5,a5,0x10
    244c:	0ff7f793          	andi	a5,a5,255
    2450:	0007861b          	addiw	a2,a5,0
    2454:	000007b7          	lui	a5,0x0
    2458:	20060613          	addi	a2,a2,512
    245c:	00361613          	slli	a2,a2,0x3
    2460:	00078793          	addi	a5,a5,0 # 0 <set_key>
    2464:	00f607b3          	add	a5,a2,a5
    2468:	0007b783          	ld	a5,0(a5)
    246c:	00f6c6b3          	xor	a3,a3,a5
    2470:	fd043783          	ld	a5,-48(s0)
    2474:	0187d793          	srli	a5,a5,0x18
    2478:	0ff7f793          	andi	a5,a5,255
    247c:	0007861b          	addiw	a2,a5,0
    2480:	000007b7          	lui	a5,0x0
    2484:	30060613          	addi	a2,a2,768
    2488:	00361613          	slli	a2,a2,0x3
    248c:	00078793          	addi	a5,a5,0 # 0 <set_key>
    2490:	00f607b3          	add	a5,a2,a5
    2494:	0007b783          	ld	a5,0(a5)
    2498:	00f6c7b3          	xor	a5,a3,a5
    249c:	00f747b3          	xor	a5,a4,a5
    24a0:	faf43c23          	sd	a5,-72(s0)
    24a4:	fe843783          	ld	a5,-24(s0)
    24a8:	07878793          	addi	a5,a5,120
    24ac:	0007b703          	ld	a4,0(a5)
    24b0:	fe043783          	ld	a5,-32(s0)
    24b4:	0ff7f793          	andi	a5,a5,255
    24b8:	0007869b          	addiw	a3,a5,0
    24bc:	000007b7          	lui	a5,0x0
    24c0:	00369693          	slli	a3,a3,0x3
    24c4:	00078793          	addi	a5,a5,0 # 0 <set_key>
    24c8:	00f687b3          	add	a5,a3,a5
    24cc:	0007b683          	ld	a3,0(a5)
    24d0:	fc843783          	ld	a5,-56(s0)
    24d4:	0087d793          	srli	a5,a5,0x8
    24d8:	0ff7f793          	andi	a5,a5,255
    24dc:	0007861b          	addiw	a2,a5,0
    24e0:	000007b7          	lui	a5,0x0
    24e4:	10060613          	addi	a2,a2,256
    24e8:	00361613          	slli	a2,a2,0x3
    24ec:	00078793          	addi	a5,a5,0 # 0 <set_key>
    24f0:	00f607b3          	add	a5,a2,a5
    24f4:	0007b783          	ld	a5,0(a5)
    24f8:	00f6c6b3          	xor	a3,a3,a5
    24fc:	fd043783          	ld	a5,-48(s0)
    2500:	0107d793          	srli	a5,a5,0x10
    2504:	0ff7f793          	andi	a5,a5,255
    2508:	0007861b          	addiw	a2,a5,0
    250c:	000007b7          	lui	a5,0x0
    2510:	20060613          	addi	a2,a2,512
    2514:	00361613          	slli	a2,a2,0x3
    2518:	00078793          	addi	a5,a5,0 # 0 <set_key>
    251c:	00f607b3          	add	a5,a2,a5
    2520:	0007b783          	ld	a5,0(a5)
    2524:	00f6c6b3          	xor	a3,a3,a5
    2528:	fd843783          	ld	a5,-40(s0)
    252c:	0187d793          	srli	a5,a5,0x18
    2530:	0ff7f793          	andi	a5,a5,255
    2534:	0007861b          	addiw	a2,a5,0
    2538:	000007b7          	lui	a5,0x0
    253c:	30060613          	addi	a2,a2,768
    2540:	00361613          	slli	a2,a2,0x3
    2544:	00078793          	addi	a5,a5,0 # 0 <set_key>
    2548:	00f607b3          	add	a5,a2,a5
    254c:	0007b783          	ld	a5,0(a5)
    2550:	00f6c7b3          	xor	a5,a3,a5
    2554:	00f747b3          	xor	a5,a4,a5
    2558:	fcf43023          	sd	a5,-64(s0)
    255c:	fe843783          	ld	a5,-24(s0)
    2560:	08078793          	addi	a5,a5,128
    2564:	0007b703          	ld	a4,0(a5)
    2568:	fa843783          	ld	a5,-88(s0)
    256c:	0ff7f793          	andi	a5,a5,255
    2570:	0007869b          	addiw	a3,a5,0
    2574:	000007b7          	lui	a5,0x0
    2578:	00369693          	slli	a3,a3,0x3
    257c:	00078793          	addi	a5,a5,0 # 0 <set_key>
    2580:	00f687b3          	add	a5,a3,a5
    2584:	0007b683          	ld	a3,0(a5)
    2588:	fb043783          	ld	a5,-80(s0)
    258c:	0087d793          	srli	a5,a5,0x8
    2590:	0ff7f793          	andi	a5,a5,255
    2594:	0007861b          	addiw	a2,a5,0
    2598:	000007b7          	lui	a5,0x0
    259c:	10060613          	addi	a2,a2,256
    25a0:	00361613          	slli	a2,a2,0x3
    25a4:	00078793          	addi	a5,a5,0 # 0 <set_key>
    25a8:	00f607b3          	add	a5,a2,a5
    25ac:	0007b783          	ld	a5,0(a5)
    25b0:	00f6c6b3          	xor	a3,a3,a5
    25b4:	fb843783          	ld	a5,-72(s0)
    25b8:	0107d793          	srli	a5,a5,0x10
    25bc:	0ff7f793          	andi	a5,a5,255
    25c0:	0007861b          	addiw	a2,a5,0
    25c4:	000007b7          	lui	a5,0x0
    25c8:	20060613          	addi	a2,a2,512
    25cc:	00361613          	slli	a2,a2,0x3
    25d0:	00078793          	addi	a5,a5,0 # 0 <set_key>
    25d4:	00f607b3          	add	a5,a2,a5
    25d8:	0007b783          	ld	a5,0(a5)
    25dc:	00f6c6b3          	xor	a3,a3,a5
    25e0:	fc043783          	ld	a5,-64(s0)
    25e4:	0187d793          	srli	a5,a5,0x18
    25e8:	0ff7f793          	andi	a5,a5,255
    25ec:	0007861b          	addiw	a2,a5,0
    25f0:	000007b7          	lui	a5,0x0
    25f4:	30060613          	addi	a2,a2,768
    25f8:	00361613          	slli	a2,a2,0x3
    25fc:	00078793          	addi	a5,a5,0 # 0 <set_key>
    2600:	00f607b3          	add	a5,a2,a5
    2604:	0007b783          	ld	a5,0(a5)
    2608:	00f6c7b3          	xor	a5,a3,a5
    260c:	00f747b3          	xor	a5,a4,a5
    2610:	fcf43423          	sd	a5,-56(s0)
    2614:	fe843783          	ld	a5,-24(s0)
    2618:	08878793          	addi	a5,a5,136
    261c:	0007b703          	ld	a4,0(a5)
    2620:	fb043783          	ld	a5,-80(s0)
    2624:	0ff7f793          	andi	a5,a5,255
    2628:	0007869b          	addiw	a3,a5,0
    262c:	000007b7          	lui	a5,0x0
    2630:	00369693          	slli	a3,a3,0x3
    2634:	00078793          	addi	a5,a5,0 # 0 <set_key>
    2638:	00f687b3          	add	a5,a3,a5
    263c:	0007b683          	ld	a3,0(a5)
    2640:	fb843783          	ld	a5,-72(s0)
    2644:	0087d793          	srli	a5,a5,0x8
    2648:	0ff7f793          	andi	a5,a5,255
    264c:	0007861b          	addiw	a2,a5,0
    2650:	000007b7          	lui	a5,0x0
    2654:	10060613          	addi	a2,a2,256
    2658:	00361613          	slli	a2,a2,0x3
    265c:	00078793          	addi	a5,a5,0 # 0 <set_key>
    2660:	00f607b3          	add	a5,a2,a5
    2664:	0007b783          	ld	a5,0(a5)
    2668:	00f6c6b3          	xor	a3,a3,a5
    266c:	fc043783          	ld	a5,-64(s0)
    2670:	0107d793          	srli	a5,a5,0x10
    2674:	0ff7f793          	andi	a5,a5,255
    2678:	0007861b          	addiw	a2,a5,0
    267c:	000007b7          	lui	a5,0x0
    2680:	20060613          	addi	a2,a2,512
    2684:	00361613          	slli	a2,a2,0x3
    2688:	00078793          	addi	a5,a5,0 # 0 <set_key>
    268c:	00f607b3          	add	a5,a2,a5
    2690:	0007b783          	ld	a5,0(a5)
    2694:	00f6c6b3          	xor	a3,a3,a5
    2698:	fa843783          	ld	a5,-88(s0)
    269c:	0187d793          	srli	a5,a5,0x18
    26a0:	0ff7f793          	andi	a5,a5,255
    26a4:	0007861b          	addiw	a2,a5,0
    26a8:	000007b7          	lui	a5,0x0
    26ac:	30060613          	addi	a2,a2,768
    26b0:	00361613          	slli	a2,a2,0x3
    26b4:	00078793          	addi	a5,a5,0 # 0 <set_key>
    26b8:	00f607b3          	add	a5,a2,a5
    26bc:	0007b783          	ld	a5,0(a5)
    26c0:	00f6c7b3          	xor	a5,a3,a5
    26c4:	00f747b3          	xor	a5,a4,a5
    26c8:	fcf43823          	sd	a5,-48(s0)
    26cc:	fe843783          	ld	a5,-24(s0)
    26d0:	09078793          	addi	a5,a5,144
    26d4:	0007b703          	ld	a4,0(a5)
    26d8:	fb843783          	ld	a5,-72(s0)
    26dc:	0ff7f793          	andi	a5,a5,255
    26e0:	0007869b          	addiw	a3,a5,0
    26e4:	000007b7          	lui	a5,0x0
    26e8:	00369693          	slli	a3,a3,0x3
    26ec:	00078793          	addi	a5,a5,0 # 0 <set_key>
    26f0:	00f687b3          	add	a5,a3,a5
    26f4:	0007b683          	ld	a3,0(a5)
    26f8:	fc043783          	ld	a5,-64(s0)
    26fc:	0087d793          	srli	a5,a5,0x8
    2700:	0ff7f793          	andi	a5,a5,255
    2704:	0007861b          	addiw	a2,a5,0
    2708:	000007b7          	lui	a5,0x0
    270c:	10060613          	addi	a2,a2,256
    2710:	00361613          	slli	a2,a2,0x3
    2714:	00078793          	addi	a5,a5,0 # 0 <set_key>
    2718:	00f607b3          	add	a5,a2,a5
    271c:	0007b783          	ld	a5,0(a5)
    2720:	00f6c6b3          	xor	a3,a3,a5
    2724:	fa843783          	ld	a5,-88(s0)
    2728:	0107d793          	srli	a5,a5,0x10
    272c:	0ff7f793          	andi	a5,a5,255
    2730:	0007861b          	addiw	a2,a5,0
    2734:	000007b7          	lui	a5,0x0
    2738:	20060613          	addi	a2,a2,512
    273c:	00361613          	slli	a2,a2,0x3
    2740:	00078793          	addi	a5,a5,0 # 0 <set_key>
    2744:	00f607b3          	add	a5,a2,a5
    2748:	0007b783          	ld	a5,0(a5)
    274c:	00f6c6b3          	xor	a3,a3,a5
    2750:	fb043783          	ld	a5,-80(s0)
    2754:	0187d793          	srli	a5,a5,0x18
    2758:	0ff7f793          	andi	a5,a5,255
    275c:	0007861b          	addiw	a2,a5,0
    2760:	000007b7          	lui	a5,0x0
    2764:	30060613          	addi	a2,a2,768
    2768:	00361613          	slli	a2,a2,0x3
    276c:	00078793          	addi	a5,a5,0 # 0 <set_key>
    2770:	00f607b3          	add	a5,a2,a5
    2774:	0007b783          	ld	a5,0(a5)
    2778:	00f6c7b3          	xor	a5,a3,a5
    277c:	00f747b3          	xor	a5,a4,a5
    2780:	fcf43c23          	sd	a5,-40(s0)
    2784:	fe843783          	ld	a5,-24(s0)
    2788:	09878793          	addi	a5,a5,152
    278c:	0007b703          	ld	a4,0(a5)
    2790:	fc043783          	ld	a5,-64(s0)
    2794:	0ff7f793          	andi	a5,a5,255
    2798:	0007869b          	addiw	a3,a5,0
    279c:	000007b7          	lui	a5,0x0
    27a0:	00369693          	slli	a3,a3,0x3
    27a4:	00078793          	addi	a5,a5,0 # 0 <set_key>
    27a8:	00f687b3          	add	a5,a3,a5
    27ac:	0007b683          	ld	a3,0(a5)
    27b0:	fa843783          	ld	a5,-88(s0)
    27b4:	0087d793          	srli	a5,a5,0x8
    27b8:	0ff7f793          	andi	a5,a5,255
    27bc:	0007861b          	addiw	a2,a5,0
    27c0:	000007b7          	lui	a5,0x0
    27c4:	10060613          	addi	a2,a2,256
    27c8:	00361613          	slli	a2,a2,0x3
    27cc:	00078793          	addi	a5,a5,0 # 0 <set_key>
    27d0:	00f607b3          	add	a5,a2,a5
    27d4:	0007b783          	ld	a5,0(a5)
    27d8:	00f6c6b3          	xor	a3,a3,a5
    27dc:	fb043783          	ld	a5,-80(s0)
    27e0:	0107d793          	srli	a5,a5,0x10
    27e4:	0ff7f793          	andi	a5,a5,255
    27e8:	0007861b          	addiw	a2,a5,0
    27ec:	000007b7          	lui	a5,0x0
    27f0:	20060613          	addi	a2,a2,512
    27f4:	00361613          	slli	a2,a2,0x3
    27f8:	00078793          	addi	a5,a5,0 # 0 <set_key>
    27fc:	00f607b3          	add	a5,a2,a5
    2800:	0007b783          	ld	a5,0(a5)
    2804:	00f6c6b3          	xor	a3,a3,a5
    2808:	fb843783          	ld	a5,-72(s0)
    280c:	0187d793          	srli	a5,a5,0x18
    2810:	0ff7f793          	andi	a5,a5,255
    2814:	0007861b          	addiw	a2,a5,0
    2818:	000007b7          	lui	a5,0x0
    281c:	30060613          	addi	a2,a2,768
    2820:	00361613          	slli	a2,a2,0x3
    2824:	00078793          	addi	a5,a5,0 # 0 <set_key>
    2828:	00f607b3          	add	a5,a2,a5
    282c:	0007b783          	ld	a5,0(a5)
    2830:	00f6c7b3          	xor	a5,a3,a5
    2834:	00f747b3          	xor	a5,a4,a5
    2838:	fef43023          	sd	a5,-32(s0)
    283c:	fe843783          	ld	a5,-24(s0)
    2840:	0a078793          	addi	a5,a5,160
    2844:	0007b703          	ld	a4,0(a5)
    2848:	fc843783          	ld	a5,-56(s0)
    284c:	0ff7f793          	andi	a5,a5,255
    2850:	0007869b          	addiw	a3,a5,0
    2854:	000007b7          	lui	a5,0x0
    2858:	00369693          	slli	a3,a3,0x3
    285c:	00078793          	addi	a5,a5,0 # 0 <set_key>
    2860:	00f687b3          	add	a5,a3,a5
    2864:	0007b683          	ld	a3,0(a5)
    2868:	fd043783          	ld	a5,-48(s0)
    286c:	0087d793          	srli	a5,a5,0x8
    2870:	0ff7f793          	andi	a5,a5,255
    2874:	0007861b          	addiw	a2,a5,0
    2878:	000007b7          	lui	a5,0x0
    287c:	10060613          	addi	a2,a2,256
    2880:	00361613          	slli	a2,a2,0x3
    2884:	00078793          	addi	a5,a5,0 # 0 <set_key>
    2888:	00f607b3          	add	a5,a2,a5
    288c:	0007b783          	ld	a5,0(a5)
    2890:	00f6c6b3          	xor	a3,a3,a5
    2894:	fd843783          	ld	a5,-40(s0)
    2898:	0107d793          	srli	a5,a5,0x10
    289c:	0ff7f793          	andi	a5,a5,255
    28a0:	0007861b          	addiw	a2,a5,0
    28a4:	000007b7          	lui	a5,0x0
    28a8:	20060613          	addi	a2,a2,512
    28ac:	00361613          	slli	a2,a2,0x3
    28b0:	00078793          	addi	a5,a5,0 # 0 <set_key>
    28b4:	00f607b3          	add	a5,a2,a5
    28b8:	0007b783          	ld	a5,0(a5)
    28bc:	00f6c6b3          	xor	a3,a3,a5
    28c0:	fe043783          	ld	a5,-32(s0)
    28c4:	0187d793          	srli	a5,a5,0x18
    28c8:	0ff7f793          	andi	a5,a5,255
    28cc:	0007861b          	addiw	a2,a5,0
    28d0:	000007b7          	lui	a5,0x0
    28d4:	30060613          	addi	a2,a2,768
    28d8:	00361613          	slli	a2,a2,0x3
    28dc:	00078793          	addi	a5,a5,0 # 0 <set_key>
    28e0:	00f607b3          	add	a5,a2,a5
    28e4:	0007b783          	ld	a5,0(a5)
    28e8:	00f6c7b3          	xor	a5,a3,a5
    28ec:	00f747b3          	xor	a5,a4,a5
    28f0:	faf43423          	sd	a5,-88(s0)
    28f4:	fe843783          	ld	a5,-24(s0)
    28f8:	0a878793          	addi	a5,a5,168
    28fc:	0007b703          	ld	a4,0(a5)
    2900:	fd043783          	ld	a5,-48(s0)
    2904:	0ff7f793          	andi	a5,a5,255
    2908:	0007869b          	addiw	a3,a5,0
    290c:	000007b7          	lui	a5,0x0
    2910:	00369693          	slli	a3,a3,0x3
    2914:	00078793          	addi	a5,a5,0 # 0 <set_key>
    2918:	00f687b3          	add	a5,a3,a5
    291c:	0007b683          	ld	a3,0(a5)
    2920:	fd843783          	ld	a5,-40(s0)
    2924:	0087d793          	srli	a5,a5,0x8
    2928:	0ff7f793          	andi	a5,a5,255
    292c:	0007861b          	addiw	a2,a5,0
    2930:	000007b7          	lui	a5,0x0
    2934:	10060613          	addi	a2,a2,256
    2938:	00361613          	slli	a2,a2,0x3
    293c:	00078793          	addi	a5,a5,0 # 0 <set_key>
    2940:	00f607b3          	add	a5,a2,a5
    2944:	0007b783          	ld	a5,0(a5)
    2948:	00f6c6b3          	xor	a3,a3,a5
    294c:	fe043783          	ld	a5,-32(s0)
    2950:	0107d793          	srli	a5,a5,0x10
    2954:	0ff7f793          	andi	a5,a5,255
    2958:	0007861b          	addiw	a2,a5,0
    295c:	000007b7          	lui	a5,0x0
    2960:	20060613          	addi	a2,a2,512
    2964:	00361613          	slli	a2,a2,0x3
    2968:	00078793          	addi	a5,a5,0 # 0 <set_key>
    296c:	00f607b3          	add	a5,a2,a5
    2970:	0007b783          	ld	a5,0(a5)
    2974:	00f6c6b3          	xor	a3,a3,a5
    2978:	fc843783          	ld	a5,-56(s0)
    297c:	0187d793          	srli	a5,a5,0x18
    2980:	0ff7f793          	andi	a5,a5,255
    2984:	0007861b          	addiw	a2,a5,0
    2988:	000007b7          	lui	a5,0x0
    298c:	30060613          	addi	a2,a2,768
    2990:	00361613          	slli	a2,a2,0x3
    2994:	00078793          	addi	a5,a5,0 # 0 <set_key>
    2998:	00f607b3          	add	a5,a2,a5
    299c:	0007b783          	ld	a5,0(a5)
    29a0:	00f6c7b3          	xor	a5,a3,a5
    29a4:	00f747b3          	xor	a5,a4,a5
    29a8:	faf43823          	sd	a5,-80(s0)
    29ac:	fe843783          	ld	a5,-24(s0)
    29b0:	0b078793          	addi	a5,a5,176
    29b4:	0007b703          	ld	a4,0(a5)
    29b8:	fd843783          	ld	a5,-40(s0)
    29bc:	0ff7f793          	andi	a5,a5,255
    29c0:	0007869b          	addiw	a3,a5,0
    29c4:	000007b7          	lui	a5,0x0
    29c8:	00369693          	slli	a3,a3,0x3
    29cc:	00078793          	addi	a5,a5,0 # 0 <set_key>
    29d0:	00f687b3          	add	a5,a3,a5
    29d4:	0007b683          	ld	a3,0(a5)
    29d8:	fe043783          	ld	a5,-32(s0)
    29dc:	0087d793          	srli	a5,a5,0x8
    29e0:	0ff7f793          	andi	a5,a5,255
    29e4:	0007861b          	addiw	a2,a5,0
    29e8:	000007b7          	lui	a5,0x0
    29ec:	10060613          	addi	a2,a2,256
    29f0:	00361613          	slli	a2,a2,0x3
    29f4:	00078793          	addi	a5,a5,0 # 0 <set_key>
    29f8:	00f607b3          	add	a5,a2,a5
    29fc:	0007b783          	ld	a5,0(a5)
    2a00:	00f6c6b3          	xor	a3,a3,a5
    2a04:	fc843783          	ld	a5,-56(s0)
    2a08:	0107d793          	srli	a5,a5,0x10
    2a0c:	0ff7f793          	andi	a5,a5,255
    2a10:	0007861b          	addiw	a2,a5,0
    2a14:	000007b7          	lui	a5,0x0
    2a18:	20060613          	addi	a2,a2,512
    2a1c:	00361613          	slli	a2,a2,0x3
    2a20:	00078793          	addi	a5,a5,0 # 0 <set_key>
    2a24:	00f607b3          	add	a5,a2,a5
    2a28:	0007b783          	ld	a5,0(a5)
    2a2c:	00f6c6b3          	xor	a3,a3,a5
    2a30:	fd043783          	ld	a5,-48(s0)
    2a34:	0187d793          	srli	a5,a5,0x18
    2a38:	0ff7f793          	andi	a5,a5,255
    2a3c:	0007861b          	addiw	a2,a5,0
    2a40:	000007b7          	lui	a5,0x0
    2a44:	30060613          	addi	a2,a2,768
    2a48:	00361613          	slli	a2,a2,0x3
    2a4c:	00078793          	addi	a5,a5,0 # 0 <set_key>
    2a50:	00f607b3          	add	a5,a2,a5
    2a54:	0007b783          	ld	a5,0(a5)
    2a58:	00f6c7b3          	xor	a5,a3,a5
    2a5c:	00f747b3          	xor	a5,a4,a5
    2a60:	faf43c23          	sd	a5,-72(s0)
    2a64:	fe843783          	ld	a5,-24(s0)
    2a68:	0b878793          	addi	a5,a5,184
    2a6c:	0007b703          	ld	a4,0(a5)
    2a70:	fe043783          	ld	a5,-32(s0)
    2a74:	0ff7f793          	andi	a5,a5,255
    2a78:	0007869b          	addiw	a3,a5,0
    2a7c:	000007b7          	lui	a5,0x0
    2a80:	00369693          	slli	a3,a3,0x3
    2a84:	00078793          	addi	a5,a5,0 # 0 <set_key>
    2a88:	00f687b3          	add	a5,a3,a5
    2a8c:	0007b683          	ld	a3,0(a5)
    2a90:	fc843783          	ld	a5,-56(s0)
    2a94:	0087d793          	srli	a5,a5,0x8
    2a98:	0ff7f793          	andi	a5,a5,255
    2a9c:	0007861b          	addiw	a2,a5,0
    2aa0:	000007b7          	lui	a5,0x0
    2aa4:	10060613          	addi	a2,a2,256
    2aa8:	00361613          	slli	a2,a2,0x3
    2aac:	00078793          	addi	a5,a5,0 # 0 <set_key>
    2ab0:	00f607b3          	add	a5,a2,a5
    2ab4:	0007b783          	ld	a5,0(a5)
    2ab8:	00f6c6b3          	xor	a3,a3,a5
    2abc:	fd043783          	ld	a5,-48(s0)
    2ac0:	0107d793          	srli	a5,a5,0x10
    2ac4:	0ff7f793          	andi	a5,a5,255
    2ac8:	0007861b          	addiw	a2,a5,0
    2acc:	000007b7          	lui	a5,0x0
    2ad0:	20060613          	addi	a2,a2,512
    2ad4:	00361613          	slli	a2,a2,0x3
    2ad8:	00078793          	addi	a5,a5,0 # 0 <set_key>
    2adc:	00f607b3          	add	a5,a2,a5
    2ae0:	0007b783          	ld	a5,0(a5)
    2ae4:	00f6c6b3          	xor	a3,a3,a5
    2ae8:	fd843783          	ld	a5,-40(s0)
    2aec:	0187d793          	srli	a5,a5,0x18
    2af0:	0ff7f793          	andi	a5,a5,255
    2af4:	0007861b          	addiw	a2,a5,0
    2af8:	000007b7          	lui	a5,0x0
    2afc:	30060613          	addi	a2,a2,768
    2b00:	00361613          	slli	a2,a2,0x3
    2b04:	00078793          	addi	a5,a5,0 # 0 <set_key>
    2b08:	00f607b3          	add	a5,a2,a5
    2b0c:	0007b783          	ld	a5,0(a5)
    2b10:	00f6c7b3          	xor	a5,a3,a5
    2b14:	00f747b3          	xor	a5,a4,a5
    2b18:	fcf43023          	sd	a5,-64(s0)
    2b1c:	fe843783          	ld	a5,-24(s0)
    2b20:	0c078793          	addi	a5,a5,192
    2b24:	0007b703          	ld	a4,0(a5)
    2b28:	fa843783          	ld	a5,-88(s0)
    2b2c:	0ff7f793          	andi	a5,a5,255
    2b30:	0007869b          	addiw	a3,a5,0
    2b34:	000007b7          	lui	a5,0x0
    2b38:	00369693          	slli	a3,a3,0x3
    2b3c:	00078793          	addi	a5,a5,0 # 0 <set_key>
    2b40:	00f687b3          	add	a5,a3,a5
    2b44:	0007b683          	ld	a3,0(a5)
    2b48:	fb043783          	ld	a5,-80(s0)
    2b4c:	0087d793          	srli	a5,a5,0x8
    2b50:	0ff7f793          	andi	a5,a5,255
    2b54:	0007861b          	addiw	a2,a5,0
    2b58:	000007b7          	lui	a5,0x0
    2b5c:	10060613          	addi	a2,a2,256
    2b60:	00361613          	slli	a2,a2,0x3
    2b64:	00078793          	addi	a5,a5,0 # 0 <set_key>
    2b68:	00f607b3          	add	a5,a2,a5
    2b6c:	0007b783          	ld	a5,0(a5)
    2b70:	00f6c6b3          	xor	a3,a3,a5
    2b74:	fb843783          	ld	a5,-72(s0)
    2b78:	0107d793          	srli	a5,a5,0x10
    2b7c:	0ff7f793          	andi	a5,a5,255
    2b80:	0007861b          	addiw	a2,a5,0
    2b84:	000007b7          	lui	a5,0x0
    2b88:	20060613          	addi	a2,a2,512
    2b8c:	00361613          	slli	a2,a2,0x3
    2b90:	00078793          	addi	a5,a5,0 # 0 <set_key>
    2b94:	00f607b3          	add	a5,a2,a5
    2b98:	0007b783          	ld	a5,0(a5)
    2b9c:	00f6c6b3          	xor	a3,a3,a5
    2ba0:	fc043783          	ld	a5,-64(s0)
    2ba4:	0187d793          	srli	a5,a5,0x18
    2ba8:	0ff7f793          	andi	a5,a5,255
    2bac:	0007861b          	addiw	a2,a5,0
    2bb0:	000007b7          	lui	a5,0x0
    2bb4:	30060613          	addi	a2,a2,768
    2bb8:	00361613          	slli	a2,a2,0x3
    2bbc:	00078793          	addi	a5,a5,0 # 0 <set_key>
    2bc0:	00f607b3          	add	a5,a2,a5
    2bc4:	0007b783          	ld	a5,0(a5)
    2bc8:	00f6c7b3          	xor	a5,a3,a5
    2bcc:	00f747b3          	xor	a5,a4,a5
    2bd0:	fcf43423          	sd	a5,-56(s0)
    2bd4:	fe843783          	ld	a5,-24(s0)
    2bd8:	0c878793          	addi	a5,a5,200
    2bdc:	0007b703          	ld	a4,0(a5)
    2be0:	fb043783          	ld	a5,-80(s0)
    2be4:	0ff7f793          	andi	a5,a5,255
    2be8:	0007869b          	addiw	a3,a5,0
    2bec:	000007b7          	lui	a5,0x0
    2bf0:	00369693          	slli	a3,a3,0x3
    2bf4:	00078793          	addi	a5,a5,0 # 0 <set_key>
    2bf8:	00f687b3          	add	a5,a3,a5
    2bfc:	0007b683          	ld	a3,0(a5)
    2c00:	fb843783          	ld	a5,-72(s0)
    2c04:	0087d793          	srli	a5,a5,0x8
    2c08:	0ff7f793          	andi	a5,a5,255
    2c0c:	0007861b          	addiw	a2,a5,0
    2c10:	000007b7          	lui	a5,0x0
    2c14:	10060613          	addi	a2,a2,256
    2c18:	00361613          	slli	a2,a2,0x3
    2c1c:	00078793          	addi	a5,a5,0 # 0 <set_key>
    2c20:	00f607b3          	add	a5,a2,a5
    2c24:	0007b783          	ld	a5,0(a5)
    2c28:	00f6c6b3          	xor	a3,a3,a5
    2c2c:	fc043783          	ld	a5,-64(s0)
    2c30:	0107d793          	srli	a5,a5,0x10
    2c34:	0ff7f793          	andi	a5,a5,255
    2c38:	0007861b          	addiw	a2,a5,0
    2c3c:	000007b7          	lui	a5,0x0
    2c40:	20060613          	addi	a2,a2,512
    2c44:	00361613          	slli	a2,a2,0x3
    2c48:	00078793          	addi	a5,a5,0 # 0 <set_key>
    2c4c:	00f607b3          	add	a5,a2,a5
    2c50:	0007b783          	ld	a5,0(a5)
    2c54:	00f6c6b3          	xor	a3,a3,a5
    2c58:	fa843783          	ld	a5,-88(s0)
    2c5c:	0187d793          	srli	a5,a5,0x18
    2c60:	0ff7f793          	andi	a5,a5,255
    2c64:	0007861b          	addiw	a2,a5,0
    2c68:	000007b7          	lui	a5,0x0
    2c6c:	30060613          	addi	a2,a2,768
    2c70:	00361613          	slli	a2,a2,0x3
    2c74:	00078793          	addi	a5,a5,0 # 0 <set_key>
    2c78:	00f607b3          	add	a5,a2,a5
    2c7c:	0007b783          	ld	a5,0(a5)
    2c80:	00f6c7b3          	xor	a5,a3,a5
    2c84:	00f747b3          	xor	a5,a4,a5
    2c88:	fcf43823          	sd	a5,-48(s0)
    2c8c:	fe843783          	ld	a5,-24(s0)
    2c90:	0d078793          	addi	a5,a5,208
    2c94:	0007b703          	ld	a4,0(a5)
    2c98:	fb843783          	ld	a5,-72(s0)
    2c9c:	0ff7f793          	andi	a5,a5,255
    2ca0:	0007869b          	addiw	a3,a5,0
    2ca4:	000007b7          	lui	a5,0x0
    2ca8:	00369693          	slli	a3,a3,0x3
    2cac:	00078793          	addi	a5,a5,0 # 0 <set_key>
    2cb0:	00f687b3          	add	a5,a3,a5
    2cb4:	0007b683          	ld	a3,0(a5)
    2cb8:	fc043783          	ld	a5,-64(s0)
    2cbc:	0087d793          	srli	a5,a5,0x8
    2cc0:	0ff7f793          	andi	a5,a5,255
    2cc4:	0007861b          	addiw	a2,a5,0
    2cc8:	000007b7          	lui	a5,0x0
    2ccc:	10060613          	addi	a2,a2,256
    2cd0:	00361613          	slli	a2,a2,0x3
    2cd4:	00078793          	addi	a5,a5,0 # 0 <set_key>
    2cd8:	00f607b3          	add	a5,a2,a5
    2cdc:	0007b783          	ld	a5,0(a5)
    2ce0:	00f6c6b3          	xor	a3,a3,a5
    2ce4:	fa843783          	ld	a5,-88(s0)
    2ce8:	0107d793          	srli	a5,a5,0x10
    2cec:	0ff7f793          	andi	a5,a5,255
    2cf0:	0007861b          	addiw	a2,a5,0
    2cf4:	000007b7          	lui	a5,0x0
    2cf8:	20060613          	addi	a2,a2,512
    2cfc:	00361613          	slli	a2,a2,0x3
    2d00:	00078793          	addi	a5,a5,0 # 0 <set_key>
    2d04:	00f607b3          	add	a5,a2,a5
    2d08:	0007b783          	ld	a5,0(a5)
    2d0c:	00f6c6b3          	xor	a3,a3,a5
    2d10:	fb043783          	ld	a5,-80(s0)
    2d14:	0187d793          	srli	a5,a5,0x18
    2d18:	0ff7f793          	andi	a5,a5,255
    2d1c:	0007861b          	addiw	a2,a5,0
    2d20:	000007b7          	lui	a5,0x0
    2d24:	30060613          	addi	a2,a2,768
    2d28:	00361613          	slli	a2,a2,0x3
    2d2c:	00078793          	addi	a5,a5,0 # 0 <set_key>
    2d30:	00f607b3          	add	a5,a2,a5
    2d34:	0007b783          	ld	a5,0(a5)
    2d38:	00f6c7b3          	xor	a5,a3,a5
    2d3c:	00f747b3          	xor	a5,a4,a5
    2d40:	fcf43c23          	sd	a5,-40(s0)
    2d44:	fe843783          	ld	a5,-24(s0)
    2d48:	0d878793          	addi	a5,a5,216
    2d4c:	0007b703          	ld	a4,0(a5)
    2d50:	fc043783          	ld	a5,-64(s0)
    2d54:	0ff7f793          	andi	a5,a5,255
    2d58:	0007869b          	addiw	a3,a5,0
    2d5c:	000007b7          	lui	a5,0x0
    2d60:	00369693          	slli	a3,a3,0x3
    2d64:	00078793          	addi	a5,a5,0 # 0 <set_key>
    2d68:	00f687b3          	add	a5,a3,a5
    2d6c:	0007b683          	ld	a3,0(a5)
    2d70:	fa843783          	ld	a5,-88(s0)
    2d74:	0087d793          	srli	a5,a5,0x8
    2d78:	0ff7f793          	andi	a5,a5,255
    2d7c:	0007861b          	addiw	a2,a5,0
    2d80:	000007b7          	lui	a5,0x0
    2d84:	10060613          	addi	a2,a2,256
    2d88:	00361613          	slli	a2,a2,0x3
    2d8c:	00078793          	addi	a5,a5,0 # 0 <set_key>
    2d90:	00f607b3          	add	a5,a2,a5
    2d94:	0007b783          	ld	a5,0(a5)
    2d98:	00f6c6b3          	xor	a3,a3,a5
    2d9c:	fb043783          	ld	a5,-80(s0)
    2da0:	0107d793          	srli	a5,a5,0x10
    2da4:	0ff7f793          	andi	a5,a5,255
    2da8:	0007861b          	addiw	a2,a5,0
    2dac:	000007b7          	lui	a5,0x0
    2db0:	20060613          	addi	a2,a2,512
    2db4:	00361613          	slli	a2,a2,0x3
    2db8:	00078793          	addi	a5,a5,0 # 0 <set_key>
    2dbc:	00f607b3          	add	a5,a2,a5
    2dc0:	0007b783          	ld	a5,0(a5)
    2dc4:	00f6c6b3          	xor	a3,a3,a5
    2dc8:	fb843783          	ld	a5,-72(s0)
    2dcc:	0187d793          	srli	a5,a5,0x18
    2dd0:	0ff7f793          	andi	a5,a5,255
    2dd4:	0007861b          	addiw	a2,a5,0
    2dd8:	000007b7          	lui	a5,0x0
    2ddc:	30060613          	addi	a2,a2,768
    2de0:	00361613          	slli	a2,a2,0x3
    2de4:	00078793          	addi	a5,a5,0 # 0 <set_key>
    2de8:	00f607b3          	add	a5,a2,a5
    2dec:	0007b783          	ld	a5,0(a5)
    2df0:	00f6c7b3          	xor	a5,a3,a5
    2df4:	00f747b3          	xor	a5,a4,a5
    2df8:	fef43023          	sd	a5,-32(s0)
    2dfc:	fe843783          	ld	a5,-24(s0)
    2e00:	0e078793          	addi	a5,a5,224
    2e04:	0007b703          	ld	a4,0(a5)
    2e08:	fc843783          	ld	a5,-56(s0)
    2e0c:	0ff7f793          	andi	a5,a5,255
    2e10:	0007869b          	addiw	a3,a5,0
    2e14:	000007b7          	lui	a5,0x0
    2e18:	00369693          	slli	a3,a3,0x3
    2e1c:	00078793          	addi	a5,a5,0 # 0 <set_key>
    2e20:	00f687b3          	add	a5,a3,a5
    2e24:	0007b683          	ld	a3,0(a5)
    2e28:	fd043783          	ld	a5,-48(s0)
    2e2c:	0087d793          	srli	a5,a5,0x8
    2e30:	0ff7f793          	andi	a5,a5,255
    2e34:	0007861b          	addiw	a2,a5,0
    2e38:	000007b7          	lui	a5,0x0
    2e3c:	10060613          	addi	a2,a2,256
    2e40:	00361613          	slli	a2,a2,0x3
    2e44:	00078793          	addi	a5,a5,0 # 0 <set_key>
    2e48:	00f607b3          	add	a5,a2,a5
    2e4c:	0007b783          	ld	a5,0(a5)
    2e50:	00f6c6b3          	xor	a3,a3,a5
    2e54:	fd843783          	ld	a5,-40(s0)
    2e58:	0107d793          	srli	a5,a5,0x10
    2e5c:	0ff7f793          	andi	a5,a5,255
    2e60:	0007861b          	addiw	a2,a5,0
    2e64:	000007b7          	lui	a5,0x0
    2e68:	20060613          	addi	a2,a2,512
    2e6c:	00361613          	slli	a2,a2,0x3
    2e70:	00078793          	addi	a5,a5,0 # 0 <set_key>
    2e74:	00f607b3          	add	a5,a2,a5
    2e78:	0007b783          	ld	a5,0(a5)
    2e7c:	00f6c6b3          	xor	a3,a3,a5
    2e80:	fe043783          	ld	a5,-32(s0)
    2e84:	0187d793          	srli	a5,a5,0x18
    2e88:	0ff7f793          	andi	a5,a5,255
    2e8c:	0007861b          	addiw	a2,a5,0
    2e90:	000007b7          	lui	a5,0x0
    2e94:	30060613          	addi	a2,a2,768
    2e98:	00361613          	slli	a2,a2,0x3
    2e9c:	00078793          	addi	a5,a5,0 # 0 <set_key>
    2ea0:	00f607b3          	add	a5,a2,a5
    2ea4:	0007b783          	ld	a5,0(a5)
    2ea8:	00f6c7b3          	xor	a5,a3,a5
    2eac:	00f747b3          	xor	a5,a4,a5
    2eb0:	faf43423          	sd	a5,-88(s0)
    2eb4:	fe843783          	ld	a5,-24(s0)
    2eb8:	0e878793          	addi	a5,a5,232
    2ebc:	0007b703          	ld	a4,0(a5)
    2ec0:	fd043783          	ld	a5,-48(s0)
    2ec4:	0ff7f793          	andi	a5,a5,255
    2ec8:	0007869b          	addiw	a3,a5,0
    2ecc:	000007b7          	lui	a5,0x0
    2ed0:	00369693          	slli	a3,a3,0x3
    2ed4:	00078793          	addi	a5,a5,0 # 0 <set_key>
    2ed8:	00f687b3          	add	a5,a3,a5
    2edc:	0007b683          	ld	a3,0(a5)
    2ee0:	fd843783          	ld	a5,-40(s0)
    2ee4:	0087d793          	srli	a5,a5,0x8
    2ee8:	0ff7f793          	andi	a5,a5,255
    2eec:	0007861b          	addiw	a2,a5,0
    2ef0:	000007b7          	lui	a5,0x0
    2ef4:	10060613          	addi	a2,a2,256
    2ef8:	00361613          	slli	a2,a2,0x3
    2efc:	00078793          	addi	a5,a5,0 # 0 <set_key>
    2f00:	00f607b3          	add	a5,a2,a5
    2f04:	0007b783          	ld	a5,0(a5)
    2f08:	00f6c6b3          	xor	a3,a3,a5
    2f0c:	fe043783          	ld	a5,-32(s0)
    2f10:	0107d793          	srli	a5,a5,0x10
    2f14:	0ff7f793          	andi	a5,a5,255
    2f18:	0007861b          	addiw	a2,a5,0
    2f1c:	000007b7          	lui	a5,0x0
    2f20:	20060613          	addi	a2,a2,512
    2f24:	00361613          	slli	a2,a2,0x3
    2f28:	00078793          	addi	a5,a5,0 # 0 <set_key>
    2f2c:	00f607b3          	add	a5,a2,a5
    2f30:	0007b783          	ld	a5,0(a5)
    2f34:	00f6c6b3          	xor	a3,a3,a5
    2f38:	fc843783          	ld	a5,-56(s0)
    2f3c:	0187d793          	srli	a5,a5,0x18
    2f40:	0ff7f793          	andi	a5,a5,255
    2f44:	0007861b          	addiw	a2,a5,0
    2f48:	000007b7          	lui	a5,0x0
    2f4c:	30060613          	addi	a2,a2,768
    2f50:	00361613          	slli	a2,a2,0x3
    2f54:	00078793          	addi	a5,a5,0 # 0 <set_key>
    2f58:	00f607b3          	add	a5,a2,a5
    2f5c:	0007b783          	ld	a5,0(a5)
    2f60:	00f6c7b3          	xor	a5,a3,a5
    2f64:	00f747b3          	xor	a5,a4,a5
    2f68:	faf43823          	sd	a5,-80(s0)
    2f6c:	fe843783          	ld	a5,-24(s0)
    2f70:	0f078793          	addi	a5,a5,240
    2f74:	0007b703          	ld	a4,0(a5)
    2f78:	fd843783          	ld	a5,-40(s0)
    2f7c:	0ff7f793          	andi	a5,a5,255
    2f80:	0007869b          	addiw	a3,a5,0
    2f84:	000007b7          	lui	a5,0x0
    2f88:	00369693          	slli	a3,a3,0x3
    2f8c:	00078793          	addi	a5,a5,0 # 0 <set_key>
    2f90:	00f687b3          	add	a5,a3,a5
    2f94:	0007b683          	ld	a3,0(a5)
    2f98:	fe043783          	ld	a5,-32(s0)
    2f9c:	0087d793          	srli	a5,a5,0x8
    2fa0:	0ff7f793          	andi	a5,a5,255
    2fa4:	0007861b          	addiw	a2,a5,0
    2fa8:	000007b7          	lui	a5,0x0
    2fac:	10060613          	addi	a2,a2,256
    2fb0:	00361613          	slli	a2,a2,0x3
    2fb4:	00078793          	addi	a5,a5,0 # 0 <set_key>
    2fb8:	00f607b3          	add	a5,a2,a5
    2fbc:	0007b783          	ld	a5,0(a5)
    2fc0:	00f6c6b3          	xor	a3,a3,a5
    2fc4:	fc843783          	ld	a5,-56(s0)
    2fc8:	0107d793          	srli	a5,a5,0x10
    2fcc:	0ff7f793          	andi	a5,a5,255
    2fd0:	0007861b          	addiw	a2,a5,0
    2fd4:	000007b7          	lui	a5,0x0
    2fd8:	20060613          	addi	a2,a2,512
    2fdc:	00361613          	slli	a2,a2,0x3
    2fe0:	00078793          	addi	a5,a5,0 # 0 <set_key>
    2fe4:	00f607b3          	add	a5,a2,a5
    2fe8:	0007b783          	ld	a5,0(a5)
    2fec:	00f6c6b3          	xor	a3,a3,a5
    2ff0:	fd043783          	ld	a5,-48(s0)
    2ff4:	0187d793          	srli	a5,a5,0x18
    2ff8:	0ff7f793          	andi	a5,a5,255
    2ffc:	0007861b          	addiw	a2,a5,0
    3000:	000007b7          	lui	a5,0x0
    3004:	30060613          	addi	a2,a2,768
    3008:	00361613          	slli	a2,a2,0x3
    300c:	00078793          	addi	a5,a5,0 # 0 <set_key>
    3010:	00f607b3          	add	a5,a2,a5
    3014:	0007b783          	ld	a5,0(a5)
    3018:	00f6c7b3          	xor	a5,a3,a5
    301c:	00f747b3          	xor	a5,a4,a5
    3020:	faf43c23          	sd	a5,-72(s0)
    3024:	fe843783          	ld	a5,-24(s0)
    3028:	0f878793          	addi	a5,a5,248
    302c:	0007b703          	ld	a4,0(a5)
    3030:	fe043783          	ld	a5,-32(s0)
    3034:	0ff7f793          	andi	a5,a5,255
    3038:	0007869b          	addiw	a3,a5,0
    303c:	000007b7          	lui	a5,0x0
    3040:	00369693          	slli	a3,a3,0x3
    3044:	00078793          	addi	a5,a5,0 # 0 <set_key>
    3048:	00f687b3          	add	a5,a3,a5
    304c:	0007b683          	ld	a3,0(a5)
    3050:	fc843783          	ld	a5,-56(s0)
    3054:	0087d793          	srli	a5,a5,0x8
    3058:	0ff7f793          	andi	a5,a5,255
    305c:	0007861b          	addiw	a2,a5,0
    3060:	000007b7          	lui	a5,0x0
    3064:	10060613          	addi	a2,a2,256
    3068:	00361613          	slli	a2,a2,0x3
    306c:	00078793          	addi	a5,a5,0 # 0 <set_key>
    3070:	00f607b3          	add	a5,a2,a5
    3074:	0007b783          	ld	a5,0(a5)
    3078:	00f6c6b3          	xor	a3,a3,a5
    307c:	fd043783          	ld	a5,-48(s0)
    3080:	0107d793          	srli	a5,a5,0x10
    3084:	0ff7f793          	andi	a5,a5,255
    3088:	0007861b          	addiw	a2,a5,0
    308c:	000007b7          	lui	a5,0x0
    3090:	20060613          	addi	a2,a2,512
    3094:	00361613          	slli	a2,a2,0x3
    3098:	00078793          	addi	a5,a5,0 # 0 <set_key>
    309c:	00f607b3          	add	a5,a2,a5
    30a0:	0007b783          	ld	a5,0(a5)
    30a4:	00f6c6b3          	xor	a3,a3,a5
    30a8:	fd843783          	ld	a5,-40(s0)
    30ac:	0187d793          	srli	a5,a5,0x18
    30b0:	0ff7f793          	andi	a5,a5,255
    30b4:	0007861b          	addiw	a2,a5,0
    30b8:	000007b7          	lui	a5,0x0
    30bc:	30060613          	addi	a2,a2,768
    30c0:	00361613          	slli	a2,a2,0x3
    30c4:	00078793          	addi	a5,a5,0 # 0 <set_key>
    30c8:	00f607b3          	add	a5,a2,a5
    30cc:	0007b783          	ld	a5,0(a5)
    30d0:	00f6c7b3          	xor	a5,a3,a5
    30d4:	00f747b3          	xor	a5,a4,a5
    30d8:	fcf43023          	sd	a5,-64(s0)
    30dc:	fe843783          	ld	a5,-24(s0)
    30e0:	10078793          	addi	a5,a5,256
    30e4:	0007b703          	ld	a4,0(a5)
    30e8:	fa843783          	ld	a5,-88(s0)
    30ec:	0ff7f793          	andi	a5,a5,255
    30f0:	0007869b          	addiw	a3,a5,0
    30f4:	000007b7          	lui	a5,0x0
    30f8:	00369693          	slli	a3,a3,0x3
    30fc:	00078793          	addi	a5,a5,0 # 0 <set_key>
    3100:	00f687b3          	add	a5,a3,a5
    3104:	0007b683          	ld	a3,0(a5)
    3108:	fb043783          	ld	a5,-80(s0)
    310c:	0087d793          	srli	a5,a5,0x8
    3110:	0ff7f793          	andi	a5,a5,255
    3114:	0007861b          	addiw	a2,a5,0
    3118:	000007b7          	lui	a5,0x0
    311c:	10060613          	addi	a2,a2,256
    3120:	00361613          	slli	a2,a2,0x3
    3124:	00078793          	addi	a5,a5,0 # 0 <set_key>
    3128:	00f607b3          	add	a5,a2,a5
    312c:	0007b783          	ld	a5,0(a5)
    3130:	00f6c6b3          	xor	a3,a3,a5
    3134:	fb843783          	ld	a5,-72(s0)
    3138:	0107d793          	srli	a5,a5,0x10
    313c:	0ff7f793          	andi	a5,a5,255
    3140:	0007861b          	addiw	a2,a5,0
    3144:	000007b7          	lui	a5,0x0
    3148:	20060613          	addi	a2,a2,512
    314c:	00361613          	slli	a2,a2,0x3
    3150:	00078793          	addi	a5,a5,0 # 0 <set_key>
    3154:	00f607b3          	add	a5,a2,a5
    3158:	0007b783          	ld	a5,0(a5)
    315c:	00f6c6b3          	xor	a3,a3,a5
    3160:	fc043783          	ld	a5,-64(s0)
    3164:	0187d793          	srli	a5,a5,0x18
    3168:	0ff7f793          	andi	a5,a5,255
    316c:	0007861b          	addiw	a2,a5,0
    3170:	000007b7          	lui	a5,0x0
    3174:	30060613          	addi	a2,a2,768
    3178:	00361613          	slli	a2,a2,0x3
    317c:	00078793          	addi	a5,a5,0 # 0 <set_key>
    3180:	00f607b3          	add	a5,a2,a5
    3184:	0007b783          	ld	a5,0(a5)
    3188:	00f6c7b3          	xor	a5,a3,a5
    318c:	00f747b3          	xor	a5,a4,a5
    3190:	fcf43423          	sd	a5,-56(s0)
    3194:	fe843783          	ld	a5,-24(s0)
    3198:	10878793          	addi	a5,a5,264
    319c:	0007b703          	ld	a4,0(a5)
    31a0:	fb043783          	ld	a5,-80(s0)
    31a4:	0ff7f793          	andi	a5,a5,255
    31a8:	0007869b          	addiw	a3,a5,0
    31ac:	000007b7          	lui	a5,0x0
    31b0:	00369693          	slli	a3,a3,0x3
    31b4:	00078793          	addi	a5,a5,0 # 0 <set_key>
    31b8:	00f687b3          	add	a5,a3,a5
    31bc:	0007b683          	ld	a3,0(a5)
    31c0:	fb843783          	ld	a5,-72(s0)
    31c4:	0087d793          	srli	a5,a5,0x8
    31c8:	0ff7f793          	andi	a5,a5,255
    31cc:	0007861b          	addiw	a2,a5,0
    31d0:	000007b7          	lui	a5,0x0
    31d4:	10060613          	addi	a2,a2,256
    31d8:	00361613          	slli	a2,a2,0x3
    31dc:	00078793          	addi	a5,a5,0 # 0 <set_key>
    31e0:	00f607b3          	add	a5,a2,a5
    31e4:	0007b783          	ld	a5,0(a5)
    31e8:	00f6c6b3          	xor	a3,a3,a5
    31ec:	fc043783          	ld	a5,-64(s0)
    31f0:	0107d793          	srli	a5,a5,0x10
    31f4:	0ff7f793          	andi	a5,a5,255
    31f8:	0007861b          	addiw	a2,a5,0
    31fc:	000007b7          	lui	a5,0x0
    3200:	20060613          	addi	a2,a2,512
    3204:	00361613          	slli	a2,a2,0x3
    3208:	00078793          	addi	a5,a5,0 # 0 <set_key>
    320c:	00f607b3          	add	a5,a2,a5
    3210:	0007b783          	ld	a5,0(a5)
    3214:	00f6c6b3          	xor	a3,a3,a5
    3218:	fa843783          	ld	a5,-88(s0)
    321c:	0187d793          	srli	a5,a5,0x18
    3220:	0ff7f793          	andi	a5,a5,255
    3224:	0007861b          	addiw	a2,a5,0
    3228:	000007b7          	lui	a5,0x0
    322c:	30060613          	addi	a2,a2,768
    3230:	00361613          	slli	a2,a2,0x3
    3234:	00078793          	addi	a5,a5,0 # 0 <set_key>
    3238:	00f607b3          	add	a5,a2,a5
    323c:	0007b783          	ld	a5,0(a5)
    3240:	00f6c7b3          	xor	a5,a3,a5
    3244:	00f747b3          	xor	a5,a4,a5
    3248:	fcf43823          	sd	a5,-48(s0)
    324c:	fe843783          	ld	a5,-24(s0)
    3250:	11078793          	addi	a5,a5,272
    3254:	0007b703          	ld	a4,0(a5)
    3258:	fb843783          	ld	a5,-72(s0)
    325c:	0ff7f793          	andi	a5,a5,255
    3260:	0007869b          	addiw	a3,a5,0
    3264:	000007b7          	lui	a5,0x0
    3268:	00369693          	slli	a3,a3,0x3
    326c:	00078793          	addi	a5,a5,0 # 0 <set_key>
    3270:	00f687b3          	add	a5,a3,a5
    3274:	0007b683          	ld	a3,0(a5)
    3278:	fc043783          	ld	a5,-64(s0)
    327c:	0087d793          	srli	a5,a5,0x8
    3280:	0ff7f793          	andi	a5,a5,255
    3284:	0007861b          	addiw	a2,a5,0
    3288:	000007b7          	lui	a5,0x0
    328c:	10060613          	addi	a2,a2,256
    3290:	00361613          	slli	a2,a2,0x3
    3294:	00078793          	addi	a5,a5,0 # 0 <set_key>
    3298:	00f607b3          	add	a5,a2,a5
    329c:	0007b783          	ld	a5,0(a5)
    32a0:	00f6c6b3          	xor	a3,a3,a5
    32a4:	fa843783          	ld	a5,-88(s0)
    32a8:	0107d793          	srli	a5,a5,0x10
    32ac:	0ff7f793          	andi	a5,a5,255
    32b0:	0007861b          	addiw	a2,a5,0
    32b4:	000007b7          	lui	a5,0x0
    32b8:	20060613          	addi	a2,a2,512
    32bc:	00361613          	slli	a2,a2,0x3
    32c0:	00078793          	addi	a5,a5,0 # 0 <set_key>
    32c4:	00f607b3          	add	a5,a2,a5
    32c8:	0007b783          	ld	a5,0(a5)
    32cc:	00f6c6b3          	xor	a3,a3,a5
    32d0:	fb043783          	ld	a5,-80(s0)
    32d4:	0187d793          	srli	a5,a5,0x18
    32d8:	0ff7f793          	andi	a5,a5,255
    32dc:	0007861b          	addiw	a2,a5,0
    32e0:	000007b7          	lui	a5,0x0
    32e4:	30060613          	addi	a2,a2,768
    32e8:	00361613          	slli	a2,a2,0x3
    32ec:	00078793          	addi	a5,a5,0 # 0 <set_key>
    32f0:	00f607b3          	add	a5,a2,a5
    32f4:	0007b783          	ld	a5,0(a5)
    32f8:	00f6c7b3          	xor	a5,a3,a5
    32fc:	00f747b3          	xor	a5,a4,a5
    3300:	fcf43c23          	sd	a5,-40(s0)
    3304:	fe843783          	ld	a5,-24(s0)
    3308:	11878793          	addi	a5,a5,280
    330c:	0007b703          	ld	a4,0(a5)
    3310:	fc043783          	ld	a5,-64(s0)
    3314:	0ff7f793          	andi	a5,a5,255
    3318:	0007869b          	addiw	a3,a5,0
    331c:	000007b7          	lui	a5,0x0
    3320:	00369693          	slli	a3,a3,0x3
    3324:	00078793          	addi	a5,a5,0 # 0 <set_key>
    3328:	00f687b3          	add	a5,a3,a5
    332c:	0007b683          	ld	a3,0(a5)
    3330:	fa843783          	ld	a5,-88(s0)
    3334:	0087d793          	srli	a5,a5,0x8
    3338:	0ff7f793          	andi	a5,a5,255
    333c:	0007861b          	addiw	a2,a5,0
    3340:	000007b7          	lui	a5,0x0
    3344:	10060613          	addi	a2,a2,256
    3348:	00361613          	slli	a2,a2,0x3
    334c:	00078793          	addi	a5,a5,0 # 0 <set_key>
    3350:	00f607b3          	add	a5,a2,a5
    3354:	0007b783          	ld	a5,0(a5)
    3358:	00f6c6b3          	xor	a3,a3,a5
    335c:	fb043783          	ld	a5,-80(s0)
    3360:	0107d793          	srli	a5,a5,0x10
    3364:	0ff7f793          	andi	a5,a5,255
    3368:	0007861b          	addiw	a2,a5,0
    336c:	000007b7          	lui	a5,0x0
    3370:	20060613          	addi	a2,a2,512
    3374:	00361613          	slli	a2,a2,0x3
    3378:	00078793          	addi	a5,a5,0 # 0 <set_key>
    337c:	00f607b3          	add	a5,a2,a5
    3380:	0007b783          	ld	a5,0(a5)
    3384:	00f6c6b3          	xor	a3,a3,a5
    3388:	fb843783          	ld	a5,-72(s0)
    338c:	0187d793          	srli	a5,a5,0x18
    3390:	0ff7f793          	andi	a5,a5,255
    3394:	0007861b          	addiw	a2,a5,0
    3398:	000007b7          	lui	a5,0x0
    339c:	30060613          	addi	a2,a2,768
    33a0:	00361613          	slli	a2,a2,0x3
    33a4:	00078793          	addi	a5,a5,0 # 0 <set_key>
    33a8:	00f607b3          	add	a5,a2,a5
    33ac:	0007b783          	ld	a5,0(a5)
    33b0:	00f6c7b3          	xor	a5,a3,a5
    33b4:	00f747b3          	xor	a5,a4,a5
    33b8:	fef43023          	sd	a5,-32(s0)
    33bc:	fe843783          	ld	a5,-24(s0)
    33c0:	12078793          	addi	a5,a5,288
    33c4:	0007b703          	ld	a4,0(a5)
    33c8:	fc843783          	ld	a5,-56(s0)
    33cc:	0ff7f793          	andi	a5,a5,255
    33d0:	0007869b          	addiw	a3,a5,0
    33d4:	000007b7          	lui	a5,0x0
    33d8:	00369693          	slli	a3,a3,0x3
    33dc:	00078793          	addi	a5,a5,0 # 0 <set_key>
    33e0:	00f687b3          	add	a5,a3,a5
    33e4:	0007b683          	ld	a3,0(a5)
    33e8:	fd043783          	ld	a5,-48(s0)
    33ec:	0087d793          	srli	a5,a5,0x8
    33f0:	0ff7f793          	andi	a5,a5,255
    33f4:	0007861b          	addiw	a2,a5,0
    33f8:	000007b7          	lui	a5,0x0
    33fc:	10060613          	addi	a2,a2,256
    3400:	00361613          	slli	a2,a2,0x3
    3404:	00078793          	addi	a5,a5,0 # 0 <set_key>
    3408:	00f607b3          	add	a5,a2,a5
    340c:	0007b783          	ld	a5,0(a5)
    3410:	00f6c6b3          	xor	a3,a3,a5
    3414:	fd843783          	ld	a5,-40(s0)
    3418:	0107d793          	srli	a5,a5,0x10
    341c:	0ff7f793          	andi	a5,a5,255
    3420:	0007861b          	addiw	a2,a5,0
    3424:	000007b7          	lui	a5,0x0
    3428:	20060613          	addi	a2,a2,512
    342c:	00361613          	slli	a2,a2,0x3
    3430:	00078793          	addi	a5,a5,0 # 0 <set_key>
    3434:	00f607b3          	add	a5,a2,a5
    3438:	0007b783          	ld	a5,0(a5)
    343c:	00f6c6b3          	xor	a3,a3,a5
    3440:	fe043783          	ld	a5,-32(s0)
    3444:	0187d793          	srli	a5,a5,0x18
    3448:	0ff7f793          	andi	a5,a5,255
    344c:	0007861b          	addiw	a2,a5,0
    3450:	000007b7          	lui	a5,0x0
    3454:	30060613          	addi	a2,a2,768
    3458:	00361613          	slli	a2,a2,0x3
    345c:	00078793          	addi	a5,a5,0 # 0 <set_key>
    3460:	00f607b3          	add	a5,a2,a5
    3464:	0007b783          	ld	a5,0(a5)
    3468:	00f6c7b3          	xor	a5,a3,a5
    346c:	00f747b3          	xor	a5,a4,a5
    3470:	faf43423          	sd	a5,-88(s0)
    3474:	fe843783          	ld	a5,-24(s0)
    3478:	12878793          	addi	a5,a5,296
    347c:	0007b703          	ld	a4,0(a5)
    3480:	fd043783          	ld	a5,-48(s0)
    3484:	0ff7f793          	andi	a5,a5,255
    3488:	0007869b          	addiw	a3,a5,0
    348c:	000007b7          	lui	a5,0x0
    3490:	00369693          	slli	a3,a3,0x3
    3494:	00078793          	addi	a5,a5,0 # 0 <set_key>
    3498:	00f687b3          	add	a5,a3,a5
    349c:	0007b683          	ld	a3,0(a5)
    34a0:	fd843783          	ld	a5,-40(s0)
    34a4:	0087d793          	srli	a5,a5,0x8
    34a8:	0ff7f793          	andi	a5,a5,255
    34ac:	0007861b          	addiw	a2,a5,0
    34b0:	000007b7          	lui	a5,0x0
    34b4:	10060613          	addi	a2,a2,256
    34b8:	00361613          	slli	a2,a2,0x3
    34bc:	00078793          	addi	a5,a5,0 # 0 <set_key>
    34c0:	00f607b3          	add	a5,a2,a5
    34c4:	0007b783          	ld	a5,0(a5)
    34c8:	00f6c6b3          	xor	a3,a3,a5
    34cc:	fe043783          	ld	a5,-32(s0)
    34d0:	0107d793          	srli	a5,a5,0x10
    34d4:	0ff7f793          	andi	a5,a5,255
    34d8:	0007861b          	addiw	a2,a5,0
    34dc:	000007b7          	lui	a5,0x0
    34e0:	20060613          	addi	a2,a2,512
    34e4:	00361613          	slli	a2,a2,0x3
    34e8:	00078793          	addi	a5,a5,0 # 0 <set_key>
    34ec:	00f607b3          	add	a5,a2,a5
    34f0:	0007b783          	ld	a5,0(a5)
    34f4:	00f6c6b3          	xor	a3,a3,a5
    34f8:	fc843783          	ld	a5,-56(s0)
    34fc:	0187d793          	srli	a5,a5,0x18
    3500:	0ff7f793          	andi	a5,a5,255
    3504:	0007861b          	addiw	a2,a5,0
    3508:	000007b7          	lui	a5,0x0
    350c:	30060613          	addi	a2,a2,768
    3510:	00361613          	slli	a2,a2,0x3
    3514:	00078793          	addi	a5,a5,0 # 0 <set_key>
    3518:	00f607b3          	add	a5,a2,a5
    351c:	0007b783          	ld	a5,0(a5)
    3520:	00f6c7b3          	xor	a5,a3,a5
    3524:	00f747b3          	xor	a5,a4,a5
    3528:	faf43823          	sd	a5,-80(s0)
    352c:	fe843783          	ld	a5,-24(s0)
    3530:	13078793          	addi	a5,a5,304
    3534:	0007b703          	ld	a4,0(a5)
    3538:	fd843783          	ld	a5,-40(s0)
    353c:	0ff7f793          	andi	a5,a5,255
    3540:	0007869b          	addiw	a3,a5,0
    3544:	000007b7          	lui	a5,0x0
    3548:	00369693          	slli	a3,a3,0x3
    354c:	00078793          	addi	a5,a5,0 # 0 <set_key>
    3550:	00f687b3          	add	a5,a3,a5
    3554:	0007b683          	ld	a3,0(a5)
    3558:	fe043783          	ld	a5,-32(s0)
    355c:	0087d793          	srli	a5,a5,0x8
    3560:	0ff7f793          	andi	a5,a5,255
    3564:	0007861b          	addiw	a2,a5,0
    3568:	000007b7          	lui	a5,0x0
    356c:	10060613          	addi	a2,a2,256
    3570:	00361613          	slli	a2,a2,0x3
    3574:	00078793          	addi	a5,a5,0 # 0 <set_key>
    3578:	00f607b3          	add	a5,a2,a5
    357c:	0007b783          	ld	a5,0(a5)
    3580:	00f6c6b3          	xor	a3,a3,a5
    3584:	fc843783          	ld	a5,-56(s0)
    3588:	0107d793          	srli	a5,a5,0x10
    358c:	0ff7f793          	andi	a5,a5,255
    3590:	0007861b          	addiw	a2,a5,0
    3594:	000007b7          	lui	a5,0x0
    3598:	20060613          	addi	a2,a2,512
    359c:	00361613          	slli	a2,a2,0x3
    35a0:	00078793          	addi	a5,a5,0 # 0 <set_key>
    35a4:	00f607b3          	add	a5,a2,a5
    35a8:	0007b783          	ld	a5,0(a5)
    35ac:	00f6c6b3          	xor	a3,a3,a5
    35b0:	fd043783          	ld	a5,-48(s0)
    35b4:	0187d793          	srli	a5,a5,0x18
    35b8:	0ff7f793          	andi	a5,a5,255
    35bc:	0007861b          	addiw	a2,a5,0
    35c0:	000007b7          	lui	a5,0x0
    35c4:	30060613          	addi	a2,a2,768
    35c8:	00361613          	slli	a2,a2,0x3
    35cc:	00078793          	addi	a5,a5,0 # 0 <set_key>
    35d0:	00f607b3          	add	a5,a2,a5
    35d4:	0007b783          	ld	a5,0(a5)
    35d8:	00f6c7b3          	xor	a5,a3,a5
    35dc:	00f747b3          	xor	a5,a4,a5
    35e0:	faf43c23          	sd	a5,-72(s0)
    35e4:	fe843783          	ld	a5,-24(s0)
    35e8:	13878793          	addi	a5,a5,312
    35ec:	0007b703          	ld	a4,0(a5)
    35f0:	fe043783          	ld	a5,-32(s0)
    35f4:	0ff7f793          	andi	a5,a5,255
    35f8:	0007869b          	addiw	a3,a5,0
    35fc:	000007b7          	lui	a5,0x0
    3600:	00369693          	slli	a3,a3,0x3
    3604:	00078793          	addi	a5,a5,0 # 0 <set_key>
    3608:	00f687b3          	add	a5,a3,a5
    360c:	0007b683          	ld	a3,0(a5)
    3610:	fc843783          	ld	a5,-56(s0)
    3614:	0087d793          	srli	a5,a5,0x8
    3618:	0ff7f793          	andi	a5,a5,255
    361c:	0007861b          	addiw	a2,a5,0
    3620:	000007b7          	lui	a5,0x0
    3624:	10060613          	addi	a2,a2,256
    3628:	00361613          	slli	a2,a2,0x3
    362c:	00078793          	addi	a5,a5,0 # 0 <set_key>
    3630:	00f607b3          	add	a5,a2,a5
    3634:	0007b783          	ld	a5,0(a5)
    3638:	00f6c6b3          	xor	a3,a3,a5
    363c:	fd043783          	ld	a5,-48(s0)
    3640:	0107d793          	srli	a5,a5,0x10
    3644:	0ff7f793          	andi	a5,a5,255
    3648:	0007861b          	addiw	a2,a5,0
    364c:	000007b7          	lui	a5,0x0
    3650:	20060613          	addi	a2,a2,512
    3654:	00361613          	slli	a2,a2,0x3
    3658:	00078793          	addi	a5,a5,0 # 0 <set_key>
    365c:	00f607b3          	add	a5,a2,a5
    3660:	0007b783          	ld	a5,0(a5)
    3664:	00f6c6b3          	xor	a3,a3,a5
    3668:	fd843783          	ld	a5,-40(s0)
    366c:	0187d793          	srli	a5,a5,0x18
    3670:	0ff7f793          	andi	a5,a5,255
    3674:	0007861b          	addiw	a2,a5,0
    3678:	000007b7          	lui	a5,0x0
    367c:	30060613          	addi	a2,a2,768
    3680:	00361613          	slli	a2,a2,0x3
    3684:	00078793          	addi	a5,a5,0 # 0 <set_key>
    3688:	00f607b3          	add	a5,a2,a5
    368c:	0007b783          	ld	a5,0(a5)
    3690:	00f6c7b3          	xor	a5,a3,a5
    3694:	00f747b3          	xor	a5,a4,a5
    3698:	fcf43023          	sd	a5,-64(s0)

000000000000369c <.L21>:
    369c:	fa843703          	ld	a4,-88(s0)
    36a0:	f9043783          	ld	a5,-112(s0)
    36a4:	00e7b023          	sd	a4,0(a5)
    36a8:	f9043783          	ld	a5,-112(s0)
    36ac:	00478793          	addi	a5,a5,4
    36b0:	fb043703          	ld	a4,-80(s0)
    36b4:	00e7b023          	sd	a4,0(a5)
    36b8:	f9043783          	ld	a5,-112(s0)
    36bc:	00878793          	addi	a5,a5,8
    36c0:	fb843703          	ld	a4,-72(s0)
    36c4:	00e7b023          	sd	a4,0(a5)
    36c8:	f9043783          	ld	a5,-112(s0)
    36cc:	00c78793          	addi	a5,a5,12
    36d0:	fc043703          	ld	a4,-64(s0)
    36d4:	00e7b023          	sd	a4,0(a5)
    36d8:	00100793          	addi	a5,zero,1

00000000000036dc <.L25>:
    36dc:	00078513          	addi	a0,a5,0
    36e0:	07813403          	ld	s0,120(sp)
    36e4:	08010113          	addi	sp,sp,128
    36e8:	00008067          	jalr	zero,0(ra)

00000000000036ec <decrypt>:
    36ec:	f8010113          	addi	sp,sp,-128
    36f0:	06813c23          	sd	s0,120(sp)
    36f4:	08010413          	addi	s0,sp,128
    36f8:	f8a43c23          	sd	a0,-104(s0)
    36fc:	f8b43823          	sd	a1,-112(s0)
    3700:	f8c43423          	sd	a2,-120(s0)
    3704:	f8843783          	ld	a5,-120(s0)
    3708:	21078793          	addi	a5,a5,528
    370c:	fef43423          	sd	a5,-24(s0)
    3710:	f8843783          	ld	a5,-120(s0)
    3714:	4107c783          	lbu	a5,1040(a5)
    3718:	0007879b          	addiw	a5,a5,0
    371c:	0027f793          	andi	a5,a5,2
    3720:	0007879b          	addiw	a5,a5,0
    3724:	00079663          	bne	a5,zero,3730 <.L27>
    3728:	00000793          	addi	a5,zero,0
    372c:	1390206f          	jal	zero,6064 <.L33>

0000000000003730 <.L27>:
    3730:	f9843783          	ld	a5,-104(s0)
    3734:	0007b703          	ld	a4,0(a5)
    3738:	fe843783          	ld	a5,-24(s0)
    373c:	0007b783          	ld	a5,0(a5)
    3740:	00f747b3          	xor	a5,a4,a5
    3744:	faf43423          	sd	a5,-88(s0)
    3748:	f9843783          	ld	a5,-104(s0)
    374c:	00478793          	addi	a5,a5,4
    3750:	0007b703          	ld	a4,0(a5)
    3754:	fe843783          	ld	a5,-24(s0)
    3758:	00878793          	addi	a5,a5,8
    375c:	0007b783          	ld	a5,0(a5)
    3760:	00f747b3          	xor	a5,a4,a5
    3764:	faf43823          	sd	a5,-80(s0)
    3768:	f9843783          	ld	a5,-104(s0)
    376c:	00878793          	addi	a5,a5,8
    3770:	0007b703          	ld	a4,0(a5)
    3774:	fe843783          	ld	a5,-24(s0)
    3778:	01078793          	addi	a5,a5,16
    377c:	0007b783          	ld	a5,0(a5)
    3780:	00f747b3          	xor	a5,a4,a5
    3784:	faf43c23          	sd	a5,-72(s0)
    3788:	f9843783          	ld	a5,-104(s0)
    378c:	00c78793          	addi	a5,a5,12
    3790:	0007b703          	ld	a4,0(a5)
    3794:	fe843783          	ld	a5,-24(s0)
    3798:	01878793          	addi	a5,a5,24
    379c:	0007b783          	ld	a5,0(a5)
    37a0:	00f747b3          	xor	a5,a4,a5
    37a4:	fcf43023          	sd	a5,-64(s0)
    37a8:	fe843783          	ld	a5,-24(s0)
    37ac:	02078793          	addi	a5,a5,32
    37b0:	fef43423          	sd	a5,-24(s0)
    37b4:	f8843783          	ld	a5,-120(s0)
    37b8:	0087b783          	ld	a5,8(a5)
    37bc:	00c00713          	addi	a4,zero,12
    37c0:	5ee78063          	beq	a5,a4,3da0 <.L30>
    37c4:	00e00713          	addi	a4,zero,14
    37c8:	00e78863          	beq	a5,a4,37d8 <.L31>
    37cc:	00a00713          	addi	a4,zero,10
    37d0:	38e78ce3          	beq	a5,a4,4368 <.L32>
    37d4:	0510206f          	jal	zero,6024 <.L29>

00000000000037d8 <.L31>:
    37d8:	fe843783          	ld	a5,-24(s0)
    37dc:	0007b703          	ld	a4,0(a5)
    37e0:	fa843783          	ld	a5,-88(s0)
    37e4:	0ff7f793          	andi	a5,a5,255
    37e8:	0007869b          	addiw	a3,a5,0
    37ec:	000007b7          	lui	a5,0x0
    37f0:	00369693          	slli	a3,a3,0x3
    37f4:	00078793          	addi	a5,a5,0 # 0 <set_key>
    37f8:	00f687b3          	add	a5,a3,a5
    37fc:	0007b683          	ld	a3,0(a5)
    3800:	fc043783          	ld	a5,-64(s0)
    3804:	0087d793          	srli	a5,a5,0x8
    3808:	0ff7f793          	andi	a5,a5,255
    380c:	0007861b          	addiw	a2,a5,0
    3810:	000007b7          	lui	a5,0x0
    3814:	10060613          	addi	a2,a2,256
    3818:	00361613          	slli	a2,a2,0x3
    381c:	00078793          	addi	a5,a5,0 # 0 <set_key>
    3820:	00f607b3          	add	a5,a2,a5
    3824:	0007b783          	ld	a5,0(a5)
    3828:	00f6c6b3          	xor	a3,a3,a5
    382c:	fb843783          	ld	a5,-72(s0)
    3830:	0107d793          	srli	a5,a5,0x10
    3834:	0ff7f793          	andi	a5,a5,255
    3838:	0007861b          	addiw	a2,a5,0
    383c:	000007b7          	lui	a5,0x0
    3840:	20060613          	addi	a2,a2,512
    3844:	00361613          	slli	a2,a2,0x3
    3848:	00078793          	addi	a5,a5,0 # 0 <set_key>
    384c:	00f607b3          	add	a5,a2,a5
    3850:	0007b783          	ld	a5,0(a5)
    3854:	00f6c6b3          	xor	a3,a3,a5
    3858:	fb043783          	ld	a5,-80(s0)
    385c:	0187d793          	srli	a5,a5,0x18
    3860:	0ff7f793          	andi	a5,a5,255
    3864:	0007861b          	addiw	a2,a5,0
    3868:	000007b7          	lui	a5,0x0
    386c:	30060613          	addi	a2,a2,768
    3870:	00361613          	slli	a2,a2,0x3
    3874:	00078793          	addi	a5,a5,0 # 0 <set_key>
    3878:	00f607b3          	add	a5,a2,a5
    387c:	0007b783          	ld	a5,0(a5)
    3880:	00f6c7b3          	xor	a5,a3,a5
    3884:	00f747b3          	xor	a5,a4,a5
    3888:	fcf43423          	sd	a5,-56(s0)
    388c:	fe843783          	ld	a5,-24(s0)
    3890:	00878793          	addi	a5,a5,8
    3894:	0007b703          	ld	a4,0(a5)
    3898:	fb043783          	ld	a5,-80(s0)
    389c:	0ff7f793          	andi	a5,a5,255
    38a0:	0007869b          	addiw	a3,a5,0
    38a4:	000007b7          	lui	a5,0x0
    38a8:	00369693          	slli	a3,a3,0x3
    38ac:	00078793          	addi	a5,a5,0 # 0 <set_key>
    38b0:	00f687b3          	add	a5,a3,a5
    38b4:	0007b683          	ld	a3,0(a5)
    38b8:	fa843783          	ld	a5,-88(s0)
    38bc:	0087d793          	srli	a5,a5,0x8
    38c0:	0ff7f793          	andi	a5,a5,255
    38c4:	0007861b          	addiw	a2,a5,0
    38c8:	000007b7          	lui	a5,0x0
    38cc:	10060613          	addi	a2,a2,256
    38d0:	00361613          	slli	a2,a2,0x3
    38d4:	00078793          	addi	a5,a5,0 # 0 <set_key>
    38d8:	00f607b3          	add	a5,a2,a5
    38dc:	0007b783          	ld	a5,0(a5)
    38e0:	00f6c6b3          	xor	a3,a3,a5
    38e4:	fc043783          	ld	a5,-64(s0)
    38e8:	0107d793          	srli	a5,a5,0x10
    38ec:	0ff7f793          	andi	a5,a5,255
    38f0:	0007861b          	addiw	a2,a5,0
    38f4:	000007b7          	lui	a5,0x0
    38f8:	20060613          	addi	a2,a2,512
    38fc:	00361613          	slli	a2,a2,0x3
    3900:	00078793          	addi	a5,a5,0 # 0 <set_key>
    3904:	00f607b3          	add	a5,a2,a5
    3908:	0007b783          	ld	a5,0(a5)
    390c:	00f6c6b3          	xor	a3,a3,a5
    3910:	fb843783          	ld	a5,-72(s0)
    3914:	0187d793          	srli	a5,a5,0x18
    3918:	0ff7f793          	andi	a5,a5,255
    391c:	0007861b          	addiw	a2,a5,0
    3920:	000007b7          	lui	a5,0x0
    3924:	30060613          	addi	a2,a2,768
    3928:	00361613          	slli	a2,a2,0x3
    392c:	00078793          	addi	a5,a5,0 # 0 <set_key>
    3930:	00f607b3          	add	a5,a2,a5
    3934:	0007b783          	ld	a5,0(a5)
    3938:	00f6c7b3          	xor	a5,a3,a5
    393c:	00f747b3          	xor	a5,a4,a5
    3940:	fcf43823          	sd	a5,-48(s0)
    3944:	fe843783          	ld	a5,-24(s0)
    3948:	01078793          	addi	a5,a5,16
    394c:	0007b703          	ld	a4,0(a5)
    3950:	fb843783          	ld	a5,-72(s0)
    3954:	0ff7f793          	andi	a5,a5,255
    3958:	0007869b          	addiw	a3,a5,0
    395c:	000007b7          	lui	a5,0x0
    3960:	00369693          	slli	a3,a3,0x3
    3964:	00078793          	addi	a5,a5,0 # 0 <set_key>
    3968:	00f687b3          	add	a5,a3,a5
    396c:	0007b683          	ld	a3,0(a5)
    3970:	fb043783          	ld	a5,-80(s0)
    3974:	0087d793          	srli	a5,a5,0x8
    3978:	0ff7f793          	andi	a5,a5,255
    397c:	0007861b          	addiw	a2,a5,0
    3980:	000007b7          	lui	a5,0x0
    3984:	10060613          	addi	a2,a2,256
    3988:	00361613          	slli	a2,a2,0x3
    398c:	00078793          	addi	a5,a5,0 # 0 <set_key>
    3990:	00f607b3          	add	a5,a2,a5
    3994:	0007b783          	ld	a5,0(a5)
    3998:	00f6c6b3          	xor	a3,a3,a5
    399c:	fa843783          	ld	a5,-88(s0)
    39a0:	0107d793          	srli	a5,a5,0x10
    39a4:	0ff7f793          	andi	a5,a5,255
    39a8:	0007861b          	addiw	a2,a5,0
    39ac:	000007b7          	lui	a5,0x0
    39b0:	20060613          	addi	a2,a2,512
    39b4:	00361613          	slli	a2,a2,0x3
    39b8:	00078793          	addi	a5,a5,0 # 0 <set_key>
    39bc:	00f607b3          	add	a5,a2,a5
    39c0:	0007b783          	ld	a5,0(a5)
    39c4:	00f6c6b3          	xor	a3,a3,a5
    39c8:	fc043783          	ld	a5,-64(s0)
    39cc:	0187d793          	srli	a5,a5,0x18
    39d0:	0ff7f793          	andi	a5,a5,255
    39d4:	0007861b          	addiw	a2,a5,0
    39d8:	000007b7          	lui	a5,0x0
    39dc:	30060613          	addi	a2,a2,768
    39e0:	00361613          	slli	a2,a2,0x3
    39e4:	00078793          	addi	a5,a5,0 # 0 <set_key>
    39e8:	00f607b3          	add	a5,a2,a5
    39ec:	0007b783          	ld	a5,0(a5)
    39f0:	00f6c7b3          	xor	a5,a3,a5
    39f4:	00f747b3          	xor	a5,a4,a5
    39f8:	fcf43c23          	sd	a5,-40(s0)
    39fc:	fe843783          	ld	a5,-24(s0)
    3a00:	01878793          	addi	a5,a5,24
    3a04:	0007b703          	ld	a4,0(a5)
    3a08:	fc043783          	ld	a5,-64(s0)
    3a0c:	0ff7f793          	andi	a5,a5,255
    3a10:	0007869b          	addiw	a3,a5,0
    3a14:	000007b7          	lui	a5,0x0
    3a18:	00369693          	slli	a3,a3,0x3
    3a1c:	00078793          	addi	a5,a5,0 # 0 <set_key>
    3a20:	00f687b3          	add	a5,a3,a5
    3a24:	0007b683          	ld	a3,0(a5)
    3a28:	fb843783          	ld	a5,-72(s0)
    3a2c:	0087d793          	srli	a5,a5,0x8
    3a30:	0ff7f793          	andi	a5,a5,255
    3a34:	0007861b          	addiw	a2,a5,0
    3a38:	000007b7          	lui	a5,0x0
    3a3c:	10060613          	addi	a2,a2,256
    3a40:	00361613          	slli	a2,a2,0x3
    3a44:	00078793          	addi	a5,a5,0 # 0 <set_key>
    3a48:	00f607b3          	add	a5,a2,a5
    3a4c:	0007b783          	ld	a5,0(a5)
    3a50:	00f6c6b3          	xor	a3,a3,a5
    3a54:	fb043783          	ld	a5,-80(s0)
    3a58:	0107d793          	srli	a5,a5,0x10
    3a5c:	0ff7f793          	andi	a5,a5,255
    3a60:	0007861b          	addiw	a2,a5,0
    3a64:	000007b7          	lui	a5,0x0
    3a68:	20060613          	addi	a2,a2,512
    3a6c:	00361613          	slli	a2,a2,0x3
    3a70:	00078793          	addi	a5,a5,0 # 0 <set_key>
    3a74:	00f607b3          	add	a5,a2,a5
    3a78:	0007b783          	ld	a5,0(a5)
    3a7c:	00f6c6b3          	xor	a3,a3,a5
    3a80:	fa843783          	ld	a5,-88(s0)
    3a84:	0187d793          	srli	a5,a5,0x18
    3a88:	0ff7f793          	andi	a5,a5,255
    3a8c:	0007861b          	addiw	a2,a5,0
    3a90:	000007b7          	lui	a5,0x0
    3a94:	30060613          	addi	a2,a2,768
    3a98:	00361613          	slli	a2,a2,0x3
    3a9c:	00078793          	addi	a5,a5,0 # 0 <set_key>
    3aa0:	00f607b3          	add	a5,a2,a5
    3aa4:	0007b783          	ld	a5,0(a5)
    3aa8:	00f6c7b3          	xor	a5,a3,a5
    3aac:	00f747b3          	xor	a5,a4,a5
    3ab0:	fef43023          	sd	a5,-32(s0)
    3ab4:	fe843783          	ld	a5,-24(s0)
    3ab8:	02078793          	addi	a5,a5,32
    3abc:	0007b703          	ld	a4,0(a5)
    3ac0:	fc843783          	ld	a5,-56(s0)
    3ac4:	0ff7f793          	andi	a5,a5,255
    3ac8:	0007869b          	addiw	a3,a5,0
    3acc:	000007b7          	lui	a5,0x0
    3ad0:	00369693          	slli	a3,a3,0x3
    3ad4:	00078793          	addi	a5,a5,0 # 0 <set_key>
    3ad8:	00f687b3          	add	a5,a3,a5
    3adc:	0007b683          	ld	a3,0(a5)
    3ae0:	fe043783          	ld	a5,-32(s0)
    3ae4:	0087d793          	srli	a5,a5,0x8
    3ae8:	0ff7f793          	andi	a5,a5,255
    3aec:	0007861b          	addiw	a2,a5,0
    3af0:	000007b7          	lui	a5,0x0
    3af4:	10060613          	addi	a2,a2,256
    3af8:	00361613          	slli	a2,a2,0x3
    3afc:	00078793          	addi	a5,a5,0 # 0 <set_key>
    3b00:	00f607b3          	add	a5,a2,a5
    3b04:	0007b783          	ld	a5,0(a5)
    3b08:	00f6c6b3          	xor	a3,a3,a5
    3b0c:	fd843783          	ld	a5,-40(s0)
    3b10:	0107d793          	srli	a5,a5,0x10
    3b14:	0ff7f793          	andi	a5,a5,255
    3b18:	0007861b          	addiw	a2,a5,0
    3b1c:	000007b7          	lui	a5,0x0
    3b20:	20060613          	addi	a2,a2,512
    3b24:	00361613          	slli	a2,a2,0x3
    3b28:	00078793          	addi	a5,a5,0 # 0 <set_key>
    3b2c:	00f607b3          	add	a5,a2,a5
    3b30:	0007b783          	ld	a5,0(a5)
    3b34:	00f6c6b3          	xor	a3,a3,a5
    3b38:	fd043783          	ld	a5,-48(s0)
    3b3c:	0187d793          	srli	a5,a5,0x18
    3b40:	0ff7f793          	andi	a5,a5,255
    3b44:	0007861b          	addiw	a2,a5,0
    3b48:	000007b7          	lui	a5,0x0
    3b4c:	30060613          	addi	a2,a2,768
    3b50:	00361613          	slli	a2,a2,0x3
    3b54:	00078793          	addi	a5,a5,0 # 0 <set_key>
    3b58:	00f607b3          	add	a5,a2,a5
    3b5c:	0007b783          	ld	a5,0(a5)
    3b60:	00f6c7b3          	xor	a5,a3,a5
    3b64:	00f747b3          	xor	a5,a4,a5
    3b68:	faf43423          	sd	a5,-88(s0)
    3b6c:	fe843783          	ld	a5,-24(s0)
    3b70:	02878793          	addi	a5,a5,40
    3b74:	0007b703          	ld	a4,0(a5)
    3b78:	fd043783          	ld	a5,-48(s0)
    3b7c:	0ff7f793          	andi	a5,a5,255
    3b80:	0007869b          	addiw	a3,a5,0
    3b84:	000007b7          	lui	a5,0x0
    3b88:	00369693          	slli	a3,a3,0x3
    3b8c:	00078793          	addi	a5,a5,0 # 0 <set_key>
    3b90:	00f687b3          	add	a5,a3,a5
    3b94:	0007b683          	ld	a3,0(a5)
    3b98:	fc843783          	ld	a5,-56(s0)
    3b9c:	0087d793          	srli	a5,a5,0x8
    3ba0:	0ff7f793          	andi	a5,a5,255
    3ba4:	0007861b          	addiw	a2,a5,0
    3ba8:	000007b7          	lui	a5,0x0
    3bac:	10060613          	addi	a2,a2,256
    3bb0:	00361613          	slli	a2,a2,0x3
    3bb4:	00078793          	addi	a5,a5,0 # 0 <set_key>
    3bb8:	00f607b3          	add	a5,a2,a5
    3bbc:	0007b783          	ld	a5,0(a5)
    3bc0:	00f6c6b3          	xor	a3,a3,a5
    3bc4:	fe043783          	ld	a5,-32(s0)
    3bc8:	0107d793          	srli	a5,a5,0x10
    3bcc:	0ff7f793          	andi	a5,a5,255
    3bd0:	0007861b          	addiw	a2,a5,0
    3bd4:	000007b7          	lui	a5,0x0
    3bd8:	20060613          	addi	a2,a2,512
    3bdc:	00361613          	slli	a2,a2,0x3
    3be0:	00078793          	addi	a5,a5,0 # 0 <set_key>
    3be4:	00f607b3          	add	a5,a2,a5
    3be8:	0007b783          	ld	a5,0(a5)
    3bec:	00f6c6b3          	xor	a3,a3,a5
    3bf0:	fd843783          	ld	a5,-40(s0)
    3bf4:	0187d793          	srli	a5,a5,0x18
    3bf8:	0ff7f793          	andi	a5,a5,255
    3bfc:	0007861b          	addiw	a2,a5,0
    3c00:	000007b7          	lui	a5,0x0
    3c04:	30060613          	addi	a2,a2,768
    3c08:	00361613          	slli	a2,a2,0x3
    3c0c:	00078793          	addi	a5,a5,0 # 0 <set_key>
    3c10:	00f607b3          	add	a5,a2,a5
    3c14:	0007b783          	ld	a5,0(a5)
    3c18:	00f6c7b3          	xor	a5,a3,a5
    3c1c:	00f747b3          	xor	a5,a4,a5
    3c20:	faf43823          	sd	a5,-80(s0)
    3c24:	fe843783          	ld	a5,-24(s0)
    3c28:	03078793          	addi	a5,a5,48
    3c2c:	0007b703          	ld	a4,0(a5)
    3c30:	fd843783          	ld	a5,-40(s0)
    3c34:	0ff7f793          	andi	a5,a5,255
    3c38:	0007869b          	addiw	a3,a5,0
    3c3c:	000007b7          	lui	a5,0x0
    3c40:	00369693          	slli	a3,a3,0x3
    3c44:	00078793          	addi	a5,a5,0 # 0 <set_key>
    3c48:	00f687b3          	add	a5,a3,a5
    3c4c:	0007b683          	ld	a3,0(a5)
    3c50:	fd043783          	ld	a5,-48(s0)
    3c54:	0087d793          	srli	a5,a5,0x8
    3c58:	0ff7f793          	andi	a5,a5,255
    3c5c:	0007861b          	addiw	a2,a5,0
    3c60:	000007b7          	lui	a5,0x0
    3c64:	10060613          	addi	a2,a2,256
    3c68:	00361613          	slli	a2,a2,0x3
    3c6c:	00078793          	addi	a5,a5,0 # 0 <set_key>
    3c70:	00f607b3          	add	a5,a2,a5
    3c74:	0007b783          	ld	a5,0(a5)
    3c78:	00f6c6b3          	xor	a3,a3,a5
    3c7c:	fc843783          	ld	a5,-56(s0)
    3c80:	0107d793          	srli	a5,a5,0x10
    3c84:	0ff7f793          	andi	a5,a5,255
    3c88:	0007861b          	addiw	a2,a5,0
    3c8c:	000007b7          	lui	a5,0x0
    3c90:	20060613          	addi	a2,a2,512
    3c94:	00361613          	slli	a2,a2,0x3
    3c98:	00078793          	addi	a5,a5,0 # 0 <set_key>
    3c9c:	00f607b3          	add	a5,a2,a5
    3ca0:	0007b783          	ld	a5,0(a5)
    3ca4:	00f6c6b3          	xor	a3,a3,a5
    3ca8:	fe043783          	ld	a5,-32(s0)
    3cac:	0187d793          	srli	a5,a5,0x18
    3cb0:	0ff7f793          	andi	a5,a5,255
    3cb4:	0007861b          	addiw	a2,a5,0
    3cb8:	000007b7          	lui	a5,0x0
    3cbc:	30060613          	addi	a2,a2,768
    3cc0:	00361613          	slli	a2,a2,0x3
    3cc4:	00078793          	addi	a5,a5,0 # 0 <set_key>
    3cc8:	00f607b3          	add	a5,a2,a5
    3ccc:	0007b783          	ld	a5,0(a5)
    3cd0:	00f6c7b3          	xor	a5,a3,a5
    3cd4:	00f747b3          	xor	a5,a4,a5
    3cd8:	faf43c23          	sd	a5,-72(s0)
    3cdc:	fe843783          	ld	a5,-24(s0)
    3ce0:	03878793          	addi	a5,a5,56
    3ce4:	0007b703          	ld	a4,0(a5)
    3ce8:	fe043783          	ld	a5,-32(s0)
    3cec:	0ff7f793          	andi	a5,a5,255
    3cf0:	0007869b          	addiw	a3,a5,0
    3cf4:	000007b7          	lui	a5,0x0
    3cf8:	00369693          	slli	a3,a3,0x3
    3cfc:	00078793          	addi	a5,a5,0 # 0 <set_key>
    3d00:	00f687b3          	add	a5,a3,a5
    3d04:	0007b683          	ld	a3,0(a5)
    3d08:	fd843783          	ld	a5,-40(s0)
    3d0c:	0087d793          	srli	a5,a5,0x8
    3d10:	0ff7f793          	andi	a5,a5,255
    3d14:	0007861b          	addiw	a2,a5,0
    3d18:	000007b7          	lui	a5,0x0
    3d1c:	10060613          	addi	a2,a2,256
    3d20:	00361613          	slli	a2,a2,0x3
    3d24:	00078793          	addi	a5,a5,0 # 0 <set_key>
    3d28:	00f607b3          	add	a5,a2,a5
    3d2c:	0007b783          	ld	a5,0(a5)
    3d30:	00f6c6b3          	xor	a3,a3,a5
    3d34:	fd043783          	ld	a5,-48(s0)
    3d38:	0107d793          	srli	a5,a5,0x10
    3d3c:	0ff7f793          	andi	a5,a5,255
    3d40:	0007861b          	addiw	a2,a5,0
    3d44:	000007b7          	lui	a5,0x0
    3d48:	20060613          	addi	a2,a2,512
    3d4c:	00361613          	slli	a2,a2,0x3
    3d50:	00078793          	addi	a5,a5,0 # 0 <set_key>
    3d54:	00f607b3          	add	a5,a2,a5
    3d58:	0007b783          	ld	a5,0(a5)
    3d5c:	00f6c6b3          	xor	a3,a3,a5
    3d60:	fc843783          	ld	a5,-56(s0)
    3d64:	0187d793          	srli	a5,a5,0x18
    3d68:	0ff7f793          	andi	a5,a5,255
    3d6c:	0007861b          	addiw	a2,a5,0
    3d70:	000007b7          	lui	a5,0x0
    3d74:	30060613          	addi	a2,a2,768
    3d78:	00361613          	slli	a2,a2,0x3
    3d7c:	00078793          	addi	a5,a5,0 # 0 <set_key>
    3d80:	00f607b3          	add	a5,a2,a5
    3d84:	0007b783          	ld	a5,0(a5)
    3d88:	00f6c7b3          	xor	a5,a3,a5
    3d8c:	00f747b3          	xor	a5,a4,a5
    3d90:	fcf43023          	sd	a5,-64(s0)
    3d94:	fe843783          	ld	a5,-24(s0)
    3d98:	04078793          	addi	a5,a5,64
    3d9c:	fef43423          	sd	a5,-24(s0)

0000000000003da0 <.L30>:
    3da0:	fe843783          	ld	a5,-24(s0)
    3da4:	0007b703          	ld	a4,0(a5)
    3da8:	fa843783          	ld	a5,-88(s0)
    3dac:	0ff7f793          	andi	a5,a5,255
    3db0:	0007869b          	addiw	a3,a5,0
    3db4:	000007b7          	lui	a5,0x0
    3db8:	00369693          	slli	a3,a3,0x3
    3dbc:	00078793          	addi	a5,a5,0 # 0 <set_key>
    3dc0:	00f687b3          	add	a5,a3,a5
    3dc4:	0007b683          	ld	a3,0(a5)
    3dc8:	fc043783          	ld	a5,-64(s0)
    3dcc:	0087d793          	srli	a5,a5,0x8
    3dd0:	0ff7f793          	andi	a5,a5,255
    3dd4:	0007861b          	addiw	a2,a5,0
    3dd8:	000007b7          	lui	a5,0x0
    3ddc:	10060613          	addi	a2,a2,256
    3de0:	00361613          	slli	a2,a2,0x3
    3de4:	00078793          	addi	a5,a5,0 # 0 <set_key>
    3de8:	00f607b3          	add	a5,a2,a5
    3dec:	0007b783          	ld	a5,0(a5)
    3df0:	00f6c6b3          	xor	a3,a3,a5
    3df4:	fb843783          	ld	a5,-72(s0)
    3df8:	0107d793          	srli	a5,a5,0x10
    3dfc:	0ff7f793          	andi	a5,a5,255
    3e00:	0007861b          	addiw	a2,a5,0
    3e04:	000007b7          	lui	a5,0x0
    3e08:	20060613          	addi	a2,a2,512
    3e0c:	00361613          	slli	a2,a2,0x3
    3e10:	00078793          	addi	a5,a5,0 # 0 <set_key>
    3e14:	00f607b3          	add	a5,a2,a5
    3e18:	0007b783          	ld	a5,0(a5)
    3e1c:	00f6c6b3          	xor	a3,a3,a5
    3e20:	fb043783          	ld	a5,-80(s0)
    3e24:	0187d793          	srli	a5,a5,0x18
    3e28:	0ff7f793          	andi	a5,a5,255
    3e2c:	0007861b          	addiw	a2,a5,0
    3e30:	000007b7          	lui	a5,0x0
    3e34:	30060613          	addi	a2,a2,768
    3e38:	00361613          	slli	a2,a2,0x3
    3e3c:	00078793          	addi	a5,a5,0 # 0 <set_key>
    3e40:	00f607b3          	add	a5,a2,a5
    3e44:	0007b783          	ld	a5,0(a5)
    3e48:	00f6c7b3          	xor	a5,a3,a5
    3e4c:	00f747b3          	xor	a5,a4,a5
    3e50:	fcf43423          	sd	a5,-56(s0)
    3e54:	fe843783          	ld	a5,-24(s0)
    3e58:	00878793          	addi	a5,a5,8
    3e5c:	0007b703          	ld	a4,0(a5)
    3e60:	fb043783          	ld	a5,-80(s0)
    3e64:	0ff7f793          	andi	a5,a5,255
    3e68:	0007869b          	addiw	a3,a5,0
    3e6c:	000007b7          	lui	a5,0x0
    3e70:	00369693          	slli	a3,a3,0x3
    3e74:	00078793          	addi	a5,a5,0 # 0 <set_key>
    3e78:	00f687b3          	add	a5,a3,a5
    3e7c:	0007b683          	ld	a3,0(a5)
    3e80:	fa843783          	ld	a5,-88(s0)
    3e84:	0087d793          	srli	a5,a5,0x8
    3e88:	0ff7f793          	andi	a5,a5,255
    3e8c:	0007861b          	addiw	a2,a5,0
    3e90:	000007b7          	lui	a5,0x0
    3e94:	10060613          	addi	a2,a2,256
    3e98:	00361613          	slli	a2,a2,0x3
    3e9c:	00078793          	addi	a5,a5,0 # 0 <set_key>
    3ea0:	00f607b3          	add	a5,a2,a5
    3ea4:	0007b783          	ld	a5,0(a5)
    3ea8:	00f6c6b3          	xor	a3,a3,a5
    3eac:	fc043783          	ld	a5,-64(s0)
    3eb0:	0107d793          	srli	a5,a5,0x10
    3eb4:	0ff7f793          	andi	a5,a5,255
    3eb8:	0007861b          	addiw	a2,a5,0
    3ebc:	000007b7          	lui	a5,0x0
    3ec0:	20060613          	addi	a2,a2,512
    3ec4:	00361613          	slli	a2,a2,0x3
    3ec8:	00078793          	addi	a5,a5,0 # 0 <set_key>
    3ecc:	00f607b3          	add	a5,a2,a5
    3ed0:	0007b783          	ld	a5,0(a5)
    3ed4:	00f6c6b3          	xor	a3,a3,a5
    3ed8:	fb843783          	ld	a5,-72(s0)
    3edc:	0187d793          	srli	a5,a5,0x18
    3ee0:	0ff7f793          	andi	a5,a5,255
    3ee4:	0007861b          	addiw	a2,a5,0
    3ee8:	000007b7          	lui	a5,0x0
    3eec:	30060613          	addi	a2,a2,768
    3ef0:	00361613          	slli	a2,a2,0x3
    3ef4:	00078793          	addi	a5,a5,0 # 0 <set_key>
    3ef8:	00f607b3          	add	a5,a2,a5
    3efc:	0007b783          	ld	a5,0(a5)
    3f00:	00f6c7b3          	xor	a5,a3,a5
    3f04:	00f747b3          	xor	a5,a4,a5
    3f08:	fcf43823          	sd	a5,-48(s0)
    3f0c:	fe843783          	ld	a5,-24(s0)
    3f10:	01078793          	addi	a5,a5,16
    3f14:	0007b703          	ld	a4,0(a5)
    3f18:	fb843783          	ld	a5,-72(s0)
    3f1c:	0ff7f793          	andi	a5,a5,255
    3f20:	0007869b          	addiw	a3,a5,0
    3f24:	000007b7          	lui	a5,0x0
    3f28:	00369693          	slli	a3,a3,0x3
    3f2c:	00078793          	addi	a5,a5,0 # 0 <set_key>
    3f30:	00f687b3          	add	a5,a3,a5
    3f34:	0007b683          	ld	a3,0(a5)
    3f38:	fb043783          	ld	a5,-80(s0)
    3f3c:	0087d793          	srli	a5,a5,0x8
    3f40:	0ff7f793          	andi	a5,a5,255
    3f44:	0007861b          	addiw	a2,a5,0
    3f48:	000007b7          	lui	a5,0x0
    3f4c:	10060613          	addi	a2,a2,256
    3f50:	00361613          	slli	a2,a2,0x3
    3f54:	00078793          	addi	a5,a5,0 # 0 <set_key>
    3f58:	00f607b3          	add	a5,a2,a5
    3f5c:	0007b783          	ld	a5,0(a5)
    3f60:	00f6c6b3          	xor	a3,a3,a5
    3f64:	fa843783          	ld	a5,-88(s0)
    3f68:	0107d793          	srli	a5,a5,0x10
    3f6c:	0ff7f793          	andi	a5,a5,255
    3f70:	0007861b          	addiw	a2,a5,0
    3f74:	000007b7          	lui	a5,0x0
    3f78:	20060613          	addi	a2,a2,512
    3f7c:	00361613          	slli	a2,a2,0x3
    3f80:	00078793          	addi	a5,a5,0 # 0 <set_key>
    3f84:	00f607b3          	add	a5,a2,a5
    3f88:	0007b783          	ld	a5,0(a5)
    3f8c:	00f6c6b3          	xor	a3,a3,a5
    3f90:	fc043783          	ld	a5,-64(s0)
    3f94:	0187d793          	srli	a5,a5,0x18
    3f98:	0ff7f793          	andi	a5,a5,255
    3f9c:	0007861b          	addiw	a2,a5,0
    3fa0:	000007b7          	lui	a5,0x0
    3fa4:	30060613          	addi	a2,a2,768
    3fa8:	00361613          	slli	a2,a2,0x3
    3fac:	00078793          	addi	a5,a5,0 # 0 <set_key>
    3fb0:	00f607b3          	add	a5,a2,a5
    3fb4:	0007b783          	ld	a5,0(a5)
    3fb8:	00f6c7b3          	xor	a5,a3,a5
    3fbc:	00f747b3          	xor	a5,a4,a5
    3fc0:	fcf43c23          	sd	a5,-40(s0)
    3fc4:	fe843783          	ld	a5,-24(s0)
    3fc8:	01878793          	addi	a5,a5,24
    3fcc:	0007b703          	ld	a4,0(a5)
    3fd0:	fc043783          	ld	a5,-64(s0)
    3fd4:	0ff7f793          	andi	a5,a5,255
    3fd8:	0007869b          	addiw	a3,a5,0
    3fdc:	000007b7          	lui	a5,0x0
    3fe0:	00369693          	slli	a3,a3,0x3
    3fe4:	00078793          	addi	a5,a5,0 # 0 <set_key>
    3fe8:	00f687b3          	add	a5,a3,a5
    3fec:	0007b683          	ld	a3,0(a5)
    3ff0:	fb843783          	ld	a5,-72(s0)
    3ff4:	0087d793          	srli	a5,a5,0x8
    3ff8:	0ff7f793          	andi	a5,a5,255
    3ffc:	0007861b          	addiw	a2,a5,0
    4000:	000007b7          	lui	a5,0x0
    4004:	10060613          	addi	a2,a2,256
    4008:	00361613          	slli	a2,a2,0x3
    400c:	00078793          	addi	a5,a5,0 # 0 <set_key>
    4010:	00f607b3          	add	a5,a2,a5
    4014:	0007b783          	ld	a5,0(a5)
    4018:	00f6c6b3          	xor	a3,a3,a5
    401c:	fb043783          	ld	a5,-80(s0)
    4020:	0107d793          	srli	a5,a5,0x10
    4024:	0ff7f793          	andi	a5,a5,255
    4028:	0007861b          	addiw	a2,a5,0
    402c:	000007b7          	lui	a5,0x0
    4030:	20060613          	addi	a2,a2,512
    4034:	00361613          	slli	a2,a2,0x3
    4038:	00078793          	addi	a5,a5,0 # 0 <set_key>
    403c:	00f607b3          	add	a5,a2,a5
    4040:	0007b783          	ld	a5,0(a5)
    4044:	00f6c6b3          	xor	a3,a3,a5
    4048:	fa843783          	ld	a5,-88(s0)
    404c:	0187d793          	srli	a5,a5,0x18
    4050:	0ff7f793          	andi	a5,a5,255
    4054:	0007861b          	addiw	a2,a5,0
    4058:	000007b7          	lui	a5,0x0
    405c:	30060613          	addi	a2,a2,768
    4060:	00361613          	slli	a2,a2,0x3
    4064:	00078793          	addi	a5,a5,0 # 0 <set_key>
    4068:	00f607b3          	add	a5,a2,a5
    406c:	0007b783          	ld	a5,0(a5)
    4070:	00f6c7b3          	xor	a5,a3,a5
    4074:	00f747b3          	xor	a5,a4,a5
    4078:	fef43023          	sd	a5,-32(s0)
    407c:	fe843783          	ld	a5,-24(s0)
    4080:	02078793          	addi	a5,a5,32
    4084:	0007b703          	ld	a4,0(a5)
    4088:	fc843783          	ld	a5,-56(s0)
    408c:	0ff7f793          	andi	a5,a5,255
    4090:	0007869b          	addiw	a3,a5,0
    4094:	000007b7          	lui	a5,0x0
    4098:	00369693          	slli	a3,a3,0x3
    409c:	00078793          	addi	a5,a5,0 # 0 <set_key>
    40a0:	00f687b3          	add	a5,a3,a5
    40a4:	0007b683          	ld	a3,0(a5)
    40a8:	fe043783          	ld	a5,-32(s0)
    40ac:	0087d793          	srli	a5,a5,0x8
    40b0:	0ff7f793          	andi	a5,a5,255
    40b4:	0007861b          	addiw	a2,a5,0
    40b8:	000007b7          	lui	a5,0x0
    40bc:	10060613          	addi	a2,a2,256
    40c0:	00361613          	slli	a2,a2,0x3
    40c4:	00078793          	addi	a5,a5,0 # 0 <set_key>
    40c8:	00f607b3          	add	a5,a2,a5
    40cc:	0007b783          	ld	a5,0(a5)
    40d0:	00f6c6b3          	xor	a3,a3,a5
    40d4:	fd843783          	ld	a5,-40(s0)
    40d8:	0107d793          	srli	a5,a5,0x10
    40dc:	0ff7f793          	andi	a5,a5,255
    40e0:	0007861b          	addiw	a2,a5,0
    40e4:	000007b7          	lui	a5,0x0
    40e8:	20060613          	addi	a2,a2,512
    40ec:	00361613          	slli	a2,a2,0x3
    40f0:	00078793          	addi	a5,a5,0 # 0 <set_key>
    40f4:	00f607b3          	add	a5,a2,a5
    40f8:	0007b783          	ld	a5,0(a5)
    40fc:	00f6c6b3          	xor	a3,a3,a5
    4100:	fd043783          	ld	a5,-48(s0)
    4104:	0187d793          	srli	a5,a5,0x18
    4108:	0ff7f793          	andi	a5,a5,255
    410c:	0007861b          	addiw	a2,a5,0
    4110:	000007b7          	lui	a5,0x0
    4114:	30060613          	addi	a2,a2,768
    4118:	00361613          	slli	a2,a2,0x3
    411c:	00078793          	addi	a5,a5,0 # 0 <set_key>
    4120:	00f607b3          	add	a5,a2,a5
    4124:	0007b783          	ld	a5,0(a5)
    4128:	00f6c7b3          	xor	a5,a3,a5
    412c:	00f747b3          	xor	a5,a4,a5
    4130:	faf43423          	sd	a5,-88(s0)
    4134:	fe843783          	ld	a5,-24(s0)
    4138:	02878793          	addi	a5,a5,40
    413c:	0007b703          	ld	a4,0(a5)
    4140:	fd043783          	ld	a5,-48(s0)
    4144:	0ff7f793          	andi	a5,a5,255
    4148:	0007869b          	addiw	a3,a5,0
    414c:	000007b7          	lui	a5,0x0
    4150:	00369693          	slli	a3,a3,0x3
    4154:	00078793          	addi	a5,a5,0 # 0 <set_key>
    4158:	00f687b3          	add	a5,a3,a5
    415c:	0007b683          	ld	a3,0(a5)
    4160:	fc843783          	ld	a5,-56(s0)
    4164:	0087d793          	srli	a5,a5,0x8
    4168:	0ff7f793          	andi	a5,a5,255
    416c:	0007861b          	addiw	a2,a5,0
    4170:	000007b7          	lui	a5,0x0
    4174:	10060613          	addi	a2,a2,256
    4178:	00361613          	slli	a2,a2,0x3
    417c:	00078793          	addi	a5,a5,0 # 0 <set_key>
    4180:	00f607b3          	add	a5,a2,a5
    4184:	0007b783          	ld	a5,0(a5)
    4188:	00f6c6b3          	xor	a3,a3,a5
    418c:	fe043783          	ld	a5,-32(s0)
    4190:	0107d793          	srli	a5,a5,0x10
    4194:	0ff7f793          	andi	a5,a5,255
    4198:	0007861b          	addiw	a2,a5,0
    419c:	000007b7          	lui	a5,0x0
    41a0:	20060613          	addi	a2,a2,512
    41a4:	00361613          	slli	a2,a2,0x3
    41a8:	00078793          	addi	a5,a5,0 # 0 <set_key>
    41ac:	00f607b3          	add	a5,a2,a5
    41b0:	0007b783          	ld	a5,0(a5)
    41b4:	00f6c6b3          	xor	a3,a3,a5
    41b8:	fd843783          	ld	a5,-40(s0)
    41bc:	0187d793          	srli	a5,a5,0x18
    41c0:	0ff7f793          	andi	a5,a5,255
    41c4:	0007861b          	addiw	a2,a5,0
    41c8:	000007b7          	lui	a5,0x0
    41cc:	30060613          	addi	a2,a2,768
    41d0:	00361613          	slli	a2,a2,0x3
    41d4:	00078793          	addi	a5,a5,0 # 0 <set_key>
    41d8:	00f607b3          	add	a5,a2,a5
    41dc:	0007b783          	ld	a5,0(a5)
    41e0:	00f6c7b3          	xor	a5,a3,a5
    41e4:	00f747b3          	xor	a5,a4,a5
    41e8:	faf43823          	sd	a5,-80(s0)
    41ec:	fe843783          	ld	a5,-24(s0)
    41f0:	03078793          	addi	a5,a5,48
    41f4:	0007b703          	ld	a4,0(a5)
    41f8:	fd843783          	ld	a5,-40(s0)
    41fc:	0ff7f793          	andi	a5,a5,255
    4200:	0007869b          	addiw	a3,a5,0
    4204:	000007b7          	lui	a5,0x0
    4208:	00369693          	slli	a3,a3,0x3
    420c:	00078793          	addi	a5,a5,0 # 0 <set_key>
    4210:	00f687b3          	add	a5,a3,a5
    4214:	0007b683          	ld	a3,0(a5)
    4218:	fd043783          	ld	a5,-48(s0)
    421c:	0087d793          	srli	a5,a5,0x8
    4220:	0ff7f793          	andi	a5,a5,255
    4224:	0007861b          	addiw	a2,a5,0
    4228:	000007b7          	lui	a5,0x0
    422c:	10060613          	addi	a2,a2,256
    4230:	00361613          	slli	a2,a2,0x3
    4234:	00078793          	addi	a5,a5,0 # 0 <set_key>
    4238:	00f607b3          	add	a5,a2,a5
    423c:	0007b783          	ld	a5,0(a5)
    4240:	00f6c6b3          	xor	a3,a3,a5
    4244:	fc843783          	ld	a5,-56(s0)
    4248:	0107d793          	srli	a5,a5,0x10
    424c:	0ff7f793          	andi	a5,a5,255
    4250:	0007861b          	addiw	a2,a5,0
    4254:	000007b7          	lui	a5,0x0
    4258:	20060613          	addi	a2,a2,512
    425c:	00361613          	slli	a2,a2,0x3
    4260:	00078793          	addi	a5,a5,0 # 0 <set_key>
    4264:	00f607b3          	add	a5,a2,a5
    4268:	0007b783          	ld	a5,0(a5)
    426c:	00f6c6b3          	xor	a3,a3,a5
    4270:	fe043783          	ld	a5,-32(s0)
    4274:	0187d793          	srli	a5,a5,0x18
    4278:	0ff7f793          	andi	a5,a5,255
    427c:	0007861b          	addiw	a2,a5,0
    4280:	000007b7          	lui	a5,0x0
    4284:	30060613          	addi	a2,a2,768
    4288:	00361613          	slli	a2,a2,0x3
    428c:	00078793          	addi	a5,a5,0 # 0 <set_key>
    4290:	00f607b3          	add	a5,a2,a5
    4294:	0007b783          	ld	a5,0(a5)
    4298:	00f6c7b3          	xor	a5,a3,a5
    429c:	00f747b3          	xor	a5,a4,a5
    42a0:	faf43c23          	sd	a5,-72(s0)
    42a4:	fe843783          	ld	a5,-24(s0)
    42a8:	03878793          	addi	a5,a5,56
    42ac:	0007b703          	ld	a4,0(a5)
    42b0:	fe043783          	ld	a5,-32(s0)
    42b4:	0ff7f793          	andi	a5,a5,255
    42b8:	0007869b          	addiw	a3,a5,0
    42bc:	000007b7          	lui	a5,0x0
    42c0:	00369693          	slli	a3,a3,0x3
    42c4:	00078793          	addi	a5,a5,0 # 0 <set_key>
    42c8:	00f687b3          	add	a5,a3,a5
    42cc:	0007b683          	ld	a3,0(a5)
    42d0:	fd843783          	ld	a5,-40(s0)
    42d4:	0087d793          	srli	a5,a5,0x8
    42d8:	0ff7f793          	andi	a5,a5,255
    42dc:	0007861b          	addiw	a2,a5,0
    42e0:	000007b7          	lui	a5,0x0
    42e4:	10060613          	addi	a2,a2,256
    42e8:	00361613          	slli	a2,a2,0x3
    42ec:	00078793          	addi	a5,a5,0 # 0 <set_key>
    42f0:	00f607b3          	add	a5,a2,a5
    42f4:	0007b783          	ld	a5,0(a5)
    42f8:	00f6c6b3          	xor	a3,a3,a5
    42fc:	fd043783          	ld	a5,-48(s0)
    4300:	0107d793          	srli	a5,a5,0x10
    4304:	0ff7f793          	andi	a5,a5,255
    4308:	0007861b          	addiw	a2,a5,0
    430c:	000007b7          	lui	a5,0x0
    4310:	20060613          	addi	a2,a2,512
    4314:	00361613          	slli	a2,a2,0x3
    4318:	00078793          	addi	a5,a5,0 # 0 <set_key>
    431c:	00f607b3          	add	a5,a2,a5
    4320:	0007b783          	ld	a5,0(a5)
    4324:	00f6c6b3          	xor	a3,a3,a5
    4328:	fc843783          	ld	a5,-56(s0)
    432c:	0187d793          	srli	a5,a5,0x18
    4330:	0ff7f793          	andi	a5,a5,255
    4334:	0007861b          	addiw	a2,a5,0
    4338:	000007b7          	lui	a5,0x0
    433c:	30060613          	addi	a2,a2,768
    4340:	00361613          	slli	a2,a2,0x3
    4344:	00078793          	addi	a5,a5,0 # 0 <set_key>
    4348:	00f607b3          	add	a5,a2,a5
    434c:	0007b783          	ld	a5,0(a5)
    4350:	00f6c7b3          	xor	a5,a3,a5
    4354:	00f747b3          	xor	a5,a4,a5
    4358:	fcf43023          	sd	a5,-64(s0)
    435c:	fe843783          	ld	a5,-24(s0)
    4360:	04078793          	addi	a5,a5,64
    4364:	fef43423          	sd	a5,-24(s0)

0000000000004368 <.L32>:
    4368:	fe843783          	ld	a5,-24(s0)
    436c:	0007b703          	ld	a4,0(a5)
    4370:	fa843783          	ld	a5,-88(s0)
    4374:	0ff7f793          	andi	a5,a5,255
    4378:	0007869b          	addiw	a3,a5,0
    437c:	000007b7          	lui	a5,0x0
    4380:	00369693          	slli	a3,a3,0x3
    4384:	00078793          	addi	a5,a5,0 # 0 <set_key>
    4388:	00f687b3          	add	a5,a3,a5
    438c:	0007b683          	ld	a3,0(a5)
    4390:	fc043783          	ld	a5,-64(s0)
    4394:	0087d793          	srli	a5,a5,0x8
    4398:	0ff7f793          	andi	a5,a5,255
    439c:	0007861b          	addiw	a2,a5,0
    43a0:	000007b7          	lui	a5,0x0
    43a4:	10060613          	addi	a2,a2,256
    43a8:	00361613          	slli	a2,a2,0x3
    43ac:	00078793          	addi	a5,a5,0 # 0 <set_key>
    43b0:	00f607b3          	add	a5,a2,a5
    43b4:	0007b783          	ld	a5,0(a5)
    43b8:	00f6c6b3          	xor	a3,a3,a5
    43bc:	fb843783          	ld	a5,-72(s0)
    43c0:	0107d793          	srli	a5,a5,0x10
    43c4:	0ff7f793          	andi	a5,a5,255
    43c8:	0007861b          	addiw	a2,a5,0
    43cc:	000007b7          	lui	a5,0x0
    43d0:	20060613          	addi	a2,a2,512
    43d4:	00361613          	slli	a2,a2,0x3
    43d8:	00078793          	addi	a5,a5,0 # 0 <set_key>
    43dc:	00f607b3          	add	a5,a2,a5
    43e0:	0007b783          	ld	a5,0(a5)
    43e4:	00f6c6b3          	xor	a3,a3,a5
    43e8:	fb043783          	ld	a5,-80(s0)
    43ec:	0187d793          	srli	a5,a5,0x18
    43f0:	0ff7f793          	andi	a5,a5,255
    43f4:	0007861b          	addiw	a2,a5,0
    43f8:	000007b7          	lui	a5,0x0
    43fc:	30060613          	addi	a2,a2,768
    4400:	00361613          	slli	a2,a2,0x3
    4404:	00078793          	addi	a5,a5,0 # 0 <set_key>
    4408:	00f607b3          	add	a5,a2,a5
    440c:	0007b783          	ld	a5,0(a5)
    4410:	00f6c7b3          	xor	a5,a3,a5
    4414:	00f747b3          	xor	a5,a4,a5
    4418:	fcf43423          	sd	a5,-56(s0)
    441c:	fe843783          	ld	a5,-24(s0)
    4420:	00878793          	addi	a5,a5,8
    4424:	0007b703          	ld	a4,0(a5)
    4428:	fb043783          	ld	a5,-80(s0)
    442c:	0ff7f793          	andi	a5,a5,255
    4430:	0007869b          	addiw	a3,a5,0
    4434:	000007b7          	lui	a5,0x0
    4438:	00369693          	slli	a3,a3,0x3
    443c:	00078793          	addi	a5,a5,0 # 0 <set_key>
    4440:	00f687b3          	add	a5,a3,a5
    4444:	0007b683          	ld	a3,0(a5)
    4448:	fa843783          	ld	a5,-88(s0)
    444c:	0087d793          	srli	a5,a5,0x8
    4450:	0ff7f793          	andi	a5,a5,255
    4454:	0007861b          	addiw	a2,a5,0
    4458:	000007b7          	lui	a5,0x0
    445c:	10060613          	addi	a2,a2,256
    4460:	00361613          	slli	a2,a2,0x3
    4464:	00078793          	addi	a5,a5,0 # 0 <set_key>
    4468:	00f607b3          	add	a5,a2,a5
    446c:	0007b783          	ld	a5,0(a5)
    4470:	00f6c6b3          	xor	a3,a3,a5
    4474:	fc043783          	ld	a5,-64(s0)
    4478:	0107d793          	srli	a5,a5,0x10
    447c:	0ff7f793          	andi	a5,a5,255
    4480:	0007861b          	addiw	a2,a5,0
    4484:	000007b7          	lui	a5,0x0
    4488:	20060613          	addi	a2,a2,512
    448c:	00361613          	slli	a2,a2,0x3
    4490:	00078793          	addi	a5,a5,0 # 0 <set_key>
    4494:	00f607b3          	add	a5,a2,a5
    4498:	0007b783          	ld	a5,0(a5)
    449c:	00f6c6b3          	xor	a3,a3,a5
    44a0:	fb843783          	ld	a5,-72(s0)
    44a4:	0187d793          	srli	a5,a5,0x18
    44a8:	0ff7f793          	andi	a5,a5,255
    44ac:	0007861b          	addiw	a2,a5,0
    44b0:	000007b7          	lui	a5,0x0
    44b4:	30060613          	addi	a2,a2,768
    44b8:	00361613          	slli	a2,a2,0x3
    44bc:	00078793          	addi	a5,a5,0 # 0 <set_key>
    44c0:	00f607b3          	add	a5,a2,a5
    44c4:	0007b783          	ld	a5,0(a5)
    44c8:	00f6c7b3          	xor	a5,a3,a5
    44cc:	00f747b3          	xor	a5,a4,a5
    44d0:	fcf43823          	sd	a5,-48(s0)
    44d4:	fe843783          	ld	a5,-24(s0)
    44d8:	01078793          	addi	a5,a5,16
    44dc:	0007b703          	ld	a4,0(a5)
    44e0:	fb843783          	ld	a5,-72(s0)
    44e4:	0ff7f793          	andi	a5,a5,255
    44e8:	0007869b          	addiw	a3,a5,0
    44ec:	000007b7          	lui	a5,0x0
    44f0:	00369693          	slli	a3,a3,0x3
    44f4:	00078793          	addi	a5,a5,0 # 0 <set_key>
    44f8:	00f687b3          	add	a5,a3,a5
    44fc:	0007b683          	ld	a3,0(a5)
    4500:	fb043783          	ld	a5,-80(s0)
    4504:	0087d793          	srli	a5,a5,0x8
    4508:	0ff7f793          	andi	a5,a5,255
    450c:	0007861b          	addiw	a2,a5,0
    4510:	000007b7          	lui	a5,0x0
    4514:	10060613          	addi	a2,a2,256
    4518:	00361613          	slli	a2,a2,0x3
    451c:	00078793          	addi	a5,a5,0 # 0 <set_key>
    4520:	00f607b3          	add	a5,a2,a5
    4524:	0007b783          	ld	a5,0(a5)
    4528:	00f6c6b3          	xor	a3,a3,a5
    452c:	fa843783          	ld	a5,-88(s0)
    4530:	0107d793          	srli	a5,a5,0x10
    4534:	0ff7f793          	andi	a5,a5,255
    4538:	0007861b          	addiw	a2,a5,0
    453c:	000007b7          	lui	a5,0x0
    4540:	20060613          	addi	a2,a2,512
    4544:	00361613          	slli	a2,a2,0x3
    4548:	00078793          	addi	a5,a5,0 # 0 <set_key>
    454c:	00f607b3          	add	a5,a2,a5
    4550:	0007b783          	ld	a5,0(a5)
    4554:	00f6c6b3          	xor	a3,a3,a5
    4558:	fc043783          	ld	a5,-64(s0)
    455c:	0187d793          	srli	a5,a5,0x18
    4560:	0ff7f793          	andi	a5,a5,255
    4564:	0007861b          	addiw	a2,a5,0
    4568:	000007b7          	lui	a5,0x0
    456c:	30060613          	addi	a2,a2,768
    4570:	00361613          	slli	a2,a2,0x3
    4574:	00078793          	addi	a5,a5,0 # 0 <set_key>
    4578:	00f607b3          	add	a5,a2,a5
    457c:	0007b783          	ld	a5,0(a5)
    4580:	00f6c7b3          	xor	a5,a3,a5
    4584:	00f747b3          	xor	a5,a4,a5
    4588:	fcf43c23          	sd	a5,-40(s0)
    458c:	fe843783          	ld	a5,-24(s0)
    4590:	01878793          	addi	a5,a5,24
    4594:	0007b703          	ld	a4,0(a5)
    4598:	fc043783          	ld	a5,-64(s0)
    459c:	0ff7f793          	andi	a5,a5,255
    45a0:	0007869b          	addiw	a3,a5,0
    45a4:	000007b7          	lui	a5,0x0
    45a8:	00369693          	slli	a3,a3,0x3
    45ac:	00078793          	addi	a5,a5,0 # 0 <set_key>
    45b0:	00f687b3          	add	a5,a3,a5
    45b4:	0007b683          	ld	a3,0(a5)
    45b8:	fb843783          	ld	a5,-72(s0)
    45bc:	0087d793          	srli	a5,a5,0x8
    45c0:	0ff7f793          	andi	a5,a5,255
    45c4:	0007861b          	addiw	a2,a5,0
    45c8:	000007b7          	lui	a5,0x0
    45cc:	10060613          	addi	a2,a2,256
    45d0:	00361613          	slli	a2,a2,0x3
    45d4:	00078793          	addi	a5,a5,0 # 0 <set_key>
    45d8:	00f607b3          	add	a5,a2,a5
    45dc:	0007b783          	ld	a5,0(a5)
    45e0:	00f6c6b3          	xor	a3,a3,a5
    45e4:	fb043783          	ld	a5,-80(s0)
    45e8:	0107d793          	srli	a5,a5,0x10
    45ec:	0ff7f793          	andi	a5,a5,255
    45f0:	0007861b          	addiw	a2,a5,0
    45f4:	000007b7          	lui	a5,0x0
    45f8:	20060613          	addi	a2,a2,512
    45fc:	00361613          	slli	a2,a2,0x3
    4600:	00078793          	addi	a5,a5,0 # 0 <set_key>
    4604:	00f607b3          	add	a5,a2,a5
    4608:	0007b783          	ld	a5,0(a5)
    460c:	00f6c6b3          	xor	a3,a3,a5
    4610:	fa843783          	ld	a5,-88(s0)
    4614:	0187d793          	srli	a5,a5,0x18
    4618:	0ff7f793          	andi	a5,a5,255
    461c:	0007861b          	addiw	a2,a5,0
    4620:	000007b7          	lui	a5,0x0
    4624:	30060613          	addi	a2,a2,768
    4628:	00361613          	slli	a2,a2,0x3
    462c:	00078793          	addi	a5,a5,0 # 0 <set_key>
    4630:	00f607b3          	add	a5,a2,a5
    4634:	0007b783          	ld	a5,0(a5)
    4638:	00f6c7b3          	xor	a5,a3,a5
    463c:	00f747b3          	xor	a5,a4,a5
    4640:	fef43023          	sd	a5,-32(s0)
    4644:	fe843783          	ld	a5,-24(s0)
    4648:	02078793          	addi	a5,a5,32
    464c:	0007b703          	ld	a4,0(a5)
    4650:	fc843783          	ld	a5,-56(s0)
    4654:	0ff7f793          	andi	a5,a5,255
    4658:	0007869b          	addiw	a3,a5,0
    465c:	000007b7          	lui	a5,0x0
    4660:	00369693          	slli	a3,a3,0x3
    4664:	00078793          	addi	a5,a5,0 # 0 <set_key>
    4668:	00f687b3          	add	a5,a3,a5
    466c:	0007b683          	ld	a3,0(a5)
    4670:	fe043783          	ld	a5,-32(s0)
    4674:	0087d793          	srli	a5,a5,0x8
    4678:	0ff7f793          	andi	a5,a5,255
    467c:	0007861b          	addiw	a2,a5,0
    4680:	000007b7          	lui	a5,0x0
    4684:	10060613          	addi	a2,a2,256
    4688:	00361613          	slli	a2,a2,0x3
    468c:	00078793          	addi	a5,a5,0 # 0 <set_key>
    4690:	00f607b3          	add	a5,a2,a5
    4694:	0007b783          	ld	a5,0(a5)
    4698:	00f6c6b3          	xor	a3,a3,a5
    469c:	fd843783          	ld	a5,-40(s0)
    46a0:	0107d793          	srli	a5,a5,0x10
    46a4:	0ff7f793          	andi	a5,a5,255
    46a8:	0007861b          	addiw	a2,a5,0
    46ac:	000007b7          	lui	a5,0x0
    46b0:	20060613          	addi	a2,a2,512
    46b4:	00361613          	slli	a2,a2,0x3
    46b8:	00078793          	addi	a5,a5,0 # 0 <set_key>
    46bc:	00f607b3          	add	a5,a2,a5
    46c0:	0007b783          	ld	a5,0(a5)
    46c4:	00f6c6b3          	xor	a3,a3,a5
    46c8:	fd043783          	ld	a5,-48(s0)
    46cc:	0187d793          	srli	a5,a5,0x18
    46d0:	0ff7f793          	andi	a5,a5,255
    46d4:	0007861b          	addiw	a2,a5,0
    46d8:	000007b7          	lui	a5,0x0
    46dc:	30060613          	addi	a2,a2,768
    46e0:	00361613          	slli	a2,a2,0x3
    46e4:	00078793          	addi	a5,a5,0 # 0 <set_key>
    46e8:	00f607b3          	add	a5,a2,a5
    46ec:	0007b783          	ld	a5,0(a5)
    46f0:	00f6c7b3          	xor	a5,a3,a5
    46f4:	00f747b3          	xor	a5,a4,a5
    46f8:	faf43423          	sd	a5,-88(s0)
    46fc:	fe843783          	ld	a5,-24(s0)
    4700:	02878793          	addi	a5,a5,40
    4704:	0007b703          	ld	a4,0(a5)
    4708:	fd043783          	ld	a5,-48(s0)
    470c:	0ff7f793          	andi	a5,a5,255
    4710:	0007869b          	addiw	a3,a5,0
    4714:	000007b7          	lui	a5,0x0
    4718:	00369693          	slli	a3,a3,0x3
    471c:	00078793          	addi	a5,a5,0 # 0 <set_key>
    4720:	00f687b3          	add	a5,a3,a5
    4724:	0007b683          	ld	a3,0(a5)
    4728:	fc843783          	ld	a5,-56(s0)
    472c:	0087d793          	srli	a5,a5,0x8
    4730:	0ff7f793          	andi	a5,a5,255
    4734:	0007861b          	addiw	a2,a5,0
    4738:	000007b7          	lui	a5,0x0
    473c:	10060613          	addi	a2,a2,256
    4740:	00361613          	slli	a2,a2,0x3
    4744:	00078793          	addi	a5,a5,0 # 0 <set_key>
    4748:	00f607b3          	add	a5,a2,a5
    474c:	0007b783          	ld	a5,0(a5)
    4750:	00f6c6b3          	xor	a3,a3,a5
    4754:	fe043783          	ld	a5,-32(s0)
    4758:	0107d793          	srli	a5,a5,0x10
    475c:	0ff7f793          	andi	a5,a5,255
    4760:	0007861b          	addiw	a2,a5,0
    4764:	000007b7          	lui	a5,0x0
    4768:	20060613          	addi	a2,a2,512
    476c:	00361613          	slli	a2,a2,0x3
    4770:	00078793          	addi	a5,a5,0 # 0 <set_key>
    4774:	00f607b3          	add	a5,a2,a5
    4778:	0007b783          	ld	a5,0(a5)
    477c:	00f6c6b3          	xor	a3,a3,a5
    4780:	fd843783          	ld	a5,-40(s0)
    4784:	0187d793          	srli	a5,a5,0x18
    4788:	0ff7f793          	andi	a5,a5,255
    478c:	0007861b          	addiw	a2,a5,0
    4790:	000007b7          	lui	a5,0x0
    4794:	30060613          	addi	a2,a2,768
    4798:	00361613          	slli	a2,a2,0x3
    479c:	00078793          	addi	a5,a5,0 # 0 <set_key>
    47a0:	00f607b3          	add	a5,a2,a5
    47a4:	0007b783          	ld	a5,0(a5)
    47a8:	00f6c7b3          	xor	a5,a3,a5
    47ac:	00f747b3          	xor	a5,a4,a5
    47b0:	faf43823          	sd	a5,-80(s0)
    47b4:	fe843783          	ld	a5,-24(s0)
    47b8:	03078793          	addi	a5,a5,48
    47bc:	0007b703          	ld	a4,0(a5)
    47c0:	fd843783          	ld	a5,-40(s0)
    47c4:	0ff7f793          	andi	a5,a5,255
    47c8:	0007869b          	addiw	a3,a5,0
    47cc:	000007b7          	lui	a5,0x0
    47d0:	00369693          	slli	a3,a3,0x3
    47d4:	00078793          	addi	a5,a5,0 # 0 <set_key>
    47d8:	00f687b3          	add	a5,a3,a5
    47dc:	0007b683          	ld	a3,0(a5)
    47e0:	fd043783          	ld	a5,-48(s0)
    47e4:	0087d793          	srli	a5,a5,0x8
    47e8:	0ff7f793          	andi	a5,a5,255
    47ec:	0007861b          	addiw	a2,a5,0
    47f0:	000007b7          	lui	a5,0x0
    47f4:	10060613          	addi	a2,a2,256
    47f8:	00361613          	slli	a2,a2,0x3
    47fc:	00078793          	addi	a5,a5,0 # 0 <set_key>
    4800:	00f607b3          	add	a5,a2,a5
    4804:	0007b783          	ld	a5,0(a5)
    4808:	00f6c6b3          	xor	a3,a3,a5
    480c:	fc843783          	ld	a5,-56(s0)
    4810:	0107d793          	srli	a5,a5,0x10
    4814:	0ff7f793          	andi	a5,a5,255
    4818:	0007861b          	addiw	a2,a5,0
    481c:	000007b7          	lui	a5,0x0
    4820:	20060613          	addi	a2,a2,512
    4824:	00361613          	slli	a2,a2,0x3
    4828:	00078793          	addi	a5,a5,0 # 0 <set_key>
    482c:	00f607b3          	add	a5,a2,a5
    4830:	0007b783          	ld	a5,0(a5)
    4834:	00f6c6b3          	xor	a3,a3,a5
    4838:	fe043783          	ld	a5,-32(s0)
    483c:	0187d793          	srli	a5,a5,0x18
    4840:	0ff7f793          	andi	a5,a5,255
    4844:	0007861b          	addiw	a2,a5,0
    4848:	000007b7          	lui	a5,0x0
    484c:	30060613          	addi	a2,a2,768
    4850:	00361613          	slli	a2,a2,0x3
    4854:	00078793          	addi	a5,a5,0 # 0 <set_key>
    4858:	00f607b3          	add	a5,a2,a5
    485c:	0007b783          	ld	a5,0(a5)
    4860:	00f6c7b3          	xor	a5,a3,a5
    4864:	00f747b3          	xor	a5,a4,a5
    4868:	faf43c23          	sd	a5,-72(s0)
    486c:	fe843783          	ld	a5,-24(s0)
    4870:	03878793          	addi	a5,a5,56
    4874:	0007b703          	ld	a4,0(a5)
    4878:	fe043783          	ld	a5,-32(s0)
    487c:	0ff7f793          	andi	a5,a5,255
    4880:	0007869b          	addiw	a3,a5,0
    4884:	000007b7          	lui	a5,0x0
    4888:	00369693          	slli	a3,a3,0x3
    488c:	00078793          	addi	a5,a5,0 # 0 <set_key>
    4890:	00f687b3          	add	a5,a3,a5
    4894:	0007b683          	ld	a3,0(a5)
    4898:	fd843783          	ld	a5,-40(s0)
    489c:	0087d793          	srli	a5,a5,0x8
    48a0:	0ff7f793          	andi	a5,a5,255
    48a4:	0007861b          	addiw	a2,a5,0
    48a8:	000007b7          	lui	a5,0x0
    48ac:	10060613          	addi	a2,a2,256
    48b0:	00361613          	slli	a2,a2,0x3
    48b4:	00078793          	addi	a5,a5,0 # 0 <set_key>
    48b8:	00f607b3          	add	a5,a2,a5
    48bc:	0007b783          	ld	a5,0(a5)
    48c0:	00f6c6b3          	xor	a3,a3,a5
    48c4:	fd043783          	ld	a5,-48(s0)
    48c8:	0107d793          	srli	a5,a5,0x10
    48cc:	0ff7f793          	andi	a5,a5,255
    48d0:	0007861b          	addiw	a2,a5,0
    48d4:	000007b7          	lui	a5,0x0
    48d8:	20060613          	addi	a2,a2,512
    48dc:	00361613          	slli	a2,a2,0x3
    48e0:	00078793          	addi	a5,a5,0 # 0 <set_key>
    48e4:	00f607b3          	add	a5,a2,a5
    48e8:	0007b783          	ld	a5,0(a5)
    48ec:	00f6c6b3          	xor	a3,a3,a5
    48f0:	fc843783          	ld	a5,-56(s0)
    48f4:	0187d793          	srli	a5,a5,0x18
    48f8:	0ff7f793          	andi	a5,a5,255
    48fc:	0007861b          	addiw	a2,a5,0
    4900:	000007b7          	lui	a5,0x0
    4904:	30060613          	addi	a2,a2,768
    4908:	00361613          	slli	a2,a2,0x3
    490c:	00078793          	addi	a5,a5,0 # 0 <set_key>
    4910:	00f607b3          	add	a5,a2,a5
    4914:	0007b783          	ld	a5,0(a5)
    4918:	00f6c7b3          	xor	a5,a3,a5
    491c:	00f747b3          	xor	a5,a4,a5
    4920:	fcf43023          	sd	a5,-64(s0)
    4924:	fe843783          	ld	a5,-24(s0)
    4928:	04078793          	addi	a5,a5,64
    492c:	0007b703          	ld	a4,0(a5)
    4930:	fa843783          	ld	a5,-88(s0)
    4934:	0ff7f793          	andi	a5,a5,255
    4938:	0007869b          	addiw	a3,a5,0
    493c:	000007b7          	lui	a5,0x0
    4940:	00369693          	slli	a3,a3,0x3
    4944:	00078793          	addi	a5,a5,0 # 0 <set_key>
    4948:	00f687b3          	add	a5,a3,a5
    494c:	0007b683          	ld	a3,0(a5)
    4950:	fc043783          	ld	a5,-64(s0)
    4954:	0087d793          	srli	a5,a5,0x8
    4958:	0ff7f793          	andi	a5,a5,255
    495c:	0007861b          	addiw	a2,a5,0
    4960:	000007b7          	lui	a5,0x0
    4964:	10060613          	addi	a2,a2,256
    4968:	00361613          	slli	a2,a2,0x3
    496c:	00078793          	addi	a5,a5,0 # 0 <set_key>
    4970:	00f607b3          	add	a5,a2,a5
    4974:	0007b783          	ld	a5,0(a5)
    4978:	00f6c6b3          	xor	a3,a3,a5
    497c:	fb843783          	ld	a5,-72(s0)
    4980:	0107d793          	srli	a5,a5,0x10
    4984:	0ff7f793          	andi	a5,a5,255
    4988:	0007861b          	addiw	a2,a5,0
    498c:	000007b7          	lui	a5,0x0
    4990:	20060613          	addi	a2,a2,512
    4994:	00361613          	slli	a2,a2,0x3
    4998:	00078793          	addi	a5,a5,0 # 0 <set_key>
    499c:	00f607b3          	add	a5,a2,a5
    49a0:	0007b783          	ld	a5,0(a5)
    49a4:	00f6c6b3          	xor	a3,a3,a5
    49a8:	fb043783          	ld	a5,-80(s0)
    49ac:	0187d793          	srli	a5,a5,0x18
    49b0:	0ff7f793          	andi	a5,a5,255
    49b4:	0007861b          	addiw	a2,a5,0
    49b8:	000007b7          	lui	a5,0x0
    49bc:	30060613          	addi	a2,a2,768
    49c0:	00361613          	slli	a2,a2,0x3
    49c4:	00078793          	addi	a5,a5,0 # 0 <set_key>
    49c8:	00f607b3          	add	a5,a2,a5
    49cc:	0007b783          	ld	a5,0(a5)
    49d0:	00f6c7b3          	xor	a5,a3,a5
    49d4:	00f747b3          	xor	a5,a4,a5
    49d8:	fcf43423          	sd	a5,-56(s0)
    49dc:	fe843783          	ld	a5,-24(s0)
    49e0:	04878793          	addi	a5,a5,72
    49e4:	0007b703          	ld	a4,0(a5)
    49e8:	fb043783          	ld	a5,-80(s0)
    49ec:	0ff7f793          	andi	a5,a5,255
    49f0:	0007869b          	addiw	a3,a5,0
    49f4:	000007b7          	lui	a5,0x0
    49f8:	00369693          	slli	a3,a3,0x3
    49fc:	00078793          	addi	a5,a5,0 # 0 <set_key>
    4a00:	00f687b3          	add	a5,a3,a5
    4a04:	0007b683          	ld	a3,0(a5)
    4a08:	fa843783          	ld	a5,-88(s0)
    4a0c:	0087d793          	srli	a5,a5,0x8
    4a10:	0ff7f793          	andi	a5,a5,255
    4a14:	0007861b          	addiw	a2,a5,0
    4a18:	000007b7          	lui	a5,0x0
    4a1c:	10060613          	addi	a2,a2,256
    4a20:	00361613          	slli	a2,a2,0x3
    4a24:	00078793          	addi	a5,a5,0 # 0 <set_key>
    4a28:	00f607b3          	add	a5,a2,a5
    4a2c:	0007b783          	ld	a5,0(a5)
    4a30:	00f6c6b3          	xor	a3,a3,a5
    4a34:	fc043783          	ld	a5,-64(s0)
    4a38:	0107d793          	srli	a5,a5,0x10
    4a3c:	0ff7f793          	andi	a5,a5,255
    4a40:	0007861b          	addiw	a2,a5,0
    4a44:	000007b7          	lui	a5,0x0
    4a48:	20060613          	addi	a2,a2,512
    4a4c:	00361613          	slli	a2,a2,0x3
    4a50:	00078793          	addi	a5,a5,0 # 0 <set_key>
    4a54:	00f607b3          	add	a5,a2,a5
    4a58:	0007b783          	ld	a5,0(a5)
    4a5c:	00f6c6b3          	xor	a3,a3,a5
    4a60:	fb843783          	ld	a5,-72(s0)
    4a64:	0187d793          	srli	a5,a5,0x18
    4a68:	0ff7f793          	andi	a5,a5,255
    4a6c:	0007861b          	addiw	a2,a5,0
    4a70:	000007b7          	lui	a5,0x0
    4a74:	30060613          	addi	a2,a2,768
    4a78:	00361613          	slli	a2,a2,0x3
    4a7c:	00078793          	addi	a5,a5,0 # 0 <set_key>
    4a80:	00f607b3          	add	a5,a2,a5
    4a84:	0007b783          	ld	a5,0(a5)
    4a88:	00f6c7b3          	xor	a5,a3,a5
    4a8c:	00f747b3          	xor	a5,a4,a5
    4a90:	fcf43823          	sd	a5,-48(s0)
    4a94:	fe843783          	ld	a5,-24(s0)
    4a98:	05078793          	addi	a5,a5,80
    4a9c:	0007b703          	ld	a4,0(a5)
    4aa0:	fb843783          	ld	a5,-72(s0)
    4aa4:	0ff7f793          	andi	a5,a5,255
    4aa8:	0007869b          	addiw	a3,a5,0
    4aac:	000007b7          	lui	a5,0x0
    4ab0:	00369693          	slli	a3,a3,0x3
    4ab4:	00078793          	addi	a5,a5,0 # 0 <set_key>
    4ab8:	00f687b3          	add	a5,a3,a5
    4abc:	0007b683          	ld	a3,0(a5)
    4ac0:	fb043783          	ld	a5,-80(s0)
    4ac4:	0087d793          	srli	a5,a5,0x8
    4ac8:	0ff7f793          	andi	a5,a5,255
    4acc:	0007861b          	addiw	a2,a5,0
    4ad0:	000007b7          	lui	a5,0x0
    4ad4:	10060613          	addi	a2,a2,256
    4ad8:	00361613          	slli	a2,a2,0x3
    4adc:	00078793          	addi	a5,a5,0 # 0 <set_key>
    4ae0:	00f607b3          	add	a5,a2,a5
    4ae4:	0007b783          	ld	a5,0(a5)
    4ae8:	00f6c6b3          	xor	a3,a3,a5
    4aec:	fa843783          	ld	a5,-88(s0)
    4af0:	0107d793          	srli	a5,a5,0x10
    4af4:	0ff7f793          	andi	a5,a5,255
    4af8:	0007861b          	addiw	a2,a5,0
    4afc:	000007b7          	lui	a5,0x0
    4b00:	20060613          	addi	a2,a2,512
    4b04:	00361613          	slli	a2,a2,0x3
    4b08:	00078793          	addi	a5,a5,0 # 0 <set_key>
    4b0c:	00f607b3          	add	a5,a2,a5
    4b10:	0007b783          	ld	a5,0(a5)
    4b14:	00f6c6b3          	xor	a3,a3,a5
    4b18:	fc043783          	ld	a5,-64(s0)
    4b1c:	0187d793          	srli	a5,a5,0x18
    4b20:	0ff7f793          	andi	a5,a5,255
    4b24:	0007861b          	addiw	a2,a5,0
    4b28:	000007b7          	lui	a5,0x0
    4b2c:	30060613          	addi	a2,a2,768
    4b30:	00361613          	slli	a2,a2,0x3
    4b34:	00078793          	addi	a5,a5,0 # 0 <set_key>
    4b38:	00f607b3          	add	a5,a2,a5
    4b3c:	0007b783          	ld	a5,0(a5)
    4b40:	00f6c7b3          	xor	a5,a3,a5
    4b44:	00f747b3          	xor	a5,a4,a5
    4b48:	fcf43c23          	sd	a5,-40(s0)
    4b4c:	fe843783          	ld	a5,-24(s0)
    4b50:	05878793          	addi	a5,a5,88
    4b54:	0007b703          	ld	a4,0(a5)
    4b58:	fc043783          	ld	a5,-64(s0)
    4b5c:	0ff7f793          	andi	a5,a5,255
    4b60:	0007869b          	addiw	a3,a5,0
    4b64:	000007b7          	lui	a5,0x0
    4b68:	00369693          	slli	a3,a3,0x3
    4b6c:	00078793          	addi	a5,a5,0 # 0 <set_key>
    4b70:	00f687b3          	add	a5,a3,a5
    4b74:	0007b683          	ld	a3,0(a5)
    4b78:	fb843783          	ld	a5,-72(s0)
    4b7c:	0087d793          	srli	a5,a5,0x8
    4b80:	0ff7f793          	andi	a5,a5,255
    4b84:	0007861b          	addiw	a2,a5,0
    4b88:	000007b7          	lui	a5,0x0
    4b8c:	10060613          	addi	a2,a2,256
    4b90:	00361613          	slli	a2,a2,0x3
    4b94:	00078793          	addi	a5,a5,0 # 0 <set_key>
    4b98:	00f607b3          	add	a5,a2,a5
    4b9c:	0007b783          	ld	a5,0(a5)
    4ba0:	00f6c6b3          	xor	a3,a3,a5
    4ba4:	fb043783          	ld	a5,-80(s0)
    4ba8:	0107d793          	srli	a5,a5,0x10
    4bac:	0ff7f793          	andi	a5,a5,255
    4bb0:	0007861b          	addiw	a2,a5,0
    4bb4:	000007b7          	lui	a5,0x0
    4bb8:	20060613          	addi	a2,a2,512
    4bbc:	00361613          	slli	a2,a2,0x3
    4bc0:	00078793          	addi	a5,a5,0 # 0 <set_key>
    4bc4:	00f607b3          	add	a5,a2,a5
    4bc8:	0007b783          	ld	a5,0(a5)
    4bcc:	00f6c6b3          	xor	a3,a3,a5
    4bd0:	fa843783          	ld	a5,-88(s0)
    4bd4:	0187d793          	srli	a5,a5,0x18
    4bd8:	0ff7f793          	andi	a5,a5,255
    4bdc:	0007861b          	addiw	a2,a5,0
    4be0:	000007b7          	lui	a5,0x0
    4be4:	30060613          	addi	a2,a2,768
    4be8:	00361613          	slli	a2,a2,0x3
    4bec:	00078793          	addi	a5,a5,0 # 0 <set_key>
    4bf0:	00f607b3          	add	a5,a2,a5
    4bf4:	0007b783          	ld	a5,0(a5)
    4bf8:	00f6c7b3          	xor	a5,a3,a5
    4bfc:	00f747b3          	xor	a5,a4,a5
    4c00:	fef43023          	sd	a5,-32(s0)
    4c04:	fe843783          	ld	a5,-24(s0)
    4c08:	06078793          	addi	a5,a5,96
    4c0c:	0007b703          	ld	a4,0(a5)
    4c10:	fc843783          	ld	a5,-56(s0)
    4c14:	0ff7f793          	andi	a5,a5,255
    4c18:	0007869b          	addiw	a3,a5,0
    4c1c:	000007b7          	lui	a5,0x0
    4c20:	00369693          	slli	a3,a3,0x3
    4c24:	00078793          	addi	a5,a5,0 # 0 <set_key>
    4c28:	00f687b3          	add	a5,a3,a5
    4c2c:	0007b683          	ld	a3,0(a5)
    4c30:	fe043783          	ld	a5,-32(s0)
    4c34:	0087d793          	srli	a5,a5,0x8
    4c38:	0ff7f793          	andi	a5,a5,255
    4c3c:	0007861b          	addiw	a2,a5,0
    4c40:	000007b7          	lui	a5,0x0
    4c44:	10060613          	addi	a2,a2,256
    4c48:	00361613          	slli	a2,a2,0x3
    4c4c:	00078793          	addi	a5,a5,0 # 0 <set_key>
    4c50:	00f607b3          	add	a5,a2,a5
    4c54:	0007b783          	ld	a5,0(a5)
    4c58:	00f6c6b3          	xor	a3,a3,a5
    4c5c:	fd843783          	ld	a5,-40(s0)
    4c60:	0107d793          	srli	a5,a5,0x10
    4c64:	0ff7f793          	andi	a5,a5,255
    4c68:	0007861b          	addiw	a2,a5,0
    4c6c:	000007b7          	lui	a5,0x0
    4c70:	20060613          	addi	a2,a2,512
    4c74:	00361613          	slli	a2,a2,0x3
    4c78:	00078793          	addi	a5,a5,0 # 0 <set_key>
    4c7c:	00f607b3          	add	a5,a2,a5
    4c80:	0007b783          	ld	a5,0(a5)
    4c84:	00f6c6b3          	xor	a3,a3,a5
    4c88:	fd043783          	ld	a5,-48(s0)
    4c8c:	0187d793          	srli	a5,a5,0x18
    4c90:	0ff7f793          	andi	a5,a5,255
    4c94:	0007861b          	addiw	a2,a5,0
    4c98:	000007b7          	lui	a5,0x0
    4c9c:	30060613          	addi	a2,a2,768
    4ca0:	00361613          	slli	a2,a2,0x3
    4ca4:	00078793          	addi	a5,a5,0 # 0 <set_key>
    4ca8:	00f607b3          	add	a5,a2,a5
    4cac:	0007b783          	ld	a5,0(a5)
    4cb0:	00f6c7b3          	xor	a5,a3,a5
    4cb4:	00f747b3          	xor	a5,a4,a5
    4cb8:	faf43423          	sd	a5,-88(s0)
    4cbc:	fe843783          	ld	a5,-24(s0)
    4cc0:	06878793          	addi	a5,a5,104
    4cc4:	0007b703          	ld	a4,0(a5)
    4cc8:	fd043783          	ld	a5,-48(s0)
    4ccc:	0ff7f793          	andi	a5,a5,255
    4cd0:	0007869b          	addiw	a3,a5,0
    4cd4:	000007b7          	lui	a5,0x0
    4cd8:	00369693          	slli	a3,a3,0x3
    4cdc:	00078793          	addi	a5,a5,0 # 0 <set_key>
    4ce0:	00f687b3          	add	a5,a3,a5
    4ce4:	0007b683          	ld	a3,0(a5)
    4ce8:	fc843783          	ld	a5,-56(s0)
    4cec:	0087d793          	srli	a5,a5,0x8
    4cf0:	0ff7f793          	andi	a5,a5,255
    4cf4:	0007861b          	addiw	a2,a5,0
    4cf8:	000007b7          	lui	a5,0x0
    4cfc:	10060613          	addi	a2,a2,256
    4d00:	00361613          	slli	a2,a2,0x3
    4d04:	00078793          	addi	a5,a5,0 # 0 <set_key>
    4d08:	00f607b3          	add	a5,a2,a5
    4d0c:	0007b783          	ld	a5,0(a5)
    4d10:	00f6c6b3          	xor	a3,a3,a5
    4d14:	fe043783          	ld	a5,-32(s0)
    4d18:	0107d793          	srli	a5,a5,0x10
    4d1c:	0ff7f793          	andi	a5,a5,255
    4d20:	0007861b          	addiw	a2,a5,0
    4d24:	000007b7          	lui	a5,0x0
    4d28:	20060613          	addi	a2,a2,512
    4d2c:	00361613          	slli	a2,a2,0x3
    4d30:	00078793          	addi	a5,a5,0 # 0 <set_key>
    4d34:	00f607b3          	add	a5,a2,a5
    4d38:	0007b783          	ld	a5,0(a5)
    4d3c:	00f6c6b3          	xor	a3,a3,a5
    4d40:	fd843783          	ld	a5,-40(s0)
    4d44:	0187d793          	srli	a5,a5,0x18
    4d48:	0ff7f793          	andi	a5,a5,255
    4d4c:	0007861b          	addiw	a2,a5,0
    4d50:	000007b7          	lui	a5,0x0
    4d54:	30060613          	addi	a2,a2,768
    4d58:	00361613          	slli	a2,a2,0x3
    4d5c:	00078793          	addi	a5,a5,0 # 0 <set_key>
    4d60:	00f607b3          	add	a5,a2,a5
    4d64:	0007b783          	ld	a5,0(a5)
    4d68:	00f6c7b3          	xor	a5,a3,a5
    4d6c:	00f747b3          	xor	a5,a4,a5
    4d70:	faf43823          	sd	a5,-80(s0)
    4d74:	fe843783          	ld	a5,-24(s0)
    4d78:	07078793          	addi	a5,a5,112
    4d7c:	0007b703          	ld	a4,0(a5)
    4d80:	fd843783          	ld	a5,-40(s0)
    4d84:	0ff7f793          	andi	a5,a5,255
    4d88:	0007869b          	addiw	a3,a5,0
    4d8c:	000007b7          	lui	a5,0x0
    4d90:	00369693          	slli	a3,a3,0x3
    4d94:	00078793          	addi	a5,a5,0 # 0 <set_key>
    4d98:	00f687b3          	add	a5,a3,a5
    4d9c:	0007b683          	ld	a3,0(a5)
    4da0:	fd043783          	ld	a5,-48(s0)
    4da4:	0087d793          	srli	a5,a5,0x8
    4da8:	0ff7f793          	andi	a5,a5,255
    4dac:	0007861b          	addiw	a2,a5,0
    4db0:	000007b7          	lui	a5,0x0
    4db4:	10060613          	addi	a2,a2,256
    4db8:	00361613          	slli	a2,a2,0x3
    4dbc:	00078793          	addi	a5,a5,0 # 0 <set_key>
    4dc0:	00f607b3          	add	a5,a2,a5
    4dc4:	0007b783          	ld	a5,0(a5)
    4dc8:	00f6c6b3          	xor	a3,a3,a5
    4dcc:	fc843783          	ld	a5,-56(s0)
    4dd0:	0107d793          	srli	a5,a5,0x10
    4dd4:	0ff7f793          	andi	a5,a5,255
    4dd8:	0007861b          	addiw	a2,a5,0
    4ddc:	000007b7          	lui	a5,0x0
    4de0:	20060613          	addi	a2,a2,512
    4de4:	00361613          	slli	a2,a2,0x3
    4de8:	00078793          	addi	a5,a5,0 # 0 <set_key>
    4dec:	00f607b3          	add	a5,a2,a5
    4df0:	0007b783          	ld	a5,0(a5)
    4df4:	00f6c6b3          	xor	a3,a3,a5
    4df8:	fe043783          	ld	a5,-32(s0)
    4dfc:	0187d793          	srli	a5,a5,0x18
    4e00:	0ff7f793          	andi	a5,a5,255
    4e04:	0007861b          	addiw	a2,a5,0
    4e08:	000007b7          	lui	a5,0x0
    4e0c:	30060613          	addi	a2,a2,768
    4e10:	00361613          	slli	a2,a2,0x3
    4e14:	00078793          	addi	a5,a5,0 # 0 <set_key>
    4e18:	00f607b3          	add	a5,a2,a5
    4e1c:	0007b783          	ld	a5,0(a5)
    4e20:	00f6c7b3          	xor	a5,a3,a5
    4e24:	00f747b3          	xor	a5,a4,a5
    4e28:	faf43c23          	sd	a5,-72(s0)
    4e2c:	fe843783          	ld	a5,-24(s0)
    4e30:	07878793          	addi	a5,a5,120
    4e34:	0007b703          	ld	a4,0(a5)
    4e38:	fe043783          	ld	a5,-32(s0)
    4e3c:	0ff7f793          	andi	a5,a5,255
    4e40:	0007869b          	addiw	a3,a5,0
    4e44:	000007b7          	lui	a5,0x0
    4e48:	00369693          	slli	a3,a3,0x3
    4e4c:	00078793          	addi	a5,a5,0 # 0 <set_key>
    4e50:	00f687b3          	add	a5,a3,a5
    4e54:	0007b683          	ld	a3,0(a5)
    4e58:	fd843783          	ld	a5,-40(s0)
    4e5c:	0087d793          	srli	a5,a5,0x8
    4e60:	0ff7f793          	andi	a5,a5,255
    4e64:	0007861b          	addiw	a2,a5,0
    4e68:	000007b7          	lui	a5,0x0
    4e6c:	10060613          	addi	a2,a2,256
    4e70:	00361613          	slli	a2,a2,0x3
    4e74:	00078793          	addi	a5,a5,0 # 0 <set_key>
    4e78:	00f607b3          	add	a5,a2,a5
    4e7c:	0007b783          	ld	a5,0(a5)
    4e80:	00f6c6b3          	xor	a3,a3,a5
    4e84:	fd043783          	ld	a5,-48(s0)
    4e88:	0107d793          	srli	a5,a5,0x10
    4e8c:	0ff7f793          	andi	a5,a5,255
    4e90:	0007861b          	addiw	a2,a5,0
    4e94:	000007b7          	lui	a5,0x0
    4e98:	20060613          	addi	a2,a2,512
    4e9c:	00361613          	slli	a2,a2,0x3
    4ea0:	00078793          	addi	a5,a5,0 # 0 <set_key>
    4ea4:	00f607b3          	add	a5,a2,a5
    4ea8:	0007b783          	ld	a5,0(a5)
    4eac:	00f6c6b3          	xor	a3,a3,a5
    4eb0:	fc843783          	ld	a5,-56(s0)
    4eb4:	0187d793          	srli	a5,a5,0x18
    4eb8:	0ff7f793          	andi	a5,a5,255
    4ebc:	0007861b          	addiw	a2,a5,0
    4ec0:	000007b7          	lui	a5,0x0
    4ec4:	30060613          	addi	a2,a2,768
    4ec8:	00361613          	slli	a2,a2,0x3
    4ecc:	00078793          	addi	a5,a5,0 # 0 <set_key>
    4ed0:	00f607b3          	add	a5,a2,a5
    4ed4:	0007b783          	ld	a5,0(a5)
    4ed8:	00f6c7b3          	xor	a5,a3,a5
    4edc:	00f747b3          	xor	a5,a4,a5
    4ee0:	fcf43023          	sd	a5,-64(s0)
    4ee4:	fe843783          	ld	a5,-24(s0)
    4ee8:	08078793          	addi	a5,a5,128
    4eec:	0007b703          	ld	a4,0(a5)
    4ef0:	fa843783          	ld	a5,-88(s0)
    4ef4:	0ff7f793          	andi	a5,a5,255
    4ef8:	0007869b          	addiw	a3,a5,0
    4efc:	000007b7          	lui	a5,0x0
    4f00:	00369693          	slli	a3,a3,0x3
    4f04:	00078793          	addi	a5,a5,0 # 0 <set_key>
    4f08:	00f687b3          	add	a5,a3,a5
    4f0c:	0007b683          	ld	a3,0(a5)
    4f10:	fc043783          	ld	a5,-64(s0)
    4f14:	0087d793          	srli	a5,a5,0x8
    4f18:	0ff7f793          	andi	a5,a5,255
    4f1c:	0007861b          	addiw	a2,a5,0
    4f20:	000007b7          	lui	a5,0x0
    4f24:	10060613          	addi	a2,a2,256
    4f28:	00361613          	slli	a2,a2,0x3
    4f2c:	00078793          	addi	a5,a5,0 # 0 <set_key>
    4f30:	00f607b3          	add	a5,a2,a5
    4f34:	0007b783          	ld	a5,0(a5)
    4f38:	00f6c6b3          	xor	a3,a3,a5
    4f3c:	fb843783          	ld	a5,-72(s0)
    4f40:	0107d793          	srli	a5,a5,0x10
    4f44:	0ff7f793          	andi	a5,a5,255
    4f48:	0007861b          	addiw	a2,a5,0
    4f4c:	000007b7          	lui	a5,0x0
    4f50:	20060613          	addi	a2,a2,512
    4f54:	00361613          	slli	a2,a2,0x3
    4f58:	00078793          	addi	a5,a5,0 # 0 <set_key>
    4f5c:	00f607b3          	add	a5,a2,a5
    4f60:	0007b783          	ld	a5,0(a5)
    4f64:	00f6c6b3          	xor	a3,a3,a5
    4f68:	fb043783          	ld	a5,-80(s0)
    4f6c:	0187d793          	srli	a5,a5,0x18
    4f70:	0ff7f793          	andi	a5,a5,255
    4f74:	0007861b          	addiw	a2,a5,0
    4f78:	000007b7          	lui	a5,0x0
    4f7c:	30060613          	addi	a2,a2,768
    4f80:	00361613          	slli	a2,a2,0x3
    4f84:	00078793          	addi	a5,a5,0 # 0 <set_key>
    4f88:	00f607b3          	add	a5,a2,a5
    4f8c:	0007b783          	ld	a5,0(a5)
    4f90:	00f6c7b3          	xor	a5,a3,a5
    4f94:	00f747b3          	xor	a5,a4,a5
    4f98:	fcf43423          	sd	a5,-56(s0)
    4f9c:	fe843783          	ld	a5,-24(s0)
    4fa0:	08878793          	addi	a5,a5,136
    4fa4:	0007b703          	ld	a4,0(a5)
    4fa8:	fb043783          	ld	a5,-80(s0)
    4fac:	0ff7f793          	andi	a5,a5,255
    4fb0:	0007869b          	addiw	a3,a5,0
    4fb4:	000007b7          	lui	a5,0x0
    4fb8:	00369693          	slli	a3,a3,0x3
    4fbc:	00078793          	addi	a5,a5,0 # 0 <set_key>
    4fc0:	00f687b3          	add	a5,a3,a5
    4fc4:	0007b683          	ld	a3,0(a5)
    4fc8:	fa843783          	ld	a5,-88(s0)
    4fcc:	0087d793          	srli	a5,a5,0x8
    4fd0:	0ff7f793          	andi	a5,a5,255
    4fd4:	0007861b          	addiw	a2,a5,0
    4fd8:	000007b7          	lui	a5,0x0
    4fdc:	10060613          	addi	a2,a2,256
    4fe0:	00361613          	slli	a2,a2,0x3
    4fe4:	00078793          	addi	a5,a5,0 # 0 <set_key>
    4fe8:	00f607b3          	add	a5,a2,a5
    4fec:	0007b783          	ld	a5,0(a5)
    4ff0:	00f6c6b3          	xor	a3,a3,a5
    4ff4:	fc043783          	ld	a5,-64(s0)
    4ff8:	0107d793          	srli	a5,a5,0x10
    4ffc:	0ff7f793          	andi	a5,a5,255
    5000:	0007861b          	addiw	a2,a5,0
    5004:	000007b7          	lui	a5,0x0
    5008:	20060613          	addi	a2,a2,512
    500c:	00361613          	slli	a2,a2,0x3
    5010:	00078793          	addi	a5,a5,0 # 0 <set_key>
    5014:	00f607b3          	add	a5,a2,a5
    5018:	0007b783          	ld	a5,0(a5)
    501c:	00f6c6b3          	xor	a3,a3,a5
    5020:	fb843783          	ld	a5,-72(s0)
    5024:	0187d793          	srli	a5,a5,0x18
    5028:	0ff7f793          	andi	a5,a5,255
    502c:	0007861b          	addiw	a2,a5,0
    5030:	000007b7          	lui	a5,0x0
    5034:	30060613          	addi	a2,a2,768
    5038:	00361613          	slli	a2,a2,0x3
    503c:	00078793          	addi	a5,a5,0 # 0 <set_key>
    5040:	00f607b3          	add	a5,a2,a5
    5044:	0007b783          	ld	a5,0(a5)
    5048:	00f6c7b3          	xor	a5,a3,a5
    504c:	00f747b3          	xor	a5,a4,a5
    5050:	fcf43823          	sd	a5,-48(s0)
    5054:	fe843783          	ld	a5,-24(s0)
    5058:	09078793          	addi	a5,a5,144
    505c:	0007b703          	ld	a4,0(a5)
    5060:	fb843783          	ld	a5,-72(s0)
    5064:	0ff7f793          	andi	a5,a5,255
    5068:	0007869b          	addiw	a3,a5,0
    506c:	000007b7          	lui	a5,0x0
    5070:	00369693          	slli	a3,a3,0x3
    5074:	00078793          	addi	a5,a5,0 # 0 <set_key>
    5078:	00f687b3          	add	a5,a3,a5
    507c:	0007b683          	ld	a3,0(a5)
    5080:	fb043783          	ld	a5,-80(s0)
    5084:	0087d793          	srli	a5,a5,0x8
    5088:	0ff7f793          	andi	a5,a5,255
    508c:	0007861b          	addiw	a2,a5,0
    5090:	000007b7          	lui	a5,0x0
    5094:	10060613          	addi	a2,a2,256
    5098:	00361613          	slli	a2,a2,0x3
    509c:	00078793          	addi	a5,a5,0 # 0 <set_key>
    50a0:	00f607b3          	add	a5,a2,a5
    50a4:	0007b783          	ld	a5,0(a5)
    50a8:	00f6c6b3          	xor	a3,a3,a5
    50ac:	fa843783          	ld	a5,-88(s0)
    50b0:	0107d793          	srli	a5,a5,0x10
    50b4:	0ff7f793          	andi	a5,a5,255
    50b8:	0007861b          	addiw	a2,a5,0
    50bc:	000007b7          	lui	a5,0x0
    50c0:	20060613          	addi	a2,a2,512
    50c4:	00361613          	slli	a2,a2,0x3
    50c8:	00078793          	addi	a5,a5,0 # 0 <set_key>
    50cc:	00f607b3          	add	a5,a2,a5
    50d0:	0007b783          	ld	a5,0(a5)
    50d4:	00f6c6b3          	xor	a3,a3,a5
    50d8:	fc043783          	ld	a5,-64(s0)
    50dc:	0187d793          	srli	a5,a5,0x18
    50e0:	0ff7f793          	andi	a5,a5,255
    50e4:	0007861b          	addiw	a2,a5,0
    50e8:	000007b7          	lui	a5,0x0
    50ec:	30060613          	addi	a2,a2,768
    50f0:	00361613          	slli	a2,a2,0x3
    50f4:	00078793          	addi	a5,a5,0 # 0 <set_key>
    50f8:	00f607b3          	add	a5,a2,a5
    50fc:	0007b783          	ld	a5,0(a5)
    5100:	00f6c7b3          	xor	a5,a3,a5
    5104:	00f747b3          	xor	a5,a4,a5
    5108:	fcf43c23          	sd	a5,-40(s0)
    510c:	fe843783          	ld	a5,-24(s0)
    5110:	09878793          	addi	a5,a5,152
    5114:	0007b703          	ld	a4,0(a5)
    5118:	fc043783          	ld	a5,-64(s0)
    511c:	0ff7f793          	andi	a5,a5,255
    5120:	0007869b          	addiw	a3,a5,0
    5124:	000007b7          	lui	a5,0x0
    5128:	00369693          	slli	a3,a3,0x3
    512c:	00078793          	addi	a5,a5,0 # 0 <set_key>
    5130:	00f687b3          	add	a5,a3,a5
    5134:	0007b683          	ld	a3,0(a5)
    5138:	fb843783          	ld	a5,-72(s0)
    513c:	0087d793          	srli	a5,a5,0x8
    5140:	0ff7f793          	andi	a5,a5,255
    5144:	0007861b          	addiw	a2,a5,0
    5148:	000007b7          	lui	a5,0x0
    514c:	10060613          	addi	a2,a2,256
    5150:	00361613          	slli	a2,a2,0x3
    5154:	00078793          	addi	a5,a5,0 # 0 <set_key>
    5158:	00f607b3          	add	a5,a2,a5
    515c:	0007b783          	ld	a5,0(a5)
    5160:	00f6c6b3          	xor	a3,a3,a5
    5164:	fb043783          	ld	a5,-80(s0)
    5168:	0107d793          	srli	a5,a5,0x10
    516c:	0ff7f793          	andi	a5,a5,255
    5170:	0007861b          	addiw	a2,a5,0
    5174:	000007b7          	lui	a5,0x0
    5178:	20060613          	addi	a2,a2,512
    517c:	00361613          	slli	a2,a2,0x3
    5180:	00078793          	addi	a5,a5,0 # 0 <set_key>
    5184:	00f607b3          	add	a5,a2,a5
    5188:	0007b783          	ld	a5,0(a5)
    518c:	00f6c6b3          	xor	a3,a3,a5
    5190:	fa843783          	ld	a5,-88(s0)
    5194:	0187d793          	srli	a5,a5,0x18
    5198:	0ff7f793          	andi	a5,a5,255
    519c:	0007861b          	addiw	a2,a5,0
    51a0:	000007b7          	lui	a5,0x0
    51a4:	30060613          	addi	a2,a2,768
    51a8:	00361613          	slli	a2,a2,0x3
    51ac:	00078793          	addi	a5,a5,0 # 0 <set_key>
    51b0:	00f607b3          	add	a5,a2,a5
    51b4:	0007b783          	ld	a5,0(a5)
    51b8:	00f6c7b3          	xor	a5,a3,a5
    51bc:	00f747b3          	xor	a5,a4,a5
    51c0:	fef43023          	sd	a5,-32(s0)
    51c4:	fe843783          	ld	a5,-24(s0)
    51c8:	0a078793          	addi	a5,a5,160
    51cc:	0007b703          	ld	a4,0(a5)
    51d0:	fc843783          	ld	a5,-56(s0)
    51d4:	0ff7f793          	andi	a5,a5,255
    51d8:	0007869b          	addiw	a3,a5,0
    51dc:	000007b7          	lui	a5,0x0
    51e0:	00369693          	slli	a3,a3,0x3
    51e4:	00078793          	addi	a5,a5,0 # 0 <set_key>
    51e8:	00f687b3          	add	a5,a3,a5
    51ec:	0007b683          	ld	a3,0(a5)
    51f0:	fe043783          	ld	a5,-32(s0)
    51f4:	0087d793          	srli	a5,a5,0x8
    51f8:	0ff7f793          	andi	a5,a5,255
    51fc:	0007861b          	addiw	a2,a5,0
    5200:	000007b7          	lui	a5,0x0
    5204:	10060613          	addi	a2,a2,256
    5208:	00361613          	slli	a2,a2,0x3
    520c:	00078793          	addi	a5,a5,0 # 0 <set_key>
    5210:	00f607b3          	add	a5,a2,a5
    5214:	0007b783          	ld	a5,0(a5)
    5218:	00f6c6b3          	xor	a3,a3,a5
    521c:	fd843783          	ld	a5,-40(s0)
    5220:	0107d793          	srli	a5,a5,0x10
    5224:	0ff7f793          	andi	a5,a5,255
    5228:	0007861b          	addiw	a2,a5,0
    522c:	000007b7          	lui	a5,0x0
    5230:	20060613          	addi	a2,a2,512
    5234:	00361613          	slli	a2,a2,0x3
    5238:	00078793          	addi	a5,a5,0 # 0 <set_key>
    523c:	00f607b3          	add	a5,a2,a5
    5240:	0007b783          	ld	a5,0(a5)
    5244:	00f6c6b3          	xor	a3,a3,a5
    5248:	fd043783          	ld	a5,-48(s0)
    524c:	0187d793          	srli	a5,a5,0x18
    5250:	0ff7f793          	andi	a5,a5,255
    5254:	0007861b          	addiw	a2,a5,0
    5258:	000007b7          	lui	a5,0x0
    525c:	30060613          	addi	a2,a2,768
    5260:	00361613          	slli	a2,a2,0x3
    5264:	00078793          	addi	a5,a5,0 # 0 <set_key>
    5268:	00f607b3          	add	a5,a2,a5
    526c:	0007b783          	ld	a5,0(a5)
    5270:	00f6c7b3          	xor	a5,a3,a5
    5274:	00f747b3          	xor	a5,a4,a5
    5278:	faf43423          	sd	a5,-88(s0)
    527c:	fe843783          	ld	a5,-24(s0)
    5280:	0a878793          	addi	a5,a5,168
    5284:	0007b703          	ld	a4,0(a5)
    5288:	fd043783          	ld	a5,-48(s0)
    528c:	0ff7f793          	andi	a5,a5,255
    5290:	0007869b          	addiw	a3,a5,0
    5294:	000007b7          	lui	a5,0x0
    5298:	00369693          	slli	a3,a3,0x3
    529c:	00078793          	addi	a5,a5,0 # 0 <set_key>
    52a0:	00f687b3          	add	a5,a3,a5
    52a4:	0007b683          	ld	a3,0(a5)
    52a8:	fc843783          	ld	a5,-56(s0)
    52ac:	0087d793          	srli	a5,a5,0x8
    52b0:	0ff7f793          	andi	a5,a5,255
    52b4:	0007861b          	addiw	a2,a5,0
    52b8:	000007b7          	lui	a5,0x0
    52bc:	10060613          	addi	a2,a2,256
    52c0:	00361613          	slli	a2,a2,0x3
    52c4:	00078793          	addi	a5,a5,0 # 0 <set_key>
    52c8:	00f607b3          	add	a5,a2,a5
    52cc:	0007b783          	ld	a5,0(a5)
    52d0:	00f6c6b3          	xor	a3,a3,a5
    52d4:	fe043783          	ld	a5,-32(s0)
    52d8:	0107d793          	srli	a5,a5,0x10
    52dc:	0ff7f793          	andi	a5,a5,255
    52e0:	0007861b          	addiw	a2,a5,0
    52e4:	000007b7          	lui	a5,0x0
    52e8:	20060613          	addi	a2,a2,512
    52ec:	00361613          	slli	a2,a2,0x3
    52f0:	00078793          	addi	a5,a5,0 # 0 <set_key>
    52f4:	00f607b3          	add	a5,a2,a5
    52f8:	0007b783          	ld	a5,0(a5)
    52fc:	00f6c6b3          	xor	a3,a3,a5
    5300:	fd843783          	ld	a5,-40(s0)
    5304:	0187d793          	srli	a5,a5,0x18
    5308:	0ff7f793          	andi	a5,a5,255
    530c:	0007861b          	addiw	a2,a5,0
    5310:	000007b7          	lui	a5,0x0
    5314:	30060613          	addi	a2,a2,768
    5318:	00361613          	slli	a2,a2,0x3
    531c:	00078793          	addi	a5,a5,0 # 0 <set_key>
    5320:	00f607b3          	add	a5,a2,a5
    5324:	0007b783          	ld	a5,0(a5)
    5328:	00f6c7b3          	xor	a5,a3,a5
    532c:	00f747b3          	xor	a5,a4,a5
    5330:	faf43823          	sd	a5,-80(s0)
    5334:	fe843783          	ld	a5,-24(s0)
    5338:	0b078793          	addi	a5,a5,176
    533c:	0007b703          	ld	a4,0(a5)
    5340:	fd843783          	ld	a5,-40(s0)
    5344:	0ff7f793          	andi	a5,a5,255
    5348:	0007869b          	addiw	a3,a5,0
    534c:	000007b7          	lui	a5,0x0
    5350:	00369693          	slli	a3,a3,0x3
    5354:	00078793          	addi	a5,a5,0 # 0 <set_key>
    5358:	00f687b3          	add	a5,a3,a5
    535c:	0007b683          	ld	a3,0(a5)
    5360:	fd043783          	ld	a5,-48(s0)
    5364:	0087d793          	srli	a5,a5,0x8
    5368:	0ff7f793          	andi	a5,a5,255
    536c:	0007861b          	addiw	a2,a5,0
    5370:	000007b7          	lui	a5,0x0
    5374:	10060613          	addi	a2,a2,256
    5378:	00361613          	slli	a2,a2,0x3
    537c:	00078793          	addi	a5,a5,0 # 0 <set_key>
    5380:	00f607b3          	add	a5,a2,a5
    5384:	0007b783          	ld	a5,0(a5)
    5388:	00f6c6b3          	xor	a3,a3,a5
    538c:	fc843783          	ld	a5,-56(s0)
    5390:	0107d793          	srli	a5,a5,0x10
    5394:	0ff7f793          	andi	a5,a5,255
    5398:	0007861b          	addiw	a2,a5,0
    539c:	000007b7          	lui	a5,0x0
    53a0:	20060613          	addi	a2,a2,512
    53a4:	00361613          	slli	a2,a2,0x3
    53a8:	00078793          	addi	a5,a5,0 # 0 <set_key>
    53ac:	00f607b3          	add	a5,a2,a5
    53b0:	0007b783          	ld	a5,0(a5)
    53b4:	00f6c6b3          	xor	a3,a3,a5
    53b8:	fe043783          	ld	a5,-32(s0)
    53bc:	0187d793          	srli	a5,a5,0x18
    53c0:	0ff7f793          	andi	a5,a5,255
    53c4:	0007861b          	addiw	a2,a5,0
    53c8:	000007b7          	lui	a5,0x0
    53cc:	30060613          	addi	a2,a2,768
    53d0:	00361613          	slli	a2,a2,0x3
    53d4:	00078793          	addi	a5,a5,0 # 0 <set_key>
    53d8:	00f607b3          	add	a5,a2,a5
    53dc:	0007b783          	ld	a5,0(a5)
    53e0:	00f6c7b3          	xor	a5,a3,a5
    53e4:	00f747b3          	xor	a5,a4,a5
    53e8:	faf43c23          	sd	a5,-72(s0)
    53ec:	fe843783          	ld	a5,-24(s0)
    53f0:	0b878793          	addi	a5,a5,184
    53f4:	0007b703          	ld	a4,0(a5)
    53f8:	fe043783          	ld	a5,-32(s0)
    53fc:	0ff7f793          	andi	a5,a5,255
    5400:	0007869b          	addiw	a3,a5,0
    5404:	000007b7          	lui	a5,0x0
    5408:	00369693          	slli	a3,a3,0x3
    540c:	00078793          	addi	a5,a5,0 # 0 <set_key>
    5410:	00f687b3          	add	a5,a3,a5
    5414:	0007b683          	ld	a3,0(a5)
    5418:	fd843783          	ld	a5,-40(s0)
    541c:	0087d793          	srli	a5,a5,0x8
    5420:	0ff7f793          	andi	a5,a5,255
    5424:	0007861b          	addiw	a2,a5,0
    5428:	000007b7          	lui	a5,0x0
    542c:	10060613          	addi	a2,a2,256
    5430:	00361613          	slli	a2,a2,0x3
    5434:	00078793          	addi	a5,a5,0 # 0 <set_key>
    5438:	00f607b3          	add	a5,a2,a5
    543c:	0007b783          	ld	a5,0(a5)
    5440:	00f6c6b3          	xor	a3,a3,a5
    5444:	fd043783          	ld	a5,-48(s0)
    5448:	0107d793          	srli	a5,a5,0x10
    544c:	0ff7f793          	andi	a5,a5,255
    5450:	0007861b          	addiw	a2,a5,0
    5454:	000007b7          	lui	a5,0x0
    5458:	20060613          	addi	a2,a2,512
    545c:	00361613          	slli	a2,a2,0x3
    5460:	00078793          	addi	a5,a5,0 # 0 <set_key>
    5464:	00f607b3          	add	a5,a2,a5
    5468:	0007b783          	ld	a5,0(a5)
    546c:	00f6c6b3          	xor	a3,a3,a5
    5470:	fc843783          	ld	a5,-56(s0)
    5474:	0187d793          	srli	a5,a5,0x18
    5478:	0ff7f793          	andi	a5,a5,255
    547c:	0007861b          	addiw	a2,a5,0
    5480:	000007b7          	lui	a5,0x0
    5484:	30060613          	addi	a2,a2,768
    5488:	00361613          	slli	a2,a2,0x3
    548c:	00078793          	addi	a5,a5,0 # 0 <set_key>
    5490:	00f607b3          	add	a5,a2,a5
    5494:	0007b783          	ld	a5,0(a5)
    5498:	00f6c7b3          	xor	a5,a3,a5
    549c:	00f747b3          	xor	a5,a4,a5
    54a0:	fcf43023          	sd	a5,-64(s0)
    54a4:	fe843783          	ld	a5,-24(s0)
    54a8:	0c078793          	addi	a5,a5,192
    54ac:	0007b703          	ld	a4,0(a5)
    54b0:	fa843783          	ld	a5,-88(s0)
    54b4:	0ff7f793          	andi	a5,a5,255
    54b8:	0007869b          	addiw	a3,a5,0
    54bc:	000007b7          	lui	a5,0x0
    54c0:	00369693          	slli	a3,a3,0x3
    54c4:	00078793          	addi	a5,a5,0 # 0 <set_key>
    54c8:	00f687b3          	add	a5,a3,a5
    54cc:	0007b683          	ld	a3,0(a5)
    54d0:	fc043783          	ld	a5,-64(s0)
    54d4:	0087d793          	srli	a5,a5,0x8
    54d8:	0ff7f793          	andi	a5,a5,255
    54dc:	0007861b          	addiw	a2,a5,0
    54e0:	000007b7          	lui	a5,0x0
    54e4:	10060613          	addi	a2,a2,256
    54e8:	00361613          	slli	a2,a2,0x3
    54ec:	00078793          	addi	a5,a5,0 # 0 <set_key>
    54f0:	00f607b3          	add	a5,a2,a5
    54f4:	0007b783          	ld	a5,0(a5)
    54f8:	00f6c6b3          	xor	a3,a3,a5
    54fc:	fb843783          	ld	a5,-72(s0)
    5500:	0107d793          	srli	a5,a5,0x10
    5504:	0ff7f793          	andi	a5,a5,255
    5508:	0007861b          	addiw	a2,a5,0
    550c:	000007b7          	lui	a5,0x0
    5510:	20060613          	addi	a2,a2,512
    5514:	00361613          	slli	a2,a2,0x3
    5518:	00078793          	addi	a5,a5,0 # 0 <set_key>
    551c:	00f607b3          	add	a5,a2,a5
    5520:	0007b783          	ld	a5,0(a5)
    5524:	00f6c6b3          	xor	a3,a3,a5
    5528:	fb043783          	ld	a5,-80(s0)
    552c:	0187d793          	srli	a5,a5,0x18
    5530:	0ff7f793          	andi	a5,a5,255
    5534:	0007861b          	addiw	a2,a5,0
    5538:	000007b7          	lui	a5,0x0
    553c:	30060613          	addi	a2,a2,768
    5540:	00361613          	slli	a2,a2,0x3
    5544:	00078793          	addi	a5,a5,0 # 0 <set_key>
    5548:	00f607b3          	add	a5,a2,a5
    554c:	0007b783          	ld	a5,0(a5)
    5550:	00f6c7b3          	xor	a5,a3,a5
    5554:	00f747b3          	xor	a5,a4,a5
    5558:	fcf43423          	sd	a5,-56(s0)
    555c:	fe843783          	ld	a5,-24(s0)
    5560:	0c878793          	addi	a5,a5,200
    5564:	0007b703          	ld	a4,0(a5)
    5568:	fb043783          	ld	a5,-80(s0)
    556c:	0ff7f793          	andi	a5,a5,255
    5570:	0007869b          	addiw	a3,a5,0
    5574:	000007b7          	lui	a5,0x0
    5578:	00369693          	slli	a3,a3,0x3
    557c:	00078793          	addi	a5,a5,0 # 0 <set_key>
    5580:	00f687b3          	add	a5,a3,a5
    5584:	0007b683          	ld	a3,0(a5)
    5588:	fa843783          	ld	a5,-88(s0)
    558c:	0087d793          	srli	a5,a5,0x8
    5590:	0ff7f793          	andi	a5,a5,255
    5594:	0007861b          	addiw	a2,a5,0
    5598:	000007b7          	lui	a5,0x0
    559c:	10060613          	addi	a2,a2,256
    55a0:	00361613          	slli	a2,a2,0x3
    55a4:	00078793          	addi	a5,a5,0 # 0 <set_key>
    55a8:	00f607b3          	add	a5,a2,a5
    55ac:	0007b783          	ld	a5,0(a5)
    55b0:	00f6c6b3          	xor	a3,a3,a5
    55b4:	fc043783          	ld	a5,-64(s0)
    55b8:	0107d793          	srli	a5,a5,0x10
    55bc:	0ff7f793          	andi	a5,a5,255
    55c0:	0007861b          	addiw	a2,a5,0
    55c4:	000007b7          	lui	a5,0x0
    55c8:	20060613          	addi	a2,a2,512
    55cc:	00361613          	slli	a2,a2,0x3
    55d0:	00078793          	addi	a5,a5,0 # 0 <set_key>
    55d4:	00f607b3          	add	a5,a2,a5
    55d8:	0007b783          	ld	a5,0(a5)
    55dc:	00f6c6b3          	xor	a3,a3,a5
    55e0:	fb843783          	ld	a5,-72(s0)
    55e4:	0187d793          	srli	a5,a5,0x18
    55e8:	0ff7f793          	andi	a5,a5,255
    55ec:	0007861b          	addiw	a2,a5,0
    55f0:	000007b7          	lui	a5,0x0
    55f4:	30060613          	addi	a2,a2,768
    55f8:	00361613          	slli	a2,a2,0x3
    55fc:	00078793          	addi	a5,a5,0 # 0 <set_key>
    5600:	00f607b3          	add	a5,a2,a5
    5604:	0007b783          	ld	a5,0(a5)
    5608:	00f6c7b3          	xor	a5,a3,a5
    560c:	00f747b3          	xor	a5,a4,a5
    5610:	fcf43823          	sd	a5,-48(s0)
    5614:	fe843783          	ld	a5,-24(s0)
    5618:	0d078793          	addi	a5,a5,208
    561c:	0007b703          	ld	a4,0(a5)
    5620:	fb843783          	ld	a5,-72(s0)
    5624:	0ff7f793          	andi	a5,a5,255
    5628:	0007869b          	addiw	a3,a5,0
    562c:	000007b7          	lui	a5,0x0
    5630:	00369693          	slli	a3,a3,0x3
    5634:	00078793          	addi	a5,a5,0 # 0 <set_key>
    5638:	00f687b3          	add	a5,a3,a5
    563c:	0007b683          	ld	a3,0(a5)
    5640:	fb043783          	ld	a5,-80(s0)
    5644:	0087d793          	srli	a5,a5,0x8
    5648:	0ff7f793          	andi	a5,a5,255
    564c:	0007861b          	addiw	a2,a5,0
    5650:	000007b7          	lui	a5,0x0
    5654:	10060613          	addi	a2,a2,256
    5658:	00361613          	slli	a2,a2,0x3
    565c:	00078793          	addi	a5,a5,0 # 0 <set_key>
    5660:	00f607b3          	add	a5,a2,a5
    5664:	0007b783          	ld	a5,0(a5)
    5668:	00f6c6b3          	xor	a3,a3,a5
    566c:	fa843783          	ld	a5,-88(s0)
    5670:	0107d793          	srli	a5,a5,0x10
    5674:	0ff7f793          	andi	a5,a5,255
    5678:	0007861b          	addiw	a2,a5,0
    567c:	000007b7          	lui	a5,0x0
    5680:	20060613          	addi	a2,a2,512
    5684:	00361613          	slli	a2,a2,0x3
    5688:	00078793          	addi	a5,a5,0 # 0 <set_key>
    568c:	00f607b3          	add	a5,a2,a5
    5690:	0007b783          	ld	a5,0(a5)
    5694:	00f6c6b3          	xor	a3,a3,a5
    5698:	fc043783          	ld	a5,-64(s0)
    569c:	0187d793          	srli	a5,a5,0x18
    56a0:	0ff7f793          	andi	a5,a5,255
    56a4:	0007861b          	addiw	a2,a5,0
    56a8:	000007b7          	lui	a5,0x0
    56ac:	30060613          	addi	a2,a2,768
    56b0:	00361613          	slli	a2,a2,0x3
    56b4:	00078793          	addi	a5,a5,0 # 0 <set_key>
    56b8:	00f607b3          	add	a5,a2,a5
    56bc:	0007b783          	ld	a5,0(a5)
    56c0:	00f6c7b3          	xor	a5,a3,a5
    56c4:	00f747b3          	xor	a5,a4,a5
    56c8:	fcf43c23          	sd	a5,-40(s0)
    56cc:	fe843783          	ld	a5,-24(s0)
    56d0:	0d878793          	addi	a5,a5,216
    56d4:	0007b703          	ld	a4,0(a5)
    56d8:	fc043783          	ld	a5,-64(s0)
    56dc:	0ff7f793          	andi	a5,a5,255
    56e0:	0007869b          	addiw	a3,a5,0
    56e4:	000007b7          	lui	a5,0x0
    56e8:	00369693          	slli	a3,a3,0x3
    56ec:	00078793          	addi	a5,a5,0 # 0 <set_key>
    56f0:	00f687b3          	add	a5,a3,a5
    56f4:	0007b683          	ld	a3,0(a5)
    56f8:	fb843783          	ld	a5,-72(s0)
    56fc:	0087d793          	srli	a5,a5,0x8
    5700:	0ff7f793          	andi	a5,a5,255
    5704:	0007861b          	addiw	a2,a5,0
    5708:	000007b7          	lui	a5,0x0
    570c:	10060613          	addi	a2,a2,256
    5710:	00361613          	slli	a2,a2,0x3
    5714:	00078793          	addi	a5,a5,0 # 0 <set_key>
    5718:	00f607b3          	add	a5,a2,a5
    571c:	0007b783          	ld	a5,0(a5)
    5720:	00f6c6b3          	xor	a3,a3,a5
    5724:	fb043783          	ld	a5,-80(s0)
    5728:	0107d793          	srli	a5,a5,0x10
    572c:	0ff7f793          	andi	a5,a5,255
    5730:	0007861b          	addiw	a2,a5,0
    5734:	000007b7          	lui	a5,0x0
    5738:	20060613          	addi	a2,a2,512
    573c:	00361613          	slli	a2,a2,0x3
    5740:	00078793          	addi	a5,a5,0 # 0 <set_key>
    5744:	00f607b3          	add	a5,a2,a5
    5748:	0007b783          	ld	a5,0(a5)
    574c:	00f6c6b3          	xor	a3,a3,a5
    5750:	fa843783          	ld	a5,-88(s0)
    5754:	0187d793          	srli	a5,a5,0x18
    5758:	0ff7f793          	andi	a5,a5,255
    575c:	0007861b          	addiw	a2,a5,0
    5760:	000007b7          	lui	a5,0x0
    5764:	30060613          	addi	a2,a2,768
    5768:	00361613          	slli	a2,a2,0x3
    576c:	00078793          	addi	a5,a5,0 # 0 <set_key>
    5770:	00f607b3          	add	a5,a2,a5
    5774:	0007b783          	ld	a5,0(a5)
    5778:	00f6c7b3          	xor	a5,a3,a5
    577c:	00f747b3          	xor	a5,a4,a5
    5780:	fef43023          	sd	a5,-32(s0)
    5784:	fe843783          	ld	a5,-24(s0)
    5788:	0e078793          	addi	a5,a5,224
    578c:	0007b703          	ld	a4,0(a5)
    5790:	fc843783          	ld	a5,-56(s0)
    5794:	0ff7f793          	andi	a5,a5,255
    5798:	0007869b          	addiw	a3,a5,0
    579c:	000007b7          	lui	a5,0x0
    57a0:	00369693          	slli	a3,a3,0x3
    57a4:	00078793          	addi	a5,a5,0 # 0 <set_key>
    57a8:	00f687b3          	add	a5,a3,a5
    57ac:	0007b683          	ld	a3,0(a5)
    57b0:	fe043783          	ld	a5,-32(s0)
    57b4:	0087d793          	srli	a5,a5,0x8
    57b8:	0ff7f793          	andi	a5,a5,255
    57bc:	0007861b          	addiw	a2,a5,0
    57c0:	000007b7          	lui	a5,0x0
    57c4:	10060613          	addi	a2,a2,256
    57c8:	00361613          	slli	a2,a2,0x3
    57cc:	00078793          	addi	a5,a5,0 # 0 <set_key>
    57d0:	00f607b3          	add	a5,a2,a5
    57d4:	0007b783          	ld	a5,0(a5)
    57d8:	00f6c6b3          	xor	a3,a3,a5
    57dc:	fd843783          	ld	a5,-40(s0)
    57e0:	0107d793          	srli	a5,a5,0x10
    57e4:	0ff7f793          	andi	a5,a5,255
    57e8:	0007861b          	addiw	a2,a5,0
    57ec:	000007b7          	lui	a5,0x0
    57f0:	20060613          	addi	a2,a2,512
    57f4:	00361613          	slli	a2,a2,0x3
    57f8:	00078793          	addi	a5,a5,0 # 0 <set_key>
    57fc:	00f607b3          	add	a5,a2,a5
    5800:	0007b783          	ld	a5,0(a5)
    5804:	00f6c6b3          	xor	a3,a3,a5
    5808:	fd043783          	ld	a5,-48(s0)
    580c:	0187d793          	srli	a5,a5,0x18
    5810:	0ff7f793          	andi	a5,a5,255
    5814:	0007861b          	addiw	a2,a5,0
    5818:	000007b7          	lui	a5,0x0
    581c:	30060613          	addi	a2,a2,768
    5820:	00361613          	slli	a2,a2,0x3
    5824:	00078793          	addi	a5,a5,0 # 0 <set_key>
    5828:	00f607b3          	add	a5,a2,a5
    582c:	0007b783          	ld	a5,0(a5)
    5830:	00f6c7b3          	xor	a5,a3,a5
    5834:	00f747b3          	xor	a5,a4,a5
    5838:	faf43423          	sd	a5,-88(s0)
    583c:	fe843783          	ld	a5,-24(s0)
    5840:	0e878793          	addi	a5,a5,232
    5844:	0007b703          	ld	a4,0(a5)
    5848:	fd043783          	ld	a5,-48(s0)
    584c:	0ff7f793          	andi	a5,a5,255
    5850:	0007869b          	addiw	a3,a5,0
    5854:	000007b7          	lui	a5,0x0
    5858:	00369693          	slli	a3,a3,0x3
    585c:	00078793          	addi	a5,a5,0 # 0 <set_key>
    5860:	00f687b3          	add	a5,a3,a5
    5864:	0007b683          	ld	a3,0(a5)
    5868:	fc843783          	ld	a5,-56(s0)
    586c:	0087d793          	srli	a5,a5,0x8
    5870:	0ff7f793          	andi	a5,a5,255
    5874:	0007861b          	addiw	a2,a5,0
    5878:	000007b7          	lui	a5,0x0
    587c:	10060613          	addi	a2,a2,256
    5880:	00361613          	slli	a2,a2,0x3
    5884:	00078793          	addi	a5,a5,0 # 0 <set_key>
    5888:	00f607b3          	add	a5,a2,a5
    588c:	0007b783          	ld	a5,0(a5)
    5890:	00f6c6b3          	xor	a3,a3,a5
    5894:	fe043783          	ld	a5,-32(s0)
    5898:	0107d793          	srli	a5,a5,0x10
    589c:	0ff7f793          	andi	a5,a5,255
    58a0:	0007861b          	addiw	a2,a5,0
    58a4:	000007b7          	lui	a5,0x0
    58a8:	20060613          	addi	a2,a2,512
    58ac:	00361613          	slli	a2,a2,0x3
    58b0:	00078793          	addi	a5,a5,0 # 0 <set_key>
    58b4:	00f607b3          	add	a5,a2,a5
    58b8:	0007b783          	ld	a5,0(a5)
    58bc:	00f6c6b3          	xor	a3,a3,a5
    58c0:	fd843783          	ld	a5,-40(s0)
    58c4:	0187d793          	srli	a5,a5,0x18
    58c8:	0ff7f793          	andi	a5,a5,255
    58cc:	0007861b          	addiw	a2,a5,0
    58d0:	000007b7          	lui	a5,0x0
    58d4:	30060613          	addi	a2,a2,768
    58d8:	00361613          	slli	a2,a2,0x3
    58dc:	00078793          	addi	a5,a5,0 # 0 <set_key>
    58e0:	00f607b3          	add	a5,a2,a5
    58e4:	0007b783          	ld	a5,0(a5)
    58e8:	00f6c7b3          	xor	a5,a3,a5
    58ec:	00f747b3          	xor	a5,a4,a5
    58f0:	faf43823          	sd	a5,-80(s0)
    58f4:	fe843783          	ld	a5,-24(s0)
    58f8:	0f078793          	addi	a5,a5,240
    58fc:	0007b703          	ld	a4,0(a5)
    5900:	fd843783          	ld	a5,-40(s0)
    5904:	0ff7f793          	andi	a5,a5,255
    5908:	0007869b          	addiw	a3,a5,0
    590c:	000007b7          	lui	a5,0x0
    5910:	00369693          	slli	a3,a3,0x3
    5914:	00078793          	addi	a5,a5,0 # 0 <set_key>
    5918:	00f687b3          	add	a5,a3,a5
    591c:	0007b683          	ld	a3,0(a5)
    5920:	fd043783          	ld	a5,-48(s0)
    5924:	0087d793          	srli	a5,a5,0x8
    5928:	0ff7f793          	andi	a5,a5,255
    592c:	0007861b          	addiw	a2,a5,0
    5930:	000007b7          	lui	a5,0x0
    5934:	10060613          	addi	a2,a2,256
    5938:	00361613          	slli	a2,a2,0x3
    593c:	00078793          	addi	a5,a5,0 # 0 <set_key>
    5940:	00f607b3          	add	a5,a2,a5
    5944:	0007b783          	ld	a5,0(a5)
    5948:	00f6c6b3          	xor	a3,a3,a5
    594c:	fc843783          	ld	a5,-56(s0)
    5950:	0107d793          	srli	a5,a5,0x10
    5954:	0ff7f793          	andi	a5,a5,255
    5958:	0007861b          	addiw	a2,a5,0
    595c:	000007b7          	lui	a5,0x0
    5960:	20060613          	addi	a2,a2,512
    5964:	00361613          	slli	a2,a2,0x3
    5968:	00078793          	addi	a5,a5,0 # 0 <set_key>
    596c:	00f607b3          	add	a5,a2,a5
    5970:	0007b783          	ld	a5,0(a5)
    5974:	00f6c6b3          	xor	a3,a3,a5
    5978:	fe043783          	ld	a5,-32(s0)
    597c:	0187d793          	srli	a5,a5,0x18
    5980:	0ff7f793          	andi	a5,a5,255
    5984:	0007861b          	addiw	a2,a5,0
    5988:	000007b7          	lui	a5,0x0
    598c:	30060613          	addi	a2,a2,768
    5990:	00361613          	slli	a2,a2,0x3
    5994:	00078793          	addi	a5,a5,0 # 0 <set_key>
    5998:	00f607b3          	add	a5,a2,a5
    599c:	0007b783          	ld	a5,0(a5)
    59a0:	00f6c7b3          	xor	a5,a3,a5
    59a4:	00f747b3          	xor	a5,a4,a5
    59a8:	faf43c23          	sd	a5,-72(s0)
    59ac:	fe843783          	ld	a5,-24(s0)
    59b0:	0f878793          	addi	a5,a5,248
    59b4:	0007b703          	ld	a4,0(a5)
    59b8:	fe043783          	ld	a5,-32(s0)
    59bc:	0ff7f793          	andi	a5,a5,255
    59c0:	0007869b          	addiw	a3,a5,0
    59c4:	000007b7          	lui	a5,0x0
    59c8:	00369693          	slli	a3,a3,0x3
    59cc:	00078793          	addi	a5,a5,0 # 0 <set_key>
    59d0:	00f687b3          	add	a5,a3,a5
    59d4:	0007b683          	ld	a3,0(a5)
    59d8:	fd843783          	ld	a5,-40(s0)
    59dc:	0087d793          	srli	a5,a5,0x8
    59e0:	0ff7f793          	andi	a5,a5,255
    59e4:	0007861b          	addiw	a2,a5,0
    59e8:	000007b7          	lui	a5,0x0
    59ec:	10060613          	addi	a2,a2,256
    59f0:	00361613          	slli	a2,a2,0x3
    59f4:	00078793          	addi	a5,a5,0 # 0 <set_key>
    59f8:	00f607b3          	add	a5,a2,a5
    59fc:	0007b783          	ld	a5,0(a5)
    5a00:	00f6c6b3          	xor	a3,a3,a5
    5a04:	fd043783          	ld	a5,-48(s0)
    5a08:	0107d793          	srli	a5,a5,0x10
    5a0c:	0ff7f793          	andi	a5,a5,255
    5a10:	0007861b          	addiw	a2,a5,0
    5a14:	000007b7          	lui	a5,0x0
    5a18:	20060613          	addi	a2,a2,512
    5a1c:	00361613          	slli	a2,a2,0x3
    5a20:	00078793          	addi	a5,a5,0 # 0 <set_key>
    5a24:	00f607b3          	add	a5,a2,a5
    5a28:	0007b783          	ld	a5,0(a5)
    5a2c:	00f6c6b3          	xor	a3,a3,a5
    5a30:	fc843783          	ld	a5,-56(s0)
    5a34:	0187d793          	srli	a5,a5,0x18
    5a38:	0ff7f793          	andi	a5,a5,255
    5a3c:	0007861b          	addiw	a2,a5,0
    5a40:	000007b7          	lui	a5,0x0
    5a44:	30060613          	addi	a2,a2,768
    5a48:	00361613          	slli	a2,a2,0x3
    5a4c:	00078793          	addi	a5,a5,0 # 0 <set_key>
    5a50:	00f607b3          	add	a5,a2,a5
    5a54:	0007b783          	ld	a5,0(a5)
    5a58:	00f6c7b3          	xor	a5,a3,a5
    5a5c:	00f747b3          	xor	a5,a4,a5
    5a60:	fcf43023          	sd	a5,-64(s0)
    5a64:	fe843783          	ld	a5,-24(s0)
    5a68:	10078793          	addi	a5,a5,256
    5a6c:	0007b703          	ld	a4,0(a5)
    5a70:	fa843783          	ld	a5,-88(s0)
    5a74:	0ff7f793          	andi	a5,a5,255
    5a78:	0007869b          	addiw	a3,a5,0
    5a7c:	000007b7          	lui	a5,0x0
    5a80:	00369693          	slli	a3,a3,0x3
    5a84:	00078793          	addi	a5,a5,0 # 0 <set_key>
    5a88:	00f687b3          	add	a5,a3,a5
    5a8c:	0007b683          	ld	a3,0(a5)
    5a90:	fc043783          	ld	a5,-64(s0)
    5a94:	0087d793          	srli	a5,a5,0x8
    5a98:	0ff7f793          	andi	a5,a5,255
    5a9c:	0007861b          	addiw	a2,a5,0
    5aa0:	000007b7          	lui	a5,0x0
    5aa4:	10060613          	addi	a2,a2,256
    5aa8:	00361613          	slli	a2,a2,0x3
    5aac:	00078793          	addi	a5,a5,0 # 0 <set_key>
    5ab0:	00f607b3          	add	a5,a2,a5
    5ab4:	0007b783          	ld	a5,0(a5)
    5ab8:	00f6c6b3          	xor	a3,a3,a5
    5abc:	fb843783          	ld	a5,-72(s0)
    5ac0:	0107d793          	srli	a5,a5,0x10
    5ac4:	0ff7f793          	andi	a5,a5,255
    5ac8:	0007861b          	addiw	a2,a5,0
    5acc:	000007b7          	lui	a5,0x0
    5ad0:	20060613          	addi	a2,a2,512
    5ad4:	00361613          	slli	a2,a2,0x3
    5ad8:	00078793          	addi	a5,a5,0 # 0 <set_key>
    5adc:	00f607b3          	add	a5,a2,a5
    5ae0:	0007b783          	ld	a5,0(a5)
    5ae4:	00f6c6b3          	xor	a3,a3,a5
    5ae8:	fb043783          	ld	a5,-80(s0)
    5aec:	0187d793          	srli	a5,a5,0x18
    5af0:	0ff7f793          	andi	a5,a5,255
    5af4:	0007861b          	addiw	a2,a5,0
    5af8:	000007b7          	lui	a5,0x0
    5afc:	30060613          	addi	a2,a2,768
    5b00:	00361613          	slli	a2,a2,0x3
    5b04:	00078793          	addi	a5,a5,0 # 0 <set_key>
    5b08:	00f607b3          	add	a5,a2,a5
    5b0c:	0007b783          	ld	a5,0(a5)
    5b10:	00f6c7b3          	xor	a5,a3,a5
    5b14:	00f747b3          	xor	a5,a4,a5
    5b18:	fcf43423          	sd	a5,-56(s0)
    5b1c:	fe843783          	ld	a5,-24(s0)
    5b20:	10878793          	addi	a5,a5,264
    5b24:	0007b703          	ld	a4,0(a5)
    5b28:	fb043783          	ld	a5,-80(s0)
    5b2c:	0ff7f793          	andi	a5,a5,255
    5b30:	0007869b          	addiw	a3,a5,0
    5b34:	000007b7          	lui	a5,0x0
    5b38:	00369693          	slli	a3,a3,0x3
    5b3c:	00078793          	addi	a5,a5,0 # 0 <set_key>
    5b40:	00f687b3          	add	a5,a3,a5
    5b44:	0007b683          	ld	a3,0(a5)
    5b48:	fa843783          	ld	a5,-88(s0)
    5b4c:	0087d793          	srli	a5,a5,0x8
    5b50:	0ff7f793          	andi	a5,a5,255
    5b54:	0007861b          	addiw	a2,a5,0
    5b58:	000007b7          	lui	a5,0x0
    5b5c:	10060613          	addi	a2,a2,256
    5b60:	00361613          	slli	a2,a2,0x3
    5b64:	00078793          	addi	a5,a5,0 # 0 <set_key>
    5b68:	00f607b3          	add	a5,a2,a5
    5b6c:	0007b783          	ld	a5,0(a5)
    5b70:	00f6c6b3          	xor	a3,a3,a5
    5b74:	fc043783          	ld	a5,-64(s0)
    5b78:	0107d793          	srli	a5,a5,0x10
    5b7c:	0ff7f793          	andi	a5,a5,255
    5b80:	0007861b          	addiw	a2,a5,0
    5b84:	000007b7          	lui	a5,0x0
    5b88:	20060613          	addi	a2,a2,512
    5b8c:	00361613          	slli	a2,a2,0x3
    5b90:	00078793          	addi	a5,a5,0 # 0 <set_key>
    5b94:	00f607b3          	add	a5,a2,a5
    5b98:	0007b783          	ld	a5,0(a5)
    5b9c:	00f6c6b3          	xor	a3,a3,a5
    5ba0:	fb843783          	ld	a5,-72(s0)
    5ba4:	0187d793          	srli	a5,a5,0x18
    5ba8:	0ff7f793          	andi	a5,a5,255
    5bac:	0007861b          	addiw	a2,a5,0
    5bb0:	000007b7          	lui	a5,0x0
    5bb4:	30060613          	addi	a2,a2,768
    5bb8:	00361613          	slli	a2,a2,0x3
    5bbc:	00078793          	addi	a5,a5,0 # 0 <set_key>
    5bc0:	00f607b3          	add	a5,a2,a5
    5bc4:	0007b783          	ld	a5,0(a5)
    5bc8:	00f6c7b3          	xor	a5,a3,a5
    5bcc:	00f747b3          	xor	a5,a4,a5
    5bd0:	fcf43823          	sd	a5,-48(s0)
    5bd4:	fe843783          	ld	a5,-24(s0)
    5bd8:	11078793          	addi	a5,a5,272
    5bdc:	0007b703          	ld	a4,0(a5)
    5be0:	fb843783          	ld	a5,-72(s0)
    5be4:	0ff7f793          	andi	a5,a5,255
    5be8:	0007869b          	addiw	a3,a5,0
    5bec:	000007b7          	lui	a5,0x0
    5bf0:	00369693          	slli	a3,a3,0x3
    5bf4:	00078793          	addi	a5,a5,0 # 0 <set_key>
    5bf8:	00f687b3          	add	a5,a3,a5
    5bfc:	0007b683          	ld	a3,0(a5)
    5c00:	fb043783          	ld	a5,-80(s0)
    5c04:	0087d793          	srli	a5,a5,0x8
    5c08:	0ff7f793          	andi	a5,a5,255
    5c0c:	0007861b          	addiw	a2,a5,0
    5c10:	000007b7          	lui	a5,0x0
    5c14:	10060613          	addi	a2,a2,256
    5c18:	00361613          	slli	a2,a2,0x3
    5c1c:	00078793          	addi	a5,a5,0 # 0 <set_key>
    5c20:	00f607b3          	add	a5,a2,a5
    5c24:	0007b783          	ld	a5,0(a5)
    5c28:	00f6c6b3          	xor	a3,a3,a5
    5c2c:	fa843783          	ld	a5,-88(s0)
    5c30:	0107d793          	srli	a5,a5,0x10
    5c34:	0ff7f793          	andi	a5,a5,255
    5c38:	0007861b          	addiw	a2,a5,0
    5c3c:	000007b7          	lui	a5,0x0
    5c40:	20060613          	addi	a2,a2,512
    5c44:	00361613          	slli	a2,a2,0x3
    5c48:	00078793          	addi	a5,a5,0 # 0 <set_key>
    5c4c:	00f607b3          	add	a5,a2,a5
    5c50:	0007b783          	ld	a5,0(a5)
    5c54:	00f6c6b3          	xor	a3,a3,a5
    5c58:	fc043783          	ld	a5,-64(s0)
    5c5c:	0187d793          	srli	a5,a5,0x18
    5c60:	0ff7f793          	andi	a5,a5,255
    5c64:	0007861b          	addiw	a2,a5,0
    5c68:	000007b7          	lui	a5,0x0
    5c6c:	30060613          	addi	a2,a2,768
    5c70:	00361613          	slli	a2,a2,0x3
    5c74:	00078793          	addi	a5,a5,0 # 0 <set_key>
    5c78:	00f607b3          	add	a5,a2,a5
    5c7c:	0007b783          	ld	a5,0(a5)
    5c80:	00f6c7b3          	xor	a5,a3,a5
    5c84:	00f747b3          	xor	a5,a4,a5
    5c88:	fcf43c23          	sd	a5,-40(s0)
    5c8c:	fe843783          	ld	a5,-24(s0)
    5c90:	11878793          	addi	a5,a5,280
    5c94:	0007b703          	ld	a4,0(a5)
    5c98:	fc043783          	ld	a5,-64(s0)
    5c9c:	0ff7f793          	andi	a5,a5,255
    5ca0:	0007869b          	addiw	a3,a5,0
    5ca4:	000007b7          	lui	a5,0x0
    5ca8:	00369693          	slli	a3,a3,0x3
    5cac:	00078793          	addi	a5,a5,0 # 0 <set_key>
    5cb0:	00f687b3          	add	a5,a3,a5
    5cb4:	0007b683          	ld	a3,0(a5)
    5cb8:	fb843783          	ld	a5,-72(s0)
    5cbc:	0087d793          	srli	a5,a5,0x8
    5cc0:	0ff7f793          	andi	a5,a5,255
    5cc4:	0007861b          	addiw	a2,a5,0
    5cc8:	000007b7          	lui	a5,0x0
    5ccc:	10060613          	addi	a2,a2,256
    5cd0:	00361613          	slli	a2,a2,0x3
    5cd4:	00078793          	addi	a5,a5,0 # 0 <set_key>
    5cd8:	00f607b3          	add	a5,a2,a5
    5cdc:	0007b783          	ld	a5,0(a5)
    5ce0:	00f6c6b3          	xor	a3,a3,a5
    5ce4:	fb043783          	ld	a5,-80(s0)
    5ce8:	0107d793          	srli	a5,a5,0x10
    5cec:	0ff7f793          	andi	a5,a5,255
    5cf0:	0007861b          	addiw	a2,a5,0
    5cf4:	000007b7          	lui	a5,0x0
    5cf8:	20060613          	addi	a2,a2,512
    5cfc:	00361613          	slli	a2,a2,0x3
    5d00:	00078793          	addi	a5,a5,0 # 0 <set_key>
    5d04:	00f607b3          	add	a5,a2,a5
    5d08:	0007b783          	ld	a5,0(a5)
    5d0c:	00f6c6b3          	xor	a3,a3,a5
    5d10:	fa843783          	ld	a5,-88(s0)
    5d14:	0187d793          	srli	a5,a5,0x18
    5d18:	0ff7f793          	andi	a5,a5,255
    5d1c:	0007861b          	addiw	a2,a5,0
    5d20:	000007b7          	lui	a5,0x0
    5d24:	30060613          	addi	a2,a2,768
    5d28:	00361613          	slli	a2,a2,0x3
    5d2c:	00078793          	addi	a5,a5,0 # 0 <set_key>
    5d30:	00f607b3          	add	a5,a2,a5
    5d34:	0007b783          	ld	a5,0(a5)
    5d38:	00f6c7b3          	xor	a5,a3,a5
    5d3c:	00f747b3          	xor	a5,a4,a5
    5d40:	fef43023          	sd	a5,-32(s0)
    5d44:	fe843783          	ld	a5,-24(s0)
    5d48:	12078793          	addi	a5,a5,288
    5d4c:	0007b703          	ld	a4,0(a5)
    5d50:	fc843783          	ld	a5,-56(s0)
    5d54:	0ff7f793          	andi	a5,a5,255
    5d58:	0007869b          	addiw	a3,a5,0
    5d5c:	000007b7          	lui	a5,0x0
    5d60:	00369693          	slli	a3,a3,0x3
    5d64:	00078793          	addi	a5,a5,0 # 0 <set_key>
    5d68:	00f687b3          	add	a5,a3,a5
    5d6c:	0007b683          	ld	a3,0(a5)
    5d70:	fe043783          	ld	a5,-32(s0)
    5d74:	0087d793          	srli	a5,a5,0x8
    5d78:	0ff7f793          	andi	a5,a5,255
    5d7c:	0007861b          	addiw	a2,a5,0
    5d80:	000007b7          	lui	a5,0x0
    5d84:	10060613          	addi	a2,a2,256
    5d88:	00361613          	slli	a2,a2,0x3
    5d8c:	00078793          	addi	a5,a5,0 # 0 <set_key>
    5d90:	00f607b3          	add	a5,a2,a5
    5d94:	0007b783          	ld	a5,0(a5)
    5d98:	00f6c6b3          	xor	a3,a3,a5
    5d9c:	fd843783          	ld	a5,-40(s0)
    5da0:	0107d793          	srli	a5,a5,0x10
    5da4:	0ff7f793          	andi	a5,a5,255
    5da8:	0007861b          	addiw	a2,a5,0
    5dac:	000007b7          	lui	a5,0x0
    5db0:	20060613          	addi	a2,a2,512
    5db4:	00361613          	slli	a2,a2,0x3
    5db8:	00078793          	addi	a5,a5,0 # 0 <set_key>
    5dbc:	00f607b3          	add	a5,a2,a5
    5dc0:	0007b783          	ld	a5,0(a5)
    5dc4:	00f6c6b3          	xor	a3,a3,a5
    5dc8:	fd043783          	ld	a5,-48(s0)
    5dcc:	0187d793          	srli	a5,a5,0x18
    5dd0:	0ff7f793          	andi	a5,a5,255
    5dd4:	0007861b          	addiw	a2,a5,0
    5dd8:	000007b7          	lui	a5,0x0
    5ddc:	30060613          	addi	a2,a2,768
    5de0:	00361613          	slli	a2,a2,0x3
    5de4:	00078793          	addi	a5,a5,0 # 0 <set_key>
    5de8:	00f607b3          	add	a5,a2,a5
    5dec:	0007b783          	ld	a5,0(a5)
    5df0:	00f6c7b3          	xor	a5,a3,a5
    5df4:	00f747b3          	xor	a5,a4,a5
    5df8:	faf43423          	sd	a5,-88(s0)
    5dfc:	fe843783          	ld	a5,-24(s0)
    5e00:	12878793          	addi	a5,a5,296
    5e04:	0007b703          	ld	a4,0(a5)
    5e08:	fd043783          	ld	a5,-48(s0)
    5e0c:	0ff7f793          	andi	a5,a5,255
    5e10:	0007869b          	addiw	a3,a5,0
    5e14:	000007b7          	lui	a5,0x0
    5e18:	00369693          	slli	a3,a3,0x3
    5e1c:	00078793          	addi	a5,a5,0 # 0 <set_key>
    5e20:	00f687b3          	add	a5,a3,a5
    5e24:	0007b683          	ld	a3,0(a5)
    5e28:	fc843783          	ld	a5,-56(s0)
    5e2c:	0087d793          	srli	a5,a5,0x8
    5e30:	0ff7f793          	andi	a5,a5,255
    5e34:	0007861b          	addiw	a2,a5,0
    5e38:	000007b7          	lui	a5,0x0
    5e3c:	10060613          	addi	a2,a2,256
    5e40:	00361613          	slli	a2,a2,0x3
    5e44:	00078793          	addi	a5,a5,0 # 0 <set_key>
    5e48:	00f607b3          	add	a5,a2,a5
    5e4c:	0007b783          	ld	a5,0(a5)
    5e50:	00f6c6b3          	xor	a3,a3,a5
    5e54:	fe043783          	ld	a5,-32(s0)
    5e58:	0107d793          	srli	a5,a5,0x10
    5e5c:	0ff7f793          	andi	a5,a5,255
    5e60:	0007861b          	addiw	a2,a5,0
    5e64:	000007b7          	lui	a5,0x0
    5e68:	20060613          	addi	a2,a2,512
    5e6c:	00361613          	slli	a2,a2,0x3
    5e70:	00078793          	addi	a5,a5,0 # 0 <set_key>
    5e74:	00f607b3          	add	a5,a2,a5
    5e78:	0007b783          	ld	a5,0(a5)
    5e7c:	00f6c6b3          	xor	a3,a3,a5
    5e80:	fd843783          	ld	a5,-40(s0)
    5e84:	0187d793          	srli	a5,a5,0x18
    5e88:	0ff7f793          	andi	a5,a5,255
    5e8c:	0007861b          	addiw	a2,a5,0
    5e90:	000007b7          	lui	a5,0x0
    5e94:	30060613          	addi	a2,a2,768
    5e98:	00361613          	slli	a2,a2,0x3
    5e9c:	00078793          	addi	a5,a5,0 # 0 <set_key>
    5ea0:	00f607b3          	add	a5,a2,a5
    5ea4:	0007b783          	ld	a5,0(a5)
    5ea8:	00f6c7b3          	xor	a5,a3,a5
    5eac:	00f747b3          	xor	a5,a4,a5
    5eb0:	faf43823          	sd	a5,-80(s0)
    5eb4:	fe843783          	ld	a5,-24(s0)
    5eb8:	13078793          	addi	a5,a5,304
    5ebc:	0007b703          	ld	a4,0(a5)
    5ec0:	fd843783          	ld	a5,-40(s0)
    5ec4:	0ff7f793          	andi	a5,a5,255
    5ec8:	0007869b          	addiw	a3,a5,0
    5ecc:	000007b7          	lui	a5,0x0
    5ed0:	00369693          	slli	a3,a3,0x3
    5ed4:	00078793          	addi	a5,a5,0 # 0 <set_key>
    5ed8:	00f687b3          	add	a5,a3,a5
    5edc:	0007b683          	ld	a3,0(a5)
    5ee0:	fd043783          	ld	a5,-48(s0)
    5ee4:	0087d793          	srli	a5,a5,0x8
    5ee8:	0ff7f793          	andi	a5,a5,255
    5eec:	0007861b          	addiw	a2,a5,0
    5ef0:	000007b7          	lui	a5,0x0
    5ef4:	10060613          	addi	a2,a2,256
    5ef8:	00361613          	slli	a2,a2,0x3
    5efc:	00078793          	addi	a5,a5,0 # 0 <set_key>
    5f00:	00f607b3          	add	a5,a2,a5
    5f04:	0007b783          	ld	a5,0(a5)
    5f08:	00f6c6b3          	xor	a3,a3,a5
    5f0c:	fc843783          	ld	a5,-56(s0)
    5f10:	0107d793          	srli	a5,a5,0x10
    5f14:	0ff7f793          	andi	a5,a5,255
    5f18:	0007861b          	addiw	a2,a5,0
    5f1c:	000007b7          	lui	a5,0x0
    5f20:	20060613          	addi	a2,a2,512
    5f24:	00361613          	slli	a2,a2,0x3
    5f28:	00078793          	addi	a5,a5,0 # 0 <set_key>
    5f2c:	00f607b3          	add	a5,a2,a5
    5f30:	0007b783          	ld	a5,0(a5)
    5f34:	00f6c6b3          	xor	a3,a3,a5
    5f38:	fe043783          	ld	a5,-32(s0)
    5f3c:	0187d793          	srli	a5,a5,0x18
    5f40:	0ff7f793          	andi	a5,a5,255
    5f44:	0007861b          	addiw	a2,a5,0
    5f48:	000007b7          	lui	a5,0x0
    5f4c:	30060613          	addi	a2,a2,768
    5f50:	00361613          	slli	a2,a2,0x3
    5f54:	00078793          	addi	a5,a5,0 # 0 <set_key>
    5f58:	00f607b3          	add	a5,a2,a5
    5f5c:	0007b783          	ld	a5,0(a5)
    5f60:	00f6c7b3          	xor	a5,a3,a5
    5f64:	00f747b3          	xor	a5,a4,a5
    5f68:	faf43c23          	sd	a5,-72(s0)
    5f6c:	fe843783          	ld	a5,-24(s0)
    5f70:	13878793          	addi	a5,a5,312
    5f74:	0007b703          	ld	a4,0(a5)
    5f78:	fe043783          	ld	a5,-32(s0)
    5f7c:	0ff7f793          	andi	a5,a5,255
    5f80:	0007869b          	addiw	a3,a5,0
    5f84:	000007b7          	lui	a5,0x0
    5f88:	00369693          	slli	a3,a3,0x3
    5f8c:	00078793          	addi	a5,a5,0 # 0 <set_key>
    5f90:	00f687b3          	add	a5,a3,a5
    5f94:	0007b683          	ld	a3,0(a5)
    5f98:	fd843783          	ld	a5,-40(s0)
    5f9c:	0087d793          	srli	a5,a5,0x8
    5fa0:	0ff7f793          	andi	a5,a5,255
    5fa4:	0007861b          	addiw	a2,a5,0
    5fa8:	000007b7          	lui	a5,0x0
    5fac:	10060613          	addi	a2,a2,256
    5fb0:	00361613          	slli	a2,a2,0x3
    5fb4:	00078793          	addi	a5,a5,0 # 0 <set_key>
    5fb8:	00f607b3          	add	a5,a2,a5
    5fbc:	0007b783          	ld	a5,0(a5)
    5fc0:	00f6c6b3          	xor	a3,a3,a5
    5fc4:	fd043783          	ld	a5,-48(s0)
    5fc8:	0107d793          	srli	a5,a5,0x10
    5fcc:	0ff7f793          	andi	a5,a5,255
    5fd0:	0007861b          	addiw	a2,a5,0
    5fd4:	000007b7          	lui	a5,0x0
    5fd8:	20060613          	addi	a2,a2,512
    5fdc:	00361613          	slli	a2,a2,0x3
    5fe0:	00078793          	addi	a5,a5,0 # 0 <set_key>
    5fe4:	00f607b3          	add	a5,a2,a5
    5fe8:	0007b783          	ld	a5,0(a5)
    5fec:	00f6c6b3          	xor	a3,a3,a5
    5ff0:	fc843783          	ld	a5,-56(s0)
    5ff4:	0187d793          	srli	a5,a5,0x18
    5ff8:	0ff7f793          	andi	a5,a5,255
    5ffc:	0007861b          	addiw	a2,a5,0
    6000:	000007b7          	lui	a5,0x0
    6004:	30060613          	addi	a2,a2,768
    6008:	00361613          	slli	a2,a2,0x3
    600c:	00078793          	addi	a5,a5,0 # 0 <set_key>
    6010:	00f607b3          	add	a5,a2,a5
    6014:	0007b783          	ld	a5,0(a5)
    6018:	00f6c7b3          	xor	a5,a3,a5
    601c:	00f747b3          	xor	a5,a4,a5
    6020:	fcf43023          	sd	a5,-64(s0)

0000000000006024 <.L29>:
    6024:	fa843703          	ld	a4,-88(s0)
    6028:	f9043783          	ld	a5,-112(s0)
    602c:	00e7b023          	sd	a4,0(a5)
    6030:	f9043783          	ld	a5,-112(s0)
    6034:	00478793          	addi	a5,a5,4
    6038:	fb043703          	ld	a4,-80(s0)
    603c:	00e7b023          	sd	a4,0(a5)
    6040:	f9043783          	ld	a5,-112(s0)
    6044:	00878793          	addi	a5,a5,8
    6048:	fb843703          	ld	a4,-72(s0)
    604c:	00e7b023          	sd	a4,0(a5)
    6050:	f9043783          	ld	a5,-112(s0)
    6054:	00c78793          	addi	a5,a5,12
    6058:	fc043703          	ld	a4,-64(s0)
    605c:	00e7b023          	sd	a4,0(a5)
    6060:	00100793          	addi	a5,zero,1

0000000000006064 <.L33>:
    6064:	00078513          	addi	a0,a5,0
    6068:	07813403          	ld	s0,120(sp)
    606c:	08010113          	addi	sp,sp,128
    6070:	00008067          	jalr	zero,0(ra)
