
modified_aes.o:     file format elf64-littleriscv


Disassembly of section .text:

0000000000000000 <set_key>:
       0:	06982977          	0x6982977
       4:	0075f793          	andi	a5,a1,7
       8:	e795                	c.bnez	a5,34 <.L2>
       a:	00d11977          	0xd11977
       e:	ff058793          	addi	a5,a1,-16
      12:	4741                	c.li	a4,16
      14:	02f77b63          	bgeu	a4,a5,4a <.L31>
      18:	09866977          	0x9866977
      1c:	ed81                	c.bnez	a1,34 <.L2>
      1e:	0a45c977          	0xa45c977
      22:	6288                	c.ld	a0,0(a3)
      24:	050a                	c.slli	a0,0x2
      26:	0105151b          	slliw	a0,a0,0x10
      2a:	4105551b          	sraiw	a0,a0,0x10
      2e:	0ff05073          	csrrwi	zero,0xff,0
      32:	8082                	c.jr	ra

0000000000000034 <.L2>:
      34:	04778977          	0x4778977
      38:	4106c783          	lbu	a5,1040(a3)
      3c:	4501                	c.li	a0,0
      3e:	9bf1                	c.andi	a5,-4
      40:	40f68823          	sb	a5,1040(a3)
      44:	0ff05073          	csrrwi	zero,0xff,0
      48:	8082                	c.jr	ra

000000000000004a <.L31>:
      4a:	080c0977          	0x80c0977
      4e:	8a0d                	c.andi	a2,3
      50:	d275                	c.beqz	a2,34 <.L2>
      52:	0ec26977          	0xec26977
      56:	4106c883          	lbu	a7,1040(a3)
      5a:	8189                	c.srli	a1,0x2
      5c:	00658793          	addi	a5,a1,6
      60:	ffc8f893          	andi	a7,a7,-4
      64:	00c8e8b3          	or	a7,a7,a2
      68:	e69c                	c.sd	a5,8(a3)
      6a:	41168823          	sb	a7,1040(a3)
      6e:	e28c                	c.sd	a1,0(a3)
      70:	6118                	c.ld	a4,0(a0)
      72:	00758e93          	addi	t4,a1,7
      76:	0e8a                	c.slli	t4,0x2
      78:	ea98                	c.sd	a4,16(a3)
      7a:	00453303          	ld	t1,4(a0)
      7e:	1101                	c.addi	sp,-32
      80:	40be8eb3          	sub	t4,t4,a1
      84:	0066bc23          	sd	t1,24(a3)
      88:	00853803          	ld	a6,8(a0)
      8c:	01068793          	addi	a5,a3,16
      90:	0e8e                	c.slli	t4,0x3
      92:	0306b023          	sd	a6,32(a3)
      96:	00c53603          	ld	a2,12(a0)
      9a:	ec22                	c.sdsp	s0,24(sp)
      9c:	e826                	c.sdsp	s1,16(sp)
      9e:	e44a                	c.sdsp	s2,8(sp)
      a0:	4e19                	c.li	t3,6
      a2:	f690                	c.sd	a2,40(a3)
      a4:	9ebe                	c.add	t4,a5
      a6:	1fc58d63          	beq	a1,t3,2a0 <.L8>
      aa:	0b235977          	0xb235977
      ae:	4e21                	c.li	t3,8
      b0:	35c58963          	beq	a1,t3,402 <.L9>
      b4:	0ad95977          	0xad95977
      b8:	4511                	c.li	a0,4
      ba:	2aa58263          	beq	a1,a0,35e <.L32>

00000000000000be <.L7>:
      be:	0e67e977          	0xe67e977
      c2:	0038f613          	andi	a2,a7,3
      c6:	4585                	c.li	a1,1
      c8:	4505                	c.li	a0,1
      ca:	1cb60263          	beq	a2,a1,28e <.L6>
      ce:	02932977          	0x2932977
      d2:	6698                	c.ld	a4,8(a3)
      d4:	6a90                	c.ld	a2,16(a3)
      d6:	21068793          	addi	a5,a3,528
      da:	0716                	c.slli	a4,0x5
      dc:	97ba                	c.add	a5,a4
      de:	e390                	c.sd	a2,0(a5)
      e0:	6e98                	c.ld	a4,24(a3)
      e2:	fe078813          	addi	a6,a5,-32
      e6:	03068893          	addi	a7,a3,48
      ea:	e798                	c.sd	a4,8(a5)
      ec:	7298                	c.ld	a4,32(a3)
      ee:	eb98                	c.sd	a4,16(a5)
      f0:	7698                	c.ld	a4,40(a3)
      f2:	ef98                	c.sd	a4,24(a5)
      f4:	669c                	c.ld	a5,8(a3)
      f6:	16f5f963          	bgeu	a1,a5,268 <.L14>
      fa:	08023977          	0x8023977
      fe:	000007b7          	lui	a5,0x0
     102:	00078793          	addi	a5,a5,0 # 0 <set_key>

0000000000000106 <.L15>:
     106:	0b905977          	0xb905977
     10a:	0008b703          	ld	a4,0(a7)
     10e:	02088893          	addi	a7,a7,32
     112:	1801                	c.addi	a6,-32
     114:	00875313          	srli	t1,a4,0x8
     118:	01075593          	srli	a1,a4,0x10
     11c:	0ff37313          	andi	t1,t1,255
     120:	0ff5f593          	andi	a1,a1,255
     124:	0187561b          	srliw	a2,a4,0x18
     128:	10030313          	addi	t1,t1,256
     12c:	20058593          	addi	a1,a1,512
     130:	030e                	c.slli	t1,0x3
     132:	058e                	c.slli	a1,0x3
     134:	0ff77713          	andi	a4,a4,255
     138:	2601                	c.addiw	a2,0
     13a:	95be                	c.add	a1,a5
     13c:	933e                	c.add	t1,a5
     13e:	070e                	c.slli	a4,0x3
     140:	30060613          	addi	a2,a2,768
     144:	0005be03          	ld	t3,0(a1)
     148:	00033303          	ld	t1,0(t1)
     14c:	973e                	c.add	a4,a5
     14e:	060e                	c.slli	a2,0x3
     150:	630c                	c.ld	a1,0(a4)
     152:	00c78733          	add	a4,a5,a2
     156:	6310                	c.ld	a2,0(a4)
     158:	01c34733          	xor	a4,t1,t3
     15c:	8f2d                	c.xor	a4,a1
     15e:	8f31                	c.xor	a4,a2
     160:	02e83023          	sd	a4,32(a6)
     164:	fe88b703          	ld	a4,-24(a7)
     168:	0505                	c.addi	a0,1
     16a:	00875313          	srli	t1,a4,0x8
     16e:	01075593          	srli	a1,a4,0x10
     172:	0ff37313          	andi	t1,t1,255
     176:	0ff5f593          	andi	a1,a1,255
     17a:	0187561b          	srliw	a2,a4,0x18
     17e:	10030313          	addi	t1,t1,256
     182:	20058593          	addi	a1,a1,512
     186:	030e                	c.slli	t1,0x3
     188:	058e                	c.slli	a1,0x3
     18a:	0ff77713          	andi	a4,a4,255
     18e:	2601                	c.addiw	a2,0
     190:	95be                	c.add	a1,a5
     192:	933e                	c.add	t1,a5
     194:	070e                	c.slli	a4,0x3
     196:	30060613          	addi	a2,a2,768
     19a:	0005be03          	ld	t3,0(a1)
     19e:	00033303          	ld	t1,0(t1)
     1a2:	973e                	c.add	a4,a5
     1a4:	060e                	c.slli	a2,0x3
     1a6:	630c                	c.ld	a1,0(a4)
     1a8:	00c78733          	add	a4,a5,a2
     1ac:	6310                	c.ld	a2,0(a4)
     1ae:	01c34733          	xor	a4,t1,t3
     1b2:	8f2d                	c.xor	a4,a1
     1b4:	8f31                	c.xor	a4,a2
     1b6:	02e83423          	sd	a4,40(a6)
     1ba:	ff08b703          	ld	a4,-16(a7)
     1be:	00875313          	srli	t1,a4,0x8
     1c2:	01075593          	srli	a1,a4,0x10
     1c6:	0ff37313          	andi	t1,t1,255
     1ca:	0ff5f593          	andi	a1,a1,255
     1ce:	0187561b          	srliw	a2,a4,0x18
     1d2:	10030313          	addi	t1,t1,256
     1d6:	20058593          	addi	a1,a1,512
     1da:	030e                	c.slli	t1,0x3
     1dc:	058e                	c.slli	a1,0x3
     1de:	0ff77713          	andi	a4,a4,255
     1e2:	2601                	c.addiw	a2,0
     1e4:	95be                	c.add	a1,a5
     1e6:	933e                	c.add	t1,a5
     1e8:	070e                	c.slli	a4,0x3
     1ea:	30060613          	addi	a2,a2,768
     1ee:	0005be03          	ld	t3,0(a1)
     1f2:	00033303          	ld	t1,0(t1)
     1f6:	973e                	c.add	a4,a5
     1f8:	060e                	c.slli	a2,0x3
     1fa:	630c                	c.ld	a1,0(a4)
     1fc:	00c78733          	add	a4,a5,a2
     200:	6310                	c.ld	a2,0(a4)
     202:	01c34733          	xor	a4,t1,t3
     206:	8f2d                	c.xor	a4,a1
     208:	8f31                	c.xor	a4,a2
     20a:	02e83823          	sd	a4,48(a6)
     20e:	ff88b703          	ld	a4,-8(a7)
     212:	00875313          	srli	t1,a4,0x8
     216:	01075593          	srli	a1,a4,0x10
     21a:	0ff37313          	andi	t1,t1,255
     21e:	0ff5f593          	andi	a1,a1,255
     222:	0187561b          	srliw	a2,a4,0x18
     226:	10030313          	addi	t1,t1,256
     22a:	20058593          	addi	a1,a1,512
     22e:	030e                	c.slli	t1,0x3
     230:	058e                	c.slli	a1,0x3
     232:	0ff77713          	andi	a4,a4,255
     236:	2601                	c.addiw	a2,0
     238:	95be                	c.add	a1,a5
     23a:	933e                	c.add	t1,a5
     23c:	070e                	c.slli	a4,0x3
     23e:	30060613          	addi	a2,a2,768
     242:	0005be03          	ld	t3,0(a1)
     246:	973e                	c.add	a4,a5
     248:	060e                	c.slli	a2,0x3
     24a:	00033303          	ld	t1,0(t1)
     24e:	630c                	c.ld	a1,0(a4)
     250:	00c78733          	add	a4,a5,a2
     254:	6310                	c.ld	a2,0(a4)
     256:	01c34733          	xor	a4,t1,t3
     25a:	8f2d                	c.xor	a4,a1
     25c:	8f31                	c.xor	a4,a2
     25e:	02e83c23          	sd	a4,56(a6)
     262:	6698                	c.ld	a4,8(a3)
     264:	eae561e3          	bltu	a0,a4,106 <.L15>

0000000000000268 <.L14>:
     268:	00503977          	0x503977
     26c:	0008b783          	ld	a5,0(a7)
     270:	4505                	c.li	a0,1
     272:	00f83023          	sd	a5,0(a6)
     276:	0088b783          	ld	a5,8(a7)
     27a:	00f83423          	sd	a5,8(a6)
     27e:	0108b783          	ld	a5,16(a7)
     282:	00f83823          	sd	a5,16(a6)
     286:	0188b783          	ld	a5,24(a7)
     28a:	00f83c23          	sd	a5,24(a6)

000000000000028e <.L6>:
     28e:	03cef977          	0x3cef977
     292:	6462                	c.ldsp	s0,24(sp)
     294:	64c2                	c.ldsp	s1,16(sp)
     296:	6922                	c.ldsp	s2,8(sp)
     298:	6105                	c.addi16sp	sp,32
     29a:	0ff05073          	csrrwi	zero,0xff,0
     29e:	8082                	c.jr	ra

00000000000002a0 <.L8>:
     2a0:	00c89977          	0xc89977
     2a4:	01053f03          	ld	t5,16(a0)
     2a8:	000008b7          	lui	a7,0x0
     2ac:	000002b7          	lui	t0,0x0
     2b0:	03e6b823          	sd	t5,48(a3)
     2b4:	01453f83          	ld	t6,20(a0)
     2b8:	859a                	c.mv	a1,t1
     2ba:	00028293          	addi	t0,t0,0 # 0 <set_key>
     2be:	03f6bc23          	sd	t6,56(a3)
     2c2:	00088513          	addi	a0,a7,0 # 0 <set_key>

00000000000002c6 <.L12>:
     2c6:	0df0a977          	0xdf0a977
     2ca:	0ffff893          	andi	a7,t6,255
     2ce:	010fde13          	srli	t3,t6,0x10
     2d2:	30088893          	addi	a7,a7,768
     2d6:	005fd393          	srli	t2,t6,0x5
     2da:	018fd31b          	srliw	t1,t6,0x18
     2de:	088e                	c.slli	a7,0x3
     2e0:	0ffe7e13          	andi	t3,t3,255
     2e4:	7f83f393          	andi	t2,t2,2040
     2e8:	98aa                	c.add	a7,a0
     2ea:	100e0e13          	addi	t3,t3,256
     2ee:	2301                	c.addiw	t1,0
     2f0:	0008b883          	ld	a7,0(a7)
     2f4:	93aa                	c.add	t2,a0
     2f6:	0e0e                	c.slli	t3,0x3
     2f8:	20030313          	addi	t1,t1,512
     2fc:	0003b383          	ld	t2,0(t2)
     300:	9e2a                	c.add	t3,a0
     302:	030e                	c.slli	t1,0x3
     304:	000e3e03          	ld	t3,0(t3)
     308:	932a                	c.add	t1,a0
     30a:	01174733          	xor	a4,a4,a7
     30e:	00033303          	ld	t1,0(t1)
     312:	0002b883          	ld	a7,0(t0)
     316:	00774733          	xor	a4,a4,t2
     31a:	01c74733          	xor	a4,a4,t3
     31e:	00674733          	xor	a4,a4,t1
     322:	01174733          	xor	a4,a4,a7
     326:	8db9                	c.xor	a1,a4
     328:	00b84833          	xor	a6,a6,a1
     32c:	01064633          	xor	a2,a2,a6
     330:	00cf4f33          	xor	t5,t5,a2
     334:	01efcfb3          	xor	t6,t6,t5
     338:	fb98                	c.sd	a4,48(a5)
     33a:	ff8c                	c.sd	a1,56(a5)
     33c:	0507b023          	sd	a6,64(a5)
     340:	e7b0                	c.sd	a2,72(a5)
     342:	05e7b823          	sd	t5,80(a5)
     346:	05f7bc23          	sd	t6,88(a5)
     34a:	03078793          	addi	a5,a5,48
     34e:	02a1                	c.addi	t0,8
     350:	f7d7ebe3          	bltu	a5,t4,2c6 <.L12>
     354:	0a155977          	0xa155977
     358:	4106c883          	lbu	a7,1040(a3)
     35c:	b38d                	c.j	be <.L7>

000000000000035e <.L32>:
     35e:	08707977          	0x8707977
     362:	000008b7          	lui	a7,0x0
     366:	00000f37          	lui	t5,0x0
     36a:	859a                	c.mv	a1,t1
     36c:	8fba                	c.mv	t6,a4
     36e:	000f0f13          	addi	t5,t5,0 # 0 <set_key>
     372:	00088513          	addi	a0,a7,0 # 0 <set_key>

0000000000000376 <.L11>:
     376:	0ee26977          	0xee26977
     37a:	0ff67e13          	andi	t3,a2,255
     37e:	01065313          	srli	t1,a2,0x10
     382:	300e0e13          	addi	t3,t3,768
     386:	00565293          	srli	t0,a2,0x5
     38a:	0186589b          	srliw	a7,a2,0x18
     38e:	0e0e                	c.slli	t3,0x3
     390:	0ff37313          	andi	t1,t1,255
     394:	9e2a                	c.add	t3,a0
     396:	7f82f293          	andi	t0,t0,2040
     39a:	10030313          	addi	t1,t1,256
     39e:	2881                	c.addiw	a7,0
     3a0:	000e3703          	ld	a4,0(t3)
     3a4:	92aa                	c.add	t0,a0
     3a6:	030e                	c.slli	t1,0x3
     3a8:	20088893          	addi	a7,a7,512
     3ac:	0002be03          	ld	t3,0(t0)
     3b0:	932a                	c.add	t1,a0
     3b2:	088e                	c.slli	a7,0x3
     3b4:	00033303          	ld	t1,0(t1)
     3b8:	98aa                	c.add	a7,a0
     3ba:	00efc733          	xor	a4,t6,a4
     3be:	0008b883          	ld	a7,0(a7)
     3c2:	000f3f83          	ld	t6,0(t5)
     3c6:	01c74733          	xor	a4,a4,t3
     3ca:	00674733          	xor	a4,a4,t1
     3ce:	01174733          	xor	a4,a4,a7
     3d2:	01f74fb3          	xor	t6,a4,t6
     3d6:	01f5c5b3          	xor	a1,a1,t6
     3da:	00b84833          	xor	a6,a6,a1
     3de:	01064633          	xor	a2,a2,a6
     3e2:	03f7b023          	sd	t6,32(a5)
     3e6:	f78c                	c.sd	a1,40(a5)
     3e8:	0307b823          	sd	a6,48(a5)
     3ec:	ff90                	c.sd	a2,56(a5)
     3ee:	02078793          	addi	a5,a5,32
     3f2:	0f21                	c.addi	t5,8
     3f4:	f9d7e1e3          	bltu	a5,t4,376 <.L11>
     3f8:	0b6d5977          	0xb6d5977
     3fc:	4106c883          	lbu	a7,1040(a3)
     400:	b97d                	c.j	be <.L7>

0000000000000402 <.L9>:
     402:	089ef977          	0x89ef977
     406:	01053f83          	ld	t6,16(a0)
     40a:	000008b7          	lui	a7,0x0
     40e:	00000437          	lui	s0,0x0
     412:	03f6b823          	sd	t6,48(a3)
     416:	01453383          	ld	t2,20(a0)
     41a:	859a                	c.mv	a1,t1
     41c:	00040413          	addi	s0,s0,0 # 0 <set_key>
     420:	0276bc23          	sd	t2,56(a3)
     424:	01853283          	ld	t0,24(a0)
     428:	0456b023          	sd	t0,64(a3)
     42c:	01c53f03          	ld	t5,28(a0)
     430:	00088513          	addi	a0,a7,0 # 0 <set_key>
     434:	05e6b423          	sd	t5,72(a3)

0000000000000438 <.L13>:
     438:	0aaff977          	0xaaff977
     43c:	0fff7893          	andi	a7,t5,255
     440:	010f5e13          	srli	t3,t5,0x10
     444:	30088893          	addi	a7,a7,768
     448:	005f5493          	srli	s1,t5,0x5
     44c:	018f531b          	srliw	t1,t5,0x18
     450:	088e                	c.slli	a7,0x3
     452:	0ffe7e13          	andi	t3,t3,255
     456:	7f84f493          	andi	s1,s1,2040
     45a:	98aa                	c.add	a7,a0
     45c:	100e0e13          	addi	t3,t3,256
     460:	2301                	c.addiw	t1,0
     462:	0008b883          	ld	a7,0(a7)
     466:	94aa                	c.add	s1,a0
     468:	0e0e                	c.slli	t3,0x3
     46a:	20030313          	addi	t1,t1,512
     46e:	6084                	c.ld	s1,0(s1)
     470:	9e2a                	c.add	t3,a0
     472:	030e                	c.slli	t1,0x3
     474:	000e3e03          	ld	t3,0(t3)
     478:	932a                	c.add	t1,a0
     47a:	01174733          	xor	a4,a4,a7
     47e:	00033303          	ld	t1,0(t1)
     482:	00043883          	ld	a7,0(s0)
     486:	8f25                	c.xor	a4,s1
     488:	01c74733          	xor	a4,a4,t3
     48c:	00674733          	xor	a4,a4,t1
     490:	01174733          	xor	a4,a4,a7
     494:	8db9                	c.xor	a1,a4
     496:	00b84833          	xor	a6,a6,a1
     49a:	01064633          	xor	a2,a2,a6
     49e:	00865e13          	srli	t3,a2,0x8
     4a2:	0ff67493          	andi	s1,a2,255
     4a6:	0ffe7e13          	andi	t3,t3,255
     4aa:	01065313          	srli	t1,a2,0x10
     4ae:	048e                	c.slli	s1,0x3
     4b0:	100e0e13          	addi	t3,t3,256
     4b4:	0ff37313          	andi	t1,t1,255
     4b8:	0186589b          	srliw	a7,a2,0x18
     4bc:	94aa                	c.add	s1,a0
     4be:	0e0e                	c.slli	t3,0x3
     4c0:	20030313          	addi	t1,t1,512
     4c4:	2881                	c.addiw	a7,0
     4c6:	9e2a                	c.add	t3,a0
     4c8:	6084                	c.ld	s1,0(s1)
     4ca:	030e                	c.slli	t1,0x3
     4cc:	30088893          	addi	a7,a7,768
     4d0:	000e3903          	ld	s2,0(t3)
     4d4:	932a                	c.add	t1,a0
     4d6:	088e                	c.slli	a7,0x3
     4d8:	00033e03          	ld	t3,0(t1)
     4dc:	98aa                	c.add	a7,a0
     4de:	009fcfb3          	xor	t6,t6,s1
     4e2:	0008b303          	ld	t1,0(a7)
     4e6:	012fc8b3          	xor	a7,t6,s2
     4ea:	01c8c8b3          	xor	a7,a7,t3
     4ee:	0068cfb3          	xor	t6,a7,t1
     4f2:	01f3c3b3          	xor	t2,t2,t6
     4f6:	0072c2b3          	xor	t0,t0,t2
     4fa:	005f4f33          	xor	t5,t5,t0
     4fe:	e3b8                	c.sd	a4,64(a5)
     500:	e7ac                	c.sd	a1,72(a5)
     502:	0507b823          	sd	a6,80(a5)
     506:	efb0                	c.sd	a2,88(a5)
     508:	07f7b023          	sd	t6,96(a5)
     50c:	0677b423          	sd	t2,104(a5)
     510:	0657b823          	sd	t0,112(a5)
     514:	07e7bc23          	sd	t5,120(a5)
     518:	04078793          	addi	a5,a5,64
     51c:	0421                	c.addi	s0,8
     51e:	f1d7ede3          	bltu	a5,t4,438 <.L13>
     522:	0c4b5977          	0xc4b5977
     526:	4106c883          	lbu	a7,1040(a3)
     52a:	be51                	c.j	be <.L7>

000000000000052c <encrypt>:
     52c:	07365977          	0x7365977
     530:	41064783          	lbu	a5,1040(a2)
     534:	8b85                	c.andi	a5,1
     536:	c7c5                	c.beqz	a5,5de <.L40>
     538:	0b9fd977          	0xb9fd977
     53c:	00053383          	ld	t2,0(a0)
     540:	00453e83          	ld	t4,4(a0)
     544:	00853803          	ld	a6,8(a0)
     548:	01063e03          	ld	t3,16(a2)
     54c:	00c53503          	ld	a0,12(a0)
     550:	6e18                	c.ld	a4,24(a2)
     552:	721c                	c.ld	a5,32(a2)
     554:	7614                	c.ld	a3,40(a2)
     556:	00863883          	ld	a7,8(a2)
     55a:	711d                	c.addi16sp	sp,-96
     55c:	eca2                	c.sdsp	s0,88(sp)
     55e:	e8a6                	c.sdsp	s1,80(sp)
     560:	e4ca                	c.sdsp	s2,72(sp)
     562:	e0ce                	c.sdsp	s3,64(sp)
     564:	fc52                	c.sdsp	s4,56(sp)
     566:	f856                	c.sdsp	s5,48(sp)
     568:	f45a                	c.sdsp	s6,40(sp)
     56a:	f05e                	c.sdsp	s7,32(sp)
     56c:	ec62                	c.sdsp	s8,24(sp)
     56e:	e866                	c.sdsp	s9,16(sp)
     570:	e46a                	c.sdsp	s10,8(sp)
     572:	e06e                	c.sdsp	s11,0(sp)
     574:	4331                	c.li	t1,12
     576:	8ea9                	c.xor	a3,a0
     578:	01c3ce33          	xor	t3,t2,t3
     57c:	00eec733          	xor	a4,t4,a4
     580:	00f84833          	xor	a6,a6,a5
     584:	03060513          	addi	a0,a2,48
     588:	06688163          	beq	a7,t1,5ea <.L36>
     58c:	093e8977          	0x93e8977
     590:	47b9                	c.li	a5,14
     592:	00f89463          	bne	a7,a5,59a <encrypt+0x6e>
     596:	1680106f          	jal	zero,16fe <.L37>
     59a:	0042f977          	0x42f977
     59e:	47a9                	c.li	a5,10
     5a0:	00f89463          	bne	a7,a5,5a8 <.L35>
     5a4:	14a0106f          	jal	zero,16ee <.L46>

00000000000005a8 <.L35>:
     5a8:	093a8977          	0x93a8977
     5ac:	01c5b023          	sd	t3,0(a1)
     5b0:	00e5b223          	sd	a4,4(a1)
     5b4:	6466                	c.ldsp	s0,88(sp)
     5b6:	0105b423          	sd	a6,8(a1)
     5ba:	00d5b623          	sd	a3,12(a1)
     5be:	64c6                	c.ldsp	s1,80(sp)
     5c0:	6926                	c.ldsp	s2,72(sp)
     5c2:	6986                	c.ldsp	s3,64(sp)
     5c4:	7a62                	c.ldsp	s4,56(sp)
     5c6:	7ac2                	c.ldsp	s5,48(sp)
     5c8:	7b22                	c.ldsp	s6,40(sp)
     5ca:	7b82                	c.ldsp	s7,32(sp)
     5cc:	6c62                	c.ldsp	s8,24(sp)
     5ce:	6cc2                	c.ldsp	s9,16(sp)
     5d0:	6d22                	c.ldsp	s10,8(sp)
     5d2:	6d82                	c.ldsp	s11,0(sp)
     5d4:	4505                	c.li	a0,1
     5d6:	6125                	c.addi16sp	sp,96
     5d8:	0ff05073          	csrrwi	zero,0xff,0
     5dc:	8082                	c.jr	ra

00000000000005de <.L40>:
     5de:	0028f977          	0x28f977
     5e2:	4501                	c.li	a0,0
     5e4:	0ff05073          	csrrwi	zero,0xff,0
     5e8:	8082                	c.jr	ra

00000000000005ea <.L36>:
     5ea:	0001e977          	0x1e977
     5ee:	03063e83          	ld	t4,48(a2)
     5f2:	000007b7          	lui	a5,0x0
     5f6:	00078793          	addi	a5,a5,0 # 0 <set_key>

00000000000005fa <.L39>:
     5fa:	0017c977          	0x17c977
     5fe:	00875293          	srli	t0,a4,0x8
     602:	00885993          	srli	s3,a6,0x8
     606:	0086d913          	srli	s2,a3,0x8
     60a:	008e5493          	srli	s1,t3,0x8
     60e:	010e5613          	srli	a2,t3,0x10
     612:	0ffe7c13          	andi	s8,t3,255
     616:	01085413          	srli	s0,a6,0x10
     61a:	0ff77b93          	andi	s7,a4,255
     61e:	0106d393          	srli	t2,a3,0x10
     622:	0ff87b13          	andi	s6,a6,255
     626:	0ff6fa93          	andi	s5,a3,255
     62a:	01075f93          	srli	t6,a4,0x10
     62e:	0ff2f293          	andi	t0,t0,255
     632:	0ff9f993          	andi	s3,s3,255
     636:	0ff97913          	andi	s2,s2,255
     63a:	0ff4f493          	andi	s1,s1,255
     63e:	0186df1b          	srliw	t5,a3,0x18
     642:	0187531b          	srliw	t1,a4,0x18
     646:	0188589b          	srliw	a7,a6,0x18
     64a:	10028a13          	addi	s4,t0,256
     64e:	018e5e1b          	srliw	t3,t3,0x18
     652:	0ff67293          	andi	t0,a2,255
     656:	0c0e                	c.slli	s8,0x3
     658:	0ff47413          	andi	s0,s0,255
     65c:	0b8e                	c.slli	s7,0x3
     65e:	10098993          	addi	s3,s3,256
     662:	0ff3f393          	andi	t2,t2,255
     666:	0b0e                	c.slli	s6,0x3
     668:	10090913          	addi	s2,s2,256
     66c:	0a8e                	c.slli	s5,0x3
     66e:	10048493          	addi	s1,s1,256
     672:	0fffff93          	andi	t6,t6,255
     676:	9c3e                	c.add	s8,a5
     678:	0a0e                	c.slli	s4,0x3
     67a:	20040413          	addi	s0,s0,512
     67e:	2f01                	c.addiw	t5,0
     680:	9bbe                	c.add	s7,a5
     682:	098e                	c.slli	s3,0x3
     684:	20038393          	addi	t2,t2,512
     688:	2e01                	c.addiw	t3,0
     68a:	9b3e                	c.add	s6,a5
     68c:	090e                	c.slli	s2,0x3
     68e:	20028293          	addi	t0,t0,512
     692:	2301                	c.addiw	t1,0
     694:	9abe                	c.add	s5,a5
     696:	048e                	c.slli	s1,0x3
     698:	200f8f93          	addi	t6,t6,512
     69c:	2881                	c.addiw	a7,0
     69e:	6510                	c.ld	a2,8(a0)
     6a0:	6914                	c.ld	a3,16(a0)
     6a2:	6d18                	c.ld	a4,24(a0)
     6a4:	000c3803          	ld	a6,0(s8)
     6a8:	000bbb83          	ld	s7,0(s7)
     6ac:	000b3b03          	ld	s6,0(s6)
     6b0:	000aba83          	ld	s5,0(s5)
     6b4:	9a3e                	c.add	s4,a5
     6b6:	040e                	c.slli	s0,0x3
     6b8:	300f0f13          	addi	t5,t5,768
     6bc:	99be                	c.add	s3,a5
     6be:	038e                	c.slli	t2,0x3
     6c0:	300e0e13          	addi	t3,t3,768
     6c4:	993e                	c.add	s2,a5
     6c6:	028e                	c.slli	t0,0x3
     6c8:	30030313          	addi	t1,t1,768
     6cc:	94be                	c.add	s1,a5
     6ce:	0f8e                	c.slli	t6,0x3
     6d0:	30088893          	addi	a7,a7,768
     6d4:	000a3a03          	ld	s4,0(s4)
     6d8:	0009b983          	ld	s3,0(s3)
     6dc:	00093903          	ld	s2,0(s2)
     6e0:	6084                	c.ld	s1,0(s1)
     6e2:	943e                	c.add	s0,a5
     6e4:	0f0e                	c.slli	t5,0x3
     6e6:	93be                	c.add	t2,a5
     6e8:	0e0e                	c.slli	t3,0x3
     6ea:	92be                	c.add	t0,a5
     6ec:	030e                	c.slli	t1,0x3
     6ee:	9fbe                	c.add	t6,a5
     6f0:	088e                	c.slli	a7,0x3
     6f2:	6000                	c.ld	s0,0(s0)
     6f4:	0003b383          	ld	t2,0(t2)
     6f8:	0002b283          	ld	t0,0(t0)
     6fc:	000fbf83          	ld	t6,0(t6)
     700:	9f3e                	c.add	t5,a5
     702:	9e3e                	c.add	t3,a5
     704:	933e                	c.add	t1,a5
     706:	98be                	c.add	a7,a5
     708:	000f3f03          	ld	t5,0(t5)
     70c:	000e3e03          	ld	t3,0(t3)
     710:	00033303          	ld	t1,0(t1)
     714:	0008b883          	ld	a7,0(a7)
     718:	010ec833          	xor	a6,t4,a6
     71c:	01764633          	xor	a2,a2,s7
     720:	0166c6b3          	xor	a3,a3,s6
     724:	01574733          	xor	a4,a4,s5
     728:	01484833          	xor	a6,a6,s4
     72c:	01364633          	xor	a2,a2,s3
     730:	0126c6b3          	xor	a3,a3,s2
     734:	8f25                	c.xor	a4,s1
     736:	00884833          	xor	a6,a6,s0
     73a:	00764633          	xor	a2,a2,t2
     73e:	0056c6b3          	xor	a3,a3,t0
     742:	01f74733          	xor	a4,a4,t6
     746:	01e84833          	xor	a6,a6,t5
     74a:	01c64633          	xor	a2,a2,t3
     74e:	0066c6b3          	xor	a3,a3,t1
     752:	01174733          	xor	a4,a4,a7
     756:	00865a13          	srli	s4,a2,0x8
     75a:	0106d913          	srli	s2,a3,0x10
     75e:	0187539b          	srliw	t2,a4,0x18
     762:	0086d993          	srli	s3,a3,0x8
     766:	01075493          	srli	s1,a4,0x10
     76a:	01885a9b          	srliw	s5,a6,0x18
     76e:	00875413          	srli	s0,a4,0x8
     772:	01085293          	srli	t0,a6,0x10
     776:	00885f93          	srli	t6,a6,0x8
     77a:	0ffa7a13          	andi	s4,s4,255
     77e:	0ff97913          	andi	s2,s2,255
     782:	2381                	c.addiw	t2,0
     784:	0ff9f993          	andi	s3,s3,255
     788:	0ff4f493          	andi	s1,s1,255
     78c:	2a81                	c.addiw	s5,0
     78e:	0ff47413          	andi	s0,s0,255
     792:	0ff2f293          	andi	t0,t0,255
     796:	0ff87f13          	andi	t5,a6,255
     79a:	0ff67b13          	andi	s6,a2,255
     79e:	0ff6fc13          	andi	s8,a3,255
     7a2:	01065e93          	srli	t4,a2,0x10
     7a6:	100a0a13          	addi	s4,s4,256
     7aa:	20090913          	addi	s2,s2,512
     7ae:	30038393          	addi	t2,t2,768
     7b2:	10098993          	addi	s3,s3,256
     7b6:	20048493          	addi	s1,s1,512
     7ba:	300a8a93          	addi	s5,s5,768
     7be:	10040413          	addi	s0,s0,256
     7c2:	20028293          	addi	t0,t0,512
     7c6:	0ff77713          	andi	a4,a4,255
     7ca:	0fffff93          	andi	t6,t6,255
     7ce:	0186561b          	srliw	a2,a2,0x18
     7d2:	070e                	c.slli	a4,0x3
     7d4:	0186d69b          	srliw	a3,a3,0x18
     7d8:	0f0e                	c.slli	t5,0x3
     7da:	0a0e                	c.slli	s4,0x3
     7dc:	090e                	c.slli	s2,0x3
     7de:	038e                	c.slli	t2,0x3
     7e0:	0b0e                	c.slli	s6,0x3
     7e2:	098e                	c.slli	s3,0x3
     7e4:	048e                	c.slli	s1,0x3
     7e6:	0a8e                	c.slli	s5,0x3
     7e8:	0c0e                	c.slli	s8,0x3
     7ea:	040e                	c.slli	s0,0x3
     7ec:	028e                	c.slli	t0,0x3
     7ee:	100f8f93          	addi	t6,t6,256
     7f2:	0ffefe93          	andi	t4,t4,255
     7f6:	00e788b3          	add	a7,a5,a4
     7fa:	9f3e                	c.add	t5,a5
     7fc:	9abe                	c.add	s5,a5
     7fe:	9c3e                	c.add	s8,a5
     800:	00060e1b          	addiw	t3,a2,0
     804:	0006831b          	addiw	t1,a3,0
     808:	9a3e                	c.add	s4,a5
     80a:	993e                	c.add	s2,a5
     80c:	93be                	c.add	t2,a5
     80e:	9b3e                	c.add	s6,a5
     810:	99be                	c.add	s3,a5
     812:	94be                	c.add	s1,a5
     814:	943e                	c.add	s0,a5
     816:	92be                	c.add	t0,a5
     818:	0f8e                	c.slli	t6,0x3
     81a:	200e8e93          	addi	t4,t4,512
     81e:	7110                	c.ld	a2,32(a0)
     820:	7518                	c.ld	a4,40(a0)
     822:	03053803          	ld	a6,48(a0)
     826:	000f3b83          	ld	s7,0(t5)
     82a:	000a3a03          	ld	s4,0(s4)
     82e:	000abf03          	ld	t5,0(s5)
     832:	00093903          	ld	s2,0(s2)
     836:	000c3a83          	ld	s5,0(s8)
     83a:	0003b383          	ld	t2,0(t2)
     83e:	000b3b03          	ld	s6,0(s6)
     842:	0009b983          	ld	s3,0(s3)
     846:	6084                	c.ld	s1,0(s1)
     848:	6000                	c.ld	s0,0(s0)
     84a:	300e0e13          	addi	t3,t3,768
     84e:	0002b283          	ld	t0,0(t0)
     852:	9fbe                	c.add	t6,a5
     854:	7d14                	c.ld	a3,56(a0)
     856:	0008bc03          	ld	s8,0(a7)
     85a:	0e8e                	c.slli	t4,0x3
     85c:	30030313          	addi	t1,t1,768
     860:	0e0e                	c.slli	t3,0x3
     862:	000fbf83          	ld	t6,0(t6)
     866:	9ebe                	c.add	t4,a5
     868:	030e                	c.slli	t1,0x3
     86a:	9e3e                	c.add	t3,a5
     86c:	000ebe83          	ld	t4,0(t4)
     870:	933e                	c.add	t1,a5
     872:	000e3883          	ld	a7,0(t3)
     876:	01764633          	xor	a2,a2,s7
     87a:	01674733          	xor	a4,a4,s6
     87e:	01584833          	xor	a6,a6,s5
     882:	0186c6b3          	xor	a3,a3,s8
     886:	00033303          	ld	t1,0(t1)
     88a:	01464633          	xor	a2,a2,s4
     88e:	01374733          	xor	a4,a4,s3
     892:	00884833          	xor	a6,a6,s0
     896:	01f6c6b3          	xor	a3,a3,t6
     89a:	01264633          	xor	a2,a2,s2
     89e:	8f25                	c.xor	a4,s1
     8a0:	00584833          	xor	a6,a6,t0
     8a4:	01d6c6b3          	xor	a3,a3,t4
     8a8:	00764e33          	xor	t3,a2,t2
     8ac:	01e74733          	xor	a4,a4,t5
     8b0:	01184833          	xor	a6,a6,a7
     8b4:	0066c6b3          	xor	a3,a3,t1
     8b8:	04050513          	addi	a0,a0,64

00000000000008bc <.L38>:
     8bc:	0bda6977          	0xbda6977
     8c0:	00875f93          	srli	t6,a4,0x8
     8c4:	00885493          	srli	s1,a6,0x8
     8c8:	0086d393          	srli	t2,a3,0x8
     8cc:	008e5413          	srli	s0,t3,0x8
     8d0:	0ffe7913          	andi	s2,t3,255
     8d4:	010e5613          	srli	a2,t3,0x10
     8d8:	01085c13          	srli	s8,a6,0x10
     8dc:	0ff77893          	andi	a7,a4,255
     8e0:	0106d293          	srli	t0,a3,0x10
     8e4:	0ff87a13          	andi	s4,a6,255
     8e8:	0ff6f993          	andi	s3,a3,255
     8ec:	01075f13          	srli	t5,a4,0x10
     8f0:	0fffff93          	andi	t6,t6,255
     8f4:	0ff4f493          	andi	s1,s1,255
     8f8:	0ff3f393          	andi	t2,t2,255
     8fc:	0ff47413          	andi	s0,s0,255
     900:	0186de9b          	srliw	t4,a3,0x18
     904:	0187531b          	srliw	t1,a4,0x18
     908:	00391693          	slli	a3,s2,0x3
     90c:	018e5e1b          	srliw	t3,t3,0x18
     910:	100f8913          	addi	s2,t6,256
     914:	0188581b          	srliw	a6,a6,0x18
     918:	0ff67f93          	andi	t6,a2,255
     91c:	0ffc7c13          	andi	s8,s8,255
     920:	088e                	c.slli	a7,0x3
     922:	10048493          	addi	s1,s1,256
     926:	0ff2f293          	andi	t0,t0,255
     92a:	0a0e                	c.slli	s4,0x3
     92c:	10038393          	addi	t2,t2,256
     930:	098e                	c.slli	s3,0x3
     932:	10040413          	addi	s0,s0,256
     936:	0fff7f13          	andi	t5,t5,255
     93a:	96be                	c.add	a3,a5
     93c:	98be                	c.add	a7,a5
     93e:	9a3e                	c.add	s4,a5
     940:	99be                	c.add	s3,a5
     942:	090e                	c.slli	s2,0x3
     944:	200c0c13          	addi	s8,s8,512
     948:	2e81                	c.addiw	t4,0
     94a:	048e                	c.slli	s1,0x3
     94c:	20028293          	addi	t0,t0,512
     950:	2e01                	c.addiw	t3,0
     952:	038e                	c.slli	t2,0x3
     954:	200f8f93          	addi	t6,t6,512
     958:	2301                	c.addiw	t1,0
     95a:	040e                	c.slli	s0,0x3
     95c:	200f0f13          	addi	t5,t5,512
     960:	2801                	c.addiw	a6,0
     962:	0006bb83          	ld	s7,0(a3)
     966:	0008bb03          	ld	s6,0(a7)
     96a:	000a3a83          	ld	s5,0(s4)
     96e:	6110                	c.ld	a2,0(a0)
     970:	0009ba03          	ld	s4,0(s3)
     974:	6514                	c.ld	a3,8(a0)
     976:	01053883          	ld	a7,16(a0)
     97a:	6d18                	c.ld	a4,24(a0)
     97c:	993e                	c.add	s2,a5
     97e:	94be                	c.add	s1,a5
     980:	93be                	c.add	t2,a5
     982:	943e                	c.add	s0,a5
     984:	0c0e                	c.slli	s8,0x3
     986:	300e8e93          	addi	t4,t4,768
     98a:	028e                	c.slli	t0,0x3
     98c:	300e0e13          	addi	t3,t3,768
     990:	0f8e                	c.slli	t6,0x3
     992:	30030313          	addi	t1,t1,768
     996:	0f0e                	c.slli	t5,0x3
     998:	30080813          	addi	a6,a6,768
     99c:	00093983          	ld	s3,0(s2)
     9a0:	6000                	c.ld	s0,0(s0)
     9a2:	0004b903          	ld	s2,0(s1)
     9a6:	9c3e                	c.add	s8,a5
     9a8:	0003b483          	ld	s1,0(t2)
     9ac:	92be                	c.add	t0,a5
     9ae:	9fbe                	c.add	t6,a5
     9b0:	9f3e                	c.add	t5,a5
     9b2:	0e8e                	c.slli	t4,0x3
     9b4:	0e0e                	c.slli	t3,0x3
     9b6:	030e                	c.slli	t1,0x3
     9b8:	080e                	c.slli	a6,0x3
     9ba:	000c3383          	ld	t2,0(s8)
     9be:	0002b283          	ld	t0,0(t0)
     9c2:	000fbf83          	ld	t6,0(t6)
     9c6:	000f3f03          	ld	t5,0(t5)
     9ca:	9ebe                	c.add	t4,a5
     9cc:	9e3e                	c.add	t3,a5
     9ce:	933e                	c.add	t1,a5
     9d0:	983e                	c.add	a6,a5
     9d2:	000ebe83          	ld	t4,0(t4)
     9d6:	000e3e03          	ld	t3,0(t3)
     9da:	00033303          	ld	t1,0(t1)
     9de:	00083803          	ld	a6,0(a6)
     9e2:	01764633          	xor	a2,a2,s7
     9e6:	0166c6b3          	xor	a3,a3,s6
     9ea:	0158c8b3          	xor	a7,a7,s5
     9ee:	01474733          	xor	a4,a4,s4
     9f2:	01364633          	xor	a2,a2,s3
     9f6:	0126c6b3          	xor	a3,a3,s2
     9fa:	0098c8b3          	xor	a7,a7,s1
     9fe:	8f21                	c.xor	a4,s0
     a00:	00764633          	xor	a2,a2,t2
     a04:	0056c6b3          	xor	a3,a3,t0
     a08:	01f8c8b3          	xor	a7,a7,t6
     a0c:	01e74733          	xor	a4,a4,t5
     a10:	01d64633          	xor	a2,a2,t4
     a14:	01c6c6b3          	xor	a3,a3,t3
     a18:	0068c8b3          	xor	a7,a7,t1
     a1c:	01074733          	xor	a4,a4,a6
     a20:	0086d413          	srli	s0,a3,0x8
     a24:	0108df13          	srli	t5,a7,0x10
     a28:	0187531b          	srliw	t1,a4,0x18
     a2c:	0088de93          	srli	t4,a7,0x8
     a30:	01075e13          	srli	t3,a4,0x10
     a34:	0186581b          	srliw	a6,a2,0x18
     a38:	00875913          	srli	s2,a4,0x8
     a3c:	00865c93          	srli	s9,a2,0x8
     a40:	0ff47413          	andi	s0,s0,255
     a44:	0fff7f13          	andi	t5,t5,255
     a48:	2301                	c.addiw	t1,0
     a4a:	0ffefe93          	andi	t4,t4,255
     a4e:	0ffe7e13          	andi	t3,t3,255
     a52:	2801                	c.addiw	a6,0
     a54:	0ff97913          	andi	s2,s2,255
     a58:	0ff67993          	andi	s3,a2,255
     a5c:	0ff6f393          	andi	t2,a3,255
     a60:	0ff8fa93          	andi	s5,a7,255
     a64:	8241                	c.srli	a2,0x10
     a66:	0ff77713          	andi	a4,a4,255
     a6a:	0106df93          	srli	t6,a3,0x10
     a6e:	10040413          	addi	s0,s0,256
     a72:	200f0f13          	addi	t5,t5,512
     a76:	30030313          	addi	t1,t1,768
     a7a:	100e8e93          	addi	t4,t4,256
     a7e:	200e0e13          	addi	t3,t3,512
     a82:	30080813          	addi	a6,a6,768
     a86:	10090913          	addi	s2,s2,256
     a8a:	0ffcfc93          	andi	s9,s9,255
     a8e:	030e                	c.slli	t1,0x3
     a90:	080e                	c.slli	a6,0x3
     a92:	0ff67493          	andi	s1,a2,255
     a96:	0186d69b          	srliw	a3,a3,0x18
     a9a:	00371293          	slli	t0,a4,0x3
     a9e:	098e                	c.slli	s3,0x3
     aa0:	040e                	c.slli	s0,0x3
     aa2:	0f0e                	c.slli	t5,0x3
     aa4:	038e                	c.slli	t2,0x3
     aa6:	0e8e                	c.slli	t4,0x3
     aa8:	0e0e                	c.slli	t3,0x3
     aaa:	0a8e                	c.slli	s5,0x3
     aac:	090e                	c.slli	s2,0x3
     aae:	100c8c93          	addi	s9,s9,256
     ab2:	0fffff93          	andi	t6,t6,255
     ab6:	0188d89b          	srliw	a7,a7,0x18
     aba:	00678733          	add	a4,a5,t1
     abe:	01078633          	add	a2,a5,a6
     ac2:	99be                	c.add	s3,a5
     ac4:	943e                	c.add	s0,a5
     ac6:	9f3e                	c.add	t5,a5
     ac8:	93be                	c.add	t2,a5
     aca:	9ebe                	c.add	t4,a5
     acc:	9e3e                	c.add	t3,a5
     ace:	9abe                	c.add	s5,a5
     ad0:	92be                	c.add	t0,a5
     ad2:	993e                	c.add	s2,a5
     ad4:	20048493          	addi	s1,s1,512
     ad8:	0006831b          	addiw	t1,a3,0
     adc:	0c8e                	c.slli	s9,0x3
     ade:	200f8f93          	addi	t6,t6,512
     ae2:	2881                	c.addiw	a7,0
     ae4:	0009bb83          	ld	s7,0(s3)
     ae8:	00043a03          	ld	s4,0(s0)
     aec:	0003b983          	ld	s3,0(t2)
     af0:	000f3403          	ld	s0,0(t5)
     af4:	000eb383          	ld	t2,0(t4)
     af8:	00073f03          	ld	t5,0(a4)
     afc:	000e3e83          	ld	t4,0(t3)
     b00:	000abb03          	ld	s6,0(s5)
     b04:	00063e03          	ld	t3,0(a2)
     b08:	02053803          	ld	a6,32(a0)
     b0c:	7518                	c.ld	a4,40(a0)
     b0e:	7910                	c.ld	a2,48(a0)
     b10:	9cbe                	c.add	s9,a5
     b12:	00093903          	ld	s2,0(s2)
     b16:	00349c13          	slli	s8,s1,0x3
     b1a:	0002ba83          	ld	s5,0(t0)
     b1e:	7d14                	c.ld	a3,56(a0)
     b20:	30030313          	addi	t1,t1,768
     b24:	0f8e                	c.slli	t6,0x3
     b26:	30088893          	addi	a7,a7,768
     b2a:	000cb483          	ld	s1,0(s9)
     b2e:	9c3e                	c.add	s8,a5
     b30:	9fbe                	c.add	t6,a5
     b32:	030e                	c.slli	t1,0x3
     b34:	088e                	c.slli	a7,0x3
     b36:	000c3283          	ld	t0,0(s8)
     b3a:	000fbf83          	ld	t6,0(t6)
     b3e:	933e                	c.add	t1,a5
     b40:	98be                	c.add	a7,a5
     b42:	00033303          	ld	t1,0(t1)
     b46:	0008b883          	ld	a7,0(a7)
     b4a:	01784833          	xor	a6,a6,s7
     b4e:	01664633          	xor	a2,a2,s6
     b52:	0156c6b3          	xor	a3,a3,s5
     b56:	01484833          	xor	a6,a6,s4
     b5a:	01374733          	xor	a4,a4,s3
     b5e:	01264633          	xor	a2,a2,s2
     b62:	8ea5                	c.xor	a3,s1
     b64:	00884833          	xor	a6,a6,s0
     b68:	00774733          	xor	a4,a4,t2
     b6c:	00564633          	xor	a2,a2,t0
     b70:	01f6c6b3          	xor	a3,a3,t6
     b74:	01e84833          	xor	a6,a6,t5
     b78:	00664633          	xor	a2,a2,t1
     b7c:	0116c6b3          	xor	a3,a3,a7
     b80:	01d74733          	xor	a4,a4,t4
     b84:	01c74733          	xor	a4,a4,t3
     b88:	00865e93          	srli	t4,a2,0x8
     b8c:	0086d393          	srli	t2,a3,0x8
     b90:	00885493          	srli	s1,a6,0x8
     b94:	0106d893          	srli	a7,a3,0x10
     b98:	00875413          	srli	s0,a4,0x8
     b9c:	0ff77a93          	andi	s5,a4,255
     ba0:	0ffefe93          	andi	t4,t4,255
     ba4:	0ff67b13          	andi	s6,a2,255
     ba8:	0ff3f393          	andi	t2,t2,255
     bac:	01085e13          	srli	t3,a6,0x10
     bb0:	0ff6f313          	andi	t1,a3,255
     bb4:	01075f93          	srli	t6,a4,0x10
     bb8:	0ff4f493          	andi	s1,s1,255
     bbc:	0ff87a13          	andi	s4,a6,255
     bc0:	01065f13          	srli	t5,a2,0x10
     bc4:	100e8993          	addi	s3,t4,256
     bc8:	0188581b          	srliw	a6,a6,0x18
     bcc:	0ff8fe93          	andi	t4,a7,255
     bd0:	0b0e                	c.slli	s6,0x3
     bd2:	10038913          	addi	s2,t2,256
     bd6:	030e                	c.slli	t1,0x3
     bd8:	0186561b          	srliw	a2,a2,0x18
     bdc:	0ff47413          	andi	s0,s0,255
     be0:	0a8e                	c.slli	s5,0x3
     be2:	0ffe7e13          	andi	t3,t3,255
     be6:	0187571b          	srliw	a4,a4,0x18
     bea:	10048493          	addi	s1,s1,256
     bee:	0fffff93          	andi	t6,t6,255
     bf2:	006782b3          	add	t0,a5,t1
     bf6:	9abe                	c.add	s5,a5
     bf8:	0186d89b          	srliw	a7,a3,0x18
     bfc:	200e8393          	addi	t2,t4,512
     c00:	016786b3          	add	a3,a5,s6
     c04:	00080e9b          	addiw	t4,a6,0
     c08:	200e0e13          	addi	t3,t3,512
     c0c:	2701                	c.addiw	a4,0
     c0e:	0006031b          	addiw	t1,a2,0
     c12:	0a0e                	c.slli	s4,0x3
     c14:	10040413          	addi	s0,s0,256
     c18:	0fff7f13          	andi	t5,t5,255
     c1c:	098e                	c.slli	s3,0x3
     c1e:	090e                	c.slli	s2,0x3
     c20:	048e                	c.slli	s1,0x3
     c22:	200f8f93          	addi	t6,t6,512
     c26:	000abb83          	ld	s7,0(s5)
     c2a:	0006bb03          	ld	s6,0(a3)
     c2e:	0002ba83          	ld	s5,0(t0)
     c32:	04853803          	ld	a6,72(a0)
     c36:	6930                	c.ld	a2,80(a0)
     c38:	6d34                	c.ld	a3,88(a0)
     c3a:	9a3e                	c.add	s4,a5
     c3c:	99be                	c.add	s3,a5
     c3e:	993e                	c.add	s2,a5
     c40:	003e1293          	slli	t0,t3,0x3
     c44:	94be                	c.add	s1,a5
     c46:	30070e13          	addi	t3,a4,768
     c4a:	040e                	c.slli	s0,0x3
     c4c:	200f0f13          	addi	t5,t5,512
     c50:	2881                	c.addiw	a7,0
     c52:	038e                	c.slli	t2,0x3
     c54:	300e8e93          	addi	t4,t4,768
     c58:	0f8e                	c.slli	t6,0x3
     c5a:	30030313          	addi	t1,t1,768
     c5e:	6138                	c.ld	a4,64(a0)
     c60:	000a3a03          	ld	s4,0(s4)
     c64:	0009b983          	ld	s3,0(s3)
     c68:	00093903          	ld	s2,0(s2)
     c6c:	6084                	c.ld	s1,0(s1)
     c6e:	943e                	c.add	s0,a5
     c70:	93be                	c.add	t2,a5
     c72:	92be                	c.add	t0,a5
     c74:	9fbe                	c.add	t6,a5
     c76:	0f0e                	c.slli	t5,0x3
     c78:	30088893          	addi	a7,a7,768
     c7c:	0e8e                	c.slli	t4,0x3
     c7e:	0e0e                	c.slli	t3,0x3
     c80:	030e                	c.slli	t1,0x3
     c82:	6000                	c.ld	s0,0(s0)
     c84:	0003b383          	ld	t2,0(t2)
     c88:	0002b283          	ld	t0,0(t0)
     c8c:	000fbf83          	ld	t6,0(t6)
     c90:	9f3e                	c.add	t5,a5
     c92:	9ebe                	c.add	t4,a5
     c94:	9e3e                	c.add	t3,a5
     c96:	933e                	c.add	t1,a5
     c98:	088e                	c.slli	a7,0x3
     c9a:	000f3f03          	ld	t5,0(t5)
     c9e:	000ebe83          	ld	t4,0(t4)
     ca2:	000e3e03          	ld	t3,0(t3)
     ca6:	00033303          	ld	t1,0(t1)
     caa:	98be                	c.add	a7,a5
     cac:	01784833          	xor	a6,a6,s7
     cb0:	01664633          	xor	a2,a2,s6
     cb4:	0156c6b3          	xor	a3,a3,s5
     cb8:	0008b883          	ld	a7,0(a7)
     cbc:	01474733          	xor	a4,a4,s4
     cc0:	01384833          	xor	a6,a6,s3
     cc4:	01264633          	xor	a2,a2,s2
     cc8:	8ea5                	c.xor	a3,s1
     cca:	8f21                	c.xor	a4,s0
     ccc:	00784833          	xor	a6,a6,t2
     cd0:	00564633          	xor	a2,a2,t0
     cd4:	01f6c6b3          	xor	a3,a3,t6
     cd8:	01d84833          	xor	a6,a6,t4
     cdc:	01c64633          	xor	a2,a2,t3
     ce0:	0066c6b3          	xor	a3,a3,t1
     ce4:	01e74733          	xor	a4,a4,t5
     ce8:	01174733          	xor	a4,a4,a7
     cec:	00885e13          	srli	t3,a6,0x8
     cf0:	01065313          	srli	t1,a2,0x10
     cf4:	0186d89b          	srliw	a7,a3,0x18
     cf8:	00865f13          	srli	t5,a2,0x8
     cfc:	0086d993          	srli	s3,a3,0x8
     d00:	00875493          	srli	s1,a4,0x8
     d04:	0ffe7e13          	andi	t3,t3,255
     d08:	0ff37313          	andi	t1,t1,255
     d0c:	2881                	c.addiw	a7,0
     d0e:	0ff67b93          	andi	s7,a2,255
     d12:	0ff77b13          	andi	s6,a4,255
     d16:	100e0e13          	addi	t3,t3,256
     d1a:	20030313          	addi	t1,t1,512
     d1e:	0ff87a93          	andi	s5,a6,255
     d22:	0fff7f13          	andi	t5,t5,255
     d26:	0106dc93          	srli	s9,a3,0x10
     d2a:	01075f93          	srli	t6,a4,0x10
     d2e:	0ff6f693          	andi	a3,a3,255
     d32:	01085e93          	srli	t4,a6,0x10
     d36:	30088893          	addi	a7,a7,768
     d3a:	0ff9f993          	andi	s3,s3,255
     d3e:	0ff4f493          	andi	s1,s1,255
     d42:	00331413          	slli	s0,t1,0x3
     d46:	003e1a13          	slli	s4,t3,0x3
     d4a:	100f0913          	addi	s2,t5,256
     d4e:	0187571b          	srliw	a4,a4,0x18
     d52:	003b9f13          	slli	t5,s7,0x3
     d56:	0188531b          	srliw	t1,a6,0x18
     d5a:	00369393          	slli	t2,a3,0x3
     d5e:	0186561b          	srliw	a2,a2,0x18
     d62:	0b0e                	c.slli	s6,0x3
     d64:	088e                	c.slli	a7,0x3
     d66:	0a8e                	c.slli	s5,0x3
     d68:	0ffcfc93          	andi	s9,s9,255
     d6c:	10098993          	addi	s3,s3,256
     d70:	0fffff93          	andi	t6,t6,255
     d74:	10048493          	addi	s1,s1,256
     d78:	0ffefe93          	andi	t4,t4,255
     d7c:	9b3e                	c.add	s6,a5
     d7e:	008786b3          	add	a3,a5,s0
     d82:	98be                	c.add	a7,a5
     d84:	9abe                	c.add	s5,a5
     d86:	93be                	c.add	t2,a5
     d88:	9a3e                	c.add	s4,a5
     d8a:	00070e1b          	addiw	t3,a4,0
     d8e:	098e                	c.slli	s3,0x3
     d90:	01e78733          	add	a4,a5,t5
     d94:	048e                	c.slli	s1,0x3
     d96:	0006081b          	addiw	a6,a2,0
     d9a:	090e                	c.slli	s2,0x3
     d9c:	200c8c93          	addi	s9,s9,512
     da0:	200f8f93          	addi	t6,t6,512
     da4:	2301                	c.addiw	t1,0
     da6:	200e8e93          	addi	t4,t4,512
     daa:	000b3c03          	ld	s8,0(s6)
     dae:	6280                	c.ld	s0,0(a3)
     db0:	7130                	c.ld	a2,96(a0)
     db2:	000a3a03          	ld	s4,0(s4)
     db6:	993e                	c.add	s2,a5
     db8:	0008bf03          	ld	t5,0(a7)
     dbc:	009782b3          	add	t0,a5,s1
     dc0:	000abb83          	ld	s7,0(s5)
     dc4:	00073b03          	ld	s6,0(a4)
     dc8:	0003ba83          	ld	s5,0(t2)
     dcc:	7534                	c.ld	a3,104(a0)
     dce:	013783b3          	add	t2,a5,s3
     dd2:	07053883          	ld	a7,112(a0)
     dd6:	7d38                	c.ld	a4,120(a0)
     dd8:	0c8e                	c.slli	s9,0x3
     dda:	300e0e13          	addi	t3,t3,768
     dde:	0f8e                	c.slli	t6,0x3
     de0:	30030313          	addi	t1,t1,768
     de4:	0e8e                	c.slli	t4,0x3
     de6:	30080813          	addi	a6,a6,768
     dea:	00093983          	ld	s3,0(s2)
     dee:	0002b483          	ld	s1,0(t0)
     df2:	0003b903          	ld	s2,0(t2)
     df6:	019782b3          	add	t0,a5,s9
     dfa:	9fbe                	c.add	t6,a5
     dfc:	9ebe                	c.add	t4,a5
     dfe:	0e0e                	c.slli	t3,0x3
     e00:	030e                	c.slli	t1,0x3
     e02:	080e                	c.slli	a6,0x3
     e04:	0002b383          	ld	t2,0(t0)
     e08:	9e3e                	c.add	t3,a5
     e0a:	000fb283          	ld	t0,0(t6)
     e0e:	933e                	c.add	t1,a5
     e10:	000ebf83          	ld	t6,0(t4)
     e14:	983e                	c.add	a6,a5
     e16:	000e3e83          	ld	t4,0(t3)
     e1a:	00083803          	ld	a6,0(a6)
     e1e:	00033e03          	ld	t3,0(t1)
     e22:	01864633          	xor	a2,a2,s8
     e26:	0176c6b3          	xor	a3,a3,s7
     e2a:	0168c8b3          	xor	a7,a7,s6
     e2e:	01574733          	xor	a4,a4,s5
     e32:	01464633          	xor	a2,a2,s4
     e36:	0136c6b3          	xor	a3,a3,s3
     e3a:	0128c8b3          	xor	a7,a7,s2
     e3e:	8f25                	c.xor	a4,s1
     e40:	8e21                	c.xor	a2,s0
     e42:	0076c6b3          	xor	a3,a3,t2
     e46:	0058c8b3          	xor	a7,a7,t0
     e4a:	01f74733          	xor	a4,a4,t6
     e4e:	01d6c6b3          	xor	a3,a3,t4
     e52:	01e64633          	xor	a2,a2,t5
     e56:	01c8c8b3          	xor	a7,a7,t3
     e5a:	01074733          	xor	a4,a4,a6
     e5e:	0086d293          	srli	t0,a3,0x8
     e62:	0108df93          	srli	t6,a7,0x10
     e66:	01875f1b          	srliw	t5,a4,0x18
     e6a:	0088de93          	srli	t4,a7,0x8
     e6e:	01075e13          	srli	t3,a4,0x10
     e72:	0186581b          	srliw	a6,a2,0x18
     e76:	00875913          	srli	s2,a4,0x8
     e7a:	01065c13          	srli	s8,a2,0x10
     e7e:	0186d41b          	srliw	s0,a3,0x18
     e82:	2f01                	c.addiw	t5,0
     e84:	0ffe7e13          	andi	t3,t3,255
     e88:	2801                	c.addiw	a6,0
     e8a:	00865493          	srli	s1,a2,0x8
     e8e:	0ff2f293          	andi	t0,t0,255
     e92:	0fffff93          	andi	t6,t6,255
     e96:	0ffefe93          	andi	t4,t4,255
     e9a:	0ff97913          	andi	s2,s2,255
     e9e:	0ffc7c13          	andi	s8,s8,255
     ea2:	2401                	c.addiw	s0,0
     ea4:	300f0993          	addi	s3,t5,768
     ea8:	0ff6f393          	andi	t2,a3,255
     eac:	200e0c93          	addi	s9,t3,512
     eb0:	30080b13          	addi	s6,a6,768
     eb4:	0ff8ff13          	andi	t5,a7,255
     eb8:	0ff77713          	andi	a4,a4,255
     ebc:	0106d313          	srli	t1,a3,0x10
     ec0:	0ff67613          	andi	a2,a2,255
     ec4:	10028293          	addi	t0,t0,256
     ec8:	200f8f93          	addi	t6,t6,512
     ecc:	100e8e93          	addi	t4,t4,256
     ed0:	10090913          	addi	s2,s2,256
     ed4:	200c0c13          	addi	s8,s8,512
     ed8:	30040413          	addi	s0,s0,768
     edc:	0ff4f493          	andi	s1,s1,255
     ee0:	098e                	c.slli	s3,0x3
     ee2:	040e                	c.slli	s0,0x3
     ee4:	00371a93          	slli	s5,a4,0x3
     ee8:	060e                	c.slli	a2,0x3
     eea:	028e                	c.slli	t0,0x3
     eec:	0f8e                	c.slli	t6,0x3
     eee:	038e                	c.slli	t2,0x3
     ef0:	0e8e                	c.slli	t4,0x3
     ef2:	0c8e                	c.slli	s9,0x3
     ef4:	0b0e                	c.slli	s6,0x3
     ef6:	0f0e                	c.slli	t5,0x3
     ef8:	090e                	c.slli	s2,0x3
     efa:	0c0e                	c.slli	s8,0x3
     efc:	10048493          	addi	s1,s1,256
     f00:	0ff37313          	andi	t1,t1,255
     f04:	0188d89b          	srliw	a7,a7,0x18
     f08:	01378733          	add	a4,a5,s3
     f0c:	008786b3          	add	a3,a5,s0
     f10:	963e                	c.add	a2,a5
     f12:	92be                	c.add	t0,a5
     f14:	9fbe                	c.add	t6,a5
     f16:	93be                	c.add	t2,a5
     f18:	9ebe                	c.add	t4,a5
     f1a:	9cbe                	c.add	s9,a5
     f1c:	9b3e                	c.add	s6,a5
     f1e:	9f3e                	c.add	t5,a5
     f20:	9c3e                	c.add	s8,a5
     f22:	993e                	c.add	s2,a5
     f24:	9abe                	c.add	s5,a5
     f26:	048e                	c.slli	s1,0x3
     f28:	20030313          	addi	t1,t1,512
     f2c:	2881                	c.addiw	a7,0
     f2e:	00063b83          	ld	s7,0(a2)
     f32:	0002ba03          	ld	s4,0(t0)
     f36:	000fb403          	ld	s0,0(t6)
     f3a:	0003b983          	ld	s3,0(t2)
     f3e:	00073f83          	ld	t6,0(a4)
     f42:	000eb383          	ld	t2,0(t4)
     f46:	000b3e03          	ld	t3,0(s6)
     f4a:	000cbe83          	ld	t4,0(s9)
     f4e:	000f3b03          	ld	s6,0(t5)
     f52:	000c3283          	ld	t0,0(s8)
     f56:	0006bf03          	ld	t5,0(a3)
     f5a:	08053803          	ld	a6,128(a0)
     f5e:	6558                	c.ld	a4,136(a0)
     f60:	6950                	c.ld	a2,144(a0)
     f62:	00093903          	ld	s2,0(s2)
     f66:	6d54                	c.ld	a3,152(a0)
     f68:	94be                	c.add	s1,a5
     f6a:	000aba83          	ld	s5,0(s5)
     f6e:	030e                	c.slli	t1,0x3
     f70:	30088893          	addi	a7,a7,768
     f74:	6084                	c.ld	s1,0(s1)
     f76:	933e                	c.add	t1,a5
     f78:	088e                	c.slli	a7,0x3
     f7a:	00033303          	ld	t1,0(t1)
     f7e:	98be                	c.add	a7,a5
     f80:	0008b883          	ld	a7,0(a7)
     f84:	01784833          	xor	a6,a6,s7
     f88:	01664633          	xor	a2,a2,s6
     f8c:	0156c6b3          	xor	a3,a3,s5
     f90:	01484833          	xor	a6,a6,s4
     f94:	01374733          	xor	a4,a4,s3
     f98:	01264633          	xor	a2,a2,s2
     f9c:	8ea5                	c.xor	a3,s1
     f9e:	00884833          	xor	a6,a6,s0
     fa2:	00774733          	xor	a4,a4,t2
     fa6:	00564633          	xor	a2,a2,t0
     faa:	0066c6b3          	xor	a3,a3,t1
     fae:	0116c6b3          	xor	a3,a3,a7
     fb2:	01f84833          	xor	a6,a6,t6
     fb6:	01e64633          	xor	a2,a2,t5
     fba:	01d74733          	xor	a4,a4,t4
     fbe:	01c74733          	xor	a4,a4,t3
     fc2:	00865e93          	srli	t4,a2,0x8
     fc6:	0086d313          	srli	t1,a3,0x8
     fca:	00885913          	srli	s2,a6,0x8
     fce:	0ff67893          	andi	a7,a2,255
     fd2:	00875413          	srli	s0,a4,0x8
     fd6:	0ff77b93          	andi	s7,a4,255
     fda:	0ffefe93          	andi	t4,t4,255
     fde:	0106d393          	srli	t2,a3,0x10
     fe2:	0ff37313          	andi	t1,t1,255
     fe6:	01085e13          	srli	t3,a6,0x10
     fea:	0ff6fb13          	andi	s6,a3,255
     fee:	01075c93          	srli	s9,a4,0x10
     ff2:	0ff97913          	andi	s2,s2,255
     ff6:	0ff87a93          	andi	s5,a6,255
     ffa:	01065493          	srli	s1,a2,0x10
     ffe:	100e8a13          	addi	s4,t4,256
    1002:	0188581b          	srliw	a6,a6,0x18
    1006:	00389e93          	slli	t4,a7,0x3
    100a:	10030993          	addi	s3,t1,256
    100e:	0b0e                	c.slli	s6,0x3
    1010:	0186561b          	srliw	a2,a2,0x18
    1014:	0ff47413          	andi	s0,s0,255
    1018:	0b8e                	c.slli	s7,0x3
    101a:	0ff3f393          	andi	t2,t2,255
    101e:	0ffe7e13          	andi	t3,t3,255
    1022:	0187571b          	srliw	a4,a4,0x18
    1026:	10090913          	addi	s2,s2,256
    102a:	0ffcfc93          	andi	s9,s9,255
    102e:	9bbe                	c.add	s7,a5
    1030:	00080f9b          	addiw	t6,a6,0
    1034:	016782b3          	add	t0,a5,s6
    1038:	00060f1b          	addiw	t5,a2,0
    103c:	0186d89b          	srliw	a7,a3,0x18
    1040:	200e0e13          	addi	t3,t3,512
    1044:	01d786b3          	add	a3,a5,t4
    1048:	2701                	c.addiw	a4,0
    104a:	200c8c93          	addi	s9,s9,512
    104e:	0a8e                	c.slli	s5,0x3
    1050:	10040413          	addi	s0,s0,256
    1054:	0ff4f493          	andi	s1,s1,255
    1058:	0a0e                	c.slli	s4,0x3
    105a:	20038393          	addi	t2,t2,512
    105e:	098e                	c.slli	s3,0x3
    1060:	090e                	c.slli	s2,0x3
    1062:	000bbc03          	ld	s8,0(s7)
    1066:	0002bb03          	ld	s6,0(t0)
    106a:	0006bb83          	ld	s7,0(a3)
    106e:	0a853803          	ld	a6,168(a0)
    1072:	7950                	c.ld	a2,176(a0)
    1074:	7d54                	c.ld	a3,184(a0)
    1076:	9abe                	c.add	s5,a5
    1078:	20048493          	addi	s1,s1,512
    107c:	9a3e                	c.add	s4,a5
    107e:	300f8e93          	addi	t4,t6,768
    1082:	99be                	c.add	s3,a5
    1084:	003e1293          	slli	t0,t3,0x3
    1088:	993e                	c.add	s2,a5
    108a:	30070e13          	addi	t3,a4,768
    108e:	003c9f93          	slli	t6,s9,0x3
    1092:	300f0313          	addi	t1,t5,768
    1096:	040e                	c.slli	s0,0x3
    1098:	2881                	c.addiw	a7,0
    109a:	038e                	c.slli	t2,0x3
    109c:	7158                	c.ld	a4,160(a0)
    109e:	000aba83          	ld	s5,0(s5)
    10a2:	000a3a03          	ld	s4,0(s4)
    10a6:	0009b983          	ld	s3,0(s3)
    10aa:	00093903          	ld	s2,0(s2)
    10ae:	943e                	c.add	s0,a5
    10b0:	93be                	c.add	t2,a5
    10b2:	92be                	c.add	t0,a5
    10b4:	9fbe                	c.add	t6,a5
    10b6:	00349f13          	slli	t5,s1,0x3
    10ba:	30088893          	addi	a7,a7,768
    10be:	0e8e                	c.slli	t4,0x3
    10c0:	0e0e                	c.slli	t3,0x3
    10c2:	030e                	c.slli	t1,0x3
    10c4:	6004                	c.ld	s1,0(s0)
    10c6:	9ebe                	c.add	t4,a5
    10c8:	0003b403          	ld	s0,0(t2)
    10cc:	9e3e                	c.add	t3,a5
    10ce:	0002b383          	ld	t2,0(t0)
    10d2:	933e                	c.add	t1,a5
    10d4:	000fb283          	ld	t0,0(t6)
    10d8:	9f3e                	c.add	t5,a5
    10da:	088e                	c.slli	a7,0x3
    10dc:	000ebf83          	ld	t6,0(t4)
    10e0:	000f3f03          	ld	t5,0(t5)
    10e4:	000e3e83          	ld	t4,0(t3)
    10e8:	98be                	c.add	a7,a5
    10ea:	00033e03          	ld	t3,0(t1)
    10ee:	01884833          	xor	a6,a6,s8
    10f2:	01764633          	xor	a2,a2,s7
    10f6:	0166c6b3          	xor	a3,a3,s6
    10fa:	0008b303          	ld	t1,0(a7)
    10fe:	01574733          	xor	a4,a4,s5
    1102:	01484833          	xor	a6,a6,s4
    1106:	01364633          	xor	a2,a2,s3
    110a:	0126c6b3          	xor	a3,a3,s2
    110e:	8f25                	c.xor	a4,s1
    1110:	00884833          	xor	a6,a6,s0
    1114:	00764633          	xor	a2,a2,t2
    1118:	0056c6b3          	xor	a3,a3,t0
    111c:	01d64633          	xor	a2,a2,t4
    1120:	01f84833          	xor	a6,a6,t6
    1124:	01c6c6b3          	xor	a3,a3,t3
    1128:	01e74733          	xor	a4,a4,t5
    112c:	00674733          	xor	a4,a4,t1
    1130:	00885e93          	srli	t4,a6,0x8
    1134:	01065e13          	srli	t3,a2,0x10
    1138:	0186d31b          	srliw	t1,a3,0x18
    113c:	00865f93          	srli	t6,a2,0x8
    1140:	0106df13          	srli	t5,a3,0x10
    1144:	0fffff93          	andi	t6,t6,255
    1148:	0fff7f13          	andi	t5,t5,255
    114c:	0086dc13          	srli	s8,a3,0x8
    1150:	00875413          	srli	s0,a4,0x8
    1154:	0ffefe93          	andi	t4,t4,255
    1158:	0ffe7e13          	andi	t3,t3,255
    115c:	2301                	c.addiw	t1,0
    115e:	0ff77993          	andi	s3,a4,255
    1162:	100e8e93          	addi	t4,t4,256
    1166:	30030313          	addi	t1,t1,768
    116a:	0ff87b13          	andi	s6,a6,255
    116e:	100f8913          	addi	s2,t6,256
    1172:	200f0293          	addi	t0,t5,512
    1176:	0ff67a93          	andi	s5,a2,255
    117a:	01075f93          	srli	t6,a4,0x10
    117e:	01085f13          	srli	t5,a6,0x10
    1182:	200e0e13          	addi	t3,t3,512
    1186:	0ffc7c13          	andi	s8,s8,255
    118a:	0ff6f693          	andi	a3,a3,255
    118e:	0ff47413          	andi	s0,s0,255
    1192:	003e9393          	slli	t2,t4,0x3
    1196:	00331a13          	slli	s4,t1,0x3
    119a:	0188581b          	srliw	a6,a6,0x18
    119e:	068e                	c.slli	a3,0x3
    11a0:	0186589b          	srliw	a7,a2,0x18
    11a4:	098e                	c.slli	s3,0x3
    11a6:	0e0e                	c.slli	t3,0x3
    11a8:	0b0e                	c.slli	s6,0x3
    11aa:	090e                	c.slli	s2,0x3
    11ac:	028e                	c.slli	t0,0x3
    11ae:	0187571b          	srliw	a4,a4,0x18
    11b2:	0a8e                	c.slli	s5,0x3
    11b4:	100c0c13          	addi	s8,s8,256
    11b8:	0fffff93          	andi	t6,t6,255
    11bc:	10040413          	addi	s0,s0,256
    11c0:	0fff7f13          	andi	t5,t5,255
    11c4:	00d784b3          	add	s1,a5,a3
    11c8:	99be                	c.add	s3,a5
    11ca:	93be                	c.add	t2,a5
    11cc:	9e3e                	c.add	t3,a5
    11ce:	9a3e                	c.add	s4,a5
    11d0:	9b3e                	c.add	s6,a5
    11d2:	993e                	c.add	s2,a5
    11d4:	92be                	c.add	t0,a5
    11d6:	2701                	c.addiw	a4,0
    11d8:	9abe                	c.add	s5,a5
    11da:	0008031b          	addiw	t1,a6,0
    11de:	0c0e                	c.slli	s8,0x3
    11e0:	200f8f93          	addi	t6,t6,512
    11e4:	040e                	c.slli	s0,0x3
    11e6:	200f0f13          	addi	t5,t5,512
    11ea:	2881                	c.addiw	a7,0
    11ec:	0009bb83          	ld	s7,0(s3)
    11f0:	000a3e83          	ld	t4,0(s4)
    11f4:	0003b983          	ld	s3,0(t2)
    11f8:	0c053803          	ld	a6,192(a0)
    11fc:	000e3383          	ld	t2,0(t3)
    1200:	6570                	c.ld	a2,200(a0)
    1202:	000b3b03          	ld	s6,0(s6)
    1206:	00093903          	ld	s2,0(s2)
    120a:	9c3e                	c.add	s8,a5
    120c:	0002b283          	ld	t0,0(t0)
    1210:	30070e13          	addi	t3,a4,768
    1214:	0004ba03          	ld	s4,0(s1)
    1218:	6974                	c.ld	a3,208(a0)
    121a:	000aba83          	ld	s5,0(s5)
    121e:	6d78                	c.ld	a4,216(a0)
    1220:	943e                	c.add	s0,a5
    1222:	0f8e                	c.slli	t6,0x3
    1224:	30030313          	addi	t1,t1,768
    1228:	0f0e                	c.slli	t5,0x3
    122a:	30088893          	addi	a7,a7,768
    122e:	000c3483          	ld	s1,0(s8)
    1232:	6000                	c.ld	s0,0(s0)
    1234:	9fbe                	c.add	t6,a5
    1236:	9f3e                	c.add	t5,a5
    1238:	0e0e                	c.slli	t3,0x3
    123a:	030e                	c.slli	t1,0x3
    123c:	088e                	c.slli	a7,0x3
    123e:	000fbf83          	ld	t6,0(t6)
    1242:	000f3f03          	ld	t5,0(t5)
    1246:	9e3e                	c.add	t3,a5
    1248:	933e                	c.add	t1,a5
    124a:	98be                	c.add	a7,a5
    124c:	000e3e03          	ld	t3,0(t3)
    1250:	00033303          	ld	t1,0(t1)
    1254:	0008b883          	ld	a7,0(a7)
    1258:	01784833          	xor	a6,a6,s7
    125c:	01664633          	xor	a2,a2,s6
    1260:	0156c6b3          	xor	a3,a3,s5
    1264:	01474733          	xor	a4,a4,s4
    1268:	01384833          	xor	a6,a6,s3
    126c:	01264633          	xor	a2,a2,s2
    1270:	8ea5                	c.xor	a3,s1
    1272:	8f21                	c.xor	a4,s0
    1274:	00784833          	xor	a6,a6,t2
    1278:	00564633          	xor	a2,a2,t0
    127c:	01f6c6b3          	xor	a3,a3,t6
    1280:	01e74733          	xor	a4,a4,t5
    1284:	01d84833          	xor	a6,a6,t4
    1288:	01c64633          	xor	a2,a2,t3
    128c:	0066c6b3          	xor	a3,a3,t1
    1290:	01174733          	xor	a4,a4,a7
    1294:	00865313          	srli	t1,a2,0x8
    1298:	0086d893          	srli	a7,a3,0x8
    129c:	00875413          	srli	s0,a4,0x8
    12a0:	00885993          	srli	s3,a6,0x8
    12a4:	0ff6fe93          	andi	t4,a3,255
    12a8:	0ff87a93          	andi	s5,a6,255
    12ac:	0106d293          	srli	t0,a3,0x10
    12b0:	0ff67a13          	andi	s4,a2,255
    12b4:	0ff8f893          	andi	a7,a7,255
    12b8:	01075c93          	srli	s9,a4,0x10
    12bc:	01085393          	srli	t2,a6,0x10
    12c0:	0ff77913          	andi	s2,a4,255
    12c4:	01065f13          	srli	t5,a2,0x10
    12c8:	0ff37313          	andi	t1,t1,255
    12cc:	0ff47413          	andi	s0,s0,255
    12d0:	0ff9f993          	andi	s3,s3,255
    12d4:	0187571b          	srliw	a4,a4,0x18
    12d8:	10088493          	addi	s1,a7,256
    12dc:	0188581b          	srliw	a6,a6,0x18
    12e0:	003e9893          	slli	a7,t4,0x3
    12e4:	0186561b          	srliw	a2,a2,0x18
    12e8:	0186d69b          	srliw	a3,a3,0x18
    12ec:	0a8e                	c.slli	s5,0x3
    12ee:	10030313          	addi	t1,t1,256
    12f2:	0ff2f293          	andi	t0,t0,255
    12f6:	0a0e                	c.slli	s4,0x3
    12f8:	0ffcfc93          	andi	s9,s9,255
    12fc:	10040413          	addi	s0,s0,256
    1300:	0ff3f393          	andi	t2,t2,255
    1304:	090e                	c.slli	s2,0x3
    1306:	10098993          	addi	s3,s3,256
    130a:	0fff7f13          	andi	t5,t5,255
    130e:	9abe                	c.add	s5,a5
    1310:	9a3e                	c.add	s4,a5
    1312:	00060e1b          	addiw	t3,a2,0
    1316:	993e                	c.add	s2,a5
    1318:	030e                	c.slli	t1,0x3
    131a:	00070f9b          	addiw	t6,a4,0
    131e:	00080e9b          	addiw	t4,a6,0
    1322:	01178733          	add	a4,a5,a7
    1326:	098e                	c.slli	s3,0x3
    1328:	0006889b          	addiw	a7,a3,0
    132c:	20028293          	addi	t0,t0,512
    1330:	048e                	c.slli	s1,0x3
    1332:	200c8c93          	addi	s9,s9,512
    1336:	040e                	c.slli	s0,0x3
    1338:	20038393          	addi	t2,t2,512
    133c:	200f0f13          	addi	t5,t5,512
    1340:	000abb83          	ld	s7,0(s5)
    1344:	000a3b03          	ld	s6,0(s4)
    1348:	00073a83          	ld	s5,0(a4)
    134c:	00093a03          	ld	s4,0(s2)
    1350:	0e053803          	ld	a6,224(a0)
    1354:	00678933          	add	s2,a5,t1
    1358:	7570                	c.ld	a2,232(a0)
    135a:	7974                	c.ld	a3,240(a0)
    135c:	7d78                	c.ld	a4,248(a0)
    135e:	94be                	c.add	s1,a5
    1360:	943e                	c.add	s0,a5
    1362:	300f8f93          	addi	t6,t6,768
    1366:	0c8e                	c.slli	s9,0x3
    1368:	300e8e93          	addi	t4,t4,768
    136c:	038e                	c.slli	t2,0x3
    136e:	300e0313          	addi	t1,t3,768
    1372:	028e                	c.slli	t0,0x3
    1374:	01378e33          	add	t3,a5,s3
    1378:	0f0e                	c.slli	t5,0x3
    137a:	30088893          	addi	a7,a7,768
    137e:	00093983          	ld	s3,0(s2)
    1382:	92be                	c.add	t0,a5
    1384:	0004b903          	ld	s2,0(s1)
    1388:	003f9c13          	slli	s8,t6,0x3
    138c:	6004                	c.ld	s1,0(s0)
    138e:	01978fb3          	add	t6,a5,s9
    1392:	000e3403          	ld	s0,0(t3)
    1396:	9f3e                	c.add	t5,a5
    1398:	003e9e13          	slli	t3,t4,0x3
    139c:	030e                	c.slli	t1,0x3
    139e:	00778eb3          	add	t4,a5,t2
    13a2:	088e                	c.slli	a7,0x3
    13a4:	0002b383          	ld	t2,0(t0)
    13a8:	000f3f03          	ld	t5,0(t5)
    13ac:	000fb283          	ld	t0,0(t6)
    13b0:	9e3e                	c.add	t3,a5
    13b2:	000ebf83          	ld	t6,0(t4)
    13b6:	933e                	c.add	t1,a5
    13b8:	01878eb3          	add	t4,a5,s8
    13bc:	98be                	c.add	a7,a5
    13be:	000ebe83          	ld	t4,0(t4)
    13c2:	000e3e03          	ld	t3,0(t3)
    13c6:	00033303          	ld	t1,0(t1)
    13ca:	0008b883          	ld	a7,0(a7)
    13ce:	01784833          	xor	a6,a6,s7
    13d2:	01664633          	xor	a2,a2,s6
    13d6:	0156c6b3          	xor	a3,a3,s5
    13da:	01474733          	xor	a4,a4,s4
    13de:	01384833          	xor	a6,a6,s3
    13e2:	01264633          	xor	a2,a2,s2
    13e6:	8ea5                	c.xor	a3,s1
    13e8:	8f21                	c.xor	a4,s0
    13ea:	00784833          	xor	a6,a6,t2
    13ee:	00564633          	xor	a2,a2,t0
    13f2:	01f6c6b3          	xor	a3,a3,t6
    13f6:	01e74733          	xor	a4,a4,t5
    13fa:	01d84833          	xor	a6,a6,t4
    13fe:	01c64633          	xor	a2,a2,t3
    1402:	0066c6b3          	xor	a3,a3,t1
    1406:	01174733          	xor	a4,a4,a7
    140a:	00865313          	srli	t1,a2,0x8
    140e:	0086d893          	srli	a7,a3,0x8
    1412:	00875493          	srli	s1,a4,0x8
    1416:	00885413          	srli	s0,a6,0x8
    141a:	0ff77f93          	andi	t6,a4,255
    141e:	0ff87a13          	andi	s4,a6,255
    1422:	0ff37313          	andi	t1,t1,255
    1426:	0106d393          	srli	t2,a3,0x10
    142a:	0ff67f13          	andi	t5,a2,255
    142e:	01075993          	srli	s3,a4,0x10
    1432:	0ff6fe13          	andi	t3,a3,255
    1436:	01085c93          	srli	s9,a6,0x10
    143a:	01065e93          	srli	t4,a2,0x10
    143e:	0ff8f893          	andi	a7,a7,255
    1442:	0ff4f493          	andi	s1,s1,255
    1446:	0ff47413          	andi	s0,s0,255
    144a:	10030913          	addi	s2,t1,256
    144e:	0187571b          	srliw	a4,a4,0x18
    1452:	0f0e                	c.slli	t5,0x3
    1454:	0186561b          	srliw	a2,a2,0x18
    1458:	003f9313          	slli	t1,t6,0x3
    145c:	0186d69b          	srliw	a3,a3,0x18
    1460:	0a0e                	c.slli	s4,0x3
    1462:	0ff3f393          	andi	t2,t2,255
    1466:	10088893          	addi	a7,a7,256
    146a:	0ff9f993          	andi	s3,s3,255
    146e:	0188581b          	srliw	a6,a6,0x18
    1472:	0e0e                	c.slli	t3,0x3
    1474:	10048493          	addi	s1,s1,256
    1478:	0ffcfc93          	andi	s9,s9,255
    147c:	10040413          	addi	s0,s0,256
    1480:	0ffefe93          	andi	t4,t4,255
    1484:	9a3e                	c.add	s4,a5
    1486:	0007029b          	addiw	t0,a4,0
    148a:	9e3e                	c.add	t3,a5
    148c:	01e78733          	add	a4,a5,t5
    1490:	933e                	c.add	t1,a5
    1492:	20098993          	addi	s3,s3,512
    1496:	00060f9b          	addiw	t6,a2,0
    149a:	00068f1b          	addiw	t5,a3,0
    149e:	090e                	c.slli	s2,0x3
    14a0:	20038393          	addi	t2,t2,512
    14a4:	088e                	c.slli	a7,0x3
    14a6:	2801                	c.addiw	a6,0
    14a8:	048e                	c.slli	s1,0x3
    14aa:	200c8c93          	addi	s9,s9,512
    14ae:	040e                	c.slli	s0,0x3
    14b0:	200e8e93          	addi	t4,t4,512
    14b4:	10053603          	ld	a2,256(a0)
    14b8:	993e                	c.add	s2,a5
    14ba:	000a3b83          	ld	s7,0(s4)
    14be:	00073b03          	ld	s6,0(a4)
    14c2:	000e3a83          	ld	s5,0(t3)
    14c6:	00033a03          	ld	s4,0(t1)
    14ca:	11853e03          	ld	t3,280(a0)
    14ce:	10853683          	ld	a3,264(a0)
    14d2:	11053703          	ld	a4,272(a0)
    14d6:	98be                	c.add	a7,a5
    14d8:	30028313          	addi	t1,t0,768
    14dc:	30080813          	addi	a6,a6,768
    14e0:	00399293          	slli	t0,s3,0x3
    14e4:	94be                	c.add	s1,a5
    14e6:	300f8f93          	addi	t6,t6,768
    14ea:	943e                	c.add	s0,a5
    14ec:	300f0f13          	addi	t5,t5,768
    14f0:	038e                	c.slli	t2,0x3
    14f2:	0c8e                	c.slli	s9,0x3
    14f4:	0e8e                	c.slli	t4,0x3
    14f6:	00093983          	ld	s3,0(s2)
    14fa:	6084                	c.ld	s1,0(s1)
    14fc:	0008b903          	ld	s2,0(a7)
    1500:	6000                	c.ld	s0,0(s0)
    1502:	9ebe                	c.add	t4,a5
    1504:	003f1c13          	slli	s8,t5,0x3
    1508:	93be                	c.add	t2,a5
    150a:	92be                	c.add	t0,a5
    150c:	00381893          	slli	a7,a6,0x3
    1510:	9cbe                	c.add	s9,a5
    1512:	003f9813          	slli	a6,t6,0x3
    1516:	030e                	c.slli	t1,0x3
    1518:	000ebf03          	ld	t5,0(t4)
    151c:	0003b383          	ld	t2,0(t2)
    1520:	0002b283          	ld	t0,0(t0)
    1524:	000cbf83          	ld	t6,0(s9)
    1528:	933e                	c.add	t1,a5
    152a:	98be                	c.add	a7,a5
    152c:	983e                	c.add	a6,a5
    152e:	97e2                	c.add	a5,s8
    1530:	00033e83          	ld	t4,0(t1)
    1534:	01764633          	xor	a2,a2,s7
    1538:	0008b303          	ld	t1,0(a7)
    153c:	0166c6b3          	xor	a3,a3,s6
    1540:	00083883          	ld	a7,0(a6)
    1544:	01574733          	xor	a4,a4,s5
    1548:	0007b803          	ld	a6,0(a5)
    154c:	014e47b3          	xor	a5,t3,s4
    1550:	01364633          	xor	a2,a2,s3
    1554:	0126c6b3          	xor	a3,a3,s2
    1558:	8f25                	c.xor	a4,s1
    155a:	8fa1                	c.xor	a5,s0
    155c:	00764633          	xor	a2,a2,t2
    1560:	0056c6b3          	xor	a3,a3,t0
    1564:	01f74733          	xor	a4,a4,t6
    1568:	01e7c7b3          	xor	a5,a5,t5
    156c:	01d64633          	xor	a2,a2,t4
    1570:	0066c6b3          	xor	a3,a3,t1
    1574:	01174733          	xor	a4,a4,a7
    1578:	0107c7b3          	xor	a5,a5,a6
    157c:	0086d493          	srli	s1,a3,0x8
    1580:	01075f93          	srli	t6,a4,0x10
    1584:	0187de1b          	srliw	t3,a5,0x18
    1588:	00875f13          	srli	t5,a4,0x8
    158c:	0107d313          	srli	t1,a5,0x10
    1590:	0186581b          	srliw	a6,a2,0x18
    1594:	0087d913          	srli	s2,a5,0x8
    1598:	00865b93          	srli	s7,a2,0x8
    159c:	0ff4f493          	andi	s1,s1,255
    15a0:	0fffff93          	andi	t6,t6,255
    15a4:	2e01                	c.addiw	t3,0
    15a6:	0fff7f13          	andi	t5,t5,255
    15aa:	0ff37313          	andi	t1,t1,255
    15ae:	2801                	c.addiw	a6,0
    15b0:	0ff97913          	andi	s2,s2,255
    15b4:	0ff67a13          	andi	s4,a2,255
    15b8:	0ff6f413          	andi	s0,a3,255
    15bc:	0ff77993          	andi	s3,a4,255
    15c0:	0ff7f793          	andi	a5,a5,255
    15c4:	0106d893          	srli	a7,a3,0x10
    15c8:	10048493          	addi	s1,s1,256
    15cc:	200f8f93          	addi	t6,t6,512
    15d0:	300e0e13          	addi	t3,t3,768
    15d4:	100f0f13          	addi	t5,t5,256
    15d8:	20030313          	addi	t1,t1,512
    15dc:	30080813          	addi	a6,a6,768
    15e0:	10090913          	addi	s2,s2,256
    15e4:	8241                	c.srli	a2,0x10
    15e6:	0ffbfb93          	andi	s7,s7,255
    15ea:	00000b37          	lui	s6,0x0
    15ee:	000b0b13          	addi	s6,s6,0 # 0 <set_key>
    15f2:	080e                	c.slli	a6,0x3
    15f4:	0ff67613          	andi	a2,a2,255
    15f8:	0186d69b          	srliw	a3,a3,0x18
    15fc:	00379e93          	slli	t4,a5,0x3
    1600:	0187571b          	srliw	a4,a4,0x18
    1604:	0a0e                	c.slli	s4,0x3
    1606:	048e                	c.slli	s1,0x3
    1608:	0f8e                	c.slli	t6,0x3
    160a:	0e0e                	c.slli	t3,0x3
    160c:	040e                	c.slli	s0,0x3
    160e:	0f0e                	c.slli	t5,0x3
    1610:	030e                	c.slli	t1,0x3
    1612:	098e                	c.slli	s3,0x3
    1614:	090e                	c.slli	s2,0x3
    1616:	100b8b93          	addi	s7,s7,256
    161a:	0ff8f893          	andi	a7,a7,255
    161e:	016807b3          	add	a5,a6,s6
    1622:	20060393          	addi	t2,a2,512
    1626:	0007029b          	addiw	t0,a4,0
    162a:	9a5a                	c.add	s4,s6
    162c:	945a                	c.add	s0,s6
    162e:	9f5a                	c.add	t5,s6
    1630:	935a                	c.add	t1,s6
    1632:	995a                	c.add	s2,s6
    1634:	0006881b          	addiw	a6,a3,0
    1638:	9eda                	c.add	t4,s6
    163a:	94da                	c.add	s1,s6
    163c:	9fda                	c.add	t6,s6
    163e:	9e5a                	c.add	t3,s6
    1640:	99da                	c.add	s3,s6
    1642:	0b8e                	c.slli	s7,0x3
    1644:	20088893          	addi	a7,a7,512
    1648:	12053603          	ld	a2,288(a0)
    164c:	000a3a83          	ld	s5,0(s4)
    1650:	12853703          	ld	a4,296(a0)
    1654:	00043a03          	ld	s4,0(s0)
    1658:	6084                	c.ld	s1,0(s1)
    165a:	000f3403          	ld	s0,0(t5)
    165e:	000fbf83          	ld	t6,0(t6)
    1662:	00033f03          	ld	t5,0(t1)
    1666:	000e3e03          	ld	t3,0(t3)
    166a:	0007b303          	ld	t1,0(a5)
    166e:	0009b983          	ld	s3,0(s3)
    1672:	13053783          	ld	a5,304(a0)
    1676:	00339c13          	slli	s8,t2,0x3
    167a:	30080813          	addi	a6,a6,768
    167e:	00093383          	ld	t2,0(s2)
    1682:	9bda                	c.add	s7,s6
    1684:	13853683          	ld	a3,312(a0)
    1688:	000eb903          	ld	s2,0(t4)
    168c:	30028513          	addi	a0,t0,768
    1690:	088e                	c.slli	a7,0x3
    1692:	9c5a                	c.add	s8,s6
    1694:	080e                	c.slli	a6,0x3
    1696:	000bb283          	ld	t0,0(s7)
    169a:	98da                	c.add	a7,s6
    169c:	050e                	c.slli	a0,0x3
    169e:	000c3e83          	ld	t4,0(s8)
    16a2:	985a                	c.add	a6,s6
    16a4:	0008b883          	ld	a7,0(a7)
    16a8:	955a                	c.add	a0,s6
    16aa:	01564633          	xor	a2,a2,s5
    16ae:	01474733          	xor	a4,a4,s4
    16b2:	0137c7b3          	xor	a5,a5,s3
    16b6:	00083803          	ld	a6,0(a6)
    16ba:	0126c6b3          	xor	a3,a3,s2
    16be:	6108                	c.ld	a0,0(a0)
    16c0:	8e25                	c.xor	a2,s1
    16c2:	8f21                	c.xor	a4,s0
    16c4:	0077c7b3          	xor	a5,a5,t2
    16c8:	0056c6b3          	xor	a3,a3,t0
    16cc:	01f64633          	xor	a2,a2,t6
    16d0:	01e74733          	xor	a4,a4,t5
    16d4:	01d7c7b3          	xor	a5,a5,t4
    16d8:	0116c6b3          	xor	a3,a3,a7
    16dc:	01c64e33          	xor	t3,a2,t3
    16e0:	00674733          	xor	a4,a4,t1
    16e4:	0107c833          	xor	a6,a5,a6
    16e8:	8ea9                	c.xor	a3,a0
    16ea:	ebffe06f          	jal	zero,5a8 <.L35>

00000000000016ee <.L46>:
    16ee:	0391a977          	0x391a977
    16f2:	000007b7          	lui	a5,0x0
    16f6:	00078793          	addi	a5,a5,0 # 0 <set_key>
    16fa:	9c2ff06f          	jal	zero,8bc <.L38>

00000000000016fe <.L37>:
    16fe:	03e66977          	0x3e66977
    1702:	00875493          	srli	s1,a4,0x8
    1706:	00885413          	srli	s0,a6,0x8
    170a:	0086d293          	srli	t0,a3,0x8
    170e:	008e5f93          	srli	t6,t3,0x8
    1712:	0ffe7f13          	andi	t5,t3,255
    1716:	01085d93          	srli	s11,a6,0x10
    171a:	0ff77513          	andi	a0,a4,255
    171e:	0106dd13          	srli	s10,a3,0x10
    1722:	0ff87e93          	andi	t4,a6,255
    1726:	010e5c93          	srli	s9,t3,0x10
    172a:	0ff6f313          	andi	t1,a3,255
    172e:	01075c13          	srli	s8,a4,0x10
    1732:	0ff4f493          	andi	s1,s1,255
    1736:	0ff47413          	andi	s0,s0,255
    173a:	0ff2f293          	andi	t0,t0,255
    173e:	0fffff93          	andi	t6,t6,255
    1742:	000007b7          	lui	a5,0x0
    1746:	00078793          	addi	a5,a5,0 # 0 <set_key>
    174a:	0186d69b          	srliw	a3,a3,0x18
    174e:	0187571b          	srliw	a4,a4,0x18
    1752:	0188581b          	srliw	a6,a6,0x18
    1756:	018e5e1b          	srliw	t3,t3,0x18
    175a:	0f0e                	c.slli	t5,0x3
    175c:	10048493          	addi	s1,s1,256
    1760:	0ffdfd93          	andi	s11,s11,255
    1764:	050e                	c.slli	a0,0x3
    1766:	10040413          	addi	s0,s0,256
    176a:	0ffd7d13          	andi	s10,s10,255
    176e:	0e8e                	c.slli	t4,0x3
    1770:	10028293          	addi	t0,t0,256
    1774:	0ffcfc93          	andi	s9,s9,255
    1778:	030e                	c.slli	t1,0x3
    177a:	100f8f93          	addi	t6,t6,256
    177e:	0ffc7c13          	andi	s8,s8,255
    1782:	0006899b          	addiw	s3,a3,0
    1786:	0007091b          	addiw	s2,a4,0
    178a:	9f3e                	c.add	t5,a5
    178c:	953e                	c.add	a0,a5
    178e:	9ebe                	c.add	t4,a5
    1790:	933e                	c.add	t1,a5
    1792:	0008089b          	addiw	a7,a6,0
    1796:	048e                	c.slli	s1,0x3
    1798:	200d8d93          	addi	s11,s11,512
    179c:	040e                	c.slli	s0,0x3
    179e:	200d0d13          	addi	s10,s10,512
    17a2:	2e01                	c.addiw	t3,0
    17a4:	028e                	c.slli	t0,0x3
    17a6:	200c8c93          	addi	s9,s9,512
    17aa:	0f8e                	c.slli	t6,0x3
    17ac:	200c0c13          	addi	s8,s8,512
    17b0:	000f3b83          	ld	s7,0(t5)
    17b4:	00053b03          	ld	s6,0(a0)
    17b8:	000eba83          	ld	s5,0(t4)
    17bc:	00033a03          	ld	s4,0(t1)
    17c0:	7a14                	c.ld	a3,48(a2)
    17c2:	03863803          	ld	a6,56(a2)
    17c6:	6228                	c.ld	a0,64(a2)
    17c8:	6638                	c.ld	a4,72(a2)
    17ca:	94be                	c.add	s1,a5
    17cc:	30098e93          	addi	t4,s3,768
    17d0:	943e                	c.add	s0,a5
    17d2:	92be                	c.add	t0,a5
    17d4:	30090313          	addi	t1,s2,768
    17d8:	9fbe                	c.add	t6,a5
    17da:	0d8e                	c.slli	s11,0x3
    17dc:	0d0e                	c.slli	s10,0x3
    17de:	300e0e13          	addi	t3,t3,768
    17e2:	0c8e                	c.slli	s9,0x3
    17e4:	0c0e                	c.slli	s8,0x3
    17e6:	30088893          	addi	a7,a7,768
    17ea:	0004b983          	ld	s3,0(s1)
    17ee:	00043903          	ld	s2,0(s0)
    17f2:	0002b483          	ld	s1,0(t0)
    17f6:	000fb403          	ld	s0,0(t6)
    17fa:	9cbe                	c.add	s9,a5
    17fc:	9c3e                	c.add	s8,a5
    17fe:	9dbe                	c.add	s11,a5
    1800:	0e8e                	c.slli	t4,0x3
    1802:	9d3e                	c.add	s10,a5
    1804:	0e0e                	c.slli	t3,0x3
    1806:	030e                	c.slli	t1,0x3
    1808:	088e                	c.slli	a7,0x3
    180a:	000cbf83          	ld	t6,0(s9)
    180e:	000c3f03          	ld	t5,0(s8)
    1812:	000db383          	ld	t2,0(s11)
    1816:	000d3283          	ld	t0,0(s10)
    181a:	9ebe                	c.add	t4,a5
    181c:	9e3e                	c.add	t3,a5
    181e:	933e                	c.add	t1,a5
    1820:	98be                	c.add	a7,a5
    1822:	000ebe83          	ld	t4,0(t4)
    1826:	000e3e03          	ld	t3,0(t3)
    182a:	00033303          	ld	t1,0(t1)
    182e:	0008b883          	ld	a7,0(a7)
    1832:	0176c6b3          	xor	a3,a3,s7
    1836:	01684833          	xor	a6,a6,s6
    183a:	01554533          	xor	a0,a0,s5
    183e:	01474733          	xor	a4,a4,s4
    1842:	0136c6b3          	xor	a3,a3,s3
    1846:	01284833          	xor	a6,a6,s2
    184a:	8d25                	c.xor	a0,s1
    184c:	8f21                	c.xor	a4,s0
    184e:	0076c6b3          	xor	a3,a3,t2
    1852:	00584833          	xor	a6,a6,t0
    1856:	01f54533          	xor	a0,a0,t6
    185a:	01e74733          	xor	a4,a4,t5
    185e:	01d6c6b3          	xor	a3,a3,t4
    1862:	01c84833          	xor	a6,a6,t3
    1866:	00654533          	xor	a0,a0,t1
    186a:	01174733          	xor	a4,a4,a7
    186e:	00885a13          	srli	s4,a6,0x8
    1872:	01055493          	srli	s1,a0,0x10
    1876:	0187539b          	srliw	t2,a4,0x18
    187a:	00855993          	srli	s3,a0,0x8
    187e:	01075413          	srli	s0,a4,0x10
    1882:	0186d29b          	srliw	t0,a3,0x18
    1886:	00875913          	srli	s2,a4,0x8
    188a:	0086df93          	srli	t6,a3,0x8
    188e:	0ffa7a13          	andi	s4,s4,255
    1892:	0ff4f493          	andi	s1,s1,255
    1896:	2381                	c.addiw	t2,0
    1898:	0ff9f993          	andi	s3,s3,255
    189c:	0ff47413          	andi	s0,s0,255
    18a0:	2281                	c.addiw	t0,0
    18a2:	0ff97913          	andi	s2,s2,255
    18a6:	0ff6fb93          	andi	s7,a3,255
    18aa:	0ff87b13          	andi	s6,a6,255
    18ae:	0ff57a93          	andi	s5,a0,255
    18b2:	01085f13          	srli	t5,a6,0x10
    18b6:	100a0a13          	addi	s4,s4,256
    18ba:	20048493          	addi	s1,s1,512
    18be:	30038393          	addi	t2,t2,768
    18c2:	10098993          	addi	s3,s3,256
    18c6:	20040413          	addi	s0,s0,512
    18ca:	30028293          	addi	t0,t0,768
    18ce:	10090913          	addi	s2,s2,256
    18d2:	82c1                	c.srli	a3,0x10
    18d4:	0ff77713          	andi	a4,a4,255
    18d8:	0fffff93          	andi	t6,t6,255
    18dc:	0188581b          	srliw	a6,a6,0x18
    18e0:	070e                	c.slli	a4,0x3
    18e2:	0185551b          	srliw	a0,a0,0x18
    18e6:	0b8e                	c.slli	s7,0x3
    18e8:	0a0e                	c.slli	s4,0x3
    18ea:	048e                	c.slli	s1,0x3
    18ec:	038e                	c.slli	t2,0x3
    18ee:	0b0e                	c.slli	s6,0x3
    18f0:	098e                	c.slli	s3,0x3
    18f2:	040e                	c.slli	s0,0x3
    18f4:	028e                	c.slli	t0,0x3
    18f6:	0a8e                	c.slli	s5,0x3
    18f8:	090e                	c.slli	s2,0x3
    18fa:	0ff6f693          	andi	a3,a3,255
    18fe:	100f8f93          	addi	t6,t6,256
    1902:	0fff7f13          	andi	t5,t5,255
    1906:	00e78333          	add	t1,a5,a4
    190a:	9bbe                	c.add	s7,a5
    190c:	9b3e                	c.add	s6,a5
    190e:	9abe                	c.add	s5,a5
    1910:	20068693          	addi	a3,a3,512
    1914:	00080e9b          	addiw	t4,a6,0
    1918:	0005089b          	addiw	a7,a0,0
    191c:	9a3e                	c.add	s4,a5
    191e:	94be                	c.add	s1,a5
    1920:	93be                	c.add	t2,a5
    1922:	99be                	c.add	s3,a5
    1924:	943e                	c.add	s0,a5
    1926:	92be                	c.add	t0,a5
    1928:	993e                	c.add	s2,a5
    192a:	0f8e                	c.slli	t6,0x3
    192c:	200f0f13          	addi	t5,t5,512
    1930:	000bbc03          	ld	s8,0(s7)
    1934:	6e28                	c.ld	a0,88(a2)
    1936:	000b3703          	ld	a4,0(s6)
    193a:	000abb83          	ld	s7,0(s5)
    193e:	05063e03          	ld	t3,80(a2)
    1942:	00369a93          	slli	s5,a3,0x3
    1946:	000a3a03          	ld	s4,0(s4)
    194a:	6084                	c.ld	s1,0(s1)
    194c:	0003b383          	ld	t2,0(t2)
    1950:	0009b983          	ld	s3,0(s3)
    1954:	6000                	c.ld	s0,0(s0)
    1956:	0002b283          	ld	t0,0(t0)
    195a:	06063803          	ld	a6,96(a2)
    195e:	9fbe                	c.add	t6,a5
    1960:	00093903          	ld	s2,0(s2)
    1964:	0f0e                	c.slli	t5,0x3
    1966:	00033b03          	ld	s6,0(t1)
    196a:	30088893          	addi	a7,a7,768
    196e:	300e8e93          	addi	t4,t4,768
    1972:	7634                	c.ld	a3,104(a2)
    1974:	01578cb3          	add	s9,a5,s5
    1978:	01e78333          	add	t1,a5,t5
    197c:	000fba83          	ld	s5,0(t6)
    1980:	00389f13          	slli	t5,a7,0x3
    1984:	0e8e                	c.slli	t4,0x3
    1986:	9ebe                	c.add	t4,a5
    1988:	000cbf83          	ld	t6,0(s9)
    198c:	00033303          	ld	t1,0(t1)
    1990:	9f3e                	c.add	t5,a5
    1992:	8f29                	c.xor	a4,a0
    1994:	000eb883          	ld	a7,0(t4)
    1998:	000f3503          	ld	a0,0(t5)
    199c:	018e4e33          	xor	t3,t3,s8
    19a0:	01784833          	xor	a6,a6,s7
    19a4:	0166c6b3          	xor	a3,a3,s6
    19a8:	014e4e33          	xor	t3,t3,s4
    19ac:	01374733          	xor	a4,a4,s3
    19b0:	01284833          	xor	a6,a6,s2
    19b4:	0156c6b3          	xor	a3,a3,s5
    19b8:	009e4e33          	xor	t3,t3,s1
    19bc:	8f21                	c.xor	a4,s0
    19be:	01f84833          	xor	a6,a6,t6
    19c2:	0066c6b3          	xor	a3,a3,t1
    19c6:	8ea9                	c.xor	a3,a0
    19c8:	07063e83          	ld	t4,112(a2)
    19cc:	007e4e33          	xor	t3,t3,t2
    19d0:	00574733          	xor	a4,a4,t0
    19d4:	01184833          	xor	a6,a6,a7
    19d8:	07060513          	addi	a0,a2,112
    19dc:	c1ffe06f          	jal	zero,5fa <.L39>

00000000000019e0 <decrypt>:
    19e0:	0ece3977          	0xece3977
    19e4:	41064783          	lbu	a5,1040(a2)
    19e8:	8b89                	c.andi	a5,2
    19ea:	c7dd                	c.beqz	a5,1a98 <.L54>
    19ec:	0e668977          	0xe668977
    19f0:	00453803          	ld	a6,4(a0)
    19f4:	00053f03          	ld	t5,0(a0)
    19f8:	00853303          	ld	t1,8(a0)
    19fc:	00c53e83          	ld	t4,12(a0)
    1a00:	21063703          	ld	a4,528(a2)
    1a04:	21863683          	ld	a3,536(a2)
    1a08:	22063783          	ld	a5,544(a2)
    1a0c:	22863503          	ld	a0,552(a2)
    1a10:	00863883          	ld	a7,8(a2)
    1a14:	711d                	c.addi16sp	sp,-96
    1a16:	eca2                	c.sdsp	s0,88(sp)
    1a18:	e8a6                	c.sdsp	s1,80(sp)
    1a1a:	e4ca                	c.sdsp	s2,72(sp)
    1a1c:	e0ce                	c.sdsp	s3,64(sp)
    1a1e:	fc52                	c.sdsp	s4,56(sp)
    1a20:	f856                	c.sdsp	s5,48(sp)
    1a22:	f45a                	c.sdsp	s6,40(sp)
    1a24:	f05e                	c.sdsp	s7,32(sp)
    1a26:	ec62                	c.sdsp	s8,24(sp)
    1a28:	e866                	c.sdsp	s9,16(sp)
    1a2a:	e46a                	c.sdsp	s10,8(sp)
    1a2c:	e06e                	c.sdsp	s11,0(sp)
    1a2e:	4e31                	c.li	t3,12
    1a30:	00d846b3          	xor	a3,a6,a3
    1a34:	00ef4733          	xor	a4,t5,a4
    1a38:	00f34333          	xor	t1,t1,a5
    1a3c:	00aec533          	xor	a0,t4,a0
    1a40:	23060813          	addi	a6,a2,560
    1a44:	07c88063          	beq	a7,t3,1aa4 <.L50>
    1a48:	07455977          	0x7455977
    1a4c:	47b9                	c.li	a5,14
    1a4e:	00f89463          	bne	a7,a5,1a56 <decrypt+0x76>
    1a52:	1780106f          	jal	zero,2bca <.L51>
    1a56:	0ed60977          	0xed60977
    1a5a:	47a9                	c.li	a5,10
    1a5c:	00f89463          	bne	a7,a5,1a64 <.L49>
    1a60:	15a0106f          	jal	zero,2bba <.L60>

0000000000001a64 <.L49>:
    1a64:	093e8977          	0x93e8977
    1a68:	e198                	c.sd	a4,0(a1)
    1a6a:	00d5b223          	sd	a3,4(a1)
    1a6e:	6466                	c.ldsp	s0,88(sp)
    1a70:	0065b423          	sd	t1,8(a1)
    1a74:	00a5b623          	sd	a0,12(a1)
    1a78:	64c6                	c.ldsp	s1,80(sp)
    1a7a:	6926                	c.ldsp	s2,72(sp)
    1a7c:	6986                	c.ldsp	s3,64(sp)
    1a7e:	7a62                	c.ldsp	s4,56(sp)
    1a80:	7ac2                	c.ldsp	s5,48(sp)
    1a82:	7b22                	c.ldsp	s6,40(sp)
    1a84:	7b82                	c.ldsp	s7,32(sp)
    1a86:	6c62                	c.ldsp	s8,24(sp)
    1a88:	6cc2                	c.ldsp	s9,16(sp)
    1a8a:	6d22                	c.ldsp	s10,8(sp)
    1a8c:	6d82                	c.ldsp	s11,0(sp)
    1a8e:	4505                	c.li	a0,1
    1a90:	6125                	c.addi16sp	sp,96
    1a92:	0ff05073          	csrrwi	zero,0xff,0
    1a96:	8082                	c.jr	ra

0000000000001a98 <.L54>:
    1a98:	0052f977          	0x52f977
    1a9c:	4501                	c.li	a0,0
    1a9e:	0ff05073          	csrrwi	zero,0xff,0
    1aa2:	8082                	c.jr	ra

0000000000001aa4 <.L50>:
    1aa4:	093a8977          	0x93a8977
    1aa8:	23063e03          	ld	t3,560(a2)
    1aac:	000007b7          	lui	a5,0x0
    1ab0:	00078793          	addi	a5,a5,0 # 0 <set_key>

0000000000001ab4 <.L53>:
    1ab4:	0038f977          	0x38f977
    1ab8:	00855f93          	srli	t6,a0,0x8
    1abc:	00875913          	srli	s2,a4,0x8
    1ac0:	0086d493          	srli	s1,a3,0x8
    1ac4:	00835413          	srli	s0,t1,0x8
    1ac8:	01075613          	srli	a2,a4,0x10
    1acc:	0ff77b93          	andi	s7,a4,255
    1ad0:	01035393          	srli	t2,t1,0x10
    1ad4:	0ff6fb13          	andi	s6,a3,255
    1ad8:	01055293          	srli	t0,a0,0x10
    1adc:	0ff37a93          	andi	s5,t1,255
    1ae0:	0ff57a13          	andi	s4,a0,255
    1ae4:	0106df13          	srli	t5,a3,0x10
    1ae8:	0fffff93          	andi	t6,t6,255
    1aec:	0ff97913          	andi	s2,s2,255
    1af0:	0ff4f493          	andi	s1,s1,255
    1af4:	0ff47413          	andi	s0,s0,255
    1af8:	0186de9b          	srliw	t4,a3,0x18
    1afc:	0185589b          	srliw	a7,a0,0x18
    1b00:	01875c1b          	srliw	s8,a4,0x18
    1b04:	100f8993          	addi	s3,t6,256
    1b08:	0183531b          	srliw	t1,t1,0x18
    1b0c:	0ff67f93          	andi	t6,a2,255
    1b10:	0b8e                	c.slli	s7,0x3
    1b12:	0ff3f393          	andi	t2,t2,255
    1b16:	0b0e                	c.slli	s6,0x3
    1b18:	10090913          	addi	s2,s2,256
    1b1c:	0ff2f293          	andi	t0,t0,255
    1b20:	0a8e                	c.slli	s5,0x3
    1b22:	10048493          	addi	s1,s1,256
    1b26:	0a0e                	c.slli	s4,0x3
    1b28:	10040413          	addi	s0,s0,256
    1b2c:	0fff7f13          	andi	t5,t5,255
    1b30:	9bbe                	c.add	s7,a5
    1b32:	9b3e                	c.add	s6,a5
    1b34:	9abe                	c.add	s5,a5
    1b36:	9a3e                	c.add	s4,a5
    1b38:	098e                	c.slli	s3,0x3
    1b3a:	20038393          	addi	t2,t2,512
    1b3e:	2e81                	c.addiw	t4,0
    1b40:	090e                	c.slli	s2,0x3
    1b42:	20028293          	addi	t0,t0,512
    1b46:	2301                	c.addiw	t1,0
    1b48:	048e                	c.slli	s1,0x3
    1b4a:	200f8f93          	addi	t6,t6,512
    1b4e:	2881                	c.addiw	a7,0
    1b50:	040e                	c.slli	s0,0x3
    1b52:	200f0f13          	addi	t5,t5,512
    1b56:	2c01                	c.addiw	s8,0
    1b58:	00883603          	ld	a2,8(a6)
    1b5c:	01083683          	ld	a3,16(a6)
    1b60:	01883703          	ld	a4,24(a6)
    1b64:	000bb503          	ld	a0,0(s7)
    1b68:	99be                	c.add	s3,a5
    1b6a:	000b3b83          	ld	s7,0(s6)
    1b6e:	993e                	c.add	s2,a5
    1b70:	000abb03          	ld	s6,0(s5)
    1b74:	94be                	c.add	s1,a5
    1b76:	000a3a83          	ld	s5,0(s4)
    1b7a:	943e                	c.add	s0,a5
    1b7c:	038e                	c.slli	t2,0x3
    1b7e:	300e8e93          	addi	t4,t4,768
    1b82:	028e                	c.slli	t0,0x3
    1b84:	30030313          	addi	t1,t1,768
    1b88:	0f8e                	c.slli	t6,0x3
    1b8a:	30088893          	addi	a7,a7,768
    1b8e:	0f0e                	c.slli	t5,0x3
    1b90:	300c0c13          	addi	s8,s8,768
    1b94:	0009ba03          	ld	s4,0(s3)
    1b98:	93be                	c.add	t2,a5
    1b9a:	00093983          	ld	s3,0(s2)
    1b9e:	92be                	c.add	t0,a5
    1ba0:	0004b903          	ld	s2,0(s1)
    1ba4:	9fbe                	c.add	t6,a5
    1ba6:	6004                	c.ld	s1,0(s0)
    1ba8:	9f3e                	c.add	t5,a5
    1baa:	0e8e                	c.slli	t4,0x3
    1bac:	030e                	c.slli	t1,0x3
    1bae:	088e                	c.slli	a7,0x3
    1bb0:	0c0e                	c.slli	s8,0x3
    1bb2:	0003b403          	ld	s0,0(t2)
    1bb6:	9ebe                	c.add	t4,a5
    1bb8:	0002b383          	ld	t2,0(t0)
    1bbc:	933e                	c.add	t1,a5
    1bbe:	000fb283          	ld	t0,0(t6)
    1bc2:	98be                	c.add	a7,a5
    1bc4:	000f3f83          	ld	t6,0(t5)
    1bc8:	9c3e                	c.add	s8,a5
    1bca:	000ebf03          	ld	t5,0(t4)
    1bce:	00ae4533          	xor	a0,t3,a0
    1bd2:	00033e83          	ld	t4,0(t1)
    1bd6:	01764633          	xor	a2,a2,s7
    1bda:	0008b303          	ld	t1,0(a7)
    1bde:	0166c6b3          	xor	a3,a3,s6
    1be2:	000c3883          	ld	a7,0(s8)
    1be6:	01574733          	xor	a4,a4,s5
    1bea:	01454533          	xor	a0,a0,s4
    1bee:	01364633          	xor	a2,a2,s3
    1bf2:	0126c6b3          	xor	a3,a3,s2
    1bf6:	8f25                	c.xor	a4,s1
    1bf8:	8d21                	c.xor	a0,s0
    1bfa:	00764633          	xor	a2,a2,t2
    1bfe:	0056c6b3          	xor	a3,a3,t0
    1c02:	01f74733          	xor	a4,a4,t6
    1c06:	01e54533          	xor	a0,a0,t5
    1c0a:	01d64633          	xor	a2,a2,t4
    1c0e:	0066c6b3          	xor	a3,a3,t1
    1c12:	01174733          	xor	a4,a4,a7
    1c16:	00875a13          	srli	s4,a4,0x8
    1c1a:	0106d493          	srli	s1,a3,0x10
    1c1e:	0186529b          	srliw	t0,a2,0x18
    1c22:	00855993          	srli	s3,a0,0x8
    1c26:	01075413          	srli	s0,a4,0x10
    1c2a:	0186df9b          	srliw	t6,a3,0x18
    1c2e:	00865913          	srli	s2,a2,0x8
    1c32:	01055393          	srli	t2,a0,0x10
    1c36:	0086de13          	srli	t3,a3,0x8
    1c3a:	0ffa7a13          	andi	s4,s4,255
    1c3e:	0ff4f493          	andi	s1,s1,255
    1c42:	2281                	c.addiw	t0,0
    1c44:	0ff9f993          	andi	s3,s3,255
    1c48:	0ff47413          	andi	s0,s0,255
    1c4c:	2f81                	c.addiw	t6,0
    1c4e:	0ff97913          	andi	s2,s2,255
    1c52:	0ff3f393          	andi	t2,t2,255
    1c56:	0ff57b93          	andi	s7,a0,255
    1c5a:	0ff67b13          	andi	s6,a2,255
    1c5e:	0ff6f313          	andi	t1,a3,255
    1c62:	0ff77a93          	andi	s5,a4,255
    1c66:	100a0a13          	addi	s4,s4,256
    1c6a:	20048493          	addi	s1,s1,512
    1c6e:	30028293          	addi	t0,t0,768
    1c72:	10098993          	addi	s3,s3,256
    1c76:	20040413          	addi	s0,s0,512
    1c7a:	300f8f93          	addi	t6,t6,768
    1c7e:	10090913          	addi	s2,s2,256
    1c82:	20038393          	addi	t2,t2,512
    1c86:	0ffe7e13          	andi	t3,t3,255
    1c8a:	8241                	c.srli	a2,0x10
    1c8c:	0187571b          	srliw	a4,a4,0x18
    1c90:	0ff67613          	andi	a2,a2,255
    1c94:	0185551b          	srliw	a0,a0,0x18
    1c98:	0b8e                	c.slli	s7,0x3
    1c9a:	0a0e                	c.slli	s4,0x3
    1c9c:	048e                	c.slli	s1,0x3
    1c9e:	028e                	c.slli	t0,0x3
    1ca0:	0b0e                	c.slli	s6,0x3
    1ca2:	098e                	c.slli	s3,0x3
    1ca4:	040e                	c.slli	s0,0x3
    1ca6:	0f8e                	c.slli	t6,0x3
    1ca8:	030e                	c.slli	t1,0x3
    1caa:	090e                	c.slli	s2,0x3
    1cac:	038e                	c.slli	t2,0x3
    1cae:	0a8e                	c.slli	s5,0x3
    1cb0:	100e0e13          	addi	t3,t3,256
    1cb4:	0007089b          	addiw	a7,a4,0
    1cb8:	9abe                	c.add	s5,a5
    1cba:	20060e93          	addi	t4,a2,512
    1cbe:	00050f1b          	addiw	t5,a0,0
    1cc2:	9bbe                	c.add	s7,a5
    1cc4:	9a3e                	c.add	s4,a5
    1cc6:	94be                	c.add	s1,a5
    1cc8:	92be                	c.add	t0,a5
    1cca:	9b3e                	c.add	s6,a5
    1ccc:	99be                	c.add	s3,a5
    1cce:	943e                	c.add	s0,a5
    1cd0:	9fbe                	c.add	t6,a5
    1cd2:	933e                	c.add	t1,a5
    1cd4:	993e                	c.add	s2,a5
    1cd6:	93be                	c.add	t2,a5
    1cd8:	0e0e                	c.slli	t3,0x3
    1cda:	02083703          	ld	a4,32(a6)
    1cde:	02883683          	ld	a3,40(a6)
    1ce2:	03083603          	ld	a2,48(a6)
    1ce6:	00033303          	ld	t1,0(t1)
    1cea:	000bbb83          	ld	s7,0(s7)
    1cee:	000a3a03          	ld	s4,0(s4)
    1cf2:	6084                	c.ld	s1,0(s1)
    1cf4:	0002b283          	ld	t0,0(t0)
    1cf8:	000b3b03          	ld	s6,0(s6)
    1cfc:	0009b983          	ld	s3,0(s3)
    1d00:	6000                	c.ld	s0,0(s0)
    1d02:	000fbf83          	ld	t6,0(t6)
    1d06:	00093903          	ld	s2,0(s2)
    1d0a:	9e3e                	c.add	t3,a5
    1d0c:	0003b383          	ld	t2,0(t2)
    1d10:	30088893          	addi	a7,a7,768
    1d14:	03883503          	ld	a0,56(a6)
    1d18:	000abc03          	ld	s8,0(s5)
    1d1c:	0e8e                	c.slli	t4,0x3
    1d1e:	300f0f13          	addi	t5,t5,768
    1d22:	000e3a83          	ld	s5,0(t3)
    1d26:	088e                	c.slli	a7,0x3
    1d28:	9ebe                	c.add	t4,a5
    1d2a:	0f0e                	c.slli	t5,0x3
    1d2c:	98be                	c.add	a7,a5
    1d2e:	000ebe03          	ld	t3,0(t4)
    1d32:	9f3e                	c.add	t5,a5
    1d34:	00664633          	xor	a2,a2,t1
    1d38:	01774733          	xor	a4,a4,s7
    1d3c:	0008b303          	ld	t1,0(a7)
    1d40:	0166c6b3          	xor	a3,a3,s6
    1d44:	01854533          	xor	a0,a0,s8
    1d48:	000f3883          	ld	a7,0(t5)
    1d4c:	01474733          	xor	a4,a4,s4
    1d50:	0136c6b3          	xor	a3,a3,s3
    1d54:	01264633          	xor	a2,a2,s2
    1d58:	01554533          	xor	a0,a0,s5
    1d5c:	8f25                	c.xor	a4,s1
    1d5e:	8ea1                	c.xor	a3,s0
    1d60:	00764633          	xor	a2,a2,t2
    1d64:	01c54533          	xor	a0,a0,t3
    1d68:	00574733          	xor	a4,a4,t0
    1d6c:	01f6c6b3          	xor	a3,a3,t6
    1d70:	00664333          	xor	t1,a2,t1
    1d74:	01154533          	xor	a0,a0,a7
    1d78:	04080813          	addi	a6,a6,64

0000000000001d7c <.L52>:
    1d7c:	0001e977          	0x1e977
    1d80:	00855f93          	srli	t6,a0,0x8
    1d84:	00875293          	srli	t0,a4,0x8
    1d88:	0086d493          	srli	s1,a3,0x8
    1d8c:	00835413          	srli	s0,t1,0x8
    1d90:	01055c13          	srli	s8,a0,0x10
    1d94:	0ff37b93          	andi	s7,t1,255
    1d98:	01075b13          	srli	s6,a4,0x10
    1d9c:	0ff77613          	andi	a2,a4,255
    1da0:	01035393          	srli	t2,t1,0x10
    1da4:	0ff6fa93          	andi	s5,a3,255
    1da8:	0ff57a13          	andi	s4,a0,255
    1dac:	0106df13          	srli	t5,a3,0x10
    1db0:	0fffff93          	andi	t6,t6,255
    1db4:	0ff2f293          	andi	t0,t0,255
    1db8:	0ff4f493          	andi	s1,s1,255
    1dbc:	0ff47413          	andi	s0,s0,255
    1dc0:	0186de9b          	srliw	t4,a3,0x18
    1dc4:	01835e1b          	srliw	t3,t1,0x18
    1dc8:	0187589b          	srliw	a7,a4,0x18
    1dcc:	0185531b          	srliw	t1,a0,0x18
    1dd0:	003b9713          	slli	a4,s7,0x3
    1dd4:	100f8993          	addi	s3,t6,256
    1dd8:	10028913          	addi	s2,t0,256
    1ddc:	0ffb7f93          	andi	t6,s6,255
    1de0:	0ffc7293          	andi	t0,s8,255
    1de4:	060e                	c.slli	a2,0x3
    1de6:	0ff3f393          	andi	t2,t2,255
    1dea:	0a8e                	c.slli	s5,0x3
    1dec:	10048493          	addi	s1,s1,256
    1df0:	0a0e                	c.slli	s4,0x3
    1df2:	10040413          	addi	s0,s0,256
    1df6:	0fff7f13          	andi	t5,t5,255
    1dfa:	00e786b3          	add	a3,a5,a4
    1dfe:	963e                	c.add	a2,a5
    1e00:	9abe                	c.add	s5,a5
    1e02:	9a3e                	c.add	s4,a5
    1e04:	098e                	c.slli	s3,0x3
    1e06:	20038393          	addi	t2,t2,512
    1e0a:	2e81                	c.addiw	t4,0
    1e0c:	090e                	c.slli	s2,0x3
    1e0e:	20028293          	addi	t0,t0,512
    1e12:	2e01                	c.addiw	t3,0
    1e14:	048e                	c.slli	s1,0x3
    1e16:	200f8f93          	addi	t6,t6,512
    1e1a:	2301                	c.addiw	t1,0
    1e1c:	040e                	c.slli	s0,0x3
    1e1e:	200f0f13          	addi	t5,t5,512
    1e22:	2881                	c.addiw	a7,0
    1e24:	00063c83          	ld	s9,0(a2)
    1e28:	000abc03          	ld	s8,0(s5)
    1e2c:	0006bb83          	ld	s7,0(a3)
    1e30:	000a3b03          	ld	s6,0(s4)
    1e34:	00083503          	ld	a0,0(a6)
    1e38:	00883603          	ld	a2,8(a6)
    1e3c:	01083703          	ld	a4,16(a6)
    1e40:	01883683          	ld	a3,24(a6)
    1e44:	99be                	c.add	s3,a5
    1e46:	993e                	c.add	s2,a5
    1e48:	94be                	c.add	s1,a5
    1e4a:	943e                	c.add	s0,a5
    1e4c:	038e                	c.slli	t2,0x3
    1e4e:	300e8e93          	addi	t4,t4,768
    1e52:	028e                	c.slli	t0,0x3
    1e54:	300e0e13          	addi	t3,t3,768
    1e58:	0f8e                	c.slli	t6,0x3
    1e5a:	30030313          	addi	t1,t1,768
    1e5e:	0f0e                	c.slli	t5,0x3
    1e60:	30088893          	addi	a7,a7,768
    1e64:	0009ba83          	ld	s5,0(s3)
    1e68:	00093a03          	ld	s4,0(s2)
    1e6c:	0004b983          	ld	s3,0(s1)
    1e70:	00043903          	ld	s2,0(s0)
    1e74:	93be                	c.add	t2,a5
    1e76:	92be                	c.add	t0,a5
    1e78:	9fbe                	c.add	t6,a5
    1e7a:	9f3e                	c.add	t5,a5
    1e7c:	0e8e                	c.slli	t4,0x3
    1e7e:	0e0e                	c.slli	t3,0x3
    1e80:	030e                	c.slli	t1,0x3
    1e82:	088e                	c.slli	a7,0x3
    1e84:	0003b483          	ld	s1,0(t2)
    1e88:	0002b403          	ld	s0,0(t0)
    1e8c:	000fb383          	ld	t2,0(t6)
    1e90:	000f3283          	ld	t0,0(t5)
    1e94:	9ebe                	c.add	t4,a5
    1e96:	9e3e                	c.add	t3,a5
    1e98:	933e                	c.add	t1,a5
    1e9a:	98be                	c.add	a7,a5
    1e9c:	000ebf83          	ld	t6,0(t4)
    1ea0:	000e3f03          	ld	t5,0(t3)
    1ea4:	00033e83          	ld	t4,0(t1)
    1ea8:	0008be03          	ld	t3,0(a7)
    1eac:	01954533          	xor	a0,a0,s9
    1eb0:	01864633          	xor	a2,a2,s8
    1eb4:	01774733          	xor	a4,a4,s7
    1eb8:	0166c6b3          	xor	a3,a3,s6
    1ebc:	01554533          	xor	a0,a0,s5
    1ec0:	01464633          	xor	a2,a2,s4
    1ec4:	01374733          	xor	a4,a4,s3
    1ec8:	0126c6b3          	xor	a3,a3,s2
    1ecc:	8d25                	c.xor	a0,s1
    1ece:	8e21                	c.xor	a2,s0
    1ed0:	00774733          	xor	a4,a4,t2
    1ed4:	0056c6b3          	xor	a3,a3,t0
    1ed8:	01e64633          	xor	a2,a2,t5
    1edc:	01f54533          	xor	a0,a0,t6
    1ee0:	01d74733          	xor	a4,a4,t4
    1ee4:	01c6c6b3          	xor	a3,a3,t3
    1ee8:	0086d413          	srli	s0,a3,0x8
    1eec:	01075393          	srli	t2,a4,0x10
    1ef0:	0186529b          	srliw	t0,a2,0x18
    1ef4:	00855f93          	srli	t6,a0,0x8
    1ef8:	0106df13          	srli	t5,a3,0x10
    1efc:	01875e1b          	srliw	t3,a4,0x18
    1f00:	00865893          	srli	a7,a2,0x8
    1f04:	0ff77913          	andi	s2,a4,255
    1f08:	01055313          	srli	t1,a0,0x10
    1f0c:	0ff57a93          	andi	s5,a0,255
    1f10:	2281                	c.addiw	t0,0
    1f12:	0ff67493          	andi	s1,a2,255
    1f16:	0fffff93          	andi	t6,t6,255
    1f1a:	2e01                	c.addiw	t3,0
    1f1c:	0ff8f893          	andi	a7,a7,255
    1f20:	00875e93          	srli	t4,a4,0x8
    1f24:	0ff47413          	andi	s0,s0,255
    1f28:	0ff3f393          	andi	t2,t2,255
    1f2c:	0fff7f13          	andi	t5,t5,255
    1f30:	30028c93          	addi	s9,t0,768
    1f34:	100f8a13          	addi	s4,t6,256
    1f38:	300e0993          	addi	s3,t3,768
    1f3c:	00391f93          	slli	t6,s2,0x3
    1f40:	10088713          	addi	a4,a7,256
    1f44:	0ff37293          	andi	t0,t1,255
    1f48:	0186de1b          	srliw	t3,a3,0x18
    1f4c:	01065893          	srli	a7,a2,0x10
    1f50:	0ff6f693          	andi	a3,a3,255
    1f54:	0a8e                	c.slli	s5,0x3
    1f56:	10040413          	addi	s0,s0,256
    1f5a:	20038393          	addi	t2,t2,512
    1f5e:	048e                	c.slli	s1,0x3
    1f60:	200f0f13          	addi	t5,t5,512
    1f64:	0ffefe93          	andi	t4,t4,255
    1f68:	9abe                	c.add	s5,a5
    1f6a:	94be                	c.add	s1,a5
    1f6c:	9fbe                	c.add	t6,a5
    1f6e:	00369913          	slli	s2,a3,0x3
    1f72:	0185531b          	srliw	t1,a0,0x18
    1f76:	040e                	c.slli	s0,0x3
    1f78:	038e                	c.slli	t2,0x3
    1f7a:	0c8e                	c.slli	s9,0x3
    1f7c:	0a0e                	c.slli	s4,0x3
    1f7e:	0f0e                	c.slli	t5,0x3
    1f80:	098e                	c.slli	s3,0x3
    1f82:	070e                	c.slli	a4,0x3
    1f84:	20028293          	addi	t0,t0,512
    1f88:	2e01                	c.addiw	t3,0
    1f8a:	100e8e93          	addi	t4,t4,256
    1f8e:	0ff8f893          	andi	a7,a7,255
    1f92:	000abc03          	ld	s8,0(s5)
    1f96:	0004bb83          	ld	s7,0(s1)
    1f9a:	000fbb03          	ld	s6,0(t6)
    1f9e:	02083503          	ld	a0,32(a6)
    1fa2:	02883603          	ld	a2,40(a6)
    1fa6:	03083683          	ld	a3,48(a6)
    1faa:	943e                	c.add	s0,a5
    1fac:	93be                	c.add	t2,a5
    1fae:	9cbe                	c.add	s9,a5
    1fb0:	9f3e                	c.add	t5,a5
    1fb2:	99be                	c.add	s3,a5
    1fb4:	973e                	c.add	a4,a5
    1fb6:	9a3e                	c.add	s4,a5
    1fb8:	993e                	c.add	s2,a5
    1fba:	028e                	c.slli	t0,0x3
    1fbc:	300e0e13          	addi	t3,t3,768
    1fc0:	0e8e                	c.slli	t4,0x3
    1fc2:	20088893          	addi	a7,a7,512
    1fc6:	2301                	c.addiw	t1,0
    1fc8:	00043a83          	ld	s5,0(s0)
    1fcc:	0003b483          	ld	s1,0(t2)
    1fd0:	000cbf83          	ld	t6,0(s9)
    1fd4:	000f3403          	ld	s0,0(t5)
    1fd8:	000a3a03          	ld	s4,0(s4)
    1fdc:	0009bf03          	ld	t5,0(s3)
    1fe0:	92be                	c.add	t0,a5
    1fe2:	00073983          	ld	s3,0(a4)
    1fe6:	9ebe                	c.add	t4,a5
    1fe8:	03883703          	ld	a4,56(a6)
    1fec:	00093903          	ld	s2,0(s2)
    1ff0:	0e0e                	c.slli	t3,0x3
    1ff2:	088e                	c.slli	a7,0x3
    1ff4:	30030313          	addi	t1,t1,768
    1ff8:	0002b383          	ld	t2,0(t0)
    1ffc:	9e3e                	c.add	t3,a5
    1ffe:	000eb283          	ld	t0,0(t4)
    2002:	98be                	c.add	a7,a5
    2004:	030e                	c.slli	t1,0x3
    2006:	000e3e83          	ld	t4,0(t3)
    200a:	01854533          	xor	a0,a0,s8
    200e:	0008be03          	ld	t3,0(a7)
    2012:	01764633          	xor	a2,a2,s7
    2016:	006788b3          	add	a7,a5,t1
    201a:	0166c6b3          	xor	a3,a3,s6
    201e:	0008b883          	ld	a7,0(a7)
    2022:	01554533          	xor	a0,a0,s5
    2026:	01464633          	xor	a2,a2,s4
    202a:	0136c6b3          	xor	a3,a3,s3
    202e:	01274733          	xor	a4,a4,s2
    2032:	8d25                	c.xor	a0,s1
    2034:	8e21                	c.xor	a2,s0
    2036:	0076c6b3          	xor	a3,a3,t2
    203a:	00574733          	xor	a4,a4,t0
    203e:	01e64633          	xor	a2,a2,t5
    2042:	01f54533          	xor	a0,a0,t6
    2046:	01d6c6b3          	xor	a3,a3,t4
    204a:	01c74733          	xor	a4,a4,t3
    204e:	01174733          	xor	a4,a4,a7
    2052:	00855313          	srli	t1,a0,0x8
    2056:	00865893          	srli	a7,a2,0x8
    205a:	0086d493          	srli	s1,a3,0x8
    205e:	0ff77293          	andi	t0,a4,255
    2062:	00875413          	srli	s0,a4,0x8
    2066:	0ff67e13          	andi	t3,a2,255
    206a:	0ff37313          	andi	t1,t1,255
    206e:	01075393          	srli	t2,a4,0x10
    2072:	0ff6fa93          	andi	s5,a3,255
    2076:	0ff8f893          	andi	a7,a7,255
    207a:	01055c13          	srli	s8,a0,0x10
    207e:	01065f93          	srli	t6,a2,0x10
    2082:	0ff4f493          	andi	s1,s1,255
    2086:	0ff57a13          	andi	s4,a0,255
    208a:	0106df13          	srli	t5,a3,0x10
    208e:	0e0e                	c.slli	t3,0x3
    2090:	10030993          	addi	s3,t1,256
    2094:	0186de9b          	srliw	t4,a3,0x18
    2098:	10088913          	addi	s2,a7,256
    209c:	0187571b          	srliw	a4,a4,0x18
    20a0:	00329693          	slli	a3,t0,0x3
    20a4:	0185551b          	srliw	a0,a0,0x18
    20a8:	0ff47413          	andi	s0,s0,255
    20ac:	0ff3f393          	andi	t2,t2,255
    20b0:	0a8e                	c.slli	s5,0x3
    20b2:	0ffc7c13          	andi	s8,s8,255
    20b6:	10048493          	addi	s1,s1,256
    20ba:	0fffff93          	andi	t6,t6,255
    20be:	00d782b3          	add	t0,a5,a3
    20c2:	9abe                	c.add	s5,a5
    20c4:	0186589b          	srliw	a7,a2,0x18
    20c8:	200c0c13          	addi	s8,s8,512
    20cc:	01c78633          	add	a2,a5,t3
    20d0:	0005031b          	addiw	t1,a0,0
    20d4:	00070e1b          	addiw	t3,a4,0
    20d8:	0a0e                	c.slli	s4,0x3
    20da:	10040413          	addi	s0,s0,256
    20de:	0fff7f13          	andi	t5,t5,255
    20e2:	098e                	c.slli	s3,0x3
    20e4:	20038393          	addi	t2,t2,512
    20e8:	2e81                	c.addiw	t4,0
    20ea:	090e                	c.slli	s2,0x3
    20ec:	048e                	c.slli	s1,0x3
    20ee:	200f8f93          	addi	t6,t6,512
    20f2:	00063b83          	ld	s7,0(a2)
    20f6:	000abb03          	ld	s6,0(s5)
    20fa:	04883503          	ld	a0,72(a6)
    20fe:	0002ba83          	ld	s5,0(t0)
    2102:	05083603          	ld	a2,80(a6)
    2106:	05883683          	ld	a3,88(a6)
    210a:	9a3e                	c.add	s4,a5
    210c:	99be                	c.add	s3,a5
    210e:	993e                	c.add	s2,a5
    2110:	003c1293          	slli	t0,s8,0x3
    2114:	94be                	c.add	s1,a5
    2116:	040e                	c.slli	s0,0x3
    2118:	200f0f13          	addi	t5,t5,512
    211c:	2881                	c.addiw	a7,0
    211e:	038e                	c.slli	t2,0x3
    2120:	300e8e93          	addi	t4,t4,768
    2124:	300e0e13          	addi	t3,t3,768
    2128:	0f8e                	c.slli	t6,0x3
    212a:	30030313          	addi	t1,t1,768
    212e:	04083703          	ld	a4,64(a6)
    2132:	000a3a03          	ld	s4,0(s4)
    2136:	0009b983          	ld	s3,0(s3)
    213a:	00093903          	ld	s2,0(s2)
    213e:	6084                	c.ld	s1,0(s1)
    2140:	943e                	c.add	s0,a5
    2142:	93be                	c.add	t2,a5
    2144:	92be                	c.add	t0,a5
    2146:	9fbe                	c.add	t6,a5
    2148:	0f0e                	c.slli	t5,0x3
    214a:	30088893          	addi	a7,a7,768
    214e:	0e8e                	c.slli	t4,0x3
    2150:	0e0e                	c.slli	t3,0x3
    2152:	030e                	c.slli	t1,0x3
    2154:	6000                	c.ld	s0,0(s0)
    2156:	0003b383          	ld	t2,0(t2)
    215a:	0002b283          	ld	t0,0(t0)
    215e:	000fbf83          	ld	t6,0(t6)
    2162:	9f3e                	c.add	t5,a5
    2164:	9ebe                	c.add	t4,a5
    2166:	9e3e                	c.add	t3,a5
    2168:	933e                	c.add	t1,a5
    216a:	088e                	c.slli	a7,0x3
    216c:	000f3f03          	ld	t5,0(t5)
    2170:	000ebe83          	ld	t4,0(t4)
    2174:	000e3e03          	ld	t3,0(t3)
    2178:	00033303          	ld	t1,0(t1)
    217c:	98be                	c.add	a7,a5
    217e:	01754533          	xor	a0,a0,s7
    2182:	01664633          	xor	a2,a2,s6
    2186:	0156c6b3          	xor	a3,a3,s5
    218a:	0008b883          	ld	a7,0(a7)
    218e:	01474733          	xor	a4,a4,s4
    2192:	01354533          	xor	a0,a0,s3
    2196:	01264633          	xor	a2,a2,s2
    219a:	8ea5                	c.xor	a3,s1
    219c:	8f21                	c.xor	a4,s0
    219e:	00754533          	xor	a0,a0,t2
    21a2:	00564633          	xor	a2,a2,t0
    21a6:	01f6c6b3          	xor	a3,a3,t6
    21aa:	01c64633          	xor	a2,a2,t3
    21ae:	01d54533          	xor	a0,a0,t4
    21b2:	0066c6b3          	xor	a3,a3,t1
    21b6:	01e74733          	xor	a4,a4,t5
    21ba:	01174733          	xor	a4,a4,a7
    21be:	0086de13          	srli	t3,a3,0x8
    21c2:	01065313          	srli	t1,a2,0x10
    21c6:	0185589b          	srliw	a7,a0,0x18
    21ca:	00875f13          	srli	t5,a4,0x8
    21ce:	00855493          	srli	s1,a0,0x8
    21d2:	00865293          	srli	t0,a2,0x8
    21d6:	0ffe7e13          	andi	t3,t3,255
    21da:	0ff37313          	andi	t1,t1,255
    21de:	2881                	c.addiw	a7,0
    21e0:	0ff77b93          	andi	s7,a4,255
    21e4:	100e0e13          	addi	t3,t3,256
    21e8:	20030313          	addi	t1,t1,512
    21ec:	0ff57b13          	andi	s6,a0,255
    21f0:	0fff7f13          	andi	t5,t5,255
    21f4:	0106dc13          	srli	s8,a3,0x10
    21f8:	0ff67a93          	andi	s5,a2,255
    21fc:	01075f93          	srli	t6,a4,0x10
    2200:	0ff6fc93          	andi	s9,a3,255
    2204:	8141                	c.srli	a0,0x10
    2206:	30088893          	addi	a7,a7,768
    220a:	0ff4f493          	andi	s1,s1,255
    220e:	0ff2f293          	andi	t0,t0,255
    2212:	003e1413          	slli	s0,t3,0x3
    2216:	00331393          	slli	t2,t1,0x3
    221a:	088e                	c.slli	a7,0x3
    221c:	100f0913          	addi	s2,t5,256
    2220:	01865e1b          	srliw	t3,a2,0x18
    2224:	0186d69b          	srliw	a3,a3,0x18
    2228:	10028293          	addi	t0,t0,256
    222c:	0ff57e93          	andi	t4,a0,255
    2230:	0187571b          	srliw	a4,a4,0x18
    2234:	0b8e                	c.slli	s7,0x3
    2236:	0b0e                	c.slli	s6,0x3
    2238:	0ffc7c13          	andi	s8,s8,255
    223c:	0a8e                	c.slli	s5,0x3
    223e:	10048493          	addi	s1,s1,256
    2242:	0fffff93          	andi	t6,t6,255
    2246:	0c8e                	c.slli	s9,0x3
    2248:	01178a33          	add	s4,a5,a7
    224c:	008789b3          	add	s3,a5,s0
    2250:	9cbe                	c.add	s9,a5
    2252:	0007041b          	addiw	s0,a4,0
    2256:	9bbe                	c.add	s7,a5
    2258:	93be                	c.add	t2,a5
    225a:	9b3e                	c.add	s6,a5
    225c:	9abe                	c.add	s5,a5
    225e:	0006831b          	addiw	t1,a3,0
    2262:	00329513          	slli	a0,t0,0x3
    2266:	090e                	c.slli	s2,0x3
    2268:	200c0c13          	addi	s8,s8,512
    226c:	2e01                	c.addiw	t3,0
    226e:	048e                	c.slli	s1,0x3
    2270:	200f8f93          	addi	t6,t6,512
    2274:	200e8e93          	addi	t4,t4,512
    2278:	00a782b3          	add	t0,a5,a0
    227c:	06083883          	ld	a7,96(a6)
    2280:	000bbb83          	ld	s7,0(s7)
    2284:	0009b983          	ld	s3,0(s3)
    2288:	0003b383          	ld	t2,0(t2)
    228c:	993e                	c.add	s2,a5
    228e:	000a3f03          	ld	t5,0(s4)
    2292:	0c0e                	c.slli	s8,0x3
    2294:	000cba03          	ld	s4,0(s9)
    2298:	06883603          	ld	a2,104(a6)
    229c:	000b3b03          	ld	s6,0(s6)
    22a0:	07083683          	ld	a3,112(a6)
    22a4:	000aba83          	ld	s5,0(s5)
    22a8:	07883703          	ld	a4,120(a6)
    22ac:	94be                	c.add	s1,a5
    22ae:	30040513          	addi	a0,s0,768
    22b2:	300e0e13          	addi	t3,t3,768
    22b6:	0f8e                	c.slli	t6,0x3
    22b8:	30030313          	addi	t1,t1,768
    22bc:	0e8e                	c.slli	t4,0x3
    22be:	0002b403          	ld	s0,0(t0)
    22c2:	00093903          	ld	s2,0(s2)
    22c6:	6084                	c.ld	s1,0(s1)
    22c8:	018782b3          	add	t0,a5,s8
    22cc:	9fbe                	c.add	t6,a5
    22ce:	9ebe                	c.add	t4,a5
    22d0:	0e0e                	c.slli	t3,0x3
    22d2:	030e                	c.slli	t1,0x3
    22d4:	050e                	c.slli	a0,0x3
    22d6:	0002b283          	ld	t0,0(t0)
    22da:	000fbf83          	ld	t6,0(t6)
    22de:	000ebe83          	ld	t4,0(t4)
    22e2:	9e3e                	c.add	t3,a5
    22e4:	933e                	c.add	t1,a5
    22e6:	953e                	c.add	a0,a5
    22e8:	000e3e03          	ld	t3,0(t3)
    22ec:	00033303          	ld	t1,0(t1)
    22f0:	6108                	c.ld	a0,0(a0)
    22f2:	0178c8b3          	xor	a7,a7,s7
    22f6:	01664633          	xor	a2,a2,s6
    22fa:	0156c6b3          	xor	a3,a3,s5
    22fe:	01474733          	xor	a4,a4,s4
    2302:	0138c8b3          	xor	a7,a7,s3
    2306:	01264633          	xor	a2,a2,s2
    230a:	8ea5                	c.xor	a3,s1
    230c:	8f21                	c.xor	a4,s0
    230e:	0078c8b3          	xor	a7,a7,t2
    2312:	00564633          	xor	a2,a2,t0
    2316:	01f6c6b3          	xor	a3,a3,t6
    231a:	01d74733          	xor	a4,a4,t4
    231e:	01e8c8b3          	xor	a7,a7,t5
    2322:	01c64633          	xor	a2,a2,t3
    2326:	0066c6b3          	xor	a3,a3,t1
    232a:	8f29                	c.xor	a4,a0
    232c:	00875393          	srli	t2,a4,0x8
    2330:	0106df13          	srli	t5,a3,0x10
    2334:	0186541b          	srliw	s0,a2,0x18
    2338:	0088d293          	srli	t0,a7,0x8
    233c:	01075e93          	srli	t4,a4,0x10
    2340:	0186d51b          	srliw	a0,a3,0x18
    2344:	00865493          	srli	s1,a2,0x8
    2348:	0108df93          	srli	t6,a7,0x10
    234c:	01875c1b          	srliw	s8,a4,0x18
    2350:	0086da13          	srli	s4,a3,0x8
    2354:	0ff3f393          	andi	t2,t2,255
    2358:	0fff7f13          	andi	t5,t5,255
    235c:	2401                	c.addiw	s0,0
    235e:	0ff2f293          	andi	t0,t0,255
    2362:	0ffefe93          	andi	t4,t4,255
    2366:	2501                	c.addiw	a0,0
    2368:	0ff4f493          	andi	s1,s1,255
    236c:	0fffff93          	andi	t6,t6,255
    2370:	2c01                	c.addiw	s8,0
    2372:	0ff8f993          	andi	s3,a7,255
    2376:	0ff67913          	andi	s2,a2,255
    237a:	0ff6f693          	andi	a3,a3,255
    237e:	8241                	c.srli	a2,0x10
    2380:	10038393          	addi	t2,t2,256
    2384:	200f0f13          	addi	t5,t5,512
    2388:	30040413          	addi	s0,s0,768
    238c:	10028293          	addi	t0,t0,256
    2390:	200e8e93          	addi	t4,t4,512
    2394:	30050513          	addi	a0,a0,768
    2398:	10048493          	addi	s1,s1,256
    239c:	200f8f93          	addi	t6,t6,512
    23a0:	300c0c13          	addi	s8,s8,768
    23a4:	0ff77713          	andi	a4,a4,255
    23a8:	0ffa7a13          	andi	s4,s4,255
    23ac:	040e                	c.slli	s0,0x3
    23ae:	050e                	c.slli	a0,0x3
    23b0:	00369e13          	slli	t3,a3,0x3
    23b4:	070e                	c.slli	a4,0x3
    23b6:	0ff67313          	andi	t1,a2,255
    23ba:	098e                	c.slli	s3,0x3
    23bc:	038e                	c.slli	t2,0x3
    23be:	0f0e                	c.slli	t5,0x3
    23c0:	090e                	c.slli	s2,0x3
    23c2:	028e                	c.slli	t0,0x3
    23c4:	0e8e                	c.slli	t4,0x3
    23c6:	048e                	c.slli	s1,0x3
    23c8:	0f8e                	c.slli	t6,0x3
    23ca:	0c0e                	c.slli	s8,0x3
    23cc:	100a0a13          	addi	s4,s4,256
    23d0:	0188d89b          	srliw	a7,a7,0x18
    23d4:	00878633          	add	a2,a5,s0
    23d8:	00a786b3          	add	a3,a5,a0
    23dc:	00e78433          	add	s0,a5,a4
    23e0:	99be                	c.add	s3,a5
    23e2:	93be                	c.add	t2,a5
    23e4:	9f3e                	c.add	t5,a5
    23e6:	993e                	c.add	s2,a5
    23e8:	92be                	c.add	t0,a5
    23ea:	9ebe                	c.add	t4,a5
    23ec:	9e3e                	c.add	t3,a5
    23ee:	9c3e                	c.add	s8,a5
    23f0:	94be                	c.add	s1,a5
    23f2:	9fbe                	c.add	t6,a5
    23f4:	0a0e                	c.slli	s4,0x3
    23f6:	20030313          	addi	t1,t1,512
    23fa:	2881                	c.addiw	a7,0
    23fc:	0009bb83          	ld	s7,0(s3)
    2400:	00093b03          	ld	s6,0(s2)
    2404:	0003b983          	ld	s3,0(t2)
    2408:	0002b903          	ld	s2,0(t0)
    240c:	000f3383          	ld	t2,0(t5)
    2410:	000eb283          	ld	t0,0(t4)
    2414:	00063f03          	ld	t5,0(a2)
    2418:	0006be83          	ld	t4,0(a3)
    241c:	000e3a83          	ld	s5,0(t3)
    2420:	08083503          	ld	a0,128(a6)
    2424:	000c3e03          	ld	t3,0(s8)
    2428:	08883603          	ld	a2,136(a6)
    242c:	01478c33          	add	s8,a5,s4
    2430:	09083683          	ld	a3,144(a6)
    2434:	6084                	c.ld	s1,0(s1)
    2436:	000fbf83          	ld	t6,0(t6)
    243a:	09883703          	ld	a4,152(a6)
    243e:	030e                	c.slli	t1,0x3
    2440:	00043a03          	ld	s4,0(s0)
    2444:	30088893          	addi	a7,a7,768
    2448:	000c3403          	ld	s0,0(s8)
    244c:	933e                	c.add	t1,a5
    244e:	088e                	c.slli	a7,0x3
    2450:	00033303          	ld	t1,0(t1)
    2454:	98be                	c.add	a7,a5
    2456:	0008b883          	ld	a7,0(a7)
    245a:	01754533          	xor	a0,a0,s7
    245e:	01664633          	xor	a2,a2,s6
    2462:	0156c6b3          	xor	a3,a3,s5
    2466:	01474733          	xor	a4,a4,s4
    246a:	01354533          	xor	a0,a0,s3
    246e:	01264633          	xor	a2,a2,s2
    2472:	8ea5                	c.xor	a3,s1
    2474:	8f21                	c.xor	a4,s0
    2476:	00754533          	xor	a0,a0,t2
    247a:	00564633          	xor	a2,a2,t0
    247e:	01f6c6b3          	xor	a3,a3,t6
    2482:	00674733          	xor	a4,a4,t1
    2486:	01e54533          	xor	a0,a0,t5
    248a:	01d64633          	xor	a2,a2,t4
    248e:	01c6c6b3          	xor	a3,a3,t3
    2492:	01174733          	xor	a4,a4,a7
    2496:	00875293          	srli	t0,a4,0x8
    249a:	00855313          	srli	t1,a0,0x8
    249e:	00865493          	srli	s1,a2,0x8
    24a2:	0086d413          	srli	s0,a3,0x8
    24a6:	01075893          	srli	a7,a4,0x10
    24aa:	0ff57b93          	andi	s7,a0,255
    24ae:	0ff2f293          	andi	t0,t0,255
    24b2:	0106d393          	srli	t2,a3,0x10
    24b6:	0ff67b13          	andi	s6,a2,255
    24ba:	0ff37313          	andi	t1,t1,255
    24be:	0ff6fa93          	andi	s5,a3,255
    24c2:	01055f13          	srli	t5,a0,0x10
    24c6:	0ff77a13          	andi	s4,a4,255
    24ca:	01065f93          	srli	t6,a2,0x10
    24ce:	0ff4f493          	andi	s1,s1,255
    24d2:	0ff47413          	andi	s0,s0,255
    24d6:	0b8e                	c.slli	s7,0x3
    24d8:	10028993          	addi	s3,t0,256
    24dc:	01865e9b          	srliw	t4,a2,0x18
    24e0:	0b0e                	c.slli	s6,0x3
    24e2:	10030913          	addi	s2,t1,256
    24e6:	0ff8f293          	andi	t0,a7,255
    24ea:	0186de1b          	srliw	t3,a3,0x18
    24ee:	0187571b          	srliw	a4,a4,0x18
    24f2:	0185589b          	srliw	a7,a0,0x18
    24f6:	0ff3f393          	andi	t2,t2,255
    24fa:	0a8e                	c.slli	s5,0x3
    24fc:	10048493          	addi	s1,s1,256
    2500:	0fff7f13          	andi	t5,t5,255
    2504:	0a0e                	c.slli	s4,0x3
    2506:	10040413          	addi	s0,s0,256
    250a:	0fffff93          	andi	t6,t6,255
    250e:	01778633          	add	a2,a5,s7
    2512:	016786b3          	add	a3,a5,s6
    2516:	9abe                	c.add	s5,a5
    2518:	9a3e                	c.add	s4,a5
    251a:	0007031b          	addiw	t1,a4,0
    251e:	098e                	c.slli	s3,0x3
    2520:	20038393          	addi	t2,t2,512
    2524:	2e81                	c.addiw	t4,0
    2526:	090e                	c.slli	s2,0x3
    2528:	20028293          	addi	t0,t0,512
    252c:	2e01                	c.addiw	t3,0
    252e:	048e                	c.slli	s1,0x3
    2530:	200f0f13          	addi	t5,t5,512
    2534:	040e                	c.slli	s0,0x3
    2536:	200f8f93          	addi	t6,t6,512
    253a:	2881                	c.addiw	a7,0
    253c:	00063c03          	ld	s8,0(a2)
    2540:	0006bb83          	ld	s7,0(a3)
    2544:	000abb03          	ld	s6,0(s5)
    2548:	0a083503          	ld	a0,160(a6)
    254c:	000a3a83          	ld	s5,0(s4)
    2550:	0a883603          	ld	a2,168(a6)
    2554:	0b083683          	ld	a3,176(a6)
    2558:	0b883703          	ld	a4,184(a6)
    255c:	99be                	c.add	s3,a5
    255e:	993e                	c.add	s2,a5
    2560:	94be                	c.add	s1,a5
    2562:	943e                	c.add	s0,a5
    2564:	038e                	c.slli	t2,0x3
    2566:	300e8e93          	addi	t4,t4,768
    256a:	028e                	c.slli	t0,0x3
    256c:	300e0e13          	addi	t3,t3,768
    2570:	0f0e                	c.slli	t5,0x3
    2572:	30030313          	addi	t1,t1,768
    2576:	0f8e                	c.slli	t6,0x3
    2578:	30088893          	addi	a7,a7,768
    257c:	0009ba03          	ld	s4,0(s3)
    2580:	93be                	c.add	t2,a5
    2582:	00093983          	ld	s3,0(s2)
    2586:	92be                	c.add	t0,a5
    2588:	0004b903          	ld	s2,0(s1)
    258c:	9f3e                	c.add	t5,a5
    258e:	6004                	c.ld	s1,0(s0)
    2590:	9fbe                	c.add	t6,a5
    2592:	0e8e                	c.slli	t4,0x3
    2594:	0e0e                	c.slli	t3,0x3
    2596:	030e                	c.slli	t1,0x3
    2598:	088e                	c.slli	a7,0x3
    259a:	0003b403          	ld	s0,0(t2)
    259e:	000fbf83          	ld	t6,0(t6)
    25a2:	0002b383          	ld	t2,0(t0)
    25a6:	9ebe                	c.add	t4,a5
    25a8:	000f3283          	ld	t0,0(t5)
    25ac:	9e3e                	c.add	t3,a5
    25ae:	933e                	c.add	t1,a5
    25b0:	98be                	c.add	a7,a5
    25b2:	000ebf03          	ld	t5,0(t4)
    25b6:	01854533          	xor	a0,a0,s8
    25ba:	000e3e83          	ld	t4,0(t3)
    25be:	01764633          	xor	a2,a2,s7
    25c2:	00033e03          	ld	t3,0(t1)
    25c6:	0166c6b3          	xor	a3,a3,s6
    25ca:	0008b303          	ld	t1,0(a7)
    25ce:	01574733          	xor	a4,a4,s5
    25d2:	01454533          	xor	a0,a0,s4
    25d6:	01364633          	xor	a2,a2,s3
    25da:	0126c6b3          	xor	a3,a3,s2
    25de:	8f25                	c.xor	a4,s1
    25e0:	8d21                	c.xor	a0,s0
    25e2:	00764633          	xor	a2,a2,t2
    25e6:	0056c6b3          	xor	a3,a3,t0
    25ea:	01f74733          	xor	a4,a4,t6
    25ee:	01e54533          	xor	a0,a0,t5
    25f2:	00674733          	xor	a4,a4,t1
    25f6:	01d64633          	xor	a2,a2,t4
    25fa:	01c6c6b3          	xor	a3,a3,t3
    25fe:	00875e93          	srli	t4,a4,0x8
    2602:	0106de13          	srli	t3,a3,0x10
    2606:	0186531b          	srliw	t1,a2,0x18
    260a:	00855f93          	srli	t6,a0,0x8
    260e:	01075f13          	srli	t5,a4,0x10
    2612:	0fffff93          	andi	t6,t6,255
    2616:	0fff7f13          	andi	t5,t5,255
    261a:	00865c13          	srli	s8,a2,0x8
    261e:	0086d413          	srli	s0,a3,0x8
    2622:	0ffefe93          	andi	t4,t4,255
    2626:	0ffe7e13          	andi	t3,t3,255
    262a:	2301                	c.addiw	t1,0
    262c:	0ff57993          	andi	s3,a0,255
    2630:	200e0e13          	addi	t3,t3,512
    2634:	30030313          	addi	t1,t1,768
    2638:	0ff67b13          	andi	s6,a2,255
    263c:	100f8913          	addi	s2,t6,256
    2640:	200f0293          	addi	t0,t5,512
    2644:	0ff6fa93          	andi	s5,a3,255
    2648:	01055f93          	srli	t6,a0,0x10
    264c:	0ff77c93          	andi	s9,a4,255
    2650:	100e8e93          	addi	t4,t4,256
    2654:	0ffc7c13          	andi	s8,s8,255
    2658:	0ff47413          	andi	s0,s0,255
    265c:	8241                	c.srli	a2,0x10
    265e:	003e1393          	slli	t2,t3,0x3
    2662:	00331a13          	slli	s4,t1,0x3
    2666:	0186de1b          	srliw	t3,a3,0x18
    266a:	0187531b          	srliw	t1,a4,0x18
    266e:	0ff67613          	andi	a2,a2,255
    2672:	0185589b          	srliw	a7,a0,0x18
    2676:	098e                	c.slli	s3,0x3
    2678:	0e8e                	c.slli	t4,0x3
    267a:	0b0e                	c.slli	s6,0x3
    267c:	090e                	c.slli	s2,0x3
    267e:	028e                	c.slli	t0,0x3
    2680:	0a8e                	c.slli	s5,0x3
    2682:	100c0c13          	addi	s8,s8,256
    2686:	0fffff93          	andi	t6,t6,255
    268a:	0c8e                	c.slli	s9,0x3
    268c:	10040413          	addi	s0,s0,256
    2690:	99be                	c.add	s3,a5
    2692:	9ebe                	c.add	t4,a5
    2694:	9a3e                	c.add	s4,a5
    2696:	9cbe                	c.add	s9,a5
    2698:	20060493          	addi	s1,a2,512
    269c:	93be                	c.add	t2,a5
    269e:	9b3e                	c.add	s6,a5
    26a0:	993e                	c.add	s2,a5
    26a2:	92be                	c.add	t0,a5
    26a4:	9abe                	c.add	s5,a5
    26a6:	2e01                	c.addiw	t3,0
    26a8:	0c0e                	c.slli	s8,0x3
    26aa:	200f8f93          	addi	t6,t6,512
    26ae:	2301                	c.addiw	t1,0
    26b0:	040e                	c.slli	s0,0x3
    26b2:	2881                	c.addiw	a7,0
    26b4:	0009bb83          	ld	s7,0(s3)
    26b8:	0c083503          	ld	a0,192(a6)
    26bc:	000eb983          	ld	s3,0(t4)
    26c0:	0003b383          	ld	t2,0(t2)
    26c4:	000a3e83          	ld	t4,0(s4)
    26c8:	0c883603          	ld	a2,200(a6)
    26cc:	000b3b03          	ld	s6,0(s6)
    26d0:	00093903          	ld	s2,0(s2)
    26d4:	9c3e                	c.add	s8,a5
    26d6:	0002b283          	ld	t0,0(t0)
    26da:	943e                	c.add	s0,a5
    26dc:	000cba03          	ld	s4,0(s9)
    26e0:	0d083683          	ld	a3,208(a6)
    26e4:	000aba83          	ld	s5,0(s5)
    26e8:	0d883703          	ld	a4,216(a6)
    26ec:	00349f13          	slli	t5,s1,0x3
    26f0:	300e0e13          	addi	t3,t3,768
    26f4:	0f8e                	c.slli	t6,0x3
    26f6:	30030313          	addi	t1,t1,768
    26fa:	30088893          	addi	a7,a7,768
    26fe:	000c3483          	ld	s1,0(s8)
    2702:	6000                	c.ld	s0,0(s0)
    2704:	9fbe                	c.add	t6,a5
    2706:	9f3e                	c.add	t5,a5
    2708:	0e0e                	c.slli	t3,0x3
    270a:	030e                	c.slli	t1,0x3
    270c:	088e                	c.slli	a7,0x3
    270e:	000fbf83          	ld	t6,0(t6)
    2712:	000f3f03          	ld	t5,0(t5)
    2716:	9e3e                	c.add	t3,a5
    2718:	933e                	c.add	t1,a5
    271a:	98be                	c.add	a7,a5
    271c:	000e3e03          	ld	t3,0(t3)
    2720:	00033303          	ld	t1,0(t1)
    2724:	0008b883          	ld	a7,0(a7)
    2728:	01754533          	xor	a0,a0,s7
    272c:	01664633          	xor	a2,a2,s6
    2730:	0156c6b3          	xor	a3,a3,s5
    2734:	01474733          	xor	a4,a4,s4
    2738:	01354533          	xor	a0,a0,s3
    273c:	01264633          	xor	a2,a2,s2
    2740:	8ea5                	c.xor	a3,s1
    2742:	8f21                	c.xor	a4,s0
    2744:	00754533          	xor	a0,a0,t2
    2748:	00564633          	xor	a2,a2,t0
    274c:	01f6c6b3          	xor	a3,a3,t6
    2750:	01e74733          	xor	a4,a4,t5
    2754:	01c64633          	xor	a2,a2,t3
    2758:	0066c6b3          	xor	a3,a3,t1
    275c:	01174733          	xor	a4,a4,a7
    2760:	01d54533          	xor	a0,a0,t4
    2764:	00875313          	srli	t1,a4,0x8
    2768:	00855893          	srli	a7,a0,0x8
    276c:	00865493          	srli	s1,a2,0x8
    2770:	0086d413          	srli	s0,a3,0x8
    2774:	0ff57b93          	andi	s7,a0,255
    2778:	0106d393          	srli	t2,a3,0x10
    277c:	0ff67b13          	andi	s6,a2,255
    2780:	0ff8f893          	andi	a7,a7,255
    2784:	01075293          	srli	t0,a4,0x10
    2788:	0ff6fa93          	andi	s5,a3,255
    278c:	01055e93          	srli	t4,a0,0x10
    2790:	0ff77a13          	andi	s4,a4,255
    2794:	01065f13          	srli	t5,a2,0x10
    2798:	0ff37313          	andi	t1,t1,255
    279c:	0ff4f493          	andi	s1,s1,255
    27a0:	0ff47413          	andi	s0,s0,255
    27a4:	10030313          	addi	t1,t1,256
    27a8:	0186561b          	srliw	a2,a2,0x18
    27ac:	10088913          	addi	s2,a7,256
    27b0:	0186d69b          	srliw	a3,a3,0x18
    27b4:	0187571b          	srliw	a4,a4,0x18
    27b8:	0185551b          	srliw	a0,a0,0x18
    27bc:	0b8e                	c.slli	s7,0x3
    27be:	0ff3f393          	andi	t2,t2,255
    27c2:	0b0e                	c.slli	s6,0x3
    27c4:	0ff2f293          	andi	t0,t0,255
    27c8:	0a8e                	c.slli	s5,0x3
    27ca:	10048493          	addi	s1,s1,256
    27ce:	0ffefe93          	andi	t4,t4,255
    27d2:	0a0e                	c.slli	s4,0x3
    27d4:	10040413          	addi	s0,s0,256
    27d8:	0fff7f13          	andi	t5,t5,255
    27dc:	9bbe                	c.add	s7,a5
    27de:	00331993          	slli	s3,t1,0x3
    27e2:	00060e1b          	addiw	t3,a2,0
    27e6:	9b3e                	c.add	s6,a5
    27e8:	0006831b          	addiw	t1,a3,0
    27ec:	9abe                	c.add	s5,a5
    27ee:	00070f9b          	addiw	t6,a4,0
    27f2:	9a3e                	c.add	s4,a5
    27f4:	0005089b          	addiw	a7,a0,0
    27f8:	20038393          	addi	t2,t2,512
    27fc:	090e                	c.slli	s2,0x3
    27fe:	20028293          	addi	t0,t0,512
    2802:	048e                	c.slli	s1,0x3
    2804:	200e8e93          	addi	t4,t4,512
    2808:	040e                	c.slli	s0,0x3
    280a:	200f0f13          	addi	t5,t5,512
    280e:	0e083503          	ld	a0,224(a6)
    2812:	000bbb83          	ld	s7,0(s7)
    2816:	0e883603          	ld	a2,232(a6)
    281a:	000b3b03          	ld	s6,0(s6)
    281e:	0f083683          	ld	a3,240(a6)
    2822:	000aba83          	ld	s5,0(s5)
    2826:	0f883703          	ld	a4,248(a6)
    282a:	000a3a03          	ld	s4,0(s4)
    282e:	99be                	c.add	s3,a5
    2830:	993e                	c.add	s2,a5
    2832:	94be                	c.add	s1,a5
    2834:	300f8f93          	addi	t6,t6,768
    2838:	943e                	c.add	s0,a5
    283a:	038e                	c.slli	t2,0x3
    283c:	300e0e13          	addi	t3,t3,768
    2840:	028e                	c.slli	t0,0x3
    2842:	30030313          	addi	t1,t1,768
    2846:	0e8e                	c.slli	t4,0x3
    2848:	0f0e                	c.slli	t5,0x3
    284a:	30088893          	addi	a7,a7,768
    284e:	0009b983          	ld	s3,0(s3)
    2852:	00093903          	ld	s2,0(s2)
    2856:	6084                	c.ld	s1,0(s1)
    2858:	6000                	c.ld	s0,0(s0)
    285a:	9ebe                	c.add	t4,a5
    285c:	003f9c13          	slli	s8,t6,0x3
    2860:	93be                	c.add	t2,a5
    2862:	0e0e                	c.slli	t3,0x3
    2864:	92be                	c.add	t0,a5
    2866:	030e                	c.slli	t1,0x3
    2868:	9f3e                	c.add	t5,a5
    286a:	088e                	c.slli	a7,0x3
    286c:	000ebf83          	ld	t6,0(t4)
    2870:	0003b383          	ld	t2,0(t2)
    2874:	0002b283          	ld	t0,0(t0)
    2878:	000f3f03          	ld	t5,0(t5)
    287c:	01c78eb3          	add	t4,a5,t3
    2880:	98be                	c.add	a7,a5
    2882:	00678e33          	add	t3,a5,t1
    2886:	01878333          	add	t1,a5,s8
    288a:	000ebe83          	ld	t4,0(t4)
    288e:	000e3e03          	ld	t3,0(t3)
    2892:	00033303          	ld	t1,0(t1)
    2896:	0008b883          	ld	a7,0(a7)
    289a:	01754533          	xor	a0,a0,s7
    289e:	01664633          	xor	a2,a2,s6
    28a2:	0156c6b3          	xor	a3,a3,s5
    28a6:	01474733          	xor	a4,a4,s4
    28aa:	01354533          	xor	a0,a0,s3
    28ae:	01264633          	xor	a2,a2,s2
    28b2:	8ea5                	c.xor	a3,s1
    28b4:	8f21                	c.xor	a4,s0
    28b6:	00754533          	xor	a0,a0,t2
    28ba:	00564633          	xor	a2,a2,t0
    28be:	01f6c6b3          	xor	a3,a3,t6
    28c2:	01e74733          	xor	a4,a4,t5
    28c6:	01d54533          	xor	a0,a0,t4
    28ca:	0066c6b3          	xor	a3,a3,t1
    28ce:	01174733          	xor	a4,a4,a7
    28d2:	01c64633          	xor	a2,a2,t3
    28d6:	00875313          	srli	t1,a4,0x8
    28da:	00855893          	srli	a7,a0,0x8
    28de:	00865413          	srli	s0,a2,0x8
    28e2:	0086d393          	srli	t2,a3,0x8
    28e6:	0ff6ff13          	andi	t5,a3,255
    28ea:	0ff77a93          	andi	s5,a4,255
    28ee:	0ff57a13          	andi	s4,a0,255
    28f2:	0ff37313          	andi	t1,t1,255
    28f6:	0106d293          	srli	t0,a3,0x10
    28fa:	0ff67e13          	andi	t3,a2,255
    28fe:	0ff8f893          	andi	a7,a7,255
    2902:	01075c93          	srli	s9,a4,0x10
    2906:	01055993          	srli	s3,a0,0x10
    290a:	01065e93          	srli	t4,a2,0x10
    290e:	0ff47413          	andi	s0,s0,255
    2912:	0ff3f393          	andi	t2,t2,255
    2916:	10030913          	addi	s2,t1,256
    291a:	0186561b          	srliw	a2,a2,0x18
    291e:	10088493          	addi	s1,a7,256
    2922:	0186d69b          	srliw	a3,a3,0x18
    2926:	003f1313          	slli	t1,t5,0x3
    292a:	0187571b          	srliw	a4,a4,0x18
    292e:	003a9893          	slli	a7,s5,0x3
    2932:	01855c1b          	srliw	s8,a0,0x18
    2936:	0a0e                	c.slli	s4,0x3
    2938:	0ff2f293          	andi	t0,t0,255
    293c:	0e0e                	c.slli	t3,0x3
    293e:	0ffcfc93          	andi	s9,s9,255
    2942:	10040413          	addi	s0,s0,256
    2946:	0ff9f993          	andi	s3,s3,255
    294a:	10038393          	addi	t2,t2,256
    294e:	0ffefe93          	andi	t4,t4,255
    2952:	9a3e                	c.add	s4,a5
    2954:	00060f9b          	addiw	t6,a2,0
    2958:	9e3e                	c.add	t3,a5
    295a:	00068f1b          	addiw	t5,a3,0
    295e:	933e                	c.add	t1,a5
    2960:	98be                	c.add	a7,a5
    2962:	20098993          	addi	s3,s3,512
    2966:	0007051b          	addiw	a0,a4,0
    296a:	090e                	c.slli	s2,0x3
    296c:	20028293          	addi	t0,t0,512
    2970:	048e                	c.slli	s1,0x3
    2972:	200c8c93          	addi	s9,s9,512
    2976:	040e                	c.slli	s0,0x3
    2978:	038e                	c.slli	t2,0x3
    297a:	200e8e93          	addi	t4,t4,512
    297e:	2c01                	c.addiw	s8,0
    2980:	10083603          	ld	a2,256(a6)
    2984:	993e                	c.add	s2,a5
    2986:	000a3b83          	ld	s7,0(s4)
    298a:	000e3b03          	ld	s6,0(t3)
    298e:	00033a83          	ld	s5,0(t1)
    2992:	11883e03          	ld	t3,280(a6)
    2996:	0008ba03          	ld	s4,0(a7)
    299a:	10883683          	ld	a3,264(a6)
    299e:	11083703          	ld	a4,272(a6)
    29a2:	94be                	c.add	s1,a5
    29a4:	943e                	c.add	s0,a5
    29a6:	93be                	c.add	t2,a5
    29a8:	300f8313          	addi	t1,t6,768
    29ac:	300f0893          	addi	a7,t5,768
    29b0:	028e                	c.slli	t0,0x3
    29b2:	00399f13          	slli	t5,s3,0x3
    29b6:	003c9f93          	slli	t6,s9,0x3
    29ba:	30050513          	addi	a0,a0,768
    29be:	0e8e                	c.slli	t4,0x3
    29c0:	300c0c13          	addi	s8,s8,768
    29c4:	00093983          	ld	s3,0(s2)
    29c8:	92be                	c.add	t0,a5
    29ca:	0004b903          	ld	s2,0(s1)
    29ce:	9fbe                	c.add	t6,a5
    29d0:	6004                	c.ld	s1,0(s0)
    29d2:	9f3e                	c.add	t5,a5
    29d4:	0003b403          	ld	s0,0(t2)
    29d8:	9ebe                	c.add	t4,a5
    29da:	0c0e                	c.slli	s8,0x3
    29dc:	030e                	c.slli	t1,0x3
    29de:	088e                	c.slli	a7,0x3
    29e0:	050e                	c.slli	a0,0x3
    29e2:	0002b383          	ld	t2,0(t0)
    29e6:	98be                	c.add	a7,a5
    29e8:	000fb283          	ld	t0,0(t6)
    29ec:	953e                	c.add	a0,a5
    29ee:	000f3f83          	ld	t6,0(t5)
    29f2:	933e                	c.add	t1,a5
    29f4:	000ebf03          	ld	t5,0(t4)
    29f8:	97e2                	c.add	a5,s8
    29fa:	0008be83          	ld	t4,0(a7)
    29fe:	00033303          	ld	t1,0(t1)
    2a02:	00053883          	ld	a7,0(a0)
    2a06:	01764633          	xor	a2,a2,s7
    2a0a:	6388                	c.ld	a0,0(a5)
    2a0c:	0166c6b3          	xor	a3,a3,s6
    2a10:	014e47b3          	xor	a5,t3,s4
    2a14:	01574733          	xor	a4,a4,s5
    2a18:	01364633          	xor	a2,a2,s3
    2a1c:	0126c6b3          	xor	a3,a3,s2
    2a20:	8f25                	c.xor	a4,s1
    2a22:	8fa1                	c.xor	a5,s0
    2a24:	00764633          	xor	a2,a2,t2
    2a28:	0056c6b3          	xor	a3,a3,t0
    2a2c:	01f74733          	xor	a4,a4,t6
    2a30:	01e7c7b3          	xor	a5,a5,t5
    2a34:	00664333          	xor	t1,a2,t1
    2a38:	01d6c6b3          	xor	a3,a3,t4
    2a3c:	01174733          	xor	a4,a4,a7
    2a40:	8fa9                	c.xor	a5,a0
    2a42:	0087df93          	srli	t6,a5,0x8
    2a46:	01075e13          	srli	t3,a4,0x10
    2a4a:	0186da1b          	srliw	s4,a3,0x18
    2a4e:	00835413          	srli	s0,t1,0x8
    2a52:	0107df13          	srli	t5,a5,0x10
    2a56:	01875e9b          	srliw	t4,a4,0x18
    2a5a:	0086d393          	srli	t2,a3,0x8
    2a5e:	00875b93          	srli	s7,a4,0x8
    2a62:	0fffff93          	andi	t6,t6,255
    2a66:	0ffe7e13          	andi	t3,t3,255
    2a6a:	2a01                	c.addiw	s4,0
    2a6c:	0ff47413          	andi	s0,s0,255
    2a70:	0fff7f13          	andi	t5,t5,255
    2a74:	2e81                	c.addiw	t4,0
    2a76:	0ff3f393          	andi	t2,t2,255
    2a7a:	0ff37493          	andi	s1,t1,255
    2a7e:	0ff6f993          	andi	s3,a3,255
    2a82:	0ff77713          	andi	a4,a4,255
    2a86:	01035293          	srli	t0,t1,0x10
    2a8a:	0ff7f913          	andi	s2,a5,255
    2a8e:	82c1                	c.srli	a3,0x10
    2a90:	00000637          	lui	a2,0x0
    2a94:	100f8f93          	addi	t6,t6,256
    2a98:	200e0e13          	addi	t3,t3,512
    2a9c:	300a0a13          	addi	s4,s4,768
    2aa0:	10040413          	addi	s0,s0,256
    2aa4:	200f0f13          	addi	t5,t5,512
    2aa8:	300e8e93          	addi	t4,t4,768
    2aac:	10038393          	addi	t2,t2,256
    2ab0:	0ffbfb93          	andi	s7,s7,255
    2ab4:	00060b13          	addi	s6,a2,0 # 0 <set_key>
    2ab8:	0a0e                	c.slli	s4,0x3
    2aba:	0e8e                	c.slli	t4,0x3
    2abc:	00371513          	slli	a0,a4,0x3
    2ac0:	0187d79b          	srliw	a5,a5,0x18
    2ac4:	0ff6f893          	andi	a7,a3,255
    2ac8:	0183561b          	srliw	a2,t1,0x18
    2acc:	048e                	c.slli	s1,0x3
    2ace:	0f8e                	c.slli	t6,0x3
    2ad0:	0e0e                	c.slli	t3,0x3
    2ad2:	098e                	c.slli	s3,0x3
    2ad4:	040e                	c.slli	s0,0x3
    2ad6:	0f0e                	c.slli	t5,0x3
    2ad8:	038e                	c.slli	t2,0x3
    2ada:	0ff2f293          	andi	t0,t0,255
    2ade:	090e                	c.slli	s2,0x3
    2ae0:	100b8b93          	addi	s7,s7,256
    2ae4:	016a06b3          	add	a3,s4,s6
    2ae8:	94da                	c.add	s1,s6
    2aea:	9fda                	c.add	t6,s6
    2aec:	9e5a                	c.add	t3,s6
    2aee:	99da                	c.add	s3,s6
    2af0:	016e8333          	add	t1,t4,s6
    2af4:	955a                	c.add	a0,s6
    2af6:	00078e9b          	addiw	t4,a5,0
    2afa:	945a                	c.add	s0,s6
    2afc:	9f5a                	c.add	t5,s6
    2afe:	93da                	c.add	t2,s6
    2b00:	20028293          	addi	t0,t0,512
    2b04:	995a                	c.add	s2,s6
    2b06:	0b8e                	c.slli	s7,0x3
    2b08:	20088893          	addi	a7,a7,512
    2b0c:	2601                	c.addiw	a2,0
    2b0e:	12083703          	ld	a4,288(a6)
    2b12:	0004ba83          	ld	s5,0(s1)
    2b16:	0009ba03          	ld	s4,0(s3)
    2b1a:	000fb483          	ld	s1,0(t6)
    2b1e:	00033303          	ld	t1,0(t1)
    2b22:	000e3f83          	ld	t6,0(t3)
    2b26:	13083783          	ld	a5,304(a6)
    2b2a:	0006be03          	ld	t3,0(a3)
    2b2e:	00053983          	ld	s3,0(a0)
    2b32:	12883683          	ld	a3,296(a6)
    2b36:	6000                	c.ld	s0,0(s0)
    2b38:	000f3f03          	ld	t5,0(t5)
    2b3c:	028e                	c.slli	t0,0x3
    2b3e:	0003b383          	ld	t2,0(t2)
    2b42:	300e8e93          	addi	t4,t4,768
    2b46:	13883503          	ld	a0,312(a6)
    2b4a:	00093903          	ld	s2,0(s2)
    2b4e:	9bda                	c.add	s7,s6
    2b50:	088e                	c.slli	a7,0x3
    2b52:	30060613          	addi	a2,a2,768
    2b56:	01628c33          	add	s8,t0,s6
    2b5a:	003e9813          	slli	a6,t4,0x3
    2b5e:	000bb283          	ld	t0,0(s7)
    2b62:	98da                	c.add	a7,s6
    2b64:	060e                	c.slli	a2,0x3
    2b66:	000c3e83          	ld	t4,0(s8)
    2b6a:	985a                	c.add	a6,s6
    2b6c:	0008b883          	ld	a7,0(a7)
    2b70:	965a                	c.add	a2,s6
    2b72:	01254533          	xor	a0,a0,s2
    2b76:	01574733          	xor	a4,a4,s5
    2b7a:	0146c6b3          	xor	a3,a3,s4
    2b7e:	0137c7b3          	xor	a5,a5,s3
    2b82:	00083803          	ld	a6,0(a6)
    2b86:	00063903          	ld	s2,0(a2)
    2b8a:	8f25                	c.xor	a4,s1
    2b8c:	8ea1                	c.xor	a3,s0
    2b8e:	0077c7b3          	xor	a5,a5,t2
    2b92:	00554533          	xor	a0,a0,t0
    2b96:	01f74733          	xor	a4,a4,t6
    2b9a:	01e6c6b3          	xor	a3,a3,t5
    2b9e:	01d7c7b3          	xor	a5,a5,t4
    2ba2:	01154533          	xor	a0,a0,a7
    2ba6:	0066c6b3          	xor	a3,a3,t1
    2baa:	01c74733          	xor	a4,a4,t3
    2bae:	0107c333          	xor	t1,a5,a6
    2bb2:	01254533          	xor	a0,a0,s2
    2bb6:	eaffe06f          	jal	zero,1a64 <.L49>

0000000000002bba <.L60>:
    2bba:	0017c977          	0x17c977
    2bbe:	000007b7          	lui	a5,0x0
    2bc2:	00078793          	addi	a5,a5,0 # 0 <set_key>
    2bc6:	9b6ff06f          	jal	zero,1d7c <.L52>

0000000000002bca <.L51>:
    2bca:	09d26977          	0x9d26977
    2bce:	00855413          	srli	s0,a0,0x8
    2bd2:	00875393          	srli	t2,a4,0x8
    2bd6:	0086d293          	srli	t0,a3,0x8
    2bda:	00835f93          	srli	t6,t1,0x8
    2bde:	0ff77f13          	andi	t5,a4,255
    2be2:	01035d93          	srli	s11,t1,0x10
    2be6:	0ff6fe93          	andi	t4,a3,255
    2bea:	01055d13          	srli	s10,a0,0x10
    2bee:	0ff37e13          	andi	t3,t1,255
    2bf2:	01075c93          	srli	s9,a4,0x10
    2bf6:	0ff57893          	andi	a7,a0,255
    2bfa:	0106dc13          	srli	s8,a3,0x10
    2bfe:	0ff47413          	andi	s0,s0,255
    2c02:	0ff3f393          	andi	t2,t2,255
    2c06:	0ff2f293          	andi	t0,t0,255
    2c0a:	0fffff93          	andi	t6,t6,255
    2c0e:	000007b7          	lui	a5,0x0
    2c12:	00078793          	addi	a5,a5,0 # 0 <set_key>
    2c16:	0186d69b          	srliw	a3,a3,0x18
    2c1a:	0185551b          	srliw	a0,a0,0x18
    2c1e:	0187571b          	srliw	a4,a4,0x18
    2c22:	0183531b          	srliw	t1,t1,0x18
    2c26:	0f0e                	c.slli	t5,0x3
    2c28:	10040413          	addi	s0,s0,256
    2c2c:	0ffdfd93          	andi	s11,s11,255
    2c30:	0e8e                	c.slli	t4,0x3
    2c32:	10038393          	addi	t2,t2,256
    2c36:	0ffd7d13          	andi	s10,s10,255
    2c3a:	0e0e                	c.slli	t3,0x3
    2c3c:	10028293          	addi	t0,t0,256
    2c40:	0ffcfc93          	andi	s9,s9,255
    2c44:	088e                	c.slli	a7,0x3
    2c46:	100f8f93          	addi	t6,t6,256
    2c4a:	0ffc7c13          	andi	s8,s8,255
    2c4e:	0006899b          	addiw	s3,a3,0
    2c52:	0005091b          	addiw	s2,a0,0
    2c56:	0007049b          	addiw	s1,a4,0
    2c5a:	9f3e                	c.add	t5,a5
    2c5c:	9ebe                	c.add	t4,a5
    2c5e:	9e3e                	c.add	t3,a5
    2c60:	98be                	c.add	a7,a5
    2c62:	040e                	c.slli	s0,0x3
    2c64:	200d8d93          	addi	s11,s11,512
    2c68:	038e                	c.slli	t2,0x3
    2c6a:	200d0d13          	addi	s10,s10,512
    2c6e:	2301                	c.addiw	t1,0
    2c70:	028e                	c.slli	t0,0x3
    2c72:	200c8c93          	addi	s9,s9,512
    2c76:	0f8e                	c.slli	t6,0x3
    2c78:	200c0c13          	addi	s8,s8,512
    2c7c:	000f3b83          	ld	s7,0(t5)
    2c80:	000ebb03          	ld	s6,0(t4)
    2c84:	000e3a83          	ld	s5,0(t3)
    2c88:	0008ba03          	ld	s4,0(a7)
    2c8c:	23063803          	ld	a6,560(a2)
    2c90:	23863503          	ld	a0,568(a2)
    2c94:	24063703          	ld	a4,576(a2)
    2c98:	24863683          	ld	a3,584(a2)
    2c9c:	943e                	c.add	s0,a5
    2c9e:	30098e93          	addi	t4,s3,768
    2ca2:	93be                	c.add	t2,a5
    2ca4:	92be                	c.add	t0,a5
    2ca6:	30090e13          	addi	t3,s2,768
    2caa:	9fbe                	c.add	t6,a5
    2cac:	30048893          	addi	a7,s1,768
    2cb0:	0d8e                	c.slli	s11,0x3
    2cb2:	0d0e                	c.slli	s10,0x3
    2cb4:	30030313          	addi	t1,t1,768
    2cb8:	0c8e                	c.slli	s9,0x3
    2cba:	0c0e                	c.slli	s8,0x3
    2cbc:	00043983          	ld	s3,0(s0)
    2cc0:	0003b903          	ld	s2,0(t2)
    2cc4:	0002b483          	ld	s1,0(t0)
    2cc8:	000fb403          	ld	s0,0(t6)
    2ccc:	0e0e                	c.slli	t3,0x3
    2cce:	9c3e                	c.add	s8,a5
    2cd0:	9dbe                	c.add	s11,a5
    2cd2:	0e8e                	c.slli	t4,0x3
    2cd4:	9d3e                	c.add	s10,a5
    2cd6:	030e                	c.slli	t1,0x3
    2cd8:	9cbe                	c.add	s9,a5
    2cda:	088e                	c.slli	a7,0x3
    2cdc:	000c3f03          	ld	t5,0(s8)
    2ce0:	000db383          	ld	t2,0(s11)
    2ce4:	000d3283          	ld	t0,0(s10)
    2ce8:	000cbf83          	ld	t6,0(s9)
    2cec:	01c78c33          	add	s8,a5,t3
    2cf0:	933e                	c.add	t1,a5
    2cf2:	9ebe                	c.add	t4,a5
    2cf4:	98be                	c.add	a7,a5
    2cf6:	00033e03          	ld	t3,0(t1)
    2cfa:	000ebe83          	ld	t4,0(t4)
    2cfe:	000c3303          	ld	t1,0(s8)
    2d02:	0008b883          	ld	a7,0(a7)
    2d06:	01784833          	xor	a6,a6,s7
    2d0a:	01654533          	xor	a0,a0,s6
    2d0e:	01574733          	xor	a4,a4,s5
    2d12:	0146c6b3          	xor	a3,a3,s4
    2d16:	01384833          	xor	a6,a6,s3
    2d1a:	01254533          	xor	a0,a0,s2
    2d1e:	8f25                	c.xor	a4,s1
    2d20:	8ea1                	c.xor	a3,s0
    2d22:	00784833          	xor	a6,a6,t2
    2d26:	00554533          	xor	a0,a0,t0
    2d2a:	01f74733          	xor	a4,a4,t6
    2d2e:	01e6c6b3          	xor	a3,a3,t5
    2d32:	01d84833          	xor	a6,a6,t4
    2d36:	01c54533          	xor	a0,a0,t3
    2d3a:	0116c6b3          	xor	a3,a3,a7
    2d3e:	00674733          	xor	a4,a4,t1
    2d42:	0086da13          	srli	s4,a3,0x8
    2d46:	01075493          	srli	s1,a4,0x10
    2d4a:	0185539b          	srliw	t2,a0,0x18
    2d4e:	00885413          	srli	s0,a6,0x8
    2d52:	0106d293          	srli	t0,a3,0x10
    2d56:	0187531b          	srliw	t1,a4,0x18
    2d5a:	00855913          	srli	s2,a0,0x8
    2d5e:	00875f93          	srli	t6,a4,0x8
    2d62:	0ffa7a13          	andi	s4,s4,255
    2d66:	0ff4f493          	andi	s1,s1,255
    2d6a:	2381                	c.addiw	t2,0
    2d6c:	0ff47413          	andi	s0,s0,255
    2d70:	0ff2f293          	andi	t0,t0,255
    2d74:	2301                	c.addiw	t1,0
    2d76:	0ff97913          	andi	s2,s2,255
    2d7a:	0ff87b13          	andi	s6,a6,255
    2d7e:	0ff57993          	andi	s3,a0,255
    2d82:	01085f13          	srli	t5,a6,0x10
    2d86:	0ff6fa93          	andi	s5,a3,255
    2d8a:	100a0a13          	addi	s4,s4,256
    2d8e:	20048493          	addi	s1,s1,512
    2d92:	30038393          	addi	t2,t2,768
    2d96:	10040413          	addi	s0,s0,256
    2d9a:	20028293          	addi	t0,t0,512
    2d9e:	30030313          	addi	t1,t1,768
    2da2:	0ff77713          	andi	a4,a4,255
    2da6:	10090913          	addi	s2,s2,256
    2daa:	0fffff93          	andi	t6,t6,255
    2dae:	8141                	c.srli	a0,0x10
    2db0:	070e                	c.slli	a4,0x3
    2db2:	0186d69b          	srliw	a3,a3,0x18
    2db6:	0ff57513          	andi	a0,a0,255
    2dba:	0b0e                	c.slli	s6,0x3
    2dbc:	0a0e                	c.slli	s4,0x3
    2dbe:	048e                	c.slli	s1,0x3
    2dc0:	038e                	c.slli	t2,0x3
    2dc2:	098e                	c.slli	s3,0x3
    2dc4:	040e                	c.slli	s0,0x3
    2dc6:	028e                	c.slli	t0,0x3
    2dc8:	030e                	c.slli	t1,0x3
    2dca:	090e                	c.slli	s2,0x3
    2dcc:	0fff7f13          	andi	t5,t5,255
    2dd0:	0a8e                	c.slli	s5,0x3
    2dd2:	100f8f93          	addi	t6,t6,256
    2dd6:	0188581b          	srliw	a6,a6,0x18
    2dda:	00e78eb3          	add	t4,a5,a4
    2dde:	9b3e                	c.add	s6,a5
    2de0:	99be                	c.add	s3,a5
    2de2:	943e                	c.add	s0,a5
    2de4:	92be                	c.add	t0,a5
    2de6:	933e                	c.add	t1,a5
    2de8:	0006889b          	addiw	a7,a3,0
    2dec:	20050e13          	addi	t3,a0,512
    2df0:	9a3e                	c.add	s4,a5
    2df2:	94be                	c.add	s1,a5
    2df4:	93be                	c.add	t2,a5
    2df6:	993e                	c.add	s2,a5
    2df8:	200f0f13          	addi	t5,t5,512
    2dfc:	9abe                	c.add	s5,a5
    2dfe:	0f8e                	c.slli	t6,0x3
    2e00:	2801                	c.addiw	a6,0
    2e02:	000b3c03          	ld	s8,0(s6)
    2e06:	0009bb83          	ld	s7,0(s3)
    2e0a:	000ebb03          	ld	s6,0(t4)
    2e0e:	00043983          	ld	s3,0(s0)
    2e12:	25063703          	ld	a4,592(a2)
    2e16:	0002b403          	ld	s0,0(t0)
    2e1a:	000a3a03          	ld	s4,0(s4)
    2e1e:	00033283          	ld	t0,0(t1)
    2e22:	6084                	c.ld	s1,0(s1)
    2e24:	0003b383          	ld	t2,0(t2)
    2e28:	25863683          	ld	a3,600(a2)
    2e2c:	26063303          	ld	t1,608(a2)
    2e30:	0e0e                	c.slli	t3,0x3
    2e32:	00093903          	ld	s2,0(s2)
    2e36:	30080813          	addi	a6,a6,768
    2e3a:	0f0e                	c.slli	t5,0x3
    2e3c:	30088893          	addi	a7,a7,768
    2e40:	26863503          	ld	a0,616(a2)
    2e44:	000aba83          	ld	s5,0(s5)
    2e48:	9fbe                	c.add	t6,a5
    2e4a:	01c78eb3          	add	t4,a5,t3
    2e4e:	9f3e                	c.add	t5,a5
    2e50:	00381e13          	slli	t3,a6,0x3
    2e54:	088e                	c.slli	a7,0x3
    2e56:	000fbf83          	ld	t6,0(t6)
    2e5a:	98be                	c.add	a7,a5
    2e5c:	9e3e                	c.add	t3,a5
    2e5e:	000f3f03          	ld	t5,0(t5)
    2e62:	000ebe83          	ld	t4,0(t4)
    2e66:	0008b803          	ld	a6,0(a7)
    2e6a:	01874733          	xor	a4,a4,s8
    2e6e:	000e3883          	ld	a7,0(t3)
    2e72:	0176c6b3          	xor	a3,a3,s7
    2e76:	01634333          	xor	t1,t1,s6
    2e7a:	01554533          	xor	a0,a0,s5
    2e7e:	01474733          	xor	a4,a4,s4
    2e82:	0136c6b3          	xor	a3,a3,s3
    2e86:	01234333          	xor	t1,t1,s2
    2e8a:	01f54533          	xor	a0,a0,t6
    2e8e:	8f25                	c.xor	a4,s1
    2e90:	8ea1                	c.xor	a3,s0
    2e92:	01e34333          	xor	t1,t1,t5
    2e96:	01d54533          	xor	a0,a0,t4
    2e9a:	01034333          	xor	t1,t1,a6
    2e9e:	27063e03          	ld	t3,624(a2)
    2ea2:	00774733          	xor	a4,a4,t2
    2ea6:	0056c6b3          	xor	a3,a3,t0
    2eaa:	01154533          	xor	a0,a0,a7
    2eae:	27060813          	addi	a6,a2,624
    2eb2:	c03fe06f          	jal	zero,1ab4 <.L53>
