
modified_aes.o:     file format elf64-littleriscv


Disassembly of section .text:

0000000000000000 <set_key>:
       0:	0ff0d073          	csrrwi	zero,0xff,1
       4:	06982977          	0x6982977
       8:	0075f793          	andi	a5,a1,7
       c:	e795                	c.bnez	a5,38 <.L2>
       e:	00d11977          	0xd11977
      12:	ff058793          	addi	a5,a1,-16
      16:	4741                	c.li	a4,16
      18:	02f77b63          	bgeu	a4,a5,4e <.L31>
      1c:	09866977          	0x9866977
      20:	ed81                	c.bnez	a1,38 <.L2>
      22:	0a45c977          	0xa45c977
      26:	6288                	c.ld	a0,0(a3)
      28:	050a                	c.slli	a0,0x2
      2a:	0105151b          	slliw	a0,a0,0x10
      2e:	4105551b          	sraiw	a0,a0,0x10
      32:	0ff05073          	csrrwi	zero,0xff,0
      36:	8082                	c.jr	ra

0000000000000038 <.L2>:
      38:	04778977          	0x4778977
      3c:	4106c783          	lbu	a5,1040(a3)
      40:	4501                	c.li	a0,0
      42:	9bf1                	c.andi	a5,-4
      44:	40f68823          	sb	a5,1040(a3)
      48:	0ff05073          	csrrwi	zero,0xff,0
      4c:	8082                	c.jr	ra

000000000000004e <.L31>:
      4e:	080c0977          	0x80c0977
      52:	8a0d                	c.andi	a2,3
      54:	d275                	c.beqz	a2,38 <.L2>
      56:	0ec26977          	0xec26977
      5a:	4106c883          	lbu	a7,1040(a3)
      5e:	8189                	c.srli	a1,0x2
      60:	00658793          	addi	a5,a1,6
      64:	ffc8f893          	andi	a7,a7,-4
      68:	00c8e8b3          	or	a7,a7,a2
      6c:	e69c                	c.sd	a5,8(a3)
      6e:	41168823          	sb	a7,1040(a3)
      72:	e28c                	c.sd	a1,0(a3)
      74:	6118                	c.ld	a4,0(a0)
      76:	00758e93          	addi	t4,a1,7
      7a:	0e8a                	c.slli	t4,0x2
      7c:	ea98                	c.sd	a4,16(a3)
      7e:	00453303          	ld	t1,4(a0)
      82:	1101                	c.addi	sp,-32
      84:	40be8eb3          	sub	t4,t4,a1
      88:	0066bc23          	sd	t1,24(a3)
      8c:	00853803          	ld	a6,8(a0)
      90:	01068793          	addi	a5,a3,16
      94:	0e8e                	c.slli	t4,0x3
      96:	0306b023          	sd	a6,32(a3)
      9a:	00c53603          	ld	a2,12(a0)
      9e:	ec22                	c.sdsp	s0,24(sp)
      a0:	e826                	c.sdsp	s1,16(sp)
      a2:	e44a                	c.sdsp	s2,8(sp)
      a4:	4e19                	c.li	t3,6
      a6:	f690                	c.sd	a2,40(a3)
      a8:	9ebe                	c.add	t4,a5
      aa:	1fc58d63          	beq	a1,t3,2a4 <.L8>
      ae:	0b235977          	0xb235977
      b2:	4e21                	c.li	t3,8
      b4:	35c58963          	beq	a1,t3,406 <.L9>
      b8:	0ad95977          	0xad95977
      bc:	4511                	c.li	a0,4
      be:	2aa58263          	beq	a1,a0,362 <.L32>

00000000000000c2 <.L7>:
      c2:	0e67e977          	0xe67e977
      c6:	0038f613          	andi	a2,a7,3
      ca:	4585                	c.li	a1,1
      cc:	4505                	c.li	a0,1
      ce:	1cb60263          	beq	a2,a1,292 <.L6>
      d2:	02932977          	0x2932977
      d6:	6698                	c.ld	a4,8(a3)
      d8:	6a90                	c.ld	a2,16(a3)
      da:	21068793          	addi	a5,a3,528
      de:	0716                	c.slli	a4,0x5
      e0:	97ba                	c.add	a5,a4
      e2:	e390                	c.sd	a2,0(a5)
      e4:	6e98                	c.ld	a4,24(a3)
      e6:	fe078813          	addi	a6,a5,-32
      ea:	03068893          	addi	a7,a3,48
      ee:	e798                	c.sd	a4,8(a5)
      f0:	7298                	c.ld	a4,32(a3)
      f2:	eb98                	c.sd	a4,16(a5)
      f4:	7698                	c.ld	a4,40(a3)
      f6:	ef98                	c.sd	a4,24(a5)
      f8:	669c                	c.ld	a5,8(a3)
      fa:	16f5f963          	bgeu	a1,a5,26c <.L14>
      fe:	08023977          	0x8023977
     102:	000007b7          	lui	a5,0x0
     106:	00078793          	addi	a5,a5,0 # 0 <set_key>

000000000000010a <.L15>:
     10a:	0b905977          	0xb905977
     10e:	0008b703          	ld	a4,0(a7)
     112:	02088893          	addi	a7,a7,32
     116:	1801                	c.addi	a6,-32
     118:	00875313          	srli	t1,a4,0x8
     11c:	01075593          	srli	a1,a4,0x10
     120:	0ff37313          	andi	t1,t1,255
     124:	0ff5f593          	andi	a1,a1,255
     128:	0187561b          	srliw	a2,a4,0x18
     12c:	10030313          	addi	t1,t1,256
     130:	20058593          	addi	a1,a1,512
     134:	030e                	c.slli	t1,0x3
     136:	058e                	c.slli	a1,0x3
     138:	0ff77713          	andi	a4,a4,255
     13c:	2601                	c.addiw	a2,0
     13e:	95be                	c.add	a1,a5
     140:	933e                	c.add	t1,a5
     142:	070e                	c.slli	a4,0x3
     144:	30060613          	addi	a2,a2,768
     148:	0005be03          	ld	t3,0(a1)
     14c:	00033303          	ld	t1,0(t1)
     150:	973e                	c.add	a4,a5
     152:	060e                	c.slli	a2,0x3
     154:	630c                	c.ld	a1,0(a4)
     156:	00c78733          	add	a4,a5,a2
     15a:	6310                	c.ld	a2,0(a4)
     15c:	01c34733          	xor	a4,t1,t3
     160:	8f2d                	c.xor	a4,a1
     162:	8f31                	c.xor	a4,a2
     164:	02e83023          	sd	a4,32(a6)
     168:	fe88b703          	ld	a4,-24(a7)
     16c:	0505                	c.addi	a0,1
     16e:	00875313          	srli	t1,a4,0x8
     172:	01075593          	srli	a1,a4,0x10
     176:	0ff37313          	andi	t1,t1,255
     17a:	0ff5f593          	andi	a1,a1,255
     17e:	0187561b          	srliw	a2,a4,0x18
     182:	10030313          	addi	t1,t1,256
     186:	20058593          	addi	a1,a1,512
     18a:	030e                	c.slli	t1,0x3
     18c:	058e                	c.slli	a1,0x3
     18e:	0ff77713          	andi	a4,a4,255
     192:	2601                	c.addiw	a2,0
     194:	95be                	c.add	a1,a5
     196:	933e                	c.add	t1,a5
     198:	070e                	c.slli	a4,0x3
     19a:	30060613          	addi	a2,a2,768
     19e:	0005be03          	ld	t3,0(a1)
     1a2:	00033303          	ld	t1,0(t1)
     1a6:	973e                	c.add	a4,a5
     1a8:	060e                	c.slli	a2,0x3
     1aa:	630c                	c.ld	a1,0(a4)
     1ac:	00c78733          	add	a4,a5,a2
     1b0:	6310                	c.ld	a2,0(a4)
     1b2:	01c34733          	xor	a4,t1,t3
     1b6:	8f2d                	c.xor	a4,a1
     1b8:	8f31                	c.xor	a4,a2
     1ba:	02e83423          	sd	a4,40(a6)
     1be:	ff08b703          	ld	a4,-16(a7)
     1c2:	00875313          	srli	t1,a4,0x8
     1c6:	01075593          	srli	a1,a4,0x10
     1ca:	0ff37313          	andi	t1,t1,255
     1ce:	0ff5f593          	andi	a1,a1,255
     1d2:	0187561b          	srliw	a2,a4,0x18
     1d6:	10030313          	addi	t1,t1,256
     1da:	20058593          	addi	a1,a1,512
     1de:	030e                	c.slli	t1,0x3
     1e0:	058e                	c.slli	a1,0x3
     1e2:	0ff77713          	andi	a4,a4,255
     1e6:	2601                	c.addiw	a2,0
     1e8:	95be                	c.add	a1,a5
     1ea:	933e                	c.add	t1,a5
     1ec:	070e                	c.slli	a4,0x3
     1ee:	30060613          	addi	a2,a2,768
     1f2:	0005be03          	ld	t3,0(a1)
     1f6:	00033303          	ld	t1,0(t1)
     1fa:	973e                	c.add	a4,a5
     1fc:	060e                	c.slli	a2,0x3
     1fe:	630c                	c.ld	a1,0(a4)
     200:	00c78733          	add	a4,a5,a2
     204:	6310                	c.ld	a2,0(a4)
     206:	01c34733          	xor	a4,t1,t3
     20a:	8f2d                	c.xor	a4,a1
     20c:	8f31                	c.xor	a4,a2
     20e:	02e83823          	sd	a4,48(a6)
     212:	ff88b703          	ld	a4,-8(a7)
     216:	00875313          	srli	t1,a4,0x8
     21a:	01075593          	srli	a1,a4,0x10
     21e:	0ff37313          	andi	t1,t1,255
     222:	0ff5f593          	andi	a1,a1,255
     226:	0187561b          	srliw	a2,a4,0x18
     22a:	10030313          	addi	t1,t1,256
     22e:	20058593          	addi	a1,a1,512
     232:	030e                	c.slli	t1,0x3
     234:	058e                	c.slli	a1,0x3
     236:	0ff77713          	andi	a4,a4,255
     23a:	2601                	c.addiw	a2,0
     23c:	95be                	c.add	a1,a5
     23e:	933e                	c.add	t1,a5
     240:	070e                	c.slli	a4,0x3
     242:	30060613          	addi	a2,a2,768
     246:	0005be03          	ld	t3,0(a1)
     24a:	973e                	c.add	a4,a5
     24c:	060e                	c.slli	a2,0x3
     24e:	00033303          	ld	t1,0(t1)
     252:	630c                	c.ld	a1,0(a4)
     254:	00c78733          	add	a4,a5,a2
     258:	6310                	c.ld	a2,0(a4)
     25a:	01c34733          	xor	a4,t1,t3
     25e:	8f2d                	c.xor	a4,a1
     260:	8f31                	c.xor	a4,a2
     262:	02e83c23          	sd	a4,56(a6)
     266:	6698                	c.ld	a4,8(a3)
     268:	eae561e3          	bltu	a0,a4,10a <.L15>

000000000000026c <.L14>:
     26c:	00503977          	0x503977
     270:	0008b783          	ld	a5,0(a7)
     274:	4505                	c.li	a0,1
     276:	00f83023          	sd	a5,0(a6)
     27a:	0088b783          	ld	a5,8(a7)
     27e:	00f83423          	sd	a5,8(a6)
     282:	0108b783          	ld	a5,16(a7)
     286:	00f83823          	sd	a5,16(a6)
     28a:	0188b783          	ld	a5,24(a7)
     28e:	00f83c23          	sd	a5,24(a6)

0000000000000292 <.L6>:
     292:	03cef977          	0x3cef977
     296:	6462                	c.ldsp	s0,24(sp)
     298:	64c2                	c.ldsp	s1,16(sp)
     29a:	6922                	c.ldsp	s2,8(sp)
     29c:	6105                	c.addi16sp	sp,32
     29e:	0ff05073          	csrrwi	zero,0xff,0
     2a2:	8082                	c.jr	ra

00000000000002a4 <.L8>:
     2a4:	00c89977          	0xc89977
     2a8:	01053f03          	ld	t5,16(a0)
     2ac:	000008b7          	lui	a7,0x0
     2b0:	000002b7          	lui	t0,0x0
     2b4:	03e6b823          	sd	t5,48(a3)
     2b8:	01453f83          	ld	t6,20(a0)
     2bc:	859a                	c.mv	a1,t1
     2be:	00028293          	addi	t0,t0,0 # 0 <set_key>
     2c2:	03f6bc23          	sd	t6,56(a3)
     2c6:	00088513          	addi	a0,a7,0 # 0 <set_key>

00000000000002ca <.L12>:
     2ca:	0df0a977          	0xdf0a977
     2ce:	0ffff893          	andi	a7,t6,255
     2d2:	010fde13          	srli	t3,t6,0x10
     2d6:	30088893          	addi	a7,a7,768
     2da:	005fd393          	srli	t2,t6,0x5
     2de:	018fd31b          	srliw	t1,t6,0x18
     2e2:	088e                	c.slli	a7,0x3
     2e4:	0ffe7e13          	andi	t3,t3,255
     2e8:	7f83f393          	andi	t2,t2,2040
     2ec:	98aa                	c.add	a7,a0
     2ee:	100e0e13          	addi	t3,t3,256
     2f2:	2301                	c.addiw	t1,0
     2f4:	0008b883          	ld	a7,0(a7)
     2f8:	93aa                	c.add	t2,a0
     2fa:	0e0e                	c.slli	t3,0x3
     2fc:	20030313          	addi	t1,t1,512
     300:	0003b383          	ld	t2,0(t2)
     304:	9e2a                	c.add	t3,a0
     306:	030e                	c.slli	t1,0x3
     308:	000e3e03          	ld	t3,0(t3)
     30c:	932a                	c.add	t1,a0
     30e:	01174733          	xor	a4,a4,a7
     312:	00033303          	ld	t1,0(t1)
     316:	0002b883          	ld	a7,0(t0)
     31a:	00774733          	xor	a4,a4,t2
     31e:	01c74733          	xor	a4,a4,t3
     322:	00674733          	xor	a4,a4,t1
     326:	01174733          	xor	a4,a4,a7
     32a:	8db9                	c.xor	a1,a4
     32c:	00b84833          	xor	a6,a6,a1
     330:	01064633          	xor	a2,a2,a6
     334:	00cf4f33          	xor	t5,t5,a2
     338:	01efcfb3          	xor	t6,t6,t5
     33c:	fb98                	c.sd	a4,48(a5)
     33e:	ff8c                	c.sd	a1,56(a5)
     340:	0507b023          	sd	a6,64(a5)
     344:	e7b0                	c.sd	a2,72(a5)
     346:	05e7b823          	sd	t5,80(a5)
     34a:	05f7bc23          	sd	t6,88(a5)
     34e:	03078793          	addi	a5,a5,48
     352:	02a1                	c.addi	t0,8
     354:	f7d7ebe3          	bltu	a5,t4,2ca <.L12>
     358:	0a155977          	0xa155977
     35c:	4106c883          	lbu	a7,1040(a3)
     360:	b38d                	c.j	c2 <.L7>

0000000000000362 <.L32>:
     362:	08707977          	0x8707977
     366:	000008b7          	lui	a7,0x0
     36a:	00000f37          	lui	t5,0x0
     36e:	859a                	c.mv	a1,t1
     370:	8fba                	c.mv	t6,a4
     372:	000f0f13          	addi	t5,t5,0 # 0 <set_key>
     376:	00088513          	addi	a0,a7,0 # 0 <set_key>

000000000000037a <.L11>:
     37a:	0ee26977          	0xee26977
     37e:	0ff67e13          	andi	t3,a2,255
     382:	01065313          	srli	t1,a2,0x10
     386:	300e0e13          	addi	t3,t3,768
     38a:	00565293          	srli	t0,a2,0x5
     38e:	0186589b          	srliw	a7,a2,0x18
     392:	0e0e                	c.slli	t3,0x3
     394:	0ff37313          	andi	t1,t1,255
     398:	9e2a                	c.add	t3,a0
     39a:	7f82f293          	andi	t0,t0,2040
     39e:	10030313          	addi	t1,t1,256
     3a2:	2881                	c.addiw	a7,0
     3a4:	000e3703          	ld	a4,0(t3)
     3a8:	92aa                	c.add	t0,a0
     3aa:	030e                	c.slli	t1,0x3
     3ac:	20088893          	addi	a7,a7,512
     3b0:	0002be03          	ld	t3,0(t0)
     3b4:	932a                	c.add	t1,a0
     3b6:	088e                	c.slli	a7,0x3
     3b8:	00033303          	ld	t1,0(t1)
     3bc:	98aa                	c.add	a7,a0
     3be:	00efc733          	xor	a4,t6,a4
     3c2:	0008b883          	ld	a7,0(a7)
     3c6:	000f3f83          	ld	t6,0(t5)
     3ca:	01c74733          	xor	a4,a4,t3
     3ce:	00674733          	xor	a4,a4,t1
     3d2:	01174733          	xor	a4,a4,a7
     3d6:	01f74fb3          	xor	t6,a4,t6
     3da:	01f5c5b3          	xor	a1,a1,t6
     3de:	00b84833          	xor	a6,a6,a1
     3e2:	01064633          	xor	a2,a2,a6
     3e6:	03f7b023          	sd	t6,32(a5)
     3ea:	f78c                	c.sd	a1,40(a5)
     3ec:	0307b823          	sd	a6,48(a5)
     3f0:	ff90                	c.sd	a2,56(a5)
     3f2:	02078793          	addi	a5,a5,32
     3f6:	0f21                	c.addi	t5,8
     3f8:	f9d7e1e3          	bltu	a5,t4,37a <.L11>
     3fc:	0b6d5977          	0xb6d5977
     400:	4106c883          	lbu	a7,1040(a3)
     404:	b97d                	c.j	c2 <.L7>

0000000000000406 <.L9>:
     406:	089ef977          	0x89ef977
     40a:	01053f83          	ld	t6,16(a0)
     40e:	000008b7          	lui	a7,0x0
     412:	00000437          	lui	s0,0x0
     416:	03f6b823          	sd	t6,48(a3)
     41a:	01453383          	ld	t2,20(a0)
     41e:	859a                	c.mv	a1,t1
     420:	00040413          	addi	s0,s0,0 # 0 <set_key>
     424:	0276bc23          	sd	t2,56(a3)
     428:	01853283          	ld	t0,24(a0)
     42c:	0456b023          	sd	t0,64(a3)
     430:	01c53f03          	ld	t5,28(a0)
     434:	00088513          	addi	a0,a7,0 # 0 <set_key>
     438:	05e6b423          	sd	t5,72(a3)

000000000000043c <.L13>:
     43c:	0aaff977          	0xaaff977
     440:	0fff7893          	andi	a7,t5,255
     444:	010f5e13          	srli	t3,t5,0x10
     448:	30088893          	addi	a7,a7,768
     44c:	005f5493          	srli	s1,t5,0x5
     450:	018f531b          	srliw	t1,t5,0x18
     454:	088e                	c.slli	a7,0x3
     456:	0ffe7e13          	andi	t3,t3,255
     45a:	7f84f493          	andi	s1,s1,2040
     45e:	98aa                	c.add	a7,a0
     460:	100e0e13          	addi	t3,t3,256
     464:	2301                	c.addiw	t1,0
     466:	0008b883          	ld	a7,0(a7)
     46a:	94aa                	c.add	s1,a0
     46c:	0e0e                	c.slli	t3,0x3
     46e:	20030313          	addi	t1,t1,512
     472:	6084                	c.ld	s1,0(s1)
     474:	9e2a                	c.add	t3,a0
     476:	030e                	c.slli	t1,0x3
     478:	000e3e03          	ld	t3,0(t3)
     47c:	932a                	c.add	t1,a0
     47e:	01174733          	xor	a4,a4,a7
     482:	00033303          	ld	t1,0(t1)
     486:	00043883          	ld	a7,0(s0)
     48a:	8f25                	c.xor	a4,s1
     48c:	01c74733          	xor	a4,a4,t3
     490:	00674733          	xor	a4,a4,t1
     494:	01174733          	xor	a4,a4,a7
     498:	8db9                	c.xor	a1,a4
     49a:	00b84833          	xor	a6,a6,a1
     49e:	01064633          	xor	a2,a2,a6
     4a2:	00865e13          	srli	t3,a2,0x8
     4a6:	0ff67493          	andi	s1,a2,255
     4aa:	0ffe7e13          	andi	t3,t3,255
     4ae:	01065313          	srli	t1,a2,0x10
     4b2:	048e                	c.slli	s1,0x3
     4b4:	100e0e13          	addi	t3,t3,256
     4b8:	0ff37313          	andi	t1,t1,255
     4bc:	0186589b          	srliw	a7,a2,0x18
     4c0:	94aa                	c.add	s1,a0
     4c2:	0e0e                	c.slli	t3,0x3
     4c4:	20030313          	addi	t1,t1,512
     4c8:	2881                	c.addiw	a7,0
     4ca:	9e2a                	c.add	t3,a0
     4cc:	6084                	c.ld	s1,0(s1)
     4ce:	030e                	c.slli	t1,0x3
     4d0:	30088893          	addi	a7,a7,768
     4d4:	000e3903          	ld	s2,0(t3)
     4d8:	932a                	c.add	t1,a0
     4da:	088e                	c.slli	a7,0x3
     4dc:	00033e03          	ld	t3,0(t1)
     4e0:	98aa                	c.add	a7,a0
     4e2:	009fcfb3          	xor	t6,t6,s1
     4e6:	0008b303          	ld	t1,0(a7)
     4ea:	012fc8b3          	xor	a7,t6,s2
     4ee:	01c8c8b3          	xor	a7,a7,t3
     4f2:	0068cfb3          	xor	t6,a7,t1
     4f6:	01f3c3b3          	xor	t2,t2,t6
     4fa:	0072c2b3          	xor	t0,t0,t2
     4fe:	005f4f33          	xor	t5,t5,t0
     502:	e3b8                	c.sd	a4,64(a5)
     504:	e7ac                	c.sd	a1,72(a5)
     506:	0507b823          	sd	a6,80(a5)
     50a:	efb0                	c.sd	a2,88(a5)
     50c:	07f7b023          	sd	t6,96(a5)
     510:	0677b423          	sd	t2,104(a5)
     514:	0657b823          	sd	t0,112(a5)
     518:	07e7bc23          	sd	t5,120(a5)
     51c:	04078793          	addi	a5,a5,64
     520:	0421                	c.addi	s0,8
     522:	f1d7ede3          	bltu	a5,t4,43c <.L13>
     526:	0c4b5977          	0xc4b5977
     52a:	4106c883          	lbu	a7,1040(a3)
     52e:	be51                	c.j	c2 <.L7>

0000000000000530 <encrypt>:
     530:	07365977          	0x7365977
     534:	41064783          	lbu	a5,1040(a2)
     538:	8b85                	c.andi	a5,1
     53a:	c7c5                	c.beqz	a5,5e2 <.L40>
     53c:	0b9fd977          	0xb9fd977
     540:	00053383          	ld	t2,0(a0)
     544:	00453e83          	ld	t4,4(a0)
     548:	00853803          	ld	a6,8(a0)
     54c:	01063e03          	ld	t3,16(a2)
     550:	00c53503          	ld	a0,12(a0)
     554:	6e18                	c.ld	a4,24(a2)
     556:	721c                	c.ld	a5,32(a2)
     558:	7614                	c.ld	a3,40(a2)
     55a:	00863883          	ld	a7,8(a2)
     55e:	711d                	c.addi16sp	sp,-96
     560:	eca2                	c.sdsp	s0,88(sp)
     562:	e8a6                	c.sdsp	s1,80(sp)
     564:	e4ca                	c.sdsp	s2,72(sp)
     566:	e0ce                	c.sdsp	s3,64(sp)
     568:	fc52                	c.sdsp	s4,56(sp)
     56a:	f856                	c.sdsp	s5,48(sp)
     56c:	f45a                	c.sdsp	s6,40(sp)
     56e:	f05e                	c.sdsp	s7,32(sp)
     570:	ec62                	c.sdsp	s8,24(sp)
     572:	e866                	c.sdsp	s9,16(sp)
     574:	e46a                	c.sdsp	s10,8(sp)
     576:	e06e                	c.sdsp	s11,0(sp)
     578:	4331                	c.li	t1,12
     57a:	8ea9                	c.xor	a3,a0
     57c:	01c3ce33          	xor	t3,t2,t3
     580:	00eec733          	xor	a4,t4,a4
     584:	00f84833          	xor	a6,a6,a5
     588:	03060513          	addi	a0,a2,48
     58c:	06688163          	beq	a7,t1,5ee <.L36>
     590:	093e8977          	0x93e8977
     594:	47b9                	c.li	a5,14
     596:	00f89463          	bne	a7,a5,59e <encrypt+0x6e>
     59a:	1680106f          	jal	zero,1702 <.L37>
     59e:	0042f977          	0x42f977
     5a2:	47a9                	c.li	a5,10
     5a4:	00f89463          	bne	a7,a5,5ac <.L35>
     5a8:	14a0106f          	jal	zero,16f2 <.L46>

00000000000005ac <.L35>:
     5ac:	093a8977          	0x93a8977
     5b0:	01c5b023          	sd	t3,0(a1)
     5b4:	00e5b223          	sd	a4,4(a1)
     5b8:	6466                	c.ldsp	s0,88(sp)
     5ba:	0105b423          	sd	a6,8(a1)
     5be:	00d5b623          	sd	a3,12(a1)
     5c2:	64c6                	c.ldsp	s1,80(sp)
     5c4:	6926                	c.ldsp	s2,72(sp)
     5c6:	6986                	c.ldsp	s3,64(sp)
     5c8:	7a62                	c.ldsp	s4,56(sp)
     5ca:	7ac2                	c.ldsp	s5,48(sp)
     5cc:	7b22                	c.ldsp	s6,40(sp)
     5ce:	7b82                	c.ldsp	s7,32(sp)
     5d0:	6c62                	c.ldsp	s8,24(sp)
     5d2:	6cc2                	c.ldsp	s9,16(sp)
     5d4:	6d22                	c.ldsp	s10,8(sp)
     5d6:	6d82                	c.ldsp	s11,0(sp)
     5d8:	4505                	c.li	a0,1
     5da:	6125                	c.addi16sp	sp,96
     5dc:	0ff05073          	csrrwi	zero,0xff,0
     5e0:	8082                	c.jr	ra

00000000000005e2 <.L40>:
     5e2:	0028f977          	0x28f977
     5e6:	4501                	c.li	a0,0
     5e8:	0ff05073          	csrrwi	zero,0xff,0
     5ec:	8082                	c.jr	ra

00000000000005ee <.L36>:
     5ee:	0001e977          	0x1e977
     5f2:	03063e83          	ld	t4,48(a2)
     5f6:	000007b7          	lui	a5,0x0
     5fa:	00078793          	addi	a5,a5,0 # 0 <set_key>

00000000000005fe <.L39>:
     5fe:	0017c977          	0x17c977
     602:	00875293          	srli	t0,a4,0x8
     606:	00885993          	srli	s3,a6,0x8
     60a:	0086d913          	srli	s2,a3,0x8
     60e:	008e5493          	srli	s1,t3,0x8
     612:	010e5613          	srli	a2,t3,0x10
     616:	0ffe7c13          	andi	s8,t3,255
     61a:	01085413          	srli	s0,a6,0x10
     61e:	0ff77b93          	andi	s7,a4,255
     622:	0106d393          	srli	t2,a3,0x10
     626:	0ff87b13          	andi	s6,a6,255
     62a:	0ff6fa93          	andi	s5,a3,255
     62e:	01075f93          	srli	t6,a4,0x10
     632:	0ff2f293          	andi	t0,t0,255
     636:	0ff9f993          	andi	s3,s3,255
     63a:	0ff97913          	andi	s2,s2,255
     63e:	0ff4f493          	andi	s1,s1,255
     642:	0186df1b          	srliw	t5,a3,0x18
     646:	0187531b          	srliw	t1,a4,0x18
     64a:	0188589b          	srliw	a7,a6,0x18
     64e:	10028a13          	addi	s4,t0,256
     652:	018e5e1b          	srliw	t3,t3,0x18
     656:	0ff67293          	andi	t0,a2,255
     65a:	0c0e                	c.slli	s8,0x3
     65c:	0ff47413          	andi	s0,s0,255
     660:	0b8e                	c.slli	s7,0x3
     662:	10098993          	addi	s3,s3,256
     666:	0ff3f393          	andi	t2,t2,255
     66a:	0b0e                	c.slli	s6,0x3
     66c:	10090913          	addi	s2,s2,256
     670:	0a8e                	c.slli	s5,0x3
     672:	10048493          	addi	s1,s1,256
     676:	0fffff93          	andi	t6,t6,255
     67a:	9c3e                	c.add	s8,a5
     67c:	0a0e                	c.slli	s4,0x3
     67e:	20040413          	addi	s0,s0,512
     682:	2f01                	c.addiw	t5,0
     684:	9bbe                	c.add	s7,a5
     686:	098e                	c.slli	s3,0x3
     688:	20038393          	addi	t2,t2,512
     68c:	2e01                	c.addiw	t3,0
     68e:	9b3e                	c.add	s6,a5
     690:	090e                	c.slli	s2,0x3
     692:	20028293          	addi	t0,t0,512
     696:	2301                	c.addiw	t1,0
     698:	9abe                	c.add	s5,a5
     69a:	048e                	c.slli	s1,0x3
     69c:	200f8f93          	addi	t6,t6,512
     6a0:	2881                	c.addiw	a7,0
     6a2:	6510                	c.ld	a2,8(a0)
     6a4:	6914                	c.ld	a3,16(a0)
     6a6:	6d18                	c.ld	a4,24(a0)
     6a8:	000c3803          	ld	a6,0(s8)
     6ac:	000bbb83          	ld	s7,0(s7)
     6b0:	000b3b03          	ld	s6,0(s6)
     6b4:	000aba83          	ld	s5,0(s5)
     6b8:	9a3e                	c.add	s4,a5
     6ba:	040e                	c.slli	s0,0x3
     6bc:	300f0f13          	addi	t5,t5,768
     6c0:	99be                	c.add	s3,a5
     6c2:	038e                	c.slli	t2,0x3
     6c4:	300e0e13          	addi	t3,t3,768
     6c8:	993e                	c.add	s2,a5
     6ca:	028e                	c.slli	t0,0x3
     6cc:	30030313          	addi	t1,t1,768
     6d0:	94be                	c.add	s1,a5
     6d2:	0f8e                	c.slli	t6,0x3
     6d4:	30088893          	addi	a7,a7,768
     6d8:	000a3a03          	ld	s4,0(s4)
     6dc:	0009b983          	ld	s3,0(s3)
     6e0:	00093903          	ld	s2,0(s2)
     6e4:	6084                	c.ld	s1,0(s1)
     6e6:	943e                	c.add	s0,a5
     6e8:	0f0e                	c.slli	t5,0x3
     6ea:	93be                	c.add	t2,a5
     6ec:	0e0e                	c.slli	t3,0x3
     6ee:	92be                	c.add	t0,a5
     6f0:	030e                	c.slli	t1,0x3
     6f2:	9fbe                	c.add	t6,a5
     6f4:	088e                	c.slli	a7,0x3
     6f6:	6000                	c.ld	s0,0(s0)
     6f8:	0003b383          	ld	t2,0(t2)
     6fc:	0002b283          	ld	t0,0(t0)
     700:	000fbf83          	ld	t6,0(t6)
     704:	9f3e                	c.add	t5,a5
     706:	9e3e                	c.add	t3,a5
     708:	933e                	c.add	t1,a5
     70a:	98be                	c.add	a7,a5
     70c:	000f3f03          	ld	t5,0(t5)
     710:	000e3e03          	ld	t3,0(t3)
     714:	00033303          	ld	t1,0(t1)
     718:	0008b883          	ld	a7,0(a7)
     71c:	010ec833          	xor	a6,t4,a6
     720:	01764633          	xor	a2,a2,s7
     724:	0166c6b3          	xor	a3,a3,s6
     728:	01574733          	xor	a4,a4,s5
     72c:	01484833          	xor	a6,a6,s4
     730:	01364633          	xor	a2,a2,s3
     734:	0126c6b3          	xor	a3,a3,s2
     738:	8f25                	c.xor	a4,s1
     73a:	00884833          	xor	a6,a6,s0
     73e:	00764633          	xor	a2,a2,t2
     742:	0056c6b3          	xor	a3,a3,t0
     746:	01f74733          	xor	a4,a4,t6
     74a:	01e84833          	xor	a6,a6,t5
     74e:	01c64633          	xor	a2,a2,t3
     752:	0066c6b3          	xor	a3,a3,t1
     756:	01174733          	xor	a4,a4,a7
     75a:	00865a13          	srli	s4,a2,0x8
     75e:	0106d913          	srli	s2,a3,0x10
     762:	0187539b          	srliw	t2,a4,0x18
     766:	0086d993          	srli	s3,a3,0x8
     76a:	01075493          	srli	s1,a4,0x10
     76e:	01885a9b          	srliw	s5,a6,0x18
     772:	00875413          	srli	s0,a4,0x8
     776:	01085293          	srli	t0,a6,0x10
     77a:	00885f93          	srli	t6,a6,0x8
     77e:	0ffa7a13          	andi	s4,s4,255
     782:	0ff97913          	andi	s2,s2,255
     786:	2381                	c.addiw	t2,0
     788:	0ff9f993          	andi	s3,s3,255
     78c:	0ff4f493          	andi	s1,s1,255
     790:	2a81                	c.addiw	s5,0
     792:	0ff47413          	andi	s0,s0,255
     796:	0ff2f293          	andi	t0,t0,255
     79a:	0ff87f13          	andi	t5,a6,255
     79e:	0ff67b13          	andi	s6,a2,255
     7a2:	0ff6fc13          	andi	s8,a3,255
     7a6:	01065e93          	srli	t4,a2,0x10
     7aa:	100a0a13          	addi	s4,s4,256
     7ae:	20090913          	addi	s2,s2,512
     7b2:	30038393          	addi	t2,t2,768
     7b6:	10098993          	addi	s3,s3,256
     7ba:	20048493          	addi	s1,s1,512
     7be:	300a8a93          	addi	s5,s5,768
     7c2:	10040413          	addi	s0,s0,256
     7c6:	20028293          	addi	t0,t0,512
     7ca:	0ff77713          	andi	a4,a4,255
     7ce:	0fffff93          	andi	t6,t6,255
     7d2:	0186561b          	srliw	a2,a2,0x18
     7d6:	070e                	c.slli	a4,0x3
     7d8:	0186d69b          	srliw	a3,a3,0x18
     7dc:	0f0e                	c.slli	t5,0x3
     7de:	0a0e                	c.slli	s4,0x3
     7e0:	090e                	c.slli	s2,0x3
     7e2:	038e                	c.slli	t2,0x3
     7e4:	0b0e                	c.slli	s6,0x3
     7e6:	098e                	c.slli	s3,0x3
     7e8:	048e                	c.slli	s1,0x3
     7ea:	0a8e                	c.slli	s5,0x3
     7ec:	0c0e                	c.slli	s8,0x3
     7ee:	040e                	c.slli	s0,0x3
     7f0:	028e                	c.slli	t0,0x3
     7f2:	100f8f93          	addi	t6,t6,256
     7f6:	0ffefe93          	andi	t4,t4,255
     7fa:	00e788b3          	add	a7,a5,a4
     7fe:	9f3e                	c.add	t5,a5
     800:	9abe                	c.add	s5,a5
     802:	9c3e                	c.add	s8,a5
     804:	00060e1b          	addiw	t3,a2,0
     808:	0006831b          	addiw	t1,a3,0
     80c:	9a3e                	c.add	s4,a5
     80e:	993e                	c.add	s2,a5
     810:	93be                	c.add	t2,a5
     812:	9b3e                	c.add	s6,a5
     814:	99be                	c.add	s3,a5
     816:	94be                	c.add	s1,a5
     818:	943e                	c.add	s0,a5
     81a:	92be                	c.add	t0,a5
     81c:	0f8e                	c.slli	t6,0x3
     81e:	200e8e93          	addi	t4,t4,512
     822:	7110                	c.ld	a2,32(a0)
     824:	7518                	c.ld	a4,40(a0)
     826:	03053803          	ld	a6,48(a0)
     82a:	000f3b83          	ld	s7,0(t5)
     82e:	000a3a03          	ld	s4,0(s4)
     832:	000abf03          	ld	t5,0(s5)
     836:	00093903          	ld	s2,0(s2)
     83a:	000c3a83          	ld	s5,0(s8)
     83e:	0003b383          	ld	t2,0(t2)
     842:	000b3b03          	ld	s6,0(s6)
     846:	0009b983          	ld	s3,0(s3)
     84a:	6084                	c.ld	s1,0(s1)
     84c:	6000                	c.ld	s0,0(s0)
     84e:	300e0e13          	addi	t3,t3,768
     852:	0002b283          	ld	t0,0(t0)
     856:	9fbe                	c.add	t6,a5
     858:	7d14                	c.ld	a3,56(a0)
     85a:	0008bc03          	ld	s8,0(a7)
     85e:	0e8e                	c.slli	t4,0x3
     860:	30030313          	addi	t1,t1,768
     864:	0e0e                	c.slli	t3,0x3
     866:	000fbf83          	ld	t6,0(t6)
     86a:	9ebe                	c.add	t4,a5
     86c:	030e                	c.slli	t1,0x3
     86e:	9e3e                	c.add	t3,a5
     870:	000ebe83          	ld	t4,0(t4)
     874:	933e                	c.add	t1,a5
     876:	000e3883          	ld	a7,0(t3)
     87a:	01764633          	xor	a2,a2,s7
     87e:	01674733          	xor	a4,a4,s6
     882:	01584833          	xor	a6,a6,s5
     886:	0186c6b3          	xor	a3,a3,s8
     88a:	00033303          	ld	t1,0(t1)
     88e:	01464633          	xor	a2,a2,s4
     892:	01374733          	xor	a4,a4,s3
     896:	00884833          	xor	a6,a6,s0
     89a:	01f6c6b3          	xor	a3,a3,t6
     89e:	01264633          	xor	a2,a2,s2
     8a2:	8f25                	c.xor	a4,s1
     8a4:	00584833          	xor	a6,a6,t0
     8a8:	01d6c6b3          	xor	a3,a3,t4
     8ac:	00764e33          	xor	t3,a2,t2
     8b0:	01e74733          	xor	a4,a4,t5
     8b4:	01184833          	xor	a6,a6,a7
     8b8:	0066c6b3          	xor	a3,a3,t1
     8bc:	04050513          	addi	a0,a0,64

00000000000008c0 <.L38>:
     8c0:	0bda6977          	0xbda6977
     8c4:	00875f93          	srli	t6,a4,0x8
     8c8:	00885493          	srli	s1,a6,0x8
     8cc:	0086d393          	srli	t2,a3,0x8
     8d0:	008e5413          	srli	s0,t3,0x8
     8d4:	0ffe7913          	andi	s2,t3,255
     8d8:	010e5613          	srli	a2,t3,0x10
     8dc:	01085c13          	srli	s8,a6,0x10
     8e0:	0ff77893          	andi	a7,a4,255
     8e4:	0106d293          	srli	t0,a3,0x10
     8e8:	0ff87a13          	andi	s4,a6,255
     8ec:	0ff6f993          	andi	s3,a3,255
     8f0:	01075f13          	srli	t5,a4,0x10
     8f4:	0fffff93          	andi	t6,t6,255
     8f8:	0ff4f493          	andi	s1,s1,255
     8fc:	0ff3f393          	andi	t2,t2,255
     900:	0ff47413          	andi	s0,s0,255
     904:	0186de9b          	srliw	t4,a3,0x18
     908:	0187531b          	srliw	t1,a4,0x18
     90c:	00391693          	slli	a3,s2,0x3
     910:	018e5e1b          	srliw	t3,t3,0x18
     914:	100f8913          	addi	s2,t6,256
     918:	0188581b          	srliw	a6,a6,0x18
     91c:	0ff67f93          	andi	t6,a2,255
     920:	0ffc7c13          	andi	s8,s8,255
     924:	088e                	c.slli	a7,0x3
     926:	10048493          	addi	s1,s1,256
     92a:	0ff2f293          	andi	t0,t0,255
     92e:	0a0e                	c.slli	s4,0x3
     930:	10038393          	addi	t2,t2,256
     934:	098e                	c.slli	s3,0x3
     936:	10040413          	addi	s0,s0,256
     93a:	0fff7f13          	andi	t5,t5,255
     93e:	96be                	c.add	a3,a5
     940:	98be                	c.add	a7,a5
     942:	9a3e                	c.add	s4,a5
     944:	99be                	c.add	s3,a5
     946:	090e                	c.slli	s2,0x3
     948:	200c0c13          	addi	s8,s8,512
     94c:	2e81                	c.addiw	t4,0
     94e:	048e                	c.slli	s1,0x3
     950:	20028293          	addi	t0,t0,512
     954:	2e01                	c.addiw	t3,0
     956:	038e                	c.slli	t2,0x3
     958:	200f8f93          	addi	t6,t6,512
     95c:	2301                	c.addiw	t1,0
     95e:	040e                	c.slli	s0,0x3
     960:	200f0f13          	addi	t5,t5,512
     964:	2801                	c.addiw	a6,0
     966:	0006bb83          	ld	s7,0(a3)
     96a:	0008bb03          	ld	s6,0(a7)
     96e:	000a3a83          	ld	s5,0(s4)
     972:	6110                	c.ld	a2,0(a0)
     974:	0009ba03          	ld	s4,0(s3)
     978:	6514                	c.ld	a3,8(a0)
     97a:	01053883          	ld	a7,16(a0)
     97e:	6d18                	c.ld	a4,24(a0)
     980:	993e                	c.add	s2,a5
     982:	94be                	c.add	s1,a5
     984:	93be                	c.add	t2,a5
     986:	943e                	c.add	s0,a5
     988:	0c0e                	c.slli	s8,0x3
     98a:	300e8e93          	addi	t4,t4,768
     98e:	028e                	c.slli	t0,0x3
     990:	300e0e13          	addi	t3,t3,768
     994:	0f8e                	c.slli	t6,0x3
     996:	30030313          	addi	t1,t1,768
     99a:	0f0e                	c.slli	t5,0x3
     99c:	30080813          	addi	a6,a6,768
     9a0:	00093983          	ld	s3,0(s2)
     9a4:	6000                	c.ld	s0,0(s0)
     9a6:	0004b903          	ld	s2,0(s1)
     9aa:	9c3e                	c.add	s8,a5
     9ac:	0003b483          	ld	s1,0(t2)
     9b0:	92be                	c.add	t0,a5
     9b2:	9fbe                	c.add	t6,a5
     9b4:	9f3e                	c.add	t5,a5
     9b6:	0e8e                	c.slli	t4,0x3
     9b8:	0e0e                	c.slli	t3,0x3
     9ba:	030e                	c.slli	t1,0x3
     9bc:	080e                	c.slli	a6,0x3
     9be:	000c3383          	ld	t2,0(s8)
     9c2:	0002b283          	ld	t0,0(t0)
     9c6:	000fbf83          	ld	t6,0(t6)
     9ca:	000f3f03          	ld	t5,0(t5)
     9ce:	9ebe                	c.add	t4,a5
     9d0:	9e3e                	c.add	t3,a5
     9d2:	933e                	c.add	t1,a5
     9d4:	983e                	c.add	a6,a5
     9d6:	000ebe83          	ld	t4,0(t4)
     9da:	000e3e03          	ld	t3,0(t3)
     9de:	00033303          	ld	t1,0(t1)
     9e2:	00083803          	ld	a6,0(a6)
     9e6:	01764633          	xor	a2,a2,s7
     9ea:	0166c6b3          	xor	a3,a3,s6
     9ee:	0158c8b3          	xor	a7,a7,s5
     9f2:	01474733          	xor	a4,a4,s4
     9f6:	01364633          	xor	a2,a2,s3
     9fa:	0126c6b3          	xor	a3,a3,s2
     9fe:	0098c8b3          	xor	a7,a7,s1
     a02:	8f21                	c.xor	a4,s0
     a04:	00764633          	xor	a2,a2,t2
     a08:	0056c6b3          	xor	a3,a3,t0
     a0c:	01f8c8b3          	xor	a7,a7,t6
     a10:	01e74733          	xor	a4,a4,t5
     a14:	01d64633          	xor	a2,a2,t4
     a18:	01c6c6b3          	xor	a3,a3,t3
     a1c:	0068c8b3          	xor	a7,a7,t1
     a20:	01074733          	xor	a4,a4,a6
     a24:	0086d413          	srli	s0,a3,0x8
     a28:	0108df13          	srli	t5,a7,0x10
     a2c:	0187531b          	srliw	t1,a4,0x18
     a30:	0088de93          	srli	t4,a7,0x8
     a34:	01075e13          	srli	t3,a4,0x10
     a38:	0186581b          	srliw	a6,a2,0x18
     a3c:	00875913          	srli	s2,a4,0x8
     a40:	00865c93          	srli	s9,a2,0x8
     a44:	0ff47413          	andi	s0,s0,255
     a48:	0fff7f13          	andi	t5,t5,255
     a4c:	2301                	c.addiw	t1,0
     a4e:	0ffefe93          	andi	t4,t4,255
     a52:	0ffe7e13          	andi	t3,t3,255
     a56:	2801                	c.addiw	a6,0
     a58:	0ff97913          	andi	s2,s2,255
     a5c:	0ff67993          	andi	s3,a2,255
     a60:	0ff6f393          	andi	t2,a3,255
     a64:	0ff8fa93          	andi	s5,a7,255
     a68:	8241                	c.srli	a2,0x10
     a6a:	0ff77713          	andi	a4,a4,255
     a6e:	0106df93          	srli	t6,a3,0x10
     a72:	10040413          	addi	s0,s0,256
     a76:	200f0f13          	addi	t5,t5,512
     a7a:	30030313          	addi	t1,t1,768
     a7e:	100e8e93          	addi	t4,t4,256
     a82:	200e0e13          	addi	t3,t3,512
     a86:	30080813          	addi	a6,a6,768
     a8a:	10090913          	addi	s2,s2,256
     a8e:	0ffcfc93          	andi	s9,s9,255
     a92:	030e                	c.slli	t1,0x3
     a94:	080e                	c.slli	a6,0x3
     a96:	0ff67493          	andi	s1,a2,255
     a9a:	0186d69b          	srliw	a3,a3,0x18
     a9e:	00371293          	slli	t0,a4,0x3
     aa2:	098e                	c.slli	s3,0x3
     aa4:	040e                	c.slli	s0,0x3
     aa6:	0f0e                	c.slli	t5,0x3
     aa8:	038e                	c.slli	t2,0x3
     aaa:	0e8e                	c.slli	t4,0x3
     aac:	0e0e                	c.slli	t3,0x3
     aae:	0a8e                	c.slli	s5,0x3
     ab0:	090e                	c.slli	s2,0x3
     ab2:	100c8c93          	addi	s9,s9,256
     ab6:	0fffff93          	andi	t6,t6,255
     aba:	0188d89b          	srliw	a7,a7,0x18
     abe:	00678733          	add	a4,a5,t1
     ac2:	01078633          	add	a2,a5,a6
     ac6:	99be                	c.add	s3,a5
     ac8:	943e                	c.add	s0,a5
     aca:	9f3e                	c.add	t5,a5
     acc:	93be                	c.add	t2,a5
     ace:	9ebe                	c.add	t4,a5
     ad0:	9e3e                	c.add	t3,a5
     ad2:	9abe                	c.add	s5,a5
     ad4:	92be                	c.add	t0,a5
     ad6:	993e                	c.add	s2,a5
     ad8:	20048493          	addi	s1,s1,512
     adc:	0006831b          	addiw	t1,a3,0
     ae0:	0c8e                	c.slli	s9,0x3
     ae2:	200f8f93          	addi	t6,t6,512
     ae6:	2881                	c.addiw	a7,0
     ae8:	0009bb83          	ld	s7,0(s3)
     aec:	00043a03          	ld	s4,0(s0)
     af0:	0003b983          	ld	s3,0(t2)
     af4:	000f3403          	ld	s0,0(t5)
     af8:	000eb383          	ld	t2,0(t4)
     afc:	00073f03          	ld	t5,0(a4)
     b00:	000e3e83          	ld	t4,0(t3)
     b04:	000abb03          	ld	s6,0(s5)
     b08:	00063e03          	ld	t3,0(a2)
     b0c:	02053803          	ld	a6,32(a0)
     b10:	7518                	c.ld	a4,40(a0)
     b12:	7910                	c.ld	a2,48(a0)
     b14:	9cbe                	c.add	s9,a5
     b16:	00093903          	ld	s2,0(s2)
     b1a:	00349c13          	slli	s8,s1,0x3
     b1e:	0002ba83          	ld	s5,0(t0)
     b22:	7d14                	c.ld	a3,56(a0)
     b24:	30030313          	addi	t1,t1,768
     b28:	0f8e                	c.slli	t6,0x3
     b2a:	30088893          	addi	a7,a7,768
     b2e:	000cb483          	ld	s1,0(s9)
     b32:	9c3e                	c.add	s8,a5
     b34:	9fbe                	c.add	t6,a5
     b36:	030e                	c.slli	t1,0x3
     b38:	088e                	c.slli	a7,0x3
     b3a:	000c3283          	ld	t0,0(s8)
     b3e:	000fbf83          	ld	t6,0(t6)
     b42:	933e                	c.add	t1,a5
     b44:	98be                	c.add	a7,a5
     b46:	00033303          	ld	t1,0(t1)
     b4a:	0008b883          	ld	a7,0(a7)
     b4e:	01784833          	xor	a6,a6,s7
     b52:	01664633          	xor	a2,a2,s6
     b56:	0156c6b3          	xor	a3,a3,s5
     b5a:	01484833          	xor	a6,a6,s4
     b5e:	01374733          	xor	a4,a4,s3
     b62:	01264633          	xor	a2,a2,s2
     b66:	8ea5                	c.xor	a3,s1
     b68:	00884833          	xor	a6,a6,s0
     b6c:	00774733          	xor	a4,a4,t2
     b70:	00564633          	xor	a2,a2,t0
     b74:	01f6c6b3          	xor	a3,a3,t6
     b78:	01e84833          	xor	a6,a6,t5
     b7c:	00664633          	xor	a2,a2,t1
     b80:	0116c6b3          	xor	a3,a3,a7
     b84:	01d74733          	xor	a4,a4,t4
     b88:	01c74733          	xor	a4,a4,t3
     b8c:	00865e93          	srli	t4,a2,0x8
     b90:	0086d393          	srli	t2,a3,0x8
     b94:	00885493          	srli	s1,a6,0x8
     b98:	0106d893          	srli	a7,a3,0x10
     b9c:	00875413          	srli	s0,a4,0x8
     ba0:	0ff77a93          	andi	s5,a4,255
     ba4:	0ffefe93          	andi	t4,t4,255
     ba8:	0ff67b13          	andi	s6,a2,255
     bac:	0ff3f393          	andi	t2,t2,255
     bb0:	01085e13          	srli	t3,a6,0x10
     bb4:	0ff6f313          	andi	t1,a3,255
     bb8:	01075f93          	srli	t6,a4,0x10
     bbc:	0ff4f493          	andi	s1,s1,255
     bc0:	0ff87a13          	andi	s4,a6,255
     bc4:	01065f13          	srli	t5,a2,0x10
     bc8:	100e8993          	addi	s3,t4,256
     bcc:	0188581b          	srliw	a6,a6,0x18
     bd0:	0ff8fe93          	andi	t4,a7,255
     bd4:	0b0e                	c.slli	s6,0x3
     bd6:	10038913          	addi	s2,t2,256
     bda:	030e                	c.slli	t1,0x3
     bdc:	0186561b          	srliw	a2,a2,0x18
     be0:	0ff47413          	andi	s0,s0,255
     be4:	0a8e                	c.slli	s5,0x3
     be6:	0ffe7e13          	andi	t3,t3,255
     bea:	0187571b          	srliw	a4,a4,0x18
     bee:	10048493          	addi	s1,s1,256
     bf2:	0fffff93          	andi	t6,t6,255
     bf6:	006782b3          	add	t0,a5,t1
     bfa:	9abe                	c.add	s5,a5
     bfc:	0186d89b          	srliw	a7,a3,0x18
     c00:	200e8393          	addi	t2,t4,512
     c04:	016786b3          	add	a3,a5,s6
     c08:	00080e9b          	addiw	t4,a6,0
     c0c:	200e0e13          	addi	t3,t3,512
     c10:	2701                	c.addiw	a4,0
     c12:	0006031b          	addiw	t1,a2,0
     c16:	0a0e                	c.slli	s4,0x3
     c18:	10040413          	addi	s0,s0,256
     c1c:	0fff7f13          	andi	t5,t5,255
     c20:	098e                	c.slli	s3,0x3
     c22:	090e                	c.slli	s2,0x3
     c24:	048e                	c.slli	s1,0x3
     c26:	200f8f93          	addi	t6,t6,512
     c2a:	000abb83          	ld	s7,0(s5)
     c2e:	0006bb03          	ld	s6,0(a3)
     c32:	0002ba83          	ld	s5,0(t0)
     c36:	04853803          	ld	a6,72(a0)
     c3a:	6930                	c.ld	a2,80(a0)
     c3c:	6d34                	c.ld	a3,88(a0)
     c3e:	9a3e                	c.add	s4,a5
     c40:	99be                	c.add	s3,a5
     c42:	993e                	c.add	s2,a5
     c44:	003e1293          	slli	t0,t3,0x3
     c48:	94be                	c.add	s1,a5
     c4a:	30070e13          	addi	t3,a4,768
     c4e:	040e                	c.slli	s0,0x3
     c50:	200f0f13          	addi	t5,t5,512
     c54:	2881                	c.addiw	a7,0
     c56:	038e                	c.slli	t2,0x3
     c58:	300e8e93          	addi	t4,t4,768
     c5c:	0f8e                	c.slli	t6,0x3
     c5e:	30030313          	addi	t1,t1,768
     c62:	6138                	c.ld	a4,64(a0)
     c64:	000a3a03          	ld	s4,0(s4)
     c68:	0009b983          	ld	s3,0(s3)
     c6c:	00093903          	ld	s2,0(s2)
     c70:	6084                	c.ld	s1,0(s1)
     c72:	943e                	c.add	s0,a5
     c74:	93be                	c.add	t2,a5
     c76:	92be                	c.add	t0,a5
     c78:	9fbe                	c.add	t6,a5
     c7a:	0f0e                	c.slli	t5,0x3
     c7c:	30088893          	addi	a7,a7,768
     c80:	0e8e                	c.slli	t4,0x3
     c82:	0e0e                	c.slli	t3,0x3
     c84:	030e                	c.slli	t1,0x3
     c86:	6000                	c.ld	s0,0(s0)
     c88:	0003b383          	ld	t2,0(t2)
     c8c:	0002b283          	ld	t0,0(t0)
     c90:	000fbf83          	ld	t6,0(t6)
     c94:	9f3e                	c.add	t5,a5
     c96:	9ebe                	c.add	t4,a5
     c98:	9e3e                	c.add	t3,a5
     c9a:	933e                	c.add	t1,a5
     c9c:	088e                	c.slli	a7,0x3
     c9e:	000f3f03          	ld	t5,0(t5)
     ca2:	000ebe83          	ld	t4,0(t4)
     ca6:	000e3e03          	ld	t3,0(t3)
     caa:	00033303          	ld	t1,0(t1)
     cae:	98be                	c.add	a7,a5
     cb0:	01784833          	xor	a6,a6,s7
     cb4:	01664633          	xor	a2,a2,s6
     cb8:	0156c6b3          	xor	a3,a3,s5
     cbc:	0008b883          	ld	a7,0(a7)
     cc0:	01474733          	xor	a4,a4,s4
     cc4:	01384833          	xor	a6,a6,s3
     cc8:	01264633          	xor	a2,a2,s2
     ccc:	8ea5                	c.xor	a3,s1
     cce:	8f21                	c.xor	a4,s0
     cd0:	00784833          	xor	a6,a6,t2
     cd4:	00564633          	xor	a2,a2,t0
     cd8:	01f6c6b3          	xor	a3,a3,t6
     cdc:	01d84833          	xor	a6,a6,t4
     ce0:	01c64633          	xor	a2,a2,t3
     ce4:	0066c6b3          	xor	a3,a3,t1
     ce8:	01e74733          	xor	a4,a4,t5
     cec:	01174733          	xor	a4,a4,a7
     cf0:	00885e13          	srli	t3,a6,0x8
     cf4:	01065313          	srli	t1,a2,0x10
     cf8:	0186d89b          	srliw	a7,a3,0x18
     cfc:	00865f13          	srli	t5,a2,0x8
     d00:	0086d993          	srli	s3,a3,0x8
     d04:	00875493          	srli	s1,a4,0x8
     d08:	0ffe7e13          	andi	t3,t3,255
     d0c:	0ff37313          	andi	t1,t1,255
     d10:	2881                	c.addiw	a7,0
     d12:	0ff67b93          	andi	s7,a2,255
     d16:	0ff77b13          	andi	s6,a4,255
     d1a:	100e0e13          	addi	t3,t3,256
     d1e:	20030313          	addi	t1,t1,512
     d22:	0ff87a93          	andi	s5,a6,255
     d26:	0fff7f13          	andi	t5,t5,255
     d2a:	0106dc93          	srli	s9,a3,0x10
     d2e:	01075f93          	srli	t6,a4,0x10
     d32:	0ff6f693          	andi	a3,a3,255
     d36:	01085e93          	srli	t4,a6,0x10
     d3a:	30088893          	addi	a7,a7,768
     d3e:	0ff9f993          	andi	s3,s3,255
     d42:	0ff4f493          	andi	s1,s1,255
     d46:	00331413          	slli	s0,t1,0x3
     d4a:	003e1a13          	slli	s4,t3,0x3
     d4e:	100f0913          	addi	s2,t5,256
     d52:	0187571b          	srliw	a4,a4,0x18
     d56:	003b9f13          	slli	t5,s7,0x3
     d5a:	0188531b          	srliw	t1,a6,0x18
     d5e:	00369393          	slli	t2,a3,0x3
     d62:	0186561b          	srliw	a2,a2,0x18
     d66:	0b0e                	c.slli	s6,0x3
     d68:	088e                	c.slli	a7,0x3
     d6a:	0a8e                	c.slli	s5,0x3
     d6c:	0ffcfc93          	andi	s9,s9,255
     d70:	10098993          	addi	s3,s3,256
     d74:	0fffff93          	andi	t6,t6,255
     d78:	10048493          	addi	s1,s1,256
     d7c:	0ffefe93          	andi	t4,t4,255
     d80:	9b3e                	c.add	s6,a5
     d82:	008786b3          	add	a3,a5,s0
     d86:	98be                	c.add	a7,a5
     d88:	9abe                	c.add	s5,a5
     d8a:	93be                	c.add	t2,a5
     d8c:	9a3e                	c.add	s4,a5
     d8e:	00070e1b          	addiw	t3,a4,0
     d92:	098e                	c.slli	s3,0x3
     d94:	01e78733          	add	a4,a5,t5
     d98:	048e                	c.slli	s1,0x3
     d9a:	0006081b          	addiw	a6,a2,0
     d9e:	090e                	c.slli	s2,0x3
     da0:	200c8c93          	addi	s9,s9,512
     da4:	200f8f93          	addi	t6,t6,512
     da8:	2301                	c.addiw	t1,0
     daa:	200e8e93          	addi	t4,t4,512
     dae:	000b3c03          	ld	s8,0(s6)
     db2:	6280                	c.ld	s0,0(a3)
     db4:	7130                	c.ld	a2,96(a0)
     db6:	000a3a03          	ld	s4,0(s4)
     dba:	993e                	c.add	s2,a5
     dbc:	0008bf03          	ld	t5,0(a7)
     dc0:	009782b3          	add	t0,a5,s1
     dc4:	000abb83          	ld	s7,0(s5)
     dc8:	00073b03          	ld	s6,0(a4)
     dcc:	0003ba83          	ld	s5,0(t2)
     dd0:	7534                	c.ld	a3,104(a0)
     dd2:	013783b3          	add	t2,a5,s3
     dd6:	07053883          	ld	a7,112(a0)
     dda:	7d38                	c.ld	a4,120(a0)
     ddc:	0c8e                	c.slli	s9,0x3
     dde:	300e0e13          	addi	t3,t3,768
     de2:	0f8e                	c.slli	t6,0x3
     de4:	30030313          	addi	t1,t1,768
     de8:	0e8e                	c.slli	t4,0x3
     dea:	30080813          	addi	a6,a6,768
     dee:	00093983          	ld	s3,0(s2)
     df2:	0002b483          	ld	s1,0(t0)
     df6:	0003b903          	ld	s2,0(t2)
     dfa:	019782b3          	add	t0,a5,s9
     dfe:	9fbe                	c.add	t6,a5
     e00:	9ebe                	c.add	t4,a5
     e02:	0e0e                	c.slli	t3,0x3
     e04:	030e                	c.slli	t1,0x3
     e06:	080e                	c.slli	a6,0x3
     e08:	0002b383          	ld	t2,0(t0)
     e0c:	9e3e                	c.add	t3,a5
     e0e:	000fb283          	ld	t0,0(t6)
     e12:	933e                	c.add	t1,a5
     e14:	000ebf83          	ld	t6,0(t4)
     e18:	983e                	c.add	a6,a5
     e1a:	000e3e83          	ld	t4,0(t3)
     e1e:	00083803          	ld	a6,0(a6)
     e22:	00033e03          	ld	t3,0(t1)
     e26:	01864633          	xor	a2,a2,s8
     e2a:	0176c6b3          	xor	a3,a3,s7
     e2e:	0168c8b3          	xor	a7,a7,s6
     e32:	01574733          	xor	a4,a4,s5
     e36:	01464633          	xor	a2,a2,s4
     e3a:	0136c6b3          	xor	a3,a3,s3
     e3e:	0128c8b3          	xor	a7,a7,s2
     e42:	8f25                	c.xor	a4,s1
     e44:	8e21                	c.xor	a2,s0
     e46:	0076c6b3          	xor	a3,a3,t2
     e4a:	0058c8b3          	xor	a7,a7,t0
     e4e:	01f74733          	xor	a4,a4,t6
     e52:	01d6c6b3          	xor	a3,a3,t4
     e56:	01e64633          	xor	a2,a2,t5
     e5a:	01c8c8b3          	xor	a7,a7,t3
     e5e:	01074733          	xor	a4,a4,a6
     e62:	0086d293          	srli	t0,a3,0x8
     e66:	0108df93          	srli	t6,a7,0x10
     e6a:	01875f1b          	srliw	t5,a4,0x18
     e6e:	0088de93          	srli	t4,a7,0x8
     e72:	01075e13          	srli	t3,a4,0x10
     e76:	0186581b          	srliw	a6,a2,0x18
     e7a:	00875913          	srli	s2,a4,0x8
     e7e:	01065c13          	srli	s8,a2,0x10
     e82:	0186d41b          	srliw	s0,a3,0x18
     e86:	2f01                	c.addiw	t5,0
     e88:	0ffe7e13          	andi	t3,t3,255
     e8c:	2801                	c.addiw	a6,0
     e8e:	00865493          	srli	s1,a2,0x8
     e92:	0ff2f293          	andi	t0,t0,255
     e96:	0fffff93          	andi	t6,t6,255
     e9a:	0ffefe93          	andi	t4,t4,255
     e9e:	0ff97913          	andi	s2,s2,255
     ea2:	0ffc7c13          	andi	s8,s8,255
     ea6:	2401                	c.addiw	s0,0
     ea8:	300f0993          	addi	s3,t5,768
     eac:	0ff6f393          	andi	t2,a3,255
     eb0:	200e0c93          	addi	s9,t3,512
     eb4:	30080b13          	addi	s6,a6,768
     eb8:	0ff8ff13          	andi	t5,a7,255
     ebc:	0ff77713          	andi	a4,a4,255
     ec0:	0106d313          	srli	t1,a3,0x10
     ec4:	0ff67613          	andi	a2,a2,255
     ec8:	10028293          	addi	t0,t0,256
     ecc:	200f8f93          	addi	t6,t6,512
     ed0:	100e8e93          	addi	t4,t4,256
     ed4:	10090913          	addi	s2,s2,256
     ed8:	200c0c13          	addi	s8,s8,512
     edc:	30040413          	addi	s0,s0,768
     ee0:	0ff4f493          	andi	s1,s1,255
     ee4:	098e                	c.slli	s3,0x3
     ee6:	040e                	c.slli	s0,0x3
     ee8:	00371a93          	slli	s5,a4,0x3
     eec:	060e                	c.slli	a2,0x3
     eee:	028e                	c.slli	t0,0x3
     ef0:	0f8e                	c.slli	t6,0x3
     ef2:	038e                	c.slli	t2,0x3
     ef4:	0e8e                	c.slli	t4,0x3
     ef6:	0c8e                	c.slli	s9,0x3
     ef8:	0b0e                	c.slli	s6,0x3
     efa:	0f0e                	c.slli	t5,0x3
     efc:	090e                	c.slli	s2,0x3
     efe:	0c0e                	c.slli	s8,0x3
     f00:	10048493          	addi	s1,s1,256
     f04:	0ff37313          	andi	t1,t1,255
     f08:	0188d89b          	srliw	a7,a7,0x18
     f0c:	01378733          	add	a4,a5,s3
     f10:	008786b3          	add	a3,a5,s0
     f14:	963e                	c.add	a2,a5
     f16:	92be                	c.add	t0,a5
     f18:	9fbe                	c.add	t6,a5
     f1a:	93be                	c.add	t2,a5
     f1c:	9ebe                	c.add	t4,a5
     f1e:	9cbe                	c.add	s9,a5
     f20:	9b3e                	c.add	s6,a5
     f22:	9f3e                	c.add	t5,a5
     f24:	9c3e                	c.add	s8,a5
     f26:	993e                	c.add	s2,a5
     f28:	9abe                	c.add	s5,a5
     f2a:	048e                	c.slli	s1,0x3
     f2c:	20030313          	addi	t1,t1,512
     f30:	2881                	c.addiw	a7,0
     f32:	00063b83          	ld	s7,0(a2)
     f36:	0002ba03          	ld	s4,0(t0)
     f3a:	000fb403          	ld	s0,0(t6)
     f3e:	0003b983          	ld	s3,0(t2)
     f42:	00073f83          	ld	t6,0(a4)
     f46:	000eb383          	ld	t2,0(t4)
     f4a:	000b3e03          	ld	t3,0(s6)
     f4e:	000cbe83          	ld	t4,0(s9)
     f52:	000f3b03          	ld	s6,0(t5)
     f56:	000c3283          	ld	t0,0(s8)
     f5a:	0006bf03          	ld	t5,0(a3)
     f5e:	08053803          	ld	a6,128(a0)
     f62:	6558                	c.ld	a4,136(a0)
     f64:	6950                	c.ld	a2,144(a0)
     f66:	00093903          	ld	s2,0(s2)
     f6a:	6d54                	c.ld	a3,152(a0)
     f6c:	94be                	c.add	s1,a5
     f6e:	000aba83          	ld	s5,0(s5)
     f72:	030e                	c.slli	t1,0x3
     f74:	30088893          	addi	a7,a7,768
     f78:	6084                	c.ld	s1,0(s1)
     f7a:	933e                	c.add	t1,a5
     f7c:	088e                	c.slli	a7,0x3
     f7e:	00033303          	ld	t1,0(t1)
     f82:	98be                	c.add	a7,a5
     f84:	0008b883          	ld	a7,0(a7)
     f88:	01784833          	xor	a6,a6,s7
     f8c:	01664633          	xor	a2,a2,s6
     f90:	0156c6b3          	xor	a3,a3,s5
     f94:	01484833          	xor	a6,a6,s4
     f98:	01374733          	xor	a4,a4,s3
     f9c:	01264633          	xor	a2,a2,s2
     fa0:	8ea5                	c.xor	a3,s1
     fa2:	00884833          	xor	a6,a6,s0
     fa6:	00774733          	xor	a4,a4,t2
     faa:	00564633          	xor	a2,a2,t0
     fae:	0066c6b3          	xor	a3,a3,t1
     fb2:	0116c6b3          	xor	a3,a3,a7
     fb6:	01f84833          	xor	a6,a6,t6
     fba:	01e64633          	xor	a2,a2,t5
     fbe:	01d74733          	xor	a4,a4,t4
     fc2:	01c74733          	xor	a4,a4,t3
     fc6:	00865e93          	srli	t4,a2,0x8
     fca:	0086d313          	srli	t1,a3,0x8
     fce:	00885913          	srli	s2,a6,0x8
     fd2:	0ff67893          	andi	a7,a2,255
     fd6:	00875413          	srli	s0,a4,0x8
     fda:	0ff77b93          	andi	s7,a4,255
     fde:	0ffefe93          	andi	t4,t4,255
     fe2:	0106d393          	srli	t2,a3,0x10
     fe6:	0ff37313          	andi	t1,t1,255
     fea:	01085e13          	srli	t3,a6,0x10
     fee:	0ff6fb13          	andi	s6,a3,255
     ff2:	01075c93          	srli	s9,a4,0x10
     ff6:	0ff97913          	andi	s2,s2,255
     ffa:	0ff87a93          	andi	s5,a6,255
     ffe:	01065493          	srli	s1,a2,0x10
    1002:	100e8a13          	addi	s4,t4,256
    1006:	0188581b          	srliw	a6,a6,0x18
    100a:	00389e93          	slli	t4,a7,0x3
    100e:	10030993          	addi	s3,t1,256
    1012:	0b0e                	c.slli	s6,0x3
    1014:	0186561b          	srliw	a2,a2,0x18
    1018:	0ff47413          	andi	s0,s0,255
    101c:	0b8e                	c.slli	s7,0x3
    101e:	0ff3f393          	andi	t2,t2,255
    1022:	0ffe7e13          	andi	t3,t3,255
    1026:	0187571b          	srliw	a4,a4,0x18
    102a:	10090913          	addi	s2,s2,256
    102e:	0ffcfc93          	andi	s9,s9,255
    1032:	9bbe                	c.add	s7,a5
    1034:	00080f9b          	addiw	t6,a6,0
    1038:	016782b3          	add	t0,a5,s6
    103c:	00060f1b          	addiw	t5,a2,0
    1040:	0186d89b          	srliw	a7,a3,0x18
    1044:	200e0e13          	addi	t3,t3,512
    1048:	01d786b3          	add	a3,a5,t4
    104c:	2701                	c.addiw	a4,0
    104e:	200c8c93          	addi	s9,s9,512
    1052:	0a8e                	c.slli	s5,0x3
    1054:	10040413          	addi	s0,s0,256
    1058:	0ff4f493          	andi	s1,s1,255
    105c:	0a0e                	c.slli	s4,0x3
    105e:	20038393          	addi	t2,t2,512
    1062:	098e                	c.slli	s3,0x3
    1064:	090e                	c.slli	s2,0x3
    1066:	000bbc03          	ld	s8,0(s7)
    106a:	0002bb03          	ld	s6,0(t0)
    106e:	0006bb83          	ld	s7,0(a3)
    1072:	0a853803          	ld	a6,168(a0)
    1076:	7950                	c.ld	a2,176(a0)
    1078:	7d54                	c.ld	a3,184(a0)
    107a:	9abe                	c.add	s5,a5
    107c:	20048493          	addi	s1,s1,512
    1080:	9a3e                	c.add	s4,a5
    1082:	300f8e93          	addi	t4,t6,768
    1086:	99be                	c.add	s3,a5
    1088:	003e1293          	slli	t0,t3,0x3
    108c:	993e                	c.add	s2,a5
    108e:	30070e13          	addi	t3,a4,768
    1092:	003c9f93          	slli	t6,s9,0x3
    1096:	300f0313          	addi	t1,t5,768
    109a:	040e                	c.slli	s0,0x3
    109c:	2881                	c.addiw	a7,0
    109e:	038e                	c.slli	t2,0x3
    10a0:	7158                	c.ld	a4,160(a0)
    10a2:	000aba83          	ld	s5,0(s5)
    10a6:	000a3a03          	ld	s4,0(s4)
    10aa:	0009b983          	ld	s3,0(s3)
    10ae:	00093903          	ld	s2,0(s2)
    10b2:	943e                	c.add	s0,a5
    10b4:	93be                	c.add	t2,a5
    10b6:	92be                	c.add	t0,a5
    10b8:	9fbe                	c.add	t6,a5
    10ba:	00349f13          	slli	t5,s1,0x3
    10be:	30088893          	addi	a7,a7,768
    10c2:	0e8e                	c.slli	t4,0x3
    10c4:	0e0e                	c.slli	t3,0x3
    10c6:	030e                	c.slli	t1,0x3
    10c8:	6004                	c.ld	s1,0(s0)
    10ca:	9ebe                	c.add	t4,a5
    10cc:	0003b403          	ld	s0,0(t2)
    10d0:	9e3e                	c.add	t3,a5
    10d2:	0002b383          	ld	t2,0(t0)
    10d6:	933e                	c.add	t1,a5
    10d8:	000fb283          	ld	t0,0(t6)
    10dc:	9f3e                	c.add	t5,a5
    10de:	088e                	c.slli	a7,0x3
    10e0:	000ebf83          	ld	t6,0(t4)
    10e4:	000f3f03          	ld	t5,0(t5)
    10e8:	000e3e83          	ld	t4,0(t3)
    10ec:	98be                	c.add	a7,a5
    10ee:	00033e03          	ld	t3,0(t1)
    10f2:	01884833          	xor	a6,a6,s8
    10f6:	01764633          	xor	a2,a2,s7
    10fa:	0166c6b3          	xor	a3,a3,s6
    10fe:	0008b303          	ld	t1,0(a7)
    1102:	01574733          	xor	a4,a4,s5
    1106:	01484833          	xor	a6,a6,s4
    110a:	01364633          	xor	a2,a2,s3
    110e:	0126c6b3          	xor	a3,a3,s2
    1112:	8f25                	c.xor	a4,s1
    1114:	00884833          	xor	a6,a6,s0
    1118:	00764633          	xor	a2,a2,t2
    111c:	0056c6b3          	xor	a3,a3,t0
    1120:	01d64633          	xor	a2,a2,t4
    1124:	01f84833          	xor	a6,a6,t6
    1128:	01c6c6b3          	xor	a3,a3,t3
    112c:	01e74733          	xor	a4,a4,t5
    1130:	00674733          	xor	a4,a4,t1
    1134:	00885e93          	srli	t4,a6,0x8
    1138:	01065e13          	srli	t3,a2,0x10
    113c:	0186d31b          	srliw	t1,a3,0x18
    1140:	00865f93          	srli	t6,a2,0x8
    1144:	0106df13          	srli	t5,a3,0x10
    1148:	0fffff93          	andi	t6,t6,255
    114c:	0fff7f13          	andi	t5,t5,255
    1150:	0086dc13          	srli	s8,a3,0x8
    1154:	00875413          	srli	s0,a4,0x8
    1158:	0ffefe93          	andi	t4,t4,255
    115c:	0ffe7e13          	andi	t3,t3,255
    1160:	2301                	c.addiw	t1,0
    1162:	0ff77993          	andi	s3,a4,255
    1166:	100e8e93          	addi	t4,t4,256
    116a:	30030313          	addi	t1,t1,768
    116e:	0ff87b13          	andi	s6,a6,255
    1172:	100f8913          	addi	s2,t6,256
    1176:	200f0293          	addi	t0,t5,512
    117a:	0ff67a93          	andi	s5,a2,255
    117e:	01075f93          	srli	t6,a4,0x10
    1182:	01085f13          	srli	t5,a6,0x10
    1186:	200e0e13          	addi	t3,t3,512
    118a:	0ffc7c13          	andi	s8,s8,255
    118e:	0ff6f693          	andi	a3,a3,255
    1192:	0ff47413          	andi	s0,s0,255
    1196:	003e9393          	slli	t2,t4,0x3
    119a:	00331a13          	slli	s4,t1,0x3
    119e:	0188581b          	srliw	a6,a6,0x18
    11a2:	068e                	c.slli	a3,0x3
    11a4:	0186589b          	srliw	a7,a2,0x18
    11a8:	098e                	c.slli	s3,0x3
    11aa:	0e0e                	c.slli	t3,0x3
    11ac:	0b0e                	c.slli	s6,0x3
    11ae:	090e                	c.slli	s2,0x3
    11b0:	028e                	c.slli	t0,0x3
    11b2:	0187571b          	srliw	a4,a4,0x18
    11b6:	0a8e                	c.slli	s5,0x3
    11b8:	100c0c13          	addi	s8,s8,256
    11bc:	0fffff93          	andi	t6,t6,255
    11c0:	10040413          	addi	s0,s0,256
    11c4:	0fff7f13          	andi	t5,t5,255
    11c8:	00d784b3          	add	s1,a5,a3
    11cc:	99be                	c.add	s3,a5
    11ce:	93be                	c.add	t2,a5
    11d0:	9e3e                	c.add	t3,a5
    11d2:	9a3e                	c.add	s4,a5
    11d4:	9b3e                	c.add	s6,a5
    11d6:	993e                	c.add	s2,a5
    11d8:	92be                	c.add	t0,a5
    11da:	2701                	c.addiw	a4,0
    11dc:	9abe                	c.add	s5,a5
    11de:	0008031b          	addiw	t1,a6,0
    11e2:	0c0e                	c.slli	s8,0x3
    11e4:	200f8f93          	addi	t6,t6,512
    11e8:	040e                	c.slli	s0,0x3
    11ea:	200f0f13          	addi	t5,t5,512
    11ee:	2881                	c.addiw	a7,0
    11f0:	0009bb83          	ld	s7,0(s3)
    11f4:	000a3e83          	ld	t4,0(s4)
    11f8:	0003b983          	ld	s3,0(t2)
    11fc:	0c053803          	ld	a6,192(a0)
    1200:	000e3383          	ld	t2,0(t3)
    1204:	6570                	c.ld	a2,200(a0)
    1206:	000b3b03          	ld	s6,0(s6)
    120a:	00093903          	ld	s2,0(s2)
    120e:	9c3e                	c.add	s8,a5
    1210:	0002b283          	ld	t0,0(t0)
    1214:	30070e13          	addi	t3,a4,768
    1218:	0004ba03          	ld	s4,0(s1)
    121c:	6974                	c.ld	a3,208(a0)
    121e:	000aba83          	ld	s5,0(s5)
    1222:	6d78                	c.ld	a4,216(a0)
    1224:	943e                	c.add	s0,a5
    1226:	0f8e                	c.slli	t6,0x3
    1228:	30030313          	addi	t1,t1,768
    122c:	0f0e                	c.slli	t5,0x3
    122e:	30088893          	addi	a7,a7,768
    1232:	000c3483          	ld	s1,0(s8)
    1236:	6000                	c.ld	s0,0(s0)
    1238:	9fbe                	c.add	t6,a5
    123a:	9f3e                	c.add	t5,a5
    123c:	0e0e                	c.slli	t3,0x3
    123e:	030e                	c.slli	t1,0x3
    1240:	088e                	c.slli	a7,0x3
    1242:	000fbf83          	ld	t6,0(t6)
    1246:	000f3f03          	ld	t5,0(t5)
    124a:	9e3e                	c.add	t3,a5
    124c:	933e                	c.add	t1,a5
    124e:	98be                	c.add	a7,a5
    1250:	000e3e03          	ld	t3,0(t3)
    1254:	00033303          	ld	t1,0(t1)
    1258:	0008b883          	ld	a7,0(a7)
    125c:	01784833          	xor	a6,a6,s7
    1260:	01664633          	xor	a2,a2,s6
    1264:	0156c6b3          	xor	a3,a3,s5
    1268:	01474733          	xor	a4,a4,s4
    126c:	01384833          	xor	a6,a6,s3
    1270:	01264633          	xor	a2,a2,s2
    1274:	8ea5                	c.xor	a3,s1
    1276:	8f21                	c.xor	a4,s0
    1278:	00784833          	xor	a6,a6,t2
    127c:	00564633          	xor	a2,a2,t0
    1280:	01f6c6b3          	xor	a3,a3,t6
    1284:	01e74733          	xor	a4,a4,t5
    1288:	01d84833          	xor	a6,a6,t4
    128c:	01c64633          	xor	a2,a2,t3
    1290:	0066c6b3          	xor	a3,a3,t1
    1294:	01174733          	xor	a4,a4,a7
    1298:	00865313          	srli	t1,a2,0x8
    129c:	0086d893          	srli	a7,a3,0x8
    12a0:	00875413          	srli	s0,a4,0x8
    12a4:	00885993          	srli	s3,a6,0x8
    12a8:	0ff6fe93          	andi	t4,a3,255
    12ac:	0ff87a93          	andi	s5,a6,255
    12b0:	0106d293          	srli	t0,a3,0x10
    12b4:	0ff67a13          	andi	s4,a2,255
    12b8:	0ff8f893          	andi	a7,a7,255
    12bc:	01075c93          	srli	s9,a4,0x10
    12c0:	01085393          	srli	t2,a6,0x10
    12c4:	0ff77913          	andi	s2,a4,255
    12c8:	01065f13          	srli	t5,a2,0x10
    12cc:	0ff37313          	andi	t1,t1,255
    12d0:	0ff47413          	andi	s0,s0,255
    12d4:	0ff9f993          	andi	s3,s3,255
    12d8:	0187571b          	srliw	a4,a4,0x18
    12dc:	10088493          	addi	s1,a7,256
    12e0:	0188581b          	srliw	a6,a6,0x18
    12e4:	003e9893          	slli	a7,t4,0x3
    12e8:	0186561b          	srliw	a2,a2,0x18
    12ec:	0186d69b          	srliw	a3,a3,0x18
    12f0:	0a8e                	c.slli	s5,0x3
    12f2:	10030313          	addi	t1,t1,256
    12f6:	0ff2f293          	andi	t0,t0,255
    12fa:	0a0e                	c.slli	s4,0x3
    12fc:	0ffcfc93          	andi	s9,s9,255
    1300:	10040413          	addi	s0,s0,256
    1304:	0ff3f393          	andi	t2,t2,255
    1308:	090e                	c.slli	s2,0x3
    130a:	10098993          	addi	s3,s3,256
    130e:	0fff7f13          	andi	t5,t5,255
    1312:	9abe                	c.add	s5,a5
    1314:	9a3e                	c.add	s4,a5
    1316:	00060e1b          	addiw	t3,a2,0
    131a:	993e                	c.add	s2,a5
    131c:	030e                	c.slli	t1,0x3
    131e:	00070f9b          	addiw	t6,a4,0
    1322:	00080e9b          	addiw	t4,a6,0
    1326:	01178733          	add	a4,a5,a7
    132a:	098e                	c.slli	s3,0x3
    132c:	0006889b          	addiw	a7,a3,0
    1330:	20028293          	addi	t0,t0,512
    1334:	048e                	c.slli	s1,0x3
    1336:	200c8c93          	addi	s9,s9,512
    133a:	040e                	c.slli	s0,0x3
    133c:	20038393          	addi	t2,t2,512
    1340:	200f0f13          	addi	t5,t5,512
    1344:	000abb83          	ld	s7,0(s5)
    1348:	000a3b03          	ld	s6,0(s4)
    134c:	00073a83          	ld	s5,0(a4)
    1350:	00093a03          	ld	s4,0(s2)
    1354:	0e053803          	ld	a6,224(a0)
    1358:	00678933          	add	s2,a5,t1
    135c:	7570                	c.ld	a2,232(a0)
    135e:	7974                	c.ld	a3,240(a0)
    1360:	7d78                	c.ld	a4,248(a0)
    1362:	94be                	c.add	s1,a5
    1364:	943e                	c.add	s0,a5
    1366:	300f8f93          	addi	t6,t6,768
    136a:	0c8e                	c.slli	s9,0x3
    136c:	300e8e93          	addi	t4,t4,768
    1370:	038e                	c.slli	t2,0x3
    1372:	300e0313          	addi	t1,t3,768
    1376:	028e                	c.slli	t0,0x3
    1378:	01378e33          	add	t3,a5,s3
    137c:	0f0e                	c.slli	t5,0x3
    137e:	30088893          	addi	a7,a7,768
    1382:	00093983          	ld	s3,0(s2)
    1386:	92be                	c.add	t0,a5
    1388:	0004b903          	ld	s2,0(s1)
    138c:	003f9c13          	slli	s8,t6,0x3
    1390:	6004                	c.ld	s1,0(s0)
    1392:	01978fb3          	add	t6,a5,s9
    1396:	000e3403          	ld	s0,0(t3)
    139a:	9f3e                	c.add	t5,a5
    139c:	003e9e13          	slli	t3,t4,0x3
    13a0:	030e                	c.slli	t1,0x3
    13a2:	00778eb3          	add	t4,a5,t2
    13a6:	088e                	c.slli	a7,0x3
    13a8:	0002b383          	ld	t2,0(t0)
    13ac:	000f3f03          	ld	t5,0(t5)
    13b0:	000fb283          	ld	t0,0(t6)
    13b4:	9e3e                	c.add	t3,a5
    13b6:	000ebf83          	ld	t6,0(t4)
    13ba:	933e                	c.add	t1,a5
    13bc:	01878eb3          	add	t4,a5,s8
    13c0:	98be                	c.add	a7,a5
    13c2:	000ebe83          	ld	t4,0(t4)
    13c6:	000e3e03          	ld	t3,0(t3)
    13ca:	00033303          	ld	t1,0(t1)
    13ce:	0008b883          	ld	a7,0(a7)
    13d2:	01784833          	xor	a6,a6,s7
    13d6:	01664633          	xor	a2,a2,s6
    13da:	0156c6b3          	xor	a3,a3,s5
    13de:	01474733          	xor	a4,a4,s4
    13e2:	01384833          	xor	a6,a6,s3
    13e6:	01264633          	xor	a2,a2,s2
    13ea:	8ea5                	c.xor	a3,s1
    13ec:	8f21                	c.xor	a4,s0
    13ee:	00784833          	xor	a6,a6,t2
    13f2:	00564633          	xor	a2,a2,t0
    13f6:	01f6c6b3          	xor	a3,a3,t6
    13fa:	01e74733          	xor	a4,a4,t5
    13fe:	01d84833          	xor	a6,a6,t4
    1402:	01c64633          	xor	a2,a2,t3
    1406:	0066c6b3          	xor	a3,a3,t1
    140a:	01174733          	xor	a4,a4,a7
    140e:	00865313          	srli	t1,a2,0x8
    1412:	0086d893          	srli	a7,a3,0x8
    1416:	00875493          	srli	s1,a4,0x8
    141a:	00885413          	srli	s0,a6,0x8
    141e:	0ff77f93          	andi	t6,a4,255
    1422:	0ff87a13          	andi	s4,a6,255
    1426:	0ff37313          	andi	t1,t1,255
    142a:	0106d393          	srli	t2,a3,0x10
    142e:	0ff67f13          	andi	t5,a2,255
    1432:	01075993          	srli	s3,a4,0x10
    1436:	0ff6fe13          	andi	t3,a3,255
    143a:	01085c93          	srli	s9,a6,0x10
    143e:	01065e93          	srli	t4,a2,0x10
    1442:	0ff8f893          	andi	a7,a7,255
    1446:	0ff4f493          	andi	s1,s1,255
    144a:	0ff47413          	andi	s0,s0,255
    144e:	10030913          	addi	s2,t1,256
    1452:	0187571b          	srliw	a4,a4,0x18
    1456:	0f0e                	c.slli	t5,0x3
    1458:	0186561b          	srliw	a2,a2,0x18
    145c:	003f9313          	slli	t1,t6,0x3
    1460:	0186d69b          	srliw	a3,a3,0x18
    1464:	0a0e                	c.slli	s4,0x3
    1466:	0ff3f393          	andi	t2,t2,255
    146a:	10088893          	addi	a7,a7,256
    146e:	0ff9f993          	andi	s3,s3,255
    1472:	0188581b          	srliw	a6,a6,0x18
    1476:	0e0e                	c.slli	t3,0x3
    1478:	10048493          	addi	s1,s1,256
    147c:	0ffcfc93          	andi	s9,s9,255
    1480:	10040413          	addi	s0,s0,256
    1484:	0ffefe93          	andi	t4,t4,255
    1488:	9a3e                	c.add	s4,a5
    148a:	0007029b          	addiw	t0,a4,0
    148e:	9e3e                	c.add	t3,a5
    1490:	01e78733          	add	a4,a5,t5
    1494:	933e                	c.add	t1,a5
    1496:	20098993          	addi	s3,s3,512
    149a:	00060f9b          	addiw	t6,a2,0
    149e:	00068f1b          	addiw	t5,a3,0
    14a2:	090e                	c.slli	s2,0x3
    14a4:	20038393          	addi	t2,t2,512
    14a8:	088e                	c.slli	a7,0x3
    14aa:	2801                	c.addiw	a6,0
    14ac:	048e                	c.slli	s1,0x3
    14ae:	200c8c93          	addi	s9,s9,512
    14b2:	040e                	c.slli	s0,0x3
    14b4:	200e8e93          	addi	t4,t4,512
    14b8:	10053603          	ld	a2,256(a0)
    14bc:	993e                	c.add	s2,a5
    14be:	000a3b83          	ld	s7,0(s4)
    14c2:	00073b03          	ld	s6,0(a4)
    14c6:	000e3a83          	ld	s5,0(t3)
    14ca:	00033a03          	ld	s4,0(t1)
    14ce:	11853e03          	ld	t3,280(a0)
    14d2:	10853683          	ld	a3,264(a0)
    14d6:	11053703          	ld	a4,272(a0)
    14da:	98be                	c.add	a7,a5
    14dc:	30028313          	addi	t1,t0,768
    14e0:	30080813          	addi	a6,a6,768
    14e4:	00399293          	slli	t0,s3,0x3
    14e8:	94be                	c.add	s1,a5
    14ea:	300f8f93          	addi	t6,t6,768
    14ee:	943e                	c.add	s0,a5
    14f0:	300f0f13          	addi	t5,t5,768
    14f4:	038e                	c.slli	t2,0x3
    14f6:	0c8e                	c.slli	s9,0x3
    14f8:	0e8e                	c.slli	t4,0x3
    14fa:	00093983          	ld	s3,0(s2)
    14fe:	6084                	c.ld	s1,0(s1)
    1500:	0008b903          	ld	s2,0(a7)
    1504:	6000                	c.ld	s0,0(s0)
    1506:	9ebe                	c.add	t4,a5
    1508:	003f1c13          	slli	s8,t5,0x3
    150c:	93be                	c.add	t2,a5
    150e:	92be                	c.add	t0,a5
    1510:	00381893          	slli	a7,a6,0x3
    1514:	9cbe                	c.add	s9,a5
    1516:	003f9813          	slli	a6,t6,0x3
    151a:	030e                	c.slli	t1,0x3
    151c:	000ebf03          	ld	t5,0(t4)
    1520:	0003b383          	ld	t2,0(t2)
    1524:	0002b283          	ld	t0,0(t0)
    1528:	000cbf83          	ld	t6,0(s9)
    152c:	933e                	c.add	t1,a5
    152e:	98be                	c.add	a7,a5
    1530:	983e                	c.add	a6,a5
    1532:	97e2                	c.add	a5,s8
    1534:	00033e83          	ld	t4,0(t1)
    1538:	01764633          	xor	a2,a2,s7
    153c:	0008b303          	ld	t1,0(a7)
    1540:	0166c6b3          	xor	a3,a3,s6
    1544:	00083883          	ld	a7,0(a6)
    1548:	01574733          	xor	a4,a4,s5
    154c:	0007b803          	ld	a6,0(a5)
    1550:	014e47b3          	xor	a5,t3,s4
    1554:	01364633          	xor	a2,a2,s3
    1558:	0126c6b3          	xor	a3,a3,s2
    155c:	8f25                	c.xor	a4,s1
    155e:	8fa1                	c.xor	a5,s0
    1560:	00764633          	xor	a2,a2,t2
    1564:	0056c6b3          	xor	a3,a3,t0
    1568:	01f74733          	xor	a4,a4,t6
    156c:	01e7c7b3          	xor	a5,a5,t5
    1570:	01d64633          	xor	a2,a2,t4
    1574:	0066c6b3          	xor	a3,a3,t1
    1578:	01174733          	xor	a4,a4,a7
    157c:	0107c7b3          	xor	a5,a5,a6
    1580:	0086d493          	srli	s1,a3,0x8
    1584:	01075f93          	srli	t6,a4,0x10
    1588:	0187de1b          	srliw	t3,a5,0x18
    158c:	00875f13          	srli	t5,a4,0x8
    1590:	0107d313          	srli	t1,a5,0x10
    1594:	0186581b          	srliw	a6,a2,0x18
    1598:	0087d913          	srli	s2,a5,0x8
    159c:	00865b93          	srli	s7,a2,0x8
    15a0:	0ff4f493          	andi	s1,s1,255
    15a4:	0fffff93          	andi	t6,t6,255
    15a8:	2e01                	c.addiw	t3,0
    15aa:	0fff7f13          	andi	t5,t5,255
    15ae:	0ff37313          	andi	t1,t1,255
    15b2:	2801                	c.addiw	a6,0
    15b4:	0ff97913          	andi	s2,s2,255
    15b8:	0ff67a13          	andi	s4,a2,255
    15bc:	0ff6f413          	andi	s0,a3,255
    15c0:	0ff77993          	andi	s3,a4,255
    15c4:	0ff7f793          	andi	a5,a5,255
    15c8:	0106d893          	srli	a7,a3,0x10
    15cc:	10048493          	addi	s1,s1,256
    15d0:	200f8f93          	addi	t6,t6,512
    15d4:	300e0e13          	addi	t3,t3,768
    15d8:	100f0f13          	addi	t5,t5,256
    15dc:	20030313          	addi	t1,t1,512
    15e0:	30080813          	addi	a6,a6,768
    15e4:	10090913          	addi	s2,s2,256
    15e8:	8241                	c.srli	a2,0x10
    15ea:	0ffbfb93          	andi	s7,s7,255
    15ee:	00000b37          	lui	s6,0x0
    15f2:	000b0b13          	addi	s6,s6,0 # 0 <set_key>
    15f6:	080e                	c.slli	a6,0x3
    15f8:	0ff67613          	andi	a2,a2,255
    15fc:	0186d69b          	srliw	a3,a3,0x18
    1600:	00379e93          	slli	t4,a5,0x3
    1604:	0187571b          	srliw	a4,a4,0x18
    1608:	0a0e                	c.slli	s4,0x3
    160a:	048e                	c.slli	s1,0x3
    160c:	0f8e                	c.slli	t6,0x3
    160e:	0e0e                	c.slli	t3,0x3
    1610:	040e                	c.slli	s0,0x3
    1612:	0f0e                	c.slli	t5,0x3
    1614:	030e                	c.slli	t1,0x3
    1616:	098e                	c.slli	s3,0x3
    1618:	090e                	c.slli	s2,0x3
    161a:	100b8b93          	addi	s7,s7,256
    161e:	0ff8f893          	andi	a7,a7,255
    1622:	016807b3          	add	a5,a6,s6
    1626:	20060393          	addi	t2,a2,512
    162a:	0007029b          	addiw	t0,a4,0
    162e:	9a5a                	c.add	s4,s6
    1630:	945a                	c.add	s0,s6
    1632:	9f5a                	c.add	t5,s6
    1634:	935a                	c.add	t1,s6
    1636:	995a                	c.add	s2,s6
    1638:	0006881b          	addiw	a6,a3,0
    163c:	9eda                	c.add	t4,s6
    163e:	94da                	c.add	s1,s6
    1640:	9fda                	c.add	t6,s6
    1642:	9e5a                	c.add	t3,s6
    1644:	99da                	c.add	s3,s6
    1646:	0b8e                	c.slli	s7,0x3
    1648:	20088893          	addi	a7,a7,512
    164c:	12053603          	ld	a2,288(a0)
    1650:	000a3a83          	ld	s5,0(s4)
    1654:	12853703          	ld	a4,296(a0)
    1658:	00043a03          	ld	s4,0(s0)
    165c:	6084                	c.ld	s1,0(s1)
    165e:	000f3403          	ld	s0,0(t5)
    1662:	000fbf83          	ld	t6,0(t6)
    1666:	00033f03          	ld	t5,0(t1)
    166a:	000e3e03          	ld	t3,0(t3)
    166e:	0007b303          	ld	t1,0(a5)
    1672:	0009b983          	ld	s3,0(s3)
    1676:	13053783          	ld	a5,304(a0)
    167a:	00339c13          	slli	s8,t2,0x3
    167e:	30080813          	addi	a6,a6,768
    1682:	00093383          	ld	t2,0(s2)
    1686:	9bda                	c.add	s7,s6
    1688:	13853683          	ld	a3,312(a0)
    168c:	000eb903          	ld	s2,0(t4)
    1690:	30028513          	addi	a0,t0,768
    1694:	088e                	c.slli	a7,0x3
    1696:	9c5a                	c.add	s8,s6
    1698:	080e                	c.slli	a6,0x3
    169a:	000bb283          	ld	t0,0(s7)
    169e:	98da                	c.add	a7,s6
    16a0:	050e                	c.slli	a0,0x3
    16a2:	000c3e83          	ld	t4,0(s8)
    16a6:	985a                	c.add	a6,s6
    16a8:	0008b883          	ld	a7,0(a7)
    16ac:	955a                	c.add	a0,s6
    16ae:	01564633          	xor	a2,a2,s5
    16b2:	01474733          	xor	a4,a4,s4
    16b6:	0137c7b3          	xor	a5,a5,s3
    16ba:	00083803          	ld	a6,0(a6)
    16be:	0126c6b3          	xor	a3,a3,s2
    16c2:	6108                	c.ld	a0,0(a0)
    16c4:	8e25                	c.xor	a2,s1
    16c6:	8f21                	c.xor	a4,s0
    16c8:	0077c7b3          	xor	a5,a5,t2
    16cc:	0056c6b3          	xor	a3,a3,t0
    16d0:	01f64633          	xor	a2,a2,t6
    16d4:	01e74733          	xor	a4,a4,t5
    16d8:	01d7c7b3          	xor	a5,a5,t4
    16dc:	0116c6b3          	xor	a3,a3,a7
    16e0:	01c64e33          	xor	t3,a2,t3
    16e4:	00674733          	xor	a4,a4,t1
    16e8:	0107c833          	xor	a6,a5,a6
    16ec:	8ea9                	c.xor	a3,a0
    16ee:	ebffe06f          	jal	zero,5ac <.L35>

00000000000016f2 <.L46>:
    16f2:	0391a977          	0x391a977
    16f6:	000007b7          	lui	a5,0x0
    16fa:	00078793          	addi	a5,a5,0 # 0 <set_key>
    16fe:	9c2ff06f          	jal	zero,8c0 <.L38>

0000000000001702 <.L37>:
    1702:	03e66977          	0x3e66977
    1706:	00875493          	srli	s1,a4,0x8
    170a:	00885413          	srli	s0,a6,0x8
    170e:	0086d293          	srli	t0,a3,0x8
    1712:	008e5f93          	srli	t6,t3,0x8
    1716:	0ffe7f13          	andi	t5,t3,255
    171a:	01085d93          	srli	s11,a6,0x10
    171e:	0ff77513          	andi	a0,a4,255
    1722:	0106dd13          	srli	s10,a3,0x10
    1726:	0ff87e93          	andi	t4,a6,255
    172a:	010e5c93          	srli	s9,t3,0x10
    172e:	0ff6f313          	andi	t1,a3,255
    1732:	01075c13          	srli	s8,a4,0x10
    1736:	0ff4f493          	andi	s1,s1,255
    173a:	0ff47413          	andi	s0,s0,255
    173e:	0ff2f293          	andi	t0,t0,255
    1742:	0fffff93          	andi	t6,t6,255
    1746:	000007b7          	lui	a5,0x0
    174a:	00078793          	addi	a5,a5,0 # 0 <set_key>
    174e:	0186d69b          	srliw	a3,a3,0x18
    1752:	0187571b          	srliw	a4,a4,0x18
    1756:	0188581b          	srliw	a6,a6,0x18
    175a:	018e5e1b          	srliw	t3,t3,0x18
    175e:	0f0e                	c.slli	t5,0x3
    1760:	10048493          	addi	s1,s1,256
    1764:	0ffdfd93          	andi	s11,s11,255
    1768:	050e                	c.slli	a0,0x3
    176a:	10040413          	addi	s0,s0,256
    176e:	0ffd7d13          	andi	s10,s10,255
    1772:	0e8e                	c.slli	t4,0x3
    1774:	10028293          	addi	t0,t0,256
    1778:	0ffcfc93          	andi	s9,s9,255
    177c:	030e                	c.slli	t1,0x3
    177e:	100f8f93          	addi	t6,t6,256
    1782:	0ffc7c13          	andi	s8,s8,255
    1786:	0006899b          	addiw	s3,a3,0
    178a:	0007091b          	addiw	s2,a4,0
    178e:	9f3e                	c.add	t5,a5
    1790:	953e                	c.add	a0,a5
    1792:	9ebe                	c.add	t4,a5
    1794:	933e                	c.add	t1,a5
    1796:	0008089b          	addiw	a7,a6,0
    179a:	048e                	c.slli	s1,0x3
    179c:	200d8d93          	addi	s11,s11,512
    17a0:	040e                	c.slli	s0,0x3
    17a2:	200d0d13          	addi	s10,s10,512
    17a6:	2e01                	c.addiw	t3,0
    17a8:	028e                	c.slli	t0,0x3
    17aa:	200c8c93          	addi	s9,s9,512
    17ae:	0f8e                	c.slli	t6,0x3
    17b0:	200c0c13          	addi	s8,s8,512
    17b4:	000f3b83          	ld	s7,0(t5)
    17b8:	00053b03          	ld	s6,0(a0)
    17bc:	000eba83          	ld	s5,0(t4)
    17c0:	00033a03          	ld	s4,0(t1)
    17c4:	7a14                	c.ld	a3,48(a2)
    17c6:	03863803          	ld	a6,56(a2)
    17ca:	6228                	c.ld	a0,64(a2)
    17cc:	6638                	c.ld	a4,72(a2)
    17ce:	94be                	c.add	s1,a5
    17d0:	30098e93          	addi	t4,s3,768
    17d4:	943e                	c.add	s0,a5
    17d6:	92be                	c.add	t0,a5
    17d8:	30090313          	addi	t1,s2,768
    17dc:	9fbe                	c.add	t6,a5
    17de:	0d8e                	c.slli	s11,0x3
    17e0:	0d0e                	c.slli	s10,0x3
    17e2:	300e0e13          	addi	t3,t3,768
    17e6:	0c8e                	c.slli	s9,0x3
    17e8:	0c0e                	c.slli	s8,0x3
    17ea:	30088893          	addi	a7,a7,768
    17ee:	0004b983          	ld	s3,0(s1)
    17f2:	00043903          	ld	s2,0(s0)
    17f6:	0002b483          	ld	s1,0(t0)
    17fa:	000fb403          	ld	s0,0(t6)
    17fe:	9cbe                	c.add	s9,a5
    1800:	9c3e                	c.add	s8,a5
    1802:	9dbe                	c.add	s11,a5
    1804:	0e8e                	c.slli	t4,0x3
    1806:	9d3e                	c.add	s10,a5
    1808:	0e0e                	c.slli	t3,0x3
    180a:	030e                	c.slli	t1,0x3
    180c:	088e                	c.slli	a7,0x3
    180e:	000cbf83          	ld	t6,0(s9)
    1812:	000c3f03          	ld	t5,0(s8)
    1816:	000db383          	ld	t2,0(s11)
    181a:	000d3283          	ld	t0,0(s10)
    181e:	9ebe                	c.add	t4,a5
    1820:	9e3e                	c.add	t3,a5
    1822:	933e                	c.add	t1,a5
    1824:	98be                	c.add	a7,a5
    1826:	000ebe83          	ld	t4,0(t4)
    182a:	000e3e03          	ld	t3,0(t3)
    182e:	00033303          	ld	t1,0(t1)
    1832:	0008b883          	ld	a7,0(a7)
    1836:	0176c6b3          	xor	a3,a3,s7
    183a:	01684833          	xor	a6,a6,s6
    183e:	01554533          	xor	a0,a0,s5
    1842:	01474733          	xor	a4,a4,s4
    1846:	0136c6b3          	xor	a3,a3,s3
    184a:	01284833          	xor	a6,a6,s2
    184e:	8d25                	c.xor	a0,s1
    1850:	8f21                	c.xor	a4,s0
    1852:	0076c6b3          	xor	a3,a3,t2
    1856:	00584833          	xor	a6,a6,t0
    185a:	01f54533          	xor	a0,a0,t6
    185e:	01e74733          	xor	a4,a4,t5
    1862:	01d6c6b3          	xor	a3,a3,t4
    1866:	01c84833          	xor	a6,a6,t3
    186a:	00654533          	xor	a0,a0,t1
    186e:	01174733          	xor	a4,a4,a7
    1872:	00885a13          	srli	s4,a6,0x8
    1876:	01055493          	srli	s1,a0,0x10
    187a:	0187539b          	srliw	t2,a4,0x18
    187e:	00855993          	srli	s3,a0,0x8
    1882:	01075413          	srli	s0,a4,0x10
    1886:	0186d29b          	srliw	t0,a3,0x18
    188a:	00875913          	srli	s2,a4,0x8
    188e:	0086df93          	srli	t6,a3,0x8
    1892:	0ffa7a13          	andi	s4,s4,255
    1896:	0ff4f493          	andi	s1,s1,255
    189a:	2381                	c.addiw	t2,0
    189c:	0ff9f993          	andi	s3,s3,255
    18a0:	0ff47413          	andi	s0,s0,255
    18a4:	2281                	c.addiw	t0,0
    18a6:	0ff97913          	andi	s2,s2,255
    18aa:	0ff6fb93          	andi	s7,a3,255
    18ae:	0ff87b13          	andi	s6,a6,255
    18b2:	0ff57a93          	andi	s5,a0,255
    18b6:	01085f13          	srli	t5,a6,0x10
    18ba:	100a0a13          	addi	s4,s4,256
    18be:	20048493          	addi	s1,s1,512
    18c2:	30038393          	addi	t2,t2,768
    18c6:	10098993          	addi	s3,s3,256
    18ca:	20040413          	addi	s0,s0,512
    18ce:	30028293          	addi	t0,t0,768
    18d2:	10090913          	addi	s2,s2,256
    18d6:	82c1                	c.srli	a3,0x10
    18d8:	0ff77713          	andi	a4,a4,255
    18dc:	0fffff93          	andi	t6,t6,255
    18e0:	0188581b          	srliw	a6,a6,0x18
    18e4:	070e                	c.slli	a4,0x3
    18e6:	0185551b          	srliw	a0,a0,0x18
    18ea:	0b8e                	c.slli	s7,0x3
    18ec:	0a0e                	c.slli	s4,0x3
    18ee:	048e                	c.slli	s1,0x3
    18f0:	038e                	c.slli	t2,0x3
    18f2:	0b0e                	c.slli	s6,0x3
    18f4:	098e                	c.slli	s3,0x3
    18f6:	040e                	c.slli	s0,0x3
    18f8:	028e                	c.slli	t0,0x3
    18fa:	0a8e                	c.slli	s5,0x3
    18fc:	090e                	c.slli	s2,0x3
    18fe:	0ff6f693          	andi	a3,a3,255
    1902:	100f8f93          	addi	t6,t6,256
    1906:	0fff7f13          	andi	t5,t5,255
    190a:	00e78333          	add	t1,a5,a4
    190e:	9bbe                	c.add	s7,a5
    1910:	9b3e                	c.add	s6,a5
    1912:	9abe                	c.add	s5,a5
    1914:	20068693          	addi	a3,a3,512
    1918:	00080e9b          	addiw	t4,a6,0
    191c:	0005089b          	addiw	a7,a0,0
    1920:	9a3e                	c.add	s4,a5
    1922:	94be                	c.add	s1,a5
    1924:	93be                	c.add	t2,a5
    1926:	99be                	c.add	s3,a5
    1928:	943e                	c.add	s0,a5
    192a:	92be                	c.add	t0,a5
    192c:	993e                	c.add	s2,a5
    192e:	0f8e                	c.slli	t6,0x3
    1930:	200f0f13          	addi	t5,t5,512
    1934:	000bbc03          	ld	s8,0(s7)
    1938:	6e28                	c.ld	a0,88(a2)
    193a:	000b3703          	ld	a4,0(s6)
    193e:	000abb83          	ld	s7,0(s5)
    1942:	05063e03          	ld	t3,80(a2)
    1946:	00369a93          	slli	s5,a3,0x3
    194a:	000a3a03          	ld	s4,0(s4)
    194e:	6084                	c.ld	s1,0(s1)
    1950:	0003b383          	ld	t2,0(t2)
    1954:	0009b983          	ld	s3,0(s3)
    1958:	6000                	c.ld	s0,0(s0)
    195a:	0002b283          	ld	t0,0(t0)
    195e:	06063803          	ld	a6,96(a2)
    1962:	9fbe                	c.add	t6,a5
    1964:	00093903          	ld	s2,0(s2)
    1968:	0f0e                	c.slli	t5,0x3
    196a:	00033b03          	ld	s6,0(t1)
    196e:	30088893          	addi	a7,a7,768
    1972:	300e8e93          	addi	t4,t4,768
    1976:	7634                	c.ld	a3,104(a2)
    1978:	01578cb3          	add	s9,a5,s5
    197c:	01e78333          	add	t1,a5,t5
    1980:	000fba83          	ld	s5,0(t6)
    1984:	00389f13          	slli	t5,a7,0x3
    1988:	0e8e                	c.slli	t4,0x3
    198a:	9ebe                	c.add	t4,a5
    198c:	000cbf83          	ld	t6,0(s9)
    1990:	00033303          	ld	t1,0(t1)
    1994:	9f3e                	c.add	t5,a5
    1996:	8f29                	c.xor	a4,a0
    1998:	000eb883          	ld	a7,0(t4)
    199c:	000f3503          	ld	a0,0(t5)
    19a0:	018e4e33          	xor	t3,t3,s8
    19a4:	01784833          	xor	a6,a6,s7
    19a8:	0166c6b3          	xor	a3,a3,s6
    19ac:	014e4e33          	xor	t3,t3,s4
    19b0:	01374733          	xor	a4,a4,s3
    19b4:	01284833          	xor	a6,a6,s2
    19b8:	0156c6b3          	xor	a3,a3,s5
    19bc:	009e4e33          	xor	t3,t3,s1
    19c0:	8f21                	c.xor	a4,s0
    19c2:	01f84833          	xor	a6,a6,t6
    19c6:	0066c6b3          	xor	a3,a3,t1
    19ca:	8ea9                	c.xor	a3,a0
    19cc:	07063e83          	ld	t4,112(a2)
    19d0:	007e4e33          	xor	t3,t3,t2
    19d4:	00574733          	xor	a4,a4,t0
    19d8:	01184833          	xor	a6,a6,a7
    19dc:	07060513          	addi	a0,a2,112
    19e0:	c1ffe06f          	jal	zero,5fe <.L39>

00000000000019e4 <decrypt>:
    19e4:	0ece3977          	0xece3977
    19e8:	41064783          	lbu	a5,1040(a2)
    19ec:	8b89                	c.andi	a5,2
    19ee:	c7dd                	c.beqz	a5,1a9c <.L54>
    19f0:	0e668977          	0xe668977
    19f4:	00453803          	ld	a6,4(a0)
    19f8:	00053f03          	ld	t5,0(a0)
    19fc:	00853303          	ld	t1,8(a0)
    1a00:	00c53e83          	ld	t4,12(a0)
    1a04:	21063703          	ld	a4,528(a2)
    1a08:	21863683          	ld	a3,536(a2)
    1a0c:	22063783          	ld	a5,544(a2)
    1a10:	22863503          	ld	a0,552(a2)
    1a14:	00863883          	ld	a7,8(a2)
    1a18:	711d                	c.addi16sp	sp,-96
    1a1a:	eca2                	c.sdsp	s0,88(sp)
    1a1c:	e8a6                	c.sdsp	s1,80(sp)
    1a1e:	e4ca                	c.sdsp	s2,72(sp)
    1a20:	e0ce                	c.sdsp	s3,64(sp)
    1a22:	fc52                	c.sdsp	s4,56(sp)
    1a24:	f856                	c.sdsp	s5,48(sp)
    1a26:	f45a                	c.sdsp	s6,40(sp)
    1a28:	f05e                	c.sdsp	s7,32(sp)
    1a2a:	ec62                	c.sdsp	s8,24(sp)
    1a2c:	e866                	c.sdsp	s9,16(sp)
    1a2e:	e46a                	c.sdsp	s10,8(sp)
    1a30:	e06e                	c.sdsp	s11,0(sp)
    1a32:	4e31                	c.li	t3,12
    1a34:	00d846b3          	xor	a3,a6,a3
    1a38:	00ef4733          	xor	a4,t5,a4
    1a3c:	00f34333          	xor	t1,t1,a5
    1a40:	00aec533          	xor	a0,t4,a0
    1a44:	23060813          	addi	a6,a2,560
    1a48:	07c88063          	beq	a7,t3,1aa8 <.L50>
    1a4c:	07455977          	0x7455977
    1a50:	47b9                	c.li	a5,14
    1a52:	00f89463          	bne	a7,a5,1a5a <decrypt+0x76>
    1a56:	1780106f          	jal	zero,2bce <.L51>
    1a5a:	0ed60977          	0xed60977
    1a5e:	47a9                	c.li	a5,10
    1a60:	00f89463          	bne	a7,a5,1a68 <.L49>
    1a64:	15a0106f          	jal	zero,2bbe <.L60>

0000000000001a68 <.L49>:
    1a68:	093e8977          	0x93e8977
    1a6c:	e198                	c.sd	a4,0(a1)
    1a6e:	00d5b223          	sd	a3,4(a1)
    1a72:	6466                	c.ldsp	s0,88(sp)
    1a74:	0065b423          	sd	t1,8(a1)
    1a78:	00a5b623          	sd	a0,12(a1)
    1a7c:	64c6                	c.ldsp	s1,80(sp)
    1a7e:	6926                	c.ldsp	s2,72(sp)
    1a80:	6986                	c.ldsp	s3,64(sp)
    1a82:	7a62                	c.ldsp	s4,56(sp)
    1a84:	7ac2                	c.ldsp	s5,48(sp)
    1a86:	7b22                	c.ldsp	s6,40(sp)
    1a88:	7b82                	c.ldsp	s7,32(sp)
    1a8a:	6c62                	c.ldsp	s8,24(sp)
    1a8c:	6cc2                	c.ldsp	s9,16(sp)
    1a8e:	6d22                	c.ldsp	s10,8(sp)
    1a90:	6d82                	c.ldsp	s11,0(sp)
    1a92:	4505                	c.li	a0,1
    1a94:	6125                	c.addi16sp	sp,96
    1a96:	0ff05073          	csrrwi	zero,0xff,0
    1a9a:	8082                	c.jr	ra

0000000000001a9c <.L54>:
    1a9c:	0052f977          	0x52f977
    1aa0:	4501                	c.li	a0,0
    1aa2:	0ff05073          	csrrwi	zero,0xff,0
    1aa6:	8082                	c.jr	ra

0000000000001aa8 <.L50>:
    1aa8:	093a8977          	0x93a8977
    1aac:	23063e03          	ld	t3,560(a2)
    1ab0:	000007b7          	lui	a5,0x0
    1ab4:	00078793          	addi	a5,a5,0 # 0 <set_key>

0000000000001ab8 <.L53>:
    1ab8:	0038f977          	0x38f977
    1abc:	00855f93          	srli	t6,a0,0x8
    1ac0:	00875913          	srli	s2,a4,0x8
    1ac4:	0086d493          	srli	s1,a3,0x8
    1ac8:	00835413          	srli	s0,t1,0x8
    1acc:	01075613          	srli	a2,a4,0x10
    1ad0:	0ff77b93          	andi	s7,a4,255
    1ad4:	01035393          	srli	t2,t1,0x10
    1ad8:	0ff6fb13          	andi	s6,a3,255
    1adc:	01055293          	srli	t0,a0,0x10
    1ae0:	0ff37a93          	andi	s5,t1,255
    1ae4:	0ff57a13          	andi	s4,a0,255
    1ae8:	0106df13          	srli	t5,a3,0x10
    1aec:	0fffff93          	andi	t6,t6,255
    1af0:	0ff97913          	andi	s2,s2,255
    1af4:	0ff4f493          	andi	s1,s1,255
    1af8:	0ff47413          	andi	s0,s0,255
    1afc:	0186de9b          	srliw	t4,a3,0x18
    1b00:	0185589b          	srliw	a7,a0,0x18
    1b04:	01875c1b          	srliw	s8,a4,0x18
    1b08:	100f8993          	addi	s3,t6,256
    1b0c:	0183531b          	srliw	t1,t1,0x18
    1b10:	0ff67f93          	andi	t6,a2,255
    1b14:	0b8e                	c.slli	s7,0x3
    1b16:	0ff3f393          	andi	t2,t2,255
    1b1a:	0b0e                	c.slli	s6,0x3
    1b1c:	10090913          	addi	s2,s2,256
    1b20:	0ff2f293          	andi	t0,t0,255
    1b24:	0a8e                	c.slli	s5,0x3
    1b26:	10048493          	addi	s1,s1,256
    1b2a:	0a0e                	c.slli	s4,0x3
    1b2c:	10040413          	addi	s0,s0,256
    1b30:	0fff7f13          	andi	t5,t5,255
    1b34:	9bbe                	c.add	s7,a5
    1b36:	9b3e                	c.add	s6,a5
    1b38:	9abe                	c.add	s5,a5
    1b3a:	9a3e                	c.add	s4,a5
    1b3c:	098e                	c.slli	s3,0x3
    1b3e:	20038393          	addi	t2,t2,512
    1b42:	2e81                	c.addiw	t4,0
    1b44:	090e                	c.slli	s2,0x3
    1b46:	20028293          	addi	t0,t0,512
    1b4a:	2301                	c.addiw	t1,0
    1b4c:	048e                	c.slli	s1,0x3
    1b4e:	200f8f93          	addi	t6,t6,512
    1b52:	2881                	c.addiw	a7,0
    1b54:	040e                	c.slli	s0,0x3
    1b56:	200f0f13          	addi	t5,t5,512
    1b5a:	2c01                	c.addiw	s8,0
    1b5c:	00883603          	ld	a2,8(a6)
    1b60:	01083683          	ld	a3,16(a6)
    1b64:	01883703          	ld	a4,24(a6)
    1b68:	000bb503          	ld	a0,0(s7)
    1b6c:	99be                	c.add	s3,a5
    1b6e:	000b3b83          	ld	s7,0(s6)
    1b72:	993e                	c.add	s2,a5
    1b74:	000abb03          	ld	s6,0(s5)
    1b78:	94be                	c.add	s1,a5
    1b7a:	000a3a83          	ld	s5,0(s4)
    1b7e:	943e                	c.add	s0,a5
    1b80:	038e                	c.slli	t2,0x3
    1b82:	300e8e93          	addi	t4,t4,768
    1b86:	028e                	c.slli	t0,0x3
    1b88:	30030313          	addi	t1,t1,768
    1b8c:	0f8e                	c.slli	t6,0x3
    1b8e:	30088893          	addi	a7,a7,768
    1b92:	0f0e                	c.slli	t5,0x3
    1b94:	300c0c13          	addi	s8,s8,768
    1b98:	0009ba03          	ld	s4,0(s3)
    1b9c:	93be                	c.add	t2,a5
    1b9e:	00093983          	ld	s3,0(s2)
    1ba2:	92be                	c.add	t0,a5
    1ba4:	0004b903          	ld	s2,0(s1)
    1ba8:	9fbe                	c.add	t6,a5
    1baa:	6004                	c.ld	s1,0(s0)
    1bac:	9f3e                	c.add	t5,a5
    1bae:	0e8e                	c.slli	t4,0x3
    1bb0:	030e                	c.slli	t1,0x3
    1bb2:	088e                	c.slli	a7,0x3
    1bb4:	0c0e                	c.slli	s8,0x3
    1bb6:	0003b403          	ld	s0,0(t2)
    1bba:	9ebe                	c.add	t4,a5
    1bbc:	0002b383          	ld	t2,0(t0)
    1bc0:	933e                	c.add	t1,a5
    1bc2:	000fb283          	ld	t0,0(t6)
    1bc6:	98be                	c.add	a7,a5
    1bc8:	000f3f83          	ld	t6,0(t5)
    1bcc:	9c3e                	c.add	s8,a5
    1bce:	000ebf03          	ld	t5,0(t4)
    1bd2:	00ae4533          	xor	a0,t3,a0
    1bd6:	00033e83          	ld	t4,0(t1)
    1bda:	01764633          	xor	a2,a2,s7
    1bde:	0008b303          	ld	t1,0(a7)
    1be2:	0166c6b3          	xor	a3,a3,s6
    1be6:	000c3883          	ld	a7,0(s8)
    1bea:	01574733          	xor	a4,a4,s5
    1bee:	01454533          	xor	a0,a0,s4
    1bf2:	01364633          	xor	a2,a2,s3
    1bf6:	0126c6b3          	xor	a3,a3,s2
    1bfa:	8f25                	c.xor	a4,s1
    1bfc:	8d21                	c.xor	a0,s0
    1bfe:	00764633          	xor	a2,a2,t2
    1c02:	0056c6b3          	xor	a3,a3,t0
    1c06:	01f74733          	xor	a4,a4,t6
    1c0a:	01e54533          	xor	a0,a0,t5
    1c0e:	01d64633          	xor	a2,a2,t4
    1c12:	0066c6b3          	xor	a3,a3,t1
    1c16:	01174733          	xor	a4,a4,a7
    1c1a:	00875a13          	srli	s4,a4,0x8
    1c1e:	0106d493          	srli	s1,a3,0x10
    1c22:	0186529b          	srliw	t0,a2,0x18
    1c26:	00855993          	srli	s3,a0,0x8
    1c2a:	01075413          	srli	s0,a4,0x10
    1c2e:	0186df9b          	srliw	t6,a3,0x18
    1c32:	00865913          	srli	s2,a2,0x8
    1c36:	01055393          	srli	t2,a0,0x10
    1c3a:	0086de13          	srli	t3,a3,0x8
    1c3e:	0ffa7a13          	andi	s4,s4,255
    1c42:	0ff4f493          	andi	s1,s1,255
    1c46:	2281                	c.addiw	t0,0
    1c48:	0ff9f993          	andi	s3,s3,255
    1c4c:	0ff47413          	andi	s0,s0,255
    1c50:	2f81                	c.addiw	t6,0
    1c52:	0ff97913          	andi	s2,s2,255
    1c56:	0ff3f393          	andi	t2,t2,255
    1c5a:	0ff57b93          	andi	s7,a0,255
    1c5e:	0ff67b13          	andi	s6,a2,255
    1c62:	0ff6f313          	andi	t1,a3,255
    1c66:	0ff77a93          	andi	s5,a4,255
    1c6a:	100a0a13          	addi	s4,s4,256
    1c6e:	20048493          	addi	s1,s1,512
    1c72:	30028293          	addi	t0,t0,768
    1c76:	10098993          	addi	s3,s3,256
    1c7a:	20040413          	addi	s0,s0,512
    1c7e:	300f8f93          	addi	t6,t6,768
    1c82:	10090913          	addi	s2,s2,256
    1c86:	20038393          	addi	t2,t2,512
    1c8a:	0ffe7e13          	andi	t3,t3,255
    1c8e:	8241                	c.srli	a2,0x10
    1c90:	0187571b          	srliw	a4,a4,0x18
    1c94:	0ff67613          	andi	a2,a2,255
    1c98:	0185551b          	srliw	a0,a0,0x18
    1c9c:	0b8e                	c.slli	s7,0x3
    1c9e:	0a0e                	c.slli	s4,0x3
    1ca0:	048e                	c.slli	s1,0x3
    1ca2:	028e                	c.slli	t0,0x3
    1ca4:	0b0e                	c.slli	s6,0x3
    1ca6:	098e                	c.slli	s3,0x3
    1ca8:	040e                	c.slli	s0,0x3
    1caa:	0f8e                	c.slli	t6,0x3
    1cac:	030e                	c.slli	t1,0x3
    1cae:	090e                	c.slli	s2,0x3
    1cb0:	038e                	c.slli	t2,0x3
    1cb2:	0a8e                	c.slli	s5,0x3
    1cb4:	100e0e13          	addi	t3,t3,256
    1cb8:	0007089b          	addiw	a7,a4,0
    1cbc:	9abe                	c.add	s5,a5
    1cbe:	20060e93          	addi	t4,a2,512
    1cc2:	00050f1b          	addiw	t5,a0,0
    1cc6:	9bbe                	c.add	s7,a5
    1cc8:	9a3e                	c.add	s4,a5
    1cca:	94be                	c.add	s1,a5
    1ccc:	92be                	c.add	t0,a5
    1cce:	9b3e                	c.add	s6,a5
    1cd0:	99be                	c.add	s3,a5
    1cd2:	943e                	c.add	s0,a5
    1cd4:	9fbe                	c.add	t6,a5
    1cd6:	933e                	c.add	t1,a5
    1cd8:	993e                	c.add	s2,a5
    1cda:	93be                	c.add	t2,a5
    1cdc:	0e0e                	c.slli	t3,0x3
    1cde:	02083703          	ld	a4,32(a6)
    1ce2:	02883683          	ld	a3,40(a6)
    1ce6:	03083603          	ld	a2,48(a6)
    1cea:	00033303          	ld	t1,0(t1)
    1cee:	000bbb83          	ld	s7,0(s7)
    1cf2:	000a3a03          	ld	s4,0(s4)
    1cf6:	6084                	c.ld	s1,0(s1)
    1cf8:	0002b283          	ld	t0,0(t0)
    1cfc:	000b3b03          	ld	s6,0(s6)
    1d00:	0009b983          	ld	s3,0(s3)
    1d04:	6000                	c.ld	s0,0(s0)
    1d06:	000fbf83          	ld	t6,0(t6)
    1d0a:	00093903          	ld	s2,0(s2)
    1d0e:	9e3e                	c.add	t3,a5
    1d10:	0003b383          	ld	t2,0(t2)
    1d14:	30088893          	addi	a7,a7,768
    1d18:	03883503          	ld	a0,56(a6)
    1d1c:	000abc03          	ld	s8,0(s5)
    1d20:	0e8e                	c.slli	t4,0x3
    1d22:	300f0f13          	addi	t5,t5,768
    1d26:	000e3a83          	ld	s5,0(t3)
    1d2a:	088e                	c.slli	a7,0x3
    1d2c:	9ebe                	c.add	t4,a5
    1d2e:	0f0e                	c.slli	t5,0x3
    1d30:	98be                	c.add	a7,a5
    1d32:	000ebe03          	ld	t3,0(t4)
    1d36:	9f3e                	c.add	t5,a5
    1d38:	00664633          	xor	a2,a2,t1
    1d3c:	01774733          	xor	a4,a4,s7
    1d40:	0008b303          	ld	t1,0(a7)
    1d44:	0166c6b3          	xor	a3,a3,s6
    1d48:	01854533          	xor	a0,a0,s8
    1d4c:	000f3883          	ld	a7,0(t5)
    1d50:	01474733          	xor	a4,a4,s4
    1d54:	0136c6b3          	xor	a3,a3,s3
    1d58:	01264633          	xor	a2,a2,s2
    1d5c:	01554533          	xor	a0,a0,s5
    1d60:	8f25                	c.xor	a4,s1
    1d62:	8ea1                	c.xor	a3,s0
    1d64:	00764633          	xor	a2,a2,t2
    1d68:	01c54533          	xor	a0,a0,t3
    1d6c:	00574733          	xor	a4,a4,t0
    1d70:	01f6c6b3          	xor	a3,a3,t6
    1d74:	00664333          	xor	t1,a2,t1
    1d78:	01154533          	xor	a0,a0,a7
    1d7c:	04080813          	addi	a6,a6,64

0000000000001d80 <.L52>:
    1d80:	0001e977          	0x1e977
    1d84:	00855f93          	srli	t6,a0,0x8
    1d88:	00875293          	srli	t0,a4,0x8
    1d8c:	0086d493          	srli	s1,a3,0x8
    1d90:	00835413          	srli	s0,t1,0x8
    1d94:	01055c13          	srli	s8,a0,0x10
    1d98:	0ff37b93          	andi	s7,t1,255
    1d9c:	01075b13          	srli	s6,a4,0x10
    1da0:	0ff77613          	andi	a2,a4,255
    1da4:	01035393          	srli	t2,t1,0x10
    1da8:	0ff6fa93          	andi	s5,a3,255
    1dac:	0ff57a13          	andi	s4,a0,255
    1db0:	0106df13          	srli	t5,a3,0x10
    1db4:	0fffff93          	andi	t6,t6,255
    1db8:	0ff2f293          	andi	t0,t0,255
    1dbc:	0ff4f493          	andi	s1,s1,255
    1dc0:	0ff47413          	andi	s0,s0,255
    1dc4:	0186de9b          	srliw	t4,a3,0x18
    1dc8:	01835e1b          	srliw	t3,t1,0x18
    1dcc:	0187589b          	srliw	a7,a4,0x18
    1dd0:	0185531b          	srliw	t1,a0,0x18
    1dd4:	003b9713          	slli	a4,s7,0x3
    1dd8:	100f8993          	addi	s3,t6,256
    1ddc:	10028913          	addi	s2,t0,256
    1de0:	0ffb7f93          	andi	t6,s6,255
    1de4:	0ffc7293          	andi	t0,s8,255
    1de8:	060e                	c.slli	a2,0x3
    1dea:	0ff3f393          	andi	t2,t2,255
    1dee:	0a8e                	c.slli	s5,0x3
    1df0:	10048493          	addi	s1,s1,256
    1df4:	0a0e                	c.slli	s4,0x3
    1df6:	10040413          	addi	s0,s0,256
    1dfa:	0fff7f13          	andi	t5,t5,255
    1dfe:	00e786b3          	add	a3,a5,a4
    1e02:	963e                	c.add	a2,a5
    1e04:	9abe                	c.add	s5,a5
    1e06:	9a3e                	c.add	s4,a5
    1e08:	098e                	c.slli	s3,0x3
    1e0a:	20038393          	addi	t2,t2,512
    1e0e:	2e81                	c.addiw	t4,0
    1e10:	090e                	c.slli	s2,0x3
    1e12:	20028293          	addi	t0,t0,512
    1e16:	2e01                	c.addiw	t3,0
    1e18:	048e                	c.slli	s1,0x3
    1e1a:	200f8f93          	addi	t6,t6,512
    1e1e:	2301                	c.addiw	t1,0
    1e20:	040e                	c.slli	s0,0x3
    1e22:	200f0f13          	addi	t5,t5,512
    1e26:	2881                	c.addiw	a7,0
    1e28:	00063c83          	ld	s9,0(a2)
    1e2c:	000abc03          	ld	s8,0(s5)
    1e30:	0006bb83          	ld	s7,0(a3)
    1e34:	000a3b03          	ld	s6,0(s4)
    1e38:	00083503          	ld	a0,0(a6)
    1e3c:	00883603          	ld	a2,8(a6)
    1e40:	01083703          	ld	a4,16(a6)
    1e44:	01883683          	ld	a3,24(a6)
    1e48:	99be                	c.add	s3,a5
    1e4a:	993e                	c.add	s2,a5
    1e4c:	94be                	c.add	s1,a5
    1e4e:	943e                	c.add	s0,a5
    1e50:	038e                	c.slli	t2,0x3
    1e52:	300e8e93          	addi	t4,t4,768
    1e56:	028e                	c.slli	t0,0x3
    1e58:	300e0e13          	addi	t3,t3,768
    1e5c:	0f8e                	c.slli	t6,0x3
    1e5e:	30030313          	addi	t1,t1,768
    1e62:	0f0e                	c.slli	t5,0x3
    1e64:	30088893          	addi	a7,a7,768
    1e68:	0009ba83          	ld	s5,0(s3)
    1e6c:	00093a03          	ld	s4,0(s2)
    1e70:	0004b983          	ld	s3,0(s1)
    1e74:	00043903          	ld	s2,0(s0)
    1e78:	93be                	c.add	t2,a5
    1e7a:	92be                	c.add	t0,a5
    1e7c:	9fbe                	c.add	t6,a5
    1e7e:	9f3e                	c.add	t5,a5
    1e80:	0e8e                	c.slli	t4,0x3
    1e82:	0e0e                	c.slli	t3,0x3
    1e84:	030e                	c.slli	t1,0x3
    1e86:	088e                	c.slli	a7,0x3
    1e88:	0003b483          	ld	s1,0(t2)
    1e8c:	0002b403          	ld	s0,0(t0)
    1e90:	000fb383          	ld	t2,0(t6)
    1e94:	000f3283          	ld	t0,0(t5)
    1e98:	9ebe                	c.add	t4,a5
    1e9a:	9e3e                	c.add	t3,a5
    1e9c:	933e                	c.add	t1,a5
    1e9e:	98be                	c.add	a7,a5
    1ea0:	000ebf83          	ld	t6,0(t4)
    1ea4:	000e3f03          	ld	t5,0(t3)
    1ea8:	00033e83          	ld	t4,0(t1)
    1eac:	0008be03          	ld	t3,0(a7)
    1eb0:	01954533          	xor	a0,a0,s9
    1eb4:	01864633          	xor	a2,a2,s8
    1eb8:	01774733          	xor	a4,a4,s7
    1ebc:	0166c6b3          	xor	a3,a3,s6
    1ec0:	01554533          	xor	a0,a0,s5
    1ec4:	01464633          	xor	a2,a2,s4
    1ec8:	01374733          	xor	a4,a4,s3
    1ecc:	0126c6b3          	xor	a3,a3,s2
    1ed0:	8d25                	c.xor	a0,s1
    1ed2:	8e21                	c.xor	a2,s0
    1ed4:	00774733          	xor	a4,a4,t2
    1ed8:	0056c6b3          	xor	a3,a3,t0
    1edc:	01e64633          	xor	a2,a2,t5
    1ee0:	01f54533          	xor	a0,a0,t6
    1ee4:	01d74733          	xor	a4,a4,t4
    1ee8:	01c6c6b3          	xor	a3,a3,t3
    1eec:	0086d413          	srli	s0,a3,0x8
    1ef0:	01075393          	srli	t2,a4,0x10
    1ef4:	0186529b          	srliw	t0,a2,0x18
    1ef8:	00855f93          	srli	t6,a0,0x8
    1efc:	0106df13          	srli	t5,a3,0x10
    1f00:	01875e1b          	srliw	t3,a4,0x18
    1f04:	00865893          	srli	a7,a2,0x8
    1f08:	0ff77913          	andi	s2,a4,255
    1f0c:	01055313          	srli	t1,a0,0x10
    1f10:	0ff57a93          	andi	s5,a0,255
    1f14:	2281                	c.addiw	t0,0
    1f16:	0ff67493          	andi	s1,a2,255
    1f1a:	0fffff93          	andi	t6,t6,255
    1f1e:	2e01                	c.addiw	t3,0
    1f20:	0ff8f893          	andi	a7,a7,255
    1f24:	00875e93          	srli	t4,a4,0x8
    1f28:	0ff47413          	andi	s0,s0,255
    1f2c:	0ff3f393          	andi	t2,t2,255
    1f30:	0fff7f13          	andi	t5,t5,255
    1f34:	30028c93          	addi	s9,t0,768
    1f38:	100f8a13          	addi	s4,t6,256
    1f3c:	300e0993          	addi	s3,t3,768
    1f40:	00391f93          	slli	t6,s2,0x3
    1f44:	10088713          	addi	a4,a7,256
    1f48:	0ff37293          	andi	t0,t1,255
    1f4c:	0186de1b          	srliw	t3,a3,0x18
    1f50:	01065893          	srli	a7,a2,0x10
    1f54:	0ff6f693          	andi	a3,a3,255
    1f58:	0a8e                	c.slli	s5,0x3
    1f5a:	10040413          	addi	s0,s0,256
    1f5e:	20038393          	addi	t2,t2,512
    1f62:	048e                	c.slli	s1,0x3
    1f64:	200f0f13          	addi	t5,t5,512
    1f68:	0ffefe93          	andi	t4,t4,255
    1f6c:	9abe                	c.add	s5,a5
    1f6e:	94be                	c.add	s1,a5
    1f70:	9fbe                	c.add	t6,a5
    1f72:	00369913          	slli	s2,a3,0x3
    1f76:	0185531b          	srliw	t1,a0,0x18
    1f7a:	040e                	c.slli	s0,0x3
    1f7c:	038e                	c.slli	t2,0x3
    1f7e:	0c8e                	c.slli	s9,0x3
    1f80:	0a0e                	c.slli	s4,0x3
    1f82:	0f0e                	c.slli	t5,0x3
    1f84:	098e                	c.slli	s3,0x3
    1f86:	070e                	c.slli	a4,0x3
    1f88:	20028293          	addi	t0,t0,512
    1f8c:	2e01                	c.addiw	t3,0
    1f8e:	100e8e93          	addi	t4,t4,256
    1f92:	0ff8f893          	andi	a7,a7,255
    1f96:	000abc03          	ld	s8,0(s5)
    1f9a:	0004bb83          	ld	s7,0(s1)
    1f9e:	000fbb03          	ld	s6,0(t6)
    1fa2:	02083503          	ld	a0,32(a6)
    1fa6:	02883603          	ld	a2,40(a6)
    1faa:	03083683          	ld	a3,48(a6)
    1fae:	943e                	c.add	s0,a5
    1fb0:	93be                	c.add	t2,a5
    1fb2:	9cbe                	c.add	s9,a5
    1fb4:	9f3e                	c.add	t5,a5
    1fb6:	99be                	c.add	s3,a5
    1fb8:	973e                	c.add	a4,a5
    1fba:	9a3e                	c.add	s4,a5
    1fbc:	993e                	c.add	s2,a5
    1fbe:	028e                	c.slli	t0,0x3
    1fc0:	300e0e13          	addi	t3,t3,768
    1fc4:	0e8e                	c.slli	t4,0x3
    1fc6:	20088893          	addi	a7,a7,512
    1fca:	2301                	c.addiw	t1,0
    1fcc:	00043a83          	ld	s5,0(s0)
    1fd0:	0003b483          	ld	s1,0(t2)
    1fd4:	000cbf83          	ld	t6,0(s9)
    1fd8:	000f3403          	ld	s0,0(t5)
    1fdc:	000a3a03          	ld	s4,0(s4)
    1fe0:	0009bf03          	ld	t5,0(s3)
    1fe4:	92be                	c.add	t0,a5
    1fe6:	00073983          	ld	s3,0(a4)
    1fea:	9ebe                	c.add	t4,a5
    1fec:	03883703          	ld	a4,56(a6)
    1ff0:	00093903          	ld	s2,0(s2)
    1ff4:	0e0e                	c.slli	t3,0x3
    1ff6:	088e                	c.slli	a7,0x3
    1ff8:	30030313          	addi	t1,t1,768
    1ffc:	0002b383          	ld	t2,0(t0)
    2000:	9e3e                	c.add	t3,a5
    2002:	000eb283          	ld	t0,0(t4)
    2006:	98be                	c.add	a7,a5
    2008:	030e                	c.slli	t1,0x3
    200a:	000e3e83          	ld	t4,0(t3)
    200e:	01854533          	xor	a0,a0,s8
    2012:	0008be03          	ld	t3,0(a7)
    2016:	01764633          	xor	a2,a2,s7
    201a:	006788b3          	add	a7,a5,t1
    201e:	0166c6b3          	xor	a3,a3,s6
    2022:	0008b883          	ld	a7,0(a7)
    2026:	01554533          	xor	a0,a0,s5
    202a:	01464633          	xor	a2,a2,s4
    202e:	0136c6b3          	xor	a3,a3,s3
    2032:	01274733          	xor	a4,a4,s2
    2036:	8d25                	c.xor	a0,s1
    2038:	8e21                	c.xor	a2,s0
    203a:	0076c6b3          	xor	a3,a3,t2
    203e:	00574733          	xor	a4,a4,t0
    2042:	01e64633          	xor	a2,a2,t5
    2046:	01f54533          	xor	a0,a0,t6
    204a:	01d6c6b3          	xor	a3,a3,t4
    204e:	01c74733          	xor	a4,a4,t3
    2052:	01174733          	xor	a4,a4,a7
    2056:	00855313          	srli	t1,a0,0x8
    205a:	00865893          	srli	a7,a2,0x8
    205e:	0086d493          	srli	s1,a3,0x8
    2062:	0ff77293          	andi	t0,a4,255
    2066:	00875413          	srli	s0,a4,0x8
    206a:	0ff67e13          	andi	t3,a2,255
    206e:	0ff37313          	andi	t1,t1,255
    2072:	01075393          	srli	t2,a4,0x10
    2076:	0ff6fa93          	andi	s5,a3,255
    207a:	0ff8f893          	andi	a7,a7,255
    207e:	01055c13          	srli	s8,a0,0x10
    2082:	01065f93          	srli	t6,a2,0x10
    2086:	0ff4f493          	andi	s1,s1,255
    208a:	0ff57a13          	andi	s4,a0,255
    208e:	0106df13          	srli	t5,a3,0x10
    2092:	0e0e                	c.slli	t3,0x3
    2094:	10030993          	addi	s3,t1,256
    2098:	0186de9b          	srliw	t4,a3,0x18
    209c:	10088913          	addi	s2,a7,256
    20a0:	0187571b          	srliw	a4,a4,0x18
    20a4:	00329693          	slli	a3,t0,0x3
    20a8:	0185551b          	srliw	a0,a0,0x18
    20ac:	0ff47413          	andi	s0,s0,255
    20b0:	0ff3f393          	andi	t2,t2,255
    20b4:	0a8e                	c.slli	s5,0x3
    20b6:	0ffc7c13          	andi	s8,s8,255
    20ba:	10048493          	addi	s1,s1,256
    20be:	0fffff93          	andi	t6,t6,255
    20c2:	00d782b3          	add	t0,a5,a3
    20c6:	9abe                	c.add	s5,a5
    20c8:	0186589b          	srliw	a7,a2,0x18
    20cc:	200c0c13          	addi	s8,s8,512
    20d0:	01c78633          	add	a2,a5,t3
    20d4:	0005031b          	addiw	t1,a0,0
    20d8:	00070e1b          	addiw	t3,a4,0
    20dc:	0a0e                	c.slli	s4,0x3
    20de:	10040413          	addi	s0,s0,256
    20e2:	0fff7f13          	andi	t5,t5,255
    20e6:	098e                	c.slli	s3,0x3
    20e8:	20038393          	addi	t2,t2,512
    20ec:	2e81                	c.addiw	t4,0
    20ee:	090e                	c.slli	s2,0x3
    20f0:	048e                	c.slli	s1,0x3
    20f2:	200f8f93          	addi	t6,t6,512
    20f6:	00063b83          	ld	s7,0(a2)
    20fa:	000abb03          	ld	s6,0(s5)
    20fe:	04883503          	ld	a0,72(a6)
    2102:	0002ba83          	ld	s5,0(t0)
    2106:	05083603          	ld	a2,80(a6)
    210a:	05883683          	ld	a3,88(a6)
    210e:	9a3e                	c.add	s4,a5
    2110:	99be                	c.add	s3,a5
    2112:	993e                	c.add	s2,a5
    2114:	003c1293          	slli	t0,s8,0x3
    2118:	94be                	c.add	s1,a5
    211a:	040e                	c.slli	s0,0x3
    211c:	200f0f13          	addi	t5,t5,512
    2120:	2881                	c.addiw	a7,0
    2122:	038e                	c.slli	t2,0x3
    2124:	300e8e93          	addi	t4,t4,768
    2128:	300e0e13          	addi	t3,t3,768
    212c:	0f8e                	c.slli	t6,0x3
    212e:	30030313          	addi	t1,t1,768
    2132:	04083703          	ld	a4,64(a6)
    2136:	000a3a03          	ld	s4,0(s4)
    213a:	0009b983          	ld	s3,0(s3)
    213e:	00093903          	ld	s2,0(s2)
    2142:	6084                	c.ld	s1,0(s1)
    2144:	943e                	c.add	s0,a5
    2146:	93be                	c.add	t2,a5
    2148:	92be                	c.add	t0,a5
    214a:	9fbe                	c.add	t6,a5
    214c:	0f0e                	c.slli	t5,0x3
    214e:	30088893          	addi	a7,a7,768
    2152:	0e8e                	c.slli	t4,0x3
    2154:	0e0e                	c.slli	t3,0x3
    2156:	030e                	c.slli	t1,0x3
    2158:	6000                	c.ld	s0,0(s0)
    215a:	0003b383          	ld	t2,0(t2)
    215e:	0002b283          	ld	t0,0(t0)
    2162:	000fbf83          	ld	t6,0(t6)
    2166:	9f3e                	c.add	t5,a5
    2168:	9ebe                	c.add	t4,a5
    216a:	9e3e                	c.add	t3,a5
    216c:	933e                	c.add	t1,a5
    216e:	088e                	c.slli	a7,0x3
    2170:	000f3f03          	ld	t5,0(t5)
    2174:	000ebe83          	ld	t4,0(t4)
    2178:	000e3e03          	ld	t3,0(t3)
    217c:	00033303          	ld	t1,0(t1)
    2180:	98be                	c.add	a7,a5
    2182:	01754533          	xor	a0,a0,s7
    2186:	01664633          	xor	a2,a2,s6
    218a:	0156c6b3          	xor	a3,a3,s5
    218e:	0008b883          	ld	a7,0(a7)
    2192:	01474733          	xor	a4,a4,s4
    2196:	01354533          	xor	a0,a0,s3
    219a:	01264633          	xor	a2,a2,s2
    219e:	8ea5                	c.xor	a3,s1
    21a0:	8f21                	c.xor	a4,s0
    21a2:	00754533          	xor	a0,a0,t2
    21a6:	00564633          	xor	a2,a2,t0
    21aa:	01f6c6b3          	xor	a3,a3,t6
    21ae:	01c64633          	xor	a2,a2,t3
    21b2:	01d54533          	xor	a0,a0,t4
    21b6:	0066c6b3          	xor	a3,a3,t1
    21ba:	01e74733          	xor	a4,a4,t5
    21be:	01174733          	xor	a4,a4,a7
    21c2:	0086de13          	srli	t3,a3,0x8
    21c6:	01065313          	srli	t1,a2,0x10
    21ca:	0185589b          	srliw	a7,a0,0x18
    21ce:	00875f13          	srli	t5,a4,0x8
    21d2:	00855493          	srli	s1,a0,0x8
    21d6:	00865293          	srli	t0,a2,0x8
    21da:	0ffe7e13          	andi	t3,t3,255
    21de:	0ff37313          	andi	t1,t1,255
    21e2:	2881                	c.addiw	a7,0
    21e4:	0ff77b93          	andi	s7,a4,255
    21e8:	100e0e13          	addi	t3,t3,256
    21ec:	20030313          	addi	t1,t1,512
    21f0:	0ff57b13          	andi	s6,a0,255
    21f4:	0fff7f13          	andi	t5,t5,255
    21f8:	0106dc13          	srli	s8,a3,0x10
    21fc:	0ff67a93          	andi	s5,a2,255
    2200:	01075f93          	srli	t6,a4,0x10
    2204:	0ff6fc93          	andi	s9,a3,255
    2208:	8141                	c.srli	a0,0x10
    220a:	30088893          	addi	a7,a7,768
    220e:	0ff4f493          	andi	s1,s1,255
    2212:	0ff2f293          	andi	t0,t0,255
    2216:	003e1413          	slli	s0,t3,0x3
    221a:	00331393          	slli	t2,t1,0x3
    221e:	088e                	c.slli	a7,0x3
    2220:	100f0913          	addi	s2,t5,256
    2224:	01865e1b          	srliw	t3,a2,0x18
    2228:	0186d69b          	srliw	a3,a3,0x18
    222c:	10028293          	addi	t0,t0,256
    2230:	0ff57e93          	andi	t4,a0,255
    2234:	0187571b          	srliw	a4,a4,0x18
    2238:	0b8e                	c.slli	s7,0x3
    223a:	0b0e                	c.slli	s6,0x3
    223c:	0ffc7c13          	andi	s8,s8,255
    2240:	0a8e                	c.slli	s5,0x3
    2242:	10048493          	addi	s1,s1,256
    2246:	0fffff93          	andi	t6,t6,255
    224a:	0c8e                	c.slli	s9,0x3
    224c:	01178a33          	add	s4,a5,a7
    2250:	008789b3          	add	s3,a5,s0
    2254:	9cbe                	c.add	s9,a5
    2256:	0007041b          	addiw	s0,a4,0
    225a:	9bbe                	c.add	s7,a5
    225c:	93be                	c.add	t2,a5
    225e:	9b3e                	c.add	s6,a5
    2260:	9abe                	c.add	s5,a5
    2262:	0006831b          	addiw	t1,a3,0
    2266:	00329513          	slli	a0,t0,0x3
    226a:	090e                	c.slli	s2,0x3
    226c:	200c0c13          	addi	s8,s8,512
    2270:	2e01                	c.addiw	t3,0
    2272:	048e                	c.slli	s1,0x3
    2274:	200f8f93          	addi	t6,t6,512
    2278:	200e8e93          	addi	t4,t4,512
    227c:	00a782b3          	add	t0,a5,a0
    2280:	06083883          	ld	a7,96(a6)
    2284:	000bbb83          	ld	s7,0(s7)
    2288:	0009b983          	ld	s3,0(s3)
    228c:	0003b383          	ld	t2,0(t2)
    2290:	993e                	c.add	s2,a5
    2292:	000a3f03          	ld	t5,0(s4)
    2296:	0c0e                	c.slli	s8,0x3
    2298:	000cba03          	ld	s4,0(s9)
    229c:	06883603          	ld	a2,104(a6)
    22a0:	000b3b03          	ld	s6,0(s6)
    22a4:	07083683          	ld	a3,112(a6)
    22a8:	000aba83          	ld	s5,0(s5)
    22ac:	07883703          	ld	a4,120(a6)
    22b0:	94be                	c.add	s1,a5
    22b2:	30040513          	addi	a0,s0,768
    22b6:	300e0e13          	addi	t3,t3,768
    22ba:	0f8e                	c.slli	t6,0x3
    22bc:	30030313          	addi	t1,t1,768
    22c0:	0e8e                	c.slli	t4,0x3
    22c2:	0002b403          	ld	s0,0(t0)
    22c6:	00093903          	ld	s2,0(s2)
    22ca:	6084                	c.ld	s1,0(s1)
    22cc:	018782b3          	add	t0,a5,s8
    22d0:	9fbe                	c.add	t6,a5
    22d2:	9ebe                	c.add	t4,a5
    22d4:	0e0e                	c.slli	t3,0x3
    22d6:	030e                	c.slli	t1,0x3
    22d8:	050e                	c.slli	a0,0x3
    22da:	0002b283          	ld	t0,0(t0)
    22de:	000fbf83          	ld	t6,0(t6)
    22e2:	000ebe83          	ld	t4,0(t4)
    22e6:	9e3e                	c.add	t3,a5
    22e8:	933e                	c.add	t1,a5
    22ea:	953e                	c.add	a0,a5
    22ec:	000e3e03          	ld	t3,0(t3)
    22f0:	00033303          	ld	t1,0(t1)
    22f4:	6108                	c.ld	a0,0(a0)
    22f6:	0178c8b3          	xor	a7,a7,s7
    22fa:	01664633          	xor	a2,a2,s6
    22fe:	0156c6b3          	xor	a3,a3,s5
    2302:	01474733          	xor	a4,a4,s4
    2306:	0138c8b3          	xor	a7,a7,s3
    230a:	01264633          	xor	a2,a2,s2
    230e:	8ea5                	c.xor	a3,s1
    2310:	8f21                	c.xor	a4,s0
    2312:	0078c8b3          	xor	a7,a7,t2
    2316:	00564633          	xor	a2,a2,t0
    231a:	01f6c6b3          	xor	a3,a3,t6
    231e:	01d74733          	xor	a4,a4,t4
    2322:	01e8c8b3          	xor	a7,a7,t5
    2326:	01c64633          	xor	a2,a2,t3
    232a:	0066c6b3          	xor	a3,a3,t1
    232e:	8f29                	c.xor	a4,a0
    2330:	00875393          	srli	t2,a4,0x8
    2334:	0106df13          	srli	t5,a3,0x10
    2338:	0186541b          	srliw	s0,a2,0x18
    233c:	0088d293          	srli	t0,a7,0x8
    2340:	01075e93          	srli	t4,a4,0x10
    2344:	0186d51b          	srliw	a0,a3,0x18
    2348:	00865493          	srli	s1,a2,0x8
    234c:	0108df93          	srli	t6,a7,0x10
    2350:	01875c1b          	srliw	s8,a4,0x18
    2354:	0086da13          	srli	s4,a3,0x8
    2358:	0ff3f393          	andi	t2,t2,255
    235c:	0fff7f13          	andi	t5,t5,255
    2360:	2401                	c.addiw	s0,0
    2362:	0ff2f293          	andi	t0,t0,255
    2366:	0ffefe93          	andi	t4,t4,255
    236a:	2501                	c.addiw	a0,0
    236c:	0ff4f493          	andi	s1,s1,255
    2370:	0fffff93          	andi	t6,t6,255
    2374:	2c01                	c.addiw	s8,0
    2376:	0ff8f993          	andi	s3,a7,255
    237a:	0ff67913          	andi	s2,a2,255
    237e:	0ff6f693          	andi	a3,a3,255
    2382:	8241                	c.srli	a2,0x10
    2384:	10038393          	addi	t2,t2,256
    2388:	200f0f13          	addi	t5,t5,512
    238c:	30040413          	addi	s0,s0,768
    2390:	10028293          	addi	t0,t0,256
    2394:	200e8e93          	addi	t4,t4,512
    2398:	30050513          	addi	a0,a0,768
    239c:	10048493          	addi	s1,s1,256
    23a0:	200f8f93          	addi	t6,t6,512
    23a4:	300c0c13          	addi	s8,s8,768
    23a8:	0ff77713          	andi	a4,a4,255
    23ac:	0ffa7a13          	andi	s4,s4,255
    23b0:	040e                	c.slli	s0,0x3
    23b2:	050e                	c.slli	a0,0x3
    23b4:	00369e13          	slli	t3,a3,0x3
    23b8:	070e                	c.slli	a4,0x3
    23ba:	0ff67313          	andi	t1,a2,255
    23be:	098e                	c.slli	s3,0x3
    23c0:	038e                	c.slli	t2,0x3
    23c2:	0f0e                	c.slli	t5,0x3
    23c4:	090e                	c.slli	s2,0x3
    23c6:	028e                	c.slli	t0,0x3
    23c8:	0e8e                	c.slli	t4,0x3
    23ca:	048e                	c.slli	s1,0x3
    23cc:	0f8e                	c.slli	t6,0x3
    23ce:	0c0e                	c.slli	s8,0x3
    23d0:	100a0a13          	addi	s4,s4,256
    23d4:	0188d89b          	srliw	a7,a7,0x18
    23d8:	00878633          	add	a2,a5,s0
    23dc:	00a786b3          	add	a3,a5,a0
    23e0:	00e78433          	add	s0,a5,a4
    23e4:	99be                	c.add	s3,a5
    23e6:	93be                	c.add	t2,a5
    23e8:	9f3e                	c.add	t5,a5
    23ea:	993e                	c.add	s2,a5
    23ec:	92be                	c.add	t0,a5
    23ee:	9ebe                	c.add	t4,a5
    23f0:	9e3e                	c.add	t3,a5
    23f2:	9c3e                	c.add	s8,a5
    23f4:	94be                	c.add	s1,a5
    23f6:	9fbe                	c.add	t6,a5
    23f8:	0a0e                	c.slli	s4,0x3
    23fa:	20030313          	addi	t1,t1,512
    23fe:	2881                	c.addiw	a7,0
    2400:	0009bb83          	ld	s7,0(s3)
    2404:	00093b03          	ld	s6,0(s2)
    2408:	0003b983          	ld	s3,0(t2)
    240c:	0002b903          	ld	s2,0(t0)
    2410:	000f3383          	ld	t2,0(t5)
    2414:	000eb283          	ld	t0,0(t4)
    2418:	00063f03          	ld	t5,0(a2)
    241c:	0006be83          	ld	t4,0(a3)
    2420:	000e3a83          	ld	s5,0(t3)
    2424:	08083503          	ld	a0,128(a6)
    2428:	000c3e03          	ld	t3,0(s8)
    242c:	08883603          	ld	a2,136(a6)
    2430:	01478c33          	add	s8,a5,s4
    2434:	09083683          	ld	a3,144(a6)
    2438:	6084                	c.ld	s1,0(s1)
    243a:	000fbf83          	ld	t6,0(t6)
    243e:	09883703          	ld	a4,152(a6)
    2442:	030e                	c.slli	t1,0x3
    2444:	00043a03          	ld	s4,0(s0)
    2448:	30088893          	addi	a7,a7,768
    244c:	000c3403          	ld	s0,0(s8)
    2450:	933e                	c.add	t1,a5
    2452:	088e                	c.slli	a7,0x3
    2454:	00033303          	ld	t1,0(t1)
    2458:	98be                	c.add	a7,a5
    245a:	0008b883          	ld	a7,0(a7)
    245e:	01754533          	xor	a0,a0,s7
    2462:	01664633          	xor	a2,a2,s6
    2466:	0156c6b3          	xor	a3,a3,s5
    246a:	01474733          	xor	a4,a4,s4
    246e:	01354533          	xor	a0,a0,s3
    2472:	01264633          	xor	a2,a2,s2
    2476:	8ea5                	c.xor	a3,s1
    2478:	8f21                	c.xor	a4,s0
    247a:	00754533          	xor	a0,a0,t2
    247e:	00564633          	xor	a2,a2,t0
    2482:	01f6c6b3          	xor	a3,a3,t6
    2486:	00674733          	xor	a4,a4,t1
    248a:	01e54533          	xor	a0,a0,t5
    248e:	01d64633          	xor	a2,a2,t4
    2492:	01c6c6b3          	xor	a3,a3,t3
    2496:	01174733          	xor	a4,a4,a7
    249a:	00875293          	srli	t0,a4,0x8
    249e:	00855313          	srli	t1,a0,0x8
    24a2:	00865493          	srli	s1,a2,0x8
    24a6:	0086d413          	srli	s0,a3,0x8
    24aa:	01075893          	srli	a7,a4,0x10
    24ae:	0ff57b93          	andi	s7,a0,255
    24b2:	0ff2f293          	andi	t0,t0,255
    24b6:	0106d393          	srli	t2,a3,0x10
    24ba:	0ff67b13          	andi	s6,a2,255
    24be:	0ff37313          	andi	t1,t1,255
    24c2:	0ff6fa93          	andi	s5,a3,255
    24c6:	01055f13          	srli	t5,a0,0x10
    24ca:	0ff77a13          	andi	s4,a4,255
    24ce:	01065f93          	srli	t6,a2,0x10
    24d2:	0ff4f493          	andi	s1,s1,255
    24d6:	0ff47413          	andi	s0,s0,255
    24da:	0b8e                	c.slli	s7,0x3
    24dc:	10028993          	addi	s3,t0,256
    24e0:	01865e9b          	srliw	t4,a2,0x18
    24e4:	0b0e                	c.slli	s6,0x3
    24e6:	10030913          	addi	s2,t1,256
    24ea:	0ff8f293          	andi	t0,a7,255
    24ee:	0186de1b          	srliw	t3,a3,0x18
    24f2:	0187571b          	srliw	a4,a4,0x18
    24f6:	0185589b          	srliw	a7,a0,0x18
    24fa:	0ff3f393          	andi	t2,t2,255
    24fe:	0a8e                	c.slli	s5,0x3
    2500:	10048493          	addi	s1,s1,256
    2504:	0fff7f13          	andi	t5,t5,255
    2508:	0a0e                	c.slli	s4,0x3
    250a:	10040413          	addi	s0,s0,256
    250e:	0fffff93          	andi	t6,t6,255
    2512:	01778633          	add	a2,a5,s7
    2516:	016786b3          	add	a3,a5,s6
    251a:	9abe                	c.add	s5,a5
    251c:	9a3e                	c.add	s4,a5
    251e:	0007031b          	addiw	t1,a4,0
    2522:	098e                	c.slli	s3,0x3
    2524:	20038393          	addi	t2,t2,512
    2528:	2e81                	c.addiw	t4,0
    252a:	090e                	c.slli	s2,0x3
    252c:	20028293          	addi	t0,t0,512
    2530:	2e01                	c.addiw	t3,0
    2532:	048e                	c.slli	s1,0x3
    2534:	200f0f13          	addi	t5,t5,512
    2538:	040e                	c.slli	s0,0x3
    253a:	200f8f93          	addi	t6,t6,512
    253e:	2881                	c.addiw	a7,0
    2540:	00063c03          	ld	s8,0(a2)
    2544:	0006bb83          	ld	s7,0(a3)
    2548:	000abb03          	ld	s6,0(s5)
    254c:	0a083503          	ld	a0,160(a6)
    2550:	000a3a83          	ld	s5,0(s4)
    2554:	0a883603          	ld	a2,168(a6)
    2558:	0b083683          	ld	a3,176(a6)
    255c:	0b883703          	ld	a4,184(a6)
    2560:	99be                	c.add	s3,a5
    2562:	993e                	c.add	s2,a5
    2564:	94be                	c.add	s1,a5
    2566:	943e                	c.add	s0,a5
    2568:	038e                	c.slli	t2,0x3
    256a:	300e8e93          	addi	t4,t4,768
    256e:	028e                	c.slli	t0,0x3
    2570:	300e0e13          	addi	t3,t3,768
    2574:	0f0e                	c.slli	t5,0x3
    2576:	30030313          	addi	t1,t1,768
    257a:	0f8e                	c.slli	t6,0x3
    257c:	30088893          	addi	a7,a7,768
    2580:	0009ba03          	ld	s4,0(s3)
    2584:	93be                	c.add	t2,a5
    2586:	00093983          	ld	s3,0(s2)
    258a:	92be                	c.add	t0,a5
    258c:	0004b903          	ld	s2,0(s1)
    2590:	9f3e                	c.add	t5,a5
    2592:	6004                	c.ld	s1,0(s0)
    2594:	9fbe                	c.add	t6,a5
    2596:	0e8e                	c.slli	t4,0x3
    2598:	0e0e                	c.slli	t3,0x3
    259a:	030e                	c.slli	t1,0x3
    259c:	088e                	c.slli	a7,0x3
    259e:	0003b403          	ld	s0,0(t2)
    25a2:	000fbf83          	ld	t6,0(t6)
    25a6:	0002b383          	ld	t2,0(t0)
    25aa:	9ebe                	c.add	t4,a5
    25ac:	000f3283          	ld	t0,0(t5)
    25b0:	9e3e                	c.add	t3,a5
    25b2:	933e                	c.add	t1,a5
    25b4:	98be                	c.add	a7,a5
    25b6:	000ebf03          	ld	t5,0(t4)
    25ba:	01854533          	xor	a0,a0,s8
    25be:	000e3e83          	ld	t4,0(t3)
    25c2:	01764633          	xor	a2,a2,s7
    25c6:	00033e03          	ld	t3,0(t1)
    25ca:	0166c6b3          	xor	a3,a3,s6
    25ce:	0008b303          	ld	t1,0(a7)
    25d2:	01574733          	xor	a4,a4,s5
    25d6:	01454533          	xor	a0,a0,s4
    25da:	01364633          	xor	a2,a2,s3
    25de:	0126c6b3          	xor	a3,a3,s2
    25e2:	8f25                	c.xor	a4,s1
    25e4:	8d21                	c.xor	a0,s0
    25e6:	00764633          	xor	a2,a2,t2
    25ea:	0056c6b3          	xor	a3,a3,t0
    25ee:	01f74733          	xor	a4,a4,t6
    25f2:	01e54533          	xor	a0,a0,t5
    25f6:	00674733          	xor	a4,a4,t1
    25fa:	01d64633          	xor	a2,a2,t4
    25fe:	01c6c6b3          	xor	a3,a3,t3
    2602:	00875e93          	srli	t4,a4,0x8
    2606:	0106de13          	srli	t3,a3,0x10
    260a:	0186531b          	srliw	t1,a2,0x18
    260e:	00855f93          	srli	t6,a0,0x8
    2612:	01075f13          	srli	t5,a4,0x10
    2616:	0fffff93          	andi	t6,t6,255
    261a:	0fff7f13          	andi	t5,t5,255
    261e:	00865c13          	srli	s8,a2,0x8
    2622:	0086d413          	srli	s0,a3,0x8
    2626:	0ffefe93          	andi	t4,t4,255
    262a:	0ffe7e13          	andi	t3,t3,255
    262e:	2301                	c.addiw	t1,0
    2630:	0ff57993          	andi	s3,a0,255
    2634:	200e0e13          	addi	t3,t3,512
    2638:	30030313          	addi	t1,t1,768
    263c:	0ff67b13          	andi	s6,a2,255
    2640:	100f8913          	addi	s2,t6,256
    2644:	200f0293          	addi	t0,t5,512
    2648:	0ff6fa93          	andi	s5,a3,255
    264c:	01055f93          	srli	t6,a0,0x10
    2650:	0ff77c93          	andi	s9,a4,255
    2654:	100e8e93          	addi	t4,t4,256
    2658:	0ffc7c13          	andi	s8,s8,255
    265c:	0ff47413          	andi	s0,s0,255
    2660:	8241                	c.srli	a2,0x10
    2662:	003e1393          	slli	t2,t3,0x3
    2666:	00331a13          	slli	s4,t1,0x3
    266a:	0186de1b          	srliw	t3,a3,0x18
    266e:	0187531b          	srliw	t1,a4,0x18
    2672:	0ff67613          	andi	a2,a2,255
    2676:	0185589b          	srliw	a7,a0,0x18
    267a:	098e                	c.slli	s3,0x3
    267c:	0e8e                	c.slli	t4,0x3
    267e:	0b0e                	c.slli	s6,0x3
    2680:	090e                	c.slli	s2,0x3
    2682:	028e                	c.slli	t0,0x3
    2684:	0a8e                	c.slli	s5,0x3
    2686:	100c0c13          	addi	s8,s8,256
    268a:	0fffff93          	andi	t6,t6,255
    268e:	0c8e                	c.slli	s9,0x3
    2690:	10040413          	addi	s0,s0,256
    2694:	99be                	c.add	s3,a5
    2696:	9ebe                	c.add	t4,a5
    2698:	9a3e                	c.add	s4,a5
    269a:	9cbe                	c.add	s9,a5
    269c:	20060493          	addi	s1,a2,512
    26a0:	93be                	c.add	t2,a5
    26a2:	9b3e                	c.add	s6,a5
    26a4:	993e                	c.add	s2,a5
    26a6:	92be                	c.add	t0,a5
    26a8:	9abe                	c.add	s5,a5
    26aa:	2e01                	c.addiw	t3,0
    26ac:	0c0e                	c.slli	s8,0x3
    26ae:	200f8f93          	addi	t6,t6,512
    26b2:	2301                	c.addiw	t1,0
    26b4:	040e                	c.slli	s0,0x3
    26b6:	2881                	c.addiw	a7,0
    26b8:	0009bb83          	ld	s7,0(s3)
    26bc:	0c083503          	ld	a0,192(a6)
    26c0:	000eb983          	ld	s3,0(t4)
    26c4:	0003b383          	ld	t2,0(t2)
    26c8:	000a3e83          	ld	t4,0(s4)
    26cc:	0c883603          	ld	a2,200(a6)
    26d0:	000b3b03          	ld	s6,0(s6)
    26d4:	00093903          	ld	s2,0(s2)
    26d8:	9c3e                	c.add	s8,a5
    26da:	0002b283          	ld	t0,0(t0)
    26de:	943e                	c.add	s0,a5
    26e0:	000cba03          	ld	s4,0(s9)
    26e4:	0d083683          	ld	a3,208(a6)
    26e8:	000aba83          	ld	s5,0(s5)
    26ec:	0d883703          	ld	a4,216(a6)
    26f0:	00349f13          	slli	t5,s1,0x3
    26f4:	300e0e13          	addi	t3,t3,768
    26f8:	0f8e                	c.slli	t6,0x3
    26fa:	30030313          	addi	t1,t1,768
    26fe:	30088893          	addi	a7,a7,768
    2702:	000c3483          	ld	s1,0(s8)
    2706:	6000                	c.ld	s0,0(s0)
    2708:	9fbe                	c.add	t6,a5
    270a:	9f3e                	c.add	t5,a5
    270c:	0e0e                	c.slli	t3,0x3
    270e:	030e                	c.slli	t1,0x3
    2710:	088e                	c.slli	a7,0x3
    2712:	000fbf83          	ld	t6,0(t6)
    2716:	000f3f03          	ld	t5,0(t5)
    271a:	9e3e                	c.add	t3,a5
    271c:	933e                	c.add	t1,a5
    271e:	98be                	c.add	a7,a5
    2720:	000e3e03          	ld	t3,0(t3)
    2724:	00033303          	ld	t1,0(t1)
    2728:	0008b883          	ld	a7,0(a7)
    272c:	01754533          	xor	a0,a0,s7
    2730:	01664633          	xor	a2,a2,s6
    2734:	0156c6b3          	xor	a3,a3,s5
    2738:	01474733          	xor	a4,a4,s4
    273c:	01354533          	xor	a0,a0,s3
    2740:	01264633          	xor	a2,a2,s2
    2744:	8ea5                	c.xor	a3,s1
    2746:	8f21                	c.xor	a4,s0
    2748:	00754533          	xor	a0,a0,t2
    274c:	00564633          	xor	a2,a2,t0
    2750:	01f6c6b3          	xor	a3,a3,t6
    2754:	01e74733          	xor	a4,a4,t5
    2758:	01c64633          	xor	a2,a2,t3
    275c:	0066c6b3          	xor	a3,a3,t1
    2760:	01174733          	xor	a4,a4,a7
    2764:	01d54533          	xor	a0,a0,t4
    2768:	00875313          	srli	t1,a4,0x8
    276c:	00855893          	srli	a7,a0,0x8
    2770:	00865493          	srli	s1,a2,0x8
    2774:	0086d413          	srli	s0,a3,0x8
    2778:	0ff57b93          	andi	s7,a0,255
    277c:	0106d393          	srli	t2,a3,0x10
    2780:	0ff67b13          	andi	s6,a2,255
    2784:	0ff8f893          	andi	a7,a7,255
    2788:	01075293          	srli	t0,a4,0x10
    278c:	0ff6fa93          	andi	s5,a3,255
    2790:	01055e93          	srli	t4,a0,0x10
    2794:	0ff77a13          	andi	s4,a4,255
    2798:	01065f13          	srli	t5,a2,0x10
    279c:	0ff37313          	andi	t1,t1,255
    27a0:	0ff4f493          	andi	s1,s1,255
    27a4:	0ff47413          	andi	s0,s0,255
    27a8:	10030313          	addi	t1,t1,256
    27ac:	0186561b          	srliw	a2,a2,0x18
    27b0:	10088913          	addi	s2,a7,256
    27b4:	0186d69b          	srliw	a3,a3,0x18
    27b8:	0187571b          	srliw	a4,a4,0x18
    27bc:	0185551b          	srliw	a0,a0,0x18
    27c0:	0b8e                	c.slli	s7,0x3
    27c2:	0ff3f393          	andi	t2,t2,255
    27c6:	0b0e                	c.slli	s6,0x3
    27c8:	0ff2f293          	andi	t0,t0,255
    27cc:	0a8e                	c.slli	s5,0x3
    27ce:	10048493          	addi	s1,s1,256
    27d2:	0ffefe93          	andi	t4,t4,255
    27d6:	0a0e                	c.slli	s4,0x3
    27d8:	10040413          	addi	s0,s0,256
    27dc:	0fff7f13          	andi	t5,t5,255
    27e0:	9bbe                	c.add	s7,a5
    27e2:	00331993          	slli	s3,t1,0x3
    27e6:	00060e1b          	addiw	t3,a2,0
    27ea:	9b3e                	c.add	s6,a5
    27ec:	0006831b          	addiw	t1,a3,0
    27f0:	9abe                	c.add	s5,a5
    27f2:	00070f9b          	addiw	t6,a4,0
    27f6:	9a3e                	c.add	s4,a5
    27f8:	0005089b          	addiw	a7,a0,0
    27fc:	20038393          	addi	t2,t2,512
    2800:	090e                	c.slli	s2,0x3
    2802:	20028293          	addi	t0,t0,512
    2806:	048e                	c.slli	s1,0x3
    2808:	200e8e93          	addi	t4,t4,512
    280c:	040e                	c.slli	s0,0x3
    280e:	200f0f13          	addi	t5,t5,512
    2812:	0e083503          	ld	a0,224(a6)
    2816:	000bbb83          	ld	s7,0(s7)
    281a:	0e883603          	ld	a2,232(a6)
    281e:	000b3b03          	ld	s6,0(s6)
    2822:	0f083683          	ld	a3,240(a6)
    2826:	000aba83          	ld	s5,0(s5)
    282a:	0f883703          	ld	a4,248(a6)
    282e:	000a3a03          	ld	s4,0(s4)
    2832:	99be                	c.add	s3,a5
    2834:	993e                	c.add	s2,a5
    2836:	94be                	c.add	s1,a5
    2838:	300f8f93          	addi	t6,t6,768
    283c:	943e                	c.add	s0,a5
    283e:	038e                	c.slli	t2,0x3
    2840:	300e0e13          	addi	t3,t3,768
    2844:	028e                	c.slli	t0,0x3
    2846:	30030313          	addi	t1,t1,768
    284a:	0e8e                	c.slli	t4,0x3
    284c:	0f0e                	c.slli	t5,0x3
    284e:	30088893          	addi	a7,a7,768
    2852:	0009b983          	ld	s3,0(s3)
    2856:	00093903          	ld	s2,0(s2)
    285a:	6084                	c.ld	s1,0(s1)
    285c:	6000                	c.ld	s0,0(s0)
    285e:	9ebe                	c.add	t4,a5
    2860:	003f9c13          	slli	s8,t6,0x3
    2864:	93be                	c.add	t2,a5
    2866:	0e0e                	c.slli	t3,0x3
    2868:	92be                	c.add	t0,a5
    286a:	030e                	c.slli	t1,0x3
    286c:	9f3e                	c.add	t5,a5
    286e:	088e                	c.slli	a7,0x3
    2870:	000ebf83          	ld	t6,0(t4)
    2874:	0003b383          	ld	t2,0(t2)
    2878:	0002b283          	ld	t0,0(t0)
    287c:	000f3f03          	ld	t5,0(t5)
    2880:	01c78eb3          	add	t4,a5,t3
    2884:	98be                	c.add	a7,a5
    2886:	00678e33          	add	t3,a5,t1
    288a:	01878333          	add	t1,a5,s8
    288e:	000ebe83          	ld	t4,0(t4)
    2892:	000e3e03          	ld	t3,0(t3)
    2896:	00033303          	ld	t1,0(t1)
    289a:	0008b883          	ld	a7,0(a7)
    289e:	01754533          	xor	a0,a0,s7
    28a2:	01664633          	xor	a2,a2,s6
    28a6:	0156c6b3          	xor	a3,a3,s5
    28aa:	01474733          	xor	a4,a4,s4
    28ae:	01354533          	xor	a0,a0,s3
    28b2:	01264633          	xor	a2,a2,s2
    28b6:	8ea5                	c.xor	a3,s1
    28b8:	8f21                	c.xor	a4,s0
    28ba:	00754533          	xor	a0,a0,t2
    28be:	00564633          	xor	a2,a2,t0
    28c2:	01f6c6b3          	xor	a3,a3,t6
    28c6:	01e74733          	xor	a4,a4,t5
    28ca:	01d54533          	xor	a0,a0,t4
    28ce:	0066c6b3          	xor	a3,a3,t1
    28d2:	01174733          	xor	a4,a4,a7
    28d6:	01c64633          	xor	a2,a2,t3
    28da:	00875313          	srli	t1,a4,0x8
    28de:	00855893          	srli	a7,a0,0x8
    28e2:	00865413          	srli	s0,a2,0x8
    28e6:	0086d393          	srli	t2,a3,0x8
    28ea:	0ff6ff13          	andi	t5,a3,255
    28ee:	0ff77a93          	andi	s5,a4,255
    28f2:	0ff57a13          	andi	s4,a0,255
    28f6:	0ff37313          	andi	t1,t1,255
    28fa:	0106d293          	srli	t0,a3,0x10
    28fe:	0ff67e13          	andi	t3,a2,255
    2902:	0ff8f893          	andi	a7,a7,255
    2906:	01075c93          	srli	s9,a4,0x10
    290a:	01055993          	srli	s3,a0,0x10
    290e:	01065e93          	srli	t4,a2,0x10
    2912:	0ff47413          	andi	s0,s0,255
    2916:	0ff3f393          	andi	t2,t2,255
    291a:	10030913          	addi	s2,t1,256
    291e:	0186561b          	srliw	a2,a2,0x18
    2922:	10088493          	addi	s1,a7,256
    2926:	0186d69b          	srliw	a3,a3,0x18
    292a:	003f1313          	slli	t1,t5,0x3
    292e:	0187571b          	srliw	a4,a4,0x18
    2932:	003a9893          	slli	a7,s5,0x3
    2936:	01855c1b          	srliw	s8,a0,0x18
    293a:	0a0e                	c.slli	s4,0x3
    293c:	0ff2f293          	andi	t0,t0,255
    2940:	0e0e                	c.slli	t3,0x3
    2942:	0ffcfc93          	andi	s9,s9,255
    2946:	10040413          	addi	s0,s0,256
    294a:	0ff9f993          	andi	s3,s3,255
    294e:	10038393          	addi	t2,t2,256
    2952:	0ffefe93          	andi	t4,t4,255
    2956:	9a3e                	c.add	s4,a5
    2958:	00060f9b          	addiw	t6,a2,0
    295c:	9e3e                	c.add	t3,a5
    295e:	00068f1b          	addiw	t5,a3,0
    2962:	933e                	c.add	t1,a5
    2964:	98be                	c.add	a7,a5
    2966:	20098993          	addi	s3,s3,512
    296a:	0007051b          	addiw	a0,a4,0
    296e:	090e                	c.slli	s2,0x3
    2970:	20028293          	addi	t0,t0,512
    2974:	048e                	c.slli	s1,0x3
    2976:	200c8c93          	addi	s9,s9,512
    297a:	040e                	c.slli	s0,0x3
    297c:	038e                	c.slli	t2,0x3
    297e:	200e8e93          	addi	t4,t4,512
    2982:	2c01                	c.addiw	s8,0
    2984:	10083603          	ld	a2,256(a6)
    2988:	993e                	c.add	s2,a5
    298a:	000a3b83          	ld	s7,0(s4)
    298e:	000e3b03          	ld	s6,0(t3)
    2992:	00033a83          	ld	s5,0(t1)
    2996:	11883e03          	ld	t3,280(a6)
    299a:	0008ba03          	ld	s4,0(a7)
    299e:	10883683          	ld	a3,264(a6)
    29a2:	11083703          	ld	a4,272(a6)
    29a6:	94be                	c.add	s1,a5
    29a8:	943e                	c.add	s0,a5
    29aa:	93be                	c.add	t2,a5
    29ac:	300f8313          	addi	t1,t6,768
    29b0:	300f0893          	addi	a7,t5,768
    29b4:	028e                	c.slli	t0,0x3
    29b6:	00399f13          	slli	t5,s3,0x3
    29ba:	003c9f93          	slli	t6,s9,0x3
    29be:	30050513          	addi	a0,a0,768
    29c2:	0e8e                	c.slli	t4,0x3
    29c4:	300c0c13          	addi	s8,s8,768
    29c8:	00093983          	ld	s3,0(s2)
    29cc:	92be                	c.add	t0,a5
    29ce:	0004b903          	ld	s2,0(s1)
    29d2:	9fbe                	c.add	t6,a5
    29d4:	6004                	c.ld	s1,0(s0)
    29d6:	9f3e                	c.add	t5,a5
    29d8:	0003b403          	ld	s0,0(t2)
    29dc:	9ebe                	c.add	t4,a5
    29de:	0c0e                	c.slli	s8,0x3
    29e0:	030e                	c.slli	t1,0x3
    29e2:	088e                	c.slli	a7,0x3
    29e4:	050e                	c.slli	a0,0x3
    29e6:	0002b383          	ld	t2,0(t0)
    29ea:	98be                	c.add	a7,a5
    29ec:	000fb283          	ld	t0,0(t6)
    29f0:	953e                	c.add	a0,a5
    29f2:	000f3f83          	ld	t6,0(t5)
    29f6:	933e                	c.add	t1,a5
    29f8:	000ebf03          	ld	t5,0(t4)
    29fc:	97e2                	c.add	a5,s8
    29fe:	0008be83          	ld	t4,0(a7)
    2a02:	00033303          	ld	t1,0(t1)
    2a06:	00053883          	ld	a7,0(a0)
    2a0a:	01764633          	xor	a2,a2,s7
    2a0e:	6388                	c.ld	a0,0(a5)
    2a10:	0166c6b3          	xor	a3,a3,s6
    2a14:	014e47b3          	xor	a5,t3,s4
    2a18:	01574733          	xor	a4,a4,s5
    2a1c:	01364633          	xor	a2,a2,s3
    2a20:	0126c6b3          	xor	a3,a3,s2
    2a24:	8f25                	c.xor	a4,s1
    2a26:	8fa1                	c.xor	a5,s0
    2a28:	00764633          	xor	a2,a2,t2
    2a2c:	0056c6b3          	xor	a3,a3,t0
    2a30:	01f74733          	xor	a4,a4,t6
    2a34:	01e7c7b3          	xor	a5,a5,t5
    2a38:	00664333          	xor	t1,a2,t1
    2a3c:	01d6c6b3          	xor	a3,a3,t4
    2a40:	01174733          	xor	a4,a4,a7
    2a44:	8fa9                	c.xor	a5,a0
    2a46:	0087df93          	srli	t6,a5,0x8
    2a4a:	01075e13          	srli	t3,a4,0x10
    2a4e:	0186da1b          	srliw	s4,a3,0x18
    2a52:	00835413          	srli	s0,t1,0x8
    2a56:	0107df13          	srli	t5,a5,0x10
    2a5a:	01875e9b          	srliw	t4,a4,0x18
    2a5e:	0086d393          	srli	t2,a3,0x8
    2a62:	00875b93          	srli	s7,a4,0x8
    2a66:	0fffff93          	andi	t6,t6,255
    2a6a:	0ffe7e13          	andi	t3,t3,255
    2a6e:	2a01                	c.addiw	s4,0
    2a70:	0ff47413          	andi	s0,s0,255
    2a74:	0fff7f13          	andi	t5,t5,255
    2a78:	2e81                	c.addiw	t4,0
    2a7a:	0ff3f393          	andi	t2,t2,255
    2a7e:	0ff37493          	andi	s1,t1,255
    2a82:	0ff6f993          	andi	s3,a3,255
    2a86:	0ff77713          	andi	a4,a4,255
    2a8a:	01035293          	srli	t0,t1,0x10
    2a8e:	0ff7f913          	andi	s2,a5,255
    2a92:	82c1                	c.srli	a3,0x10
    2a94:	00000637          	lui	a2,0x0
    2a98:	100f8f93          	addi	t6,t6,256
    2a9c:	200e0e13          	addi	t3,t3,512
    2aa0:	300a0a13          	addi	s4,s4,768
    2aa4:	10040413          	addi	s0,s0,256
    2aa8:	200f0f13          	addi	t5,t5,512
    2aac:	300e8e93          	addi	t4,t4,768
    2ab0:	10038393          	addi	t2,t2,256
    2ab4:	0ffbfb93          	andi	s7,s7,255
    2ab8:	00060b13          	addi	s6,a2,0 # 0 <set_key>
    2abc:	0a0e                	c.slli	s4,0x3
    2abe:	0e8e                	c.slli	t4,0x3
    2ac0:	00371513          	slli	a0,a4,0x3
    2ac4:	0187d79b          	srliw	a5,a5,0x18
    2ac8:	0ff6f893          	andi	a7,a3,255
    2acc:	0183561b          	srliw	a2,t1,0x18
    2ad0:	048e                	c.slli	s1,0x3
    2ad2:	0f8e                	c.slli	t6,0x3
    2ad4:	0e0e                	c.slli	t3,0x3
    2ad6:	098e                	c.slli	s3,0x3
    2ad8:	040e                	c.slli	s0,0x3
    2ada:	0f0e                	c.slli	t5,0x3
    2adc:	038e                	c.slli	t2,0x3
    2ade:	0ff2f293          	andi	t0,t0,255
    2ae2:	090e                	c.slli	s2,0x3
    2ae4:	100b8b93          	addi	s7,s7,256
    2ae8:	016a06b3          	add	a3,s4,s6
    2aec:	94da                	c.add	s1,s6
    2aee:	9fda                	c.add	t6,s6
    2af0:	9e5a                	c.add	t3,s6
    2af2:	99da                	c.add	s3,s6
    2af4:	016e8333          	add	t1,t4,s6
    2af8:	955a                	c.add	a0,s6
    2afa:	00078e9b          	addiw	t4,a5,0
    2afe:	945a                	c.add	s0,s6
    2b00:	9f5a                	c.add	t5,s6
    2b02:	93da                	c.add	t2,s6
    2b04:	20028293          	addi	t0,t0,512
    2b08:	995a                	c.add	s2,s6
    2b0a:	0b8e                	c.slli	s7,0x3
    2b0c:	20088893          	addi	a7,a7,512
    2b10:	2601                	c.addiw	a2,0
    2b12:	12083703          	ld	a4,288(a6)
    2b16:	0004ba83          	ld	s5,0(s1)
    2b1a:	0009ba03          	ld	s4,0(s3)
    2b1e:	000fb483          	ld	s1,0(t6)
    2b22:	00033303          	ld	t1,0(t1)
    2b26:	000e3f83          	ld	t6,0(t3)
    2b2a:	13083783          	ld	a5,304(a6)
    2b2e:	0006be03          	ld	t3,0(a3)
    2b32:	00053983          	ld	s3,0(a0)
    2b36:	12883683          	ld	a3,296(a6)
    2b3a:	6000                	c.ld	s0,0(s0)
    2b3c:	000f3f03          	ld	t5,0(t5)
    2b40:	028e                	c.slli	t0,0x3
    2b42:	0003b383          	ld	t2,0(t2)
    2b46:	300e8e93          	addi	t4,t4,768
    2b4a:	13883503          	ld	a0,312(a6)
    2b4e:	00093903          	ld	s2,0(s2)
    2b52:	9bda                	c.add	s7,s6
    2b54:	088e                	c.slli	a7,0x3
    2b56:	30060613          	addi	a2,a2,768
    2b5a:	01628c33          	add	s8,t0,s6
    2b5e:	003e9813          	slli	a6,t4,0x3
    2b62:	000bb283          	ld	t0,0(s7)
    2b66:	98da                	c.add	a7,s6
    2b68:	060e                	c.slli	a2,0x3
    2b6a:	000c3e83          	ld	t4,0(s8)
    2b6e:	985a                	c.add	a6,s6
    2b70:	0008b883          	ld	a7,0(a7)
    2b74:	965a                	c.add	a2,s6
    2b76:	01254533          	xor	a0,a0,s2
    2b7a:	01574733          	xor	a4,a4,s5
    2b7e:	0146c6b3          	xor	a3,a3,s4
    2b82:	0137c7b3          	xor	a5,a5,s3
    2b86:	00083803          	ld	a6,0(a6)
    2b8a:	00063903          	ld	s2,0(a2)
    2b8e:	8f25                	c.xor	a4,s1
    2b90:	8ea1                	c.xor	a3,s0
    2b92:	0077c7b3          	xor	a5,a5,t2
    2b96:	00554533          	xor	a0,a0,t0
    2b9a:	01f74733          	xor	a4,a4,t6
    2b9e:	01e6c6b3          	xor	a3,a3,t5
    2ba2:	01d7c7b3          	xor	a5,a5,t4
    2ba6:	01154533          	xor	a0,a0,a7
    2baa:	0066c6b3          	xor	a3,a3,t1
    2bae:	01c74733          	xor	a4,a4,t3
    2bb2:	0107c333          	xor	t1,a5,a6
    2bb6:	01254533          	xor	a0,a0,s2
    2bba:	eaffe06f          	jal	zero,1a68 <.L49>

0000000000002bbe <.L60>:
    2bbe:	0017c977          	0x17c977
    2bc2:	000007b7          	lui	a5,0x0
    2bc6:	00078793          	addi	a5,a5,0 # 0 <set_key>
    2bca:	9b6ff06f          	jal	zero,1d80 <.L52>

0000000000002bce <.L51>:
    2bce:	09d26977          	0x9d26977
    2bd2:	00855413          	srli	s0,a0,0x8
    2bd6:	00875393          	srli	t2,a4,0x8
    2bda:	0086d293          	srli	t0,a3,0x8
    2bde:	00835f93          	srli	t6,t1,0x8
    2be2:	0ff77f13          	andi	t5,a4,255
    2be6:	01035d93          	srli	s11,t1,0x10
    2bea:	0ff6fe93          	andi	t4,a3,255
    2bee:	01055d13          	srli	s10,a0,0x10
    2bf2:	0ff37e13          	andi	t3,t1,255
    2bf6:	01075c93          	srli	s9,a4,0x10
    2bfa:	0ff57893          	andi	a7,a0,255
    2bfe:	0106dc13          	srli	s8,a3,0x10
    2c02:	0ff47413          	andi	s0,s0,255
    2c06:	0ff3f393          	andi	t2,t2,255
    2c0a:	0ff2f293          	andi	t0,t0,255
    2c0e:	0fffff93          	andi	t6,t6,255
    2c12:	000007b7          	lui	a5,0x0
    2c16:	00078793          	addi	a5,a5,0 # 0 <set_key>
    2c1a:	0186d69b          	srliw	a3,a3,0x18
    2c1e:	0185551b          	srliw	a0,a0,0x18
    2c22:	0187571b          	srliw	a4,a4,0x18
    2c26:	0183531b          	srliw	t1,t1,0x18
    2c2a:	0f0e                	c.slli	t5,0x3
    2c2c:	10040413          	addi	s0,s0,256
    2c30:	0ffdfd93          	andi	s11,s11,255
    2c34:	0e8e                	c.slli	t4,0x3
    2c36:	10038393          	addi	t2,t2,256
    2c3a:	0ffd7d13          	andi	s10,s10,255
    2c3e:	0e0e                	c.slli	t3,0x3
    2c40:	10028293          	addi	t0,t0,256
    2c44:	0ffcfc93          	andi	s9,s9,255
    2c48:	088e                	c.slli	a7,0x3
    2c4a:	100f8f93          	addi	t6,t6,256
    2c4e:	0ffc7c13          	andi	s8,s8,255
    2c52:	0006899b          	addiw	s3,a3,0
    2c56:	0005091b          	addiw	s2,a0,0
    2c5a:	0007049b          	addiw	s1,a4,0
    2c5e:	9f3e                	c.add	t5,a5
    2c60:	9ebe                	c.add	t4,a5
    2c62:	9e3e                	c.add	t3,a5
    2c64:	98be                	c.add	a7,a5
    2c66:	040e                	c.slli	s0,0x3
    2c68:	200d8d93          	addi	s11,s11,512
    2c6c:	038e                	c.slli	t2,0x3
    2c6e:	200d0d13          	addi	s10,s10,512
    2c72:	2301                	c.addiw	t1,0
    2c74:	028e                	c.slli	t0,0x3
    2c76:	200c8c93          	addi	s9,s9,512
    2c7a:	0f8e                	c.slli	t6,0x3
    2c7c:	200c0c13          	addi	s8,s8,512
    2c80:	000f3b83          	ld	s7,0(t5)
    2c84:	000ebb03          	ld	s6,0(t4)
    2c88:	000e3a83          	ld	s5,0(t3)
    2c8c:	0008ba03          	ld	s4,0(a7)
    2c90:	23063803          	ld	a6,560(a2)
    2c94:	23863503          	ld	a0,568(a2)
    2c98:	24063703          	ld	a4,576(a2)
    2c9c:	24863683          	ld	a3,584(a2)
    2ca0:	943e                	c.add	s0,a5
    2ca2:	30098e93          	addi	t4,s3,768
    2ca6:	93be                	c.add	t2,a5
    2ca8:	92be                	c.add	t0,a5
    2caa:	30090e13          	addi	t3,s2,768
    2cae:	9fbe                	c.add	t6,a5
    2cb0:	30048893          	addi	a7,s1,768
    2cb4:	0d8e                	c.slli	s11,0x3
    2cb6:	0d0e                	c.slli	s10,0x3
    2cb8:	30030313          	addi	t1,t1,768
    2cbc:	0c8e                	c.slli	s9,0x3
    2cbe:	0c0e                	c.slli	s8,0x3
    2cc0:	00043983          	ld	s3,0(s0)
    2cc4:	0003b903          	ld	s2,0(t2)
    2cc8:	0002b483          	ld	s1,0(t0)
    2ccc:	000fb403          	ld	s0,0(t6)
    2cd0:	0e0e                	c.slli	t3,0x3
    2cd2:	9c3e                	c.add	s8,a5
    2cd4:	9dbe                	c.add	s11,a5
    2cd6:	0e8e                	c.slli	t4,0x3
    2cd8:	9d3e                	c.add	s10,a5
    2cda:	030e                	c.slli	t1,0x3
    2cdc:	9cbe                	c.add	s9,a5
    2cde:	088e                	c.slli	a7,0x3
    2ce0:	000c3f03          	ld	t5,0(s8)
    2ce4:	000db383          	ld	t2,0(s11)
    2ce8:	000d3283          	ld	t0,0(s10)
    2cec:	000cbf83          	ld	t6,0(s9)
    2cf0:	01c78c33          	add	s8,a5,t3
    2cf4:	933e                	c.add	t1,a5
    2cf6:	9ebe                	c.add	t4,a5
    2cf8:	98be                	c.add	a7,a5
    2cfa:	00033e03          	ld	t3,0(t1)
    2cfe:	000ebe83          	ld	t4,0(t4)
    2d02:	000c3303          	ld	t1,0(s8)
    2d06:	0008b883          	ld	a7,0(a7)
    2d0a:	01784833          	xor	a6,a6,s7
    2d0e:	01654533          	xor	a0,a0,s6
    2d12:	01574733          	xor	a4,a4,s5
    2d16:	0146c6b3          	xor	a3,a3,s4
    2d1a:	01384833          	xor	a6,a6,s3
    2d1e:	01254533          	xor	a0,a0,s2
    2d22:	8f25                	c.xor	a4,s1
    2d24:	8ea1                	c.xor	a3,s0
    2d26:	00784833          	xor	a6,a6,t2
    2d2a:	00554533          	xor	a0,a0,t0
    2d2e:	01f74733          	xor	a4,a4,t6
    2d32:	01e6c6b3          	xor	a3,a3,t5
    2d36:	01d84833          	xor	a6,a6,t4
    2d3a:	01c54533          	xor	a0,a0,t3
    2d3e:	0116c6b3          	xor	a3,a3,a7
    2d42:	00674733          	xor	a4,a4,t1
    2d46:	0086da13          	srli	s4,a3,0x8
    2d4a:	01075493          	srli	s1,a4,0x10
    2d4e:	0185539b          	srliw	t2,a0,0x18
    2d52:	00885413          	srli	s0,a6,0x8
    2d56:	0106d293          	srli	t0,a3,0x10
    2d5a:	0187531b          	srliw	t1,a4,0x18
    2d5e:	00855913          	srli	s2,a0,0x8
    2d62:	00875f93          	srli	t6,a4,0x8
    2d66:	0ffa7a13          	andi	s4,s4,255
    2d6a:	0ff4f493          	andi	s1,s1,255
    2d6e:	2381                	c.addiw	t2,0
    2d70:	0ff47413          	andi	s0,s0,255
    2d74:	0ff2f293          	andi	t0,t0,255
    2d78:	2301                	c.addiw	t1,0
    2d7a:	0ff97913          	andi	s2,s2,255
    2d7e:	0ff87b13          	andi	s6,a6,255
    2d82:	0ff57993          	andi	s3,a0,255
    2d86:	01085f13          	srli	t5,a6,0x10
    2d8a:	0ff6fa93          	andi	s5,a3,255
    2d8e:	100a0a13          	addi	s4,s4,256
    2d92:	20048493          	addi	s1,s1,512
    2d96:	30038393          	addi	t2,t2,768
    2d9a:	10040413          	addi	s0,s0,256
    2d9e:	20028293          	addi	t0,t0,512
    2da2:	30030313          	addi	t1,t1,768
    2da6:	0ff77713          	andi	a4,a4,255
    2daa:	10090913          	addi	s2,s2,256
    2dae:	0fffff93          	andi	t6,t6,255
    2db2:	8141                	c.srli	a0,0x10
    2db4:	070e                	c.slli	a4,0x3
    2db6:	0186d69b          	srliw	a3,a3,0x18
    2dba:	0ff57513          	andi	a0,a0,255
    2dbe:	0b0e                	c.slli	s6,0x3
    2dc0:	0a0e                	c.slli	s4,0x3
    2dc2:	048e                	c.slli	s1,0x3
    2dc4:	038e                	c.slli	t2,0x3
    2dc6:	098e                	c.slli	s3,0x3
    2dc8:	040e                	c.slli	s0,0x3
    2dca:	028e                	c.slli	t0,0x3
    2dcc:	030e                	c.slli	t1,0x3
    2dce:	090e                	c.slli	s2,0x3
    2dd0:	0fff7f13          	andi	t5,t5,255
    2dd4:	0a8e                	c.slli	s5,0x3
    2dd6:	100f8f93          	addi	t6,t6,256
    2dda:	0188581b          	srliw	a6,a6,0x18
    2dde:	00e78eb3          	add	t4,a5,a4
    2de2:	9b3e                	c.add	s6,a5
    2de4:	99be                	c.add	s3,a5
    2de6:	943e                	c.add	s0,a5
    2de8:	92be                	c.add	t0,a5
    2dea:	933e                	c.add	t1,a5
    2dec:	0006889b          	addiw	a7,a3,0
    2df0:	20050e13          	addi	t3,a0,512
    2df4:	9a3e                	c.add	s4,a5
    2df6:	94be                	c.add	s1,a5
    2df8:	93be                	c.add	t2,a5
    2dfa:	993e                	c.add	s2,a5
    2dfc:	200f0f13          	addi	t5,t5,512
    2e00:	9abe                	c.add	s5,a5
    2e02:	0f8e                	c.slli	t6,0x3
    2e04:	2801                	c.addiw	a6,0
    2e06:	000b3c03          	ld	s8,0(s6)
    2e0a:	0009bb83          	ld	s7,0(s3)
    2e0e:	000ebb03          	ld	s6,0(t4)
    2e12:	00043983          	ld	s3,0(s0)
    2e16:	25063703          	ld	a4,592(a2)
    2e1a:	0002b403          	ld	s0,0(t0)
    2e1e:	000a3a03          	ld	s4,0(s4)
    2e22:	00033283          	ld	t0,0(t1)
    2e26:	6084                	c.ld	s1,0(s1)
    2e28:	0003b383          	ld	t2,0(t2)
    2e2c:	25863683          	ld	a3,600(a2)
    2e30:	26063303          	ld	t1,608(a2)
    2e34:	0e0e                	c.slli	t3,0x3
    2e36:	00093903          	ld	s2,0(s2)
    2e3a:	30080813          	addi	a6,a6,768
    2e3e:	0f0e                	c.slli	t5,0x3
    2e40:	30088893          	addi	a7,a7,768
    2e44:	26863503          	ld	a0,616(a2)
    2e48:	000aba83          	ld	s5,0(s5)
    2e4c:	9fbe                	c.add	t6,a5
    2e4e:	01c78eb3          	add	t4,a5,t3
    2e52:	9f3e                	c.add	t5,a5
    2e54:	00381e13          	slli	t3,a6,0x3
    2e58:	088e                	c.slli	a7,0x3
    2e5a:	000fbf83          	ld	t6,0(t6)
    2e5e:	98be                	c.add	a7,a5
    2e60:	9e3e                	c.add	t3,a5
    2e62:	000f3f03          	ld	t5,0(t5)
    2e66:	000ebe83          	ld	t4,0(t4)
    2e6a:	0008b803          	ld	a6,0(a7)
    2e6e:	01874733          	xor	a4,a4,s8
    2e72:	000e3883          	ld	a7,0(t3)
    2e76:	0176c6b3          	xor	a3,a3,s7
    2e7a:	01634333          	xor	t1,t1,s6
    2e7e:	01554533          	xor	a0,a0,s5
    2e82:	01474733          	xor	a4,a4,s4
    2e86:	0136c6b3          	xor	a3,a3,s3
    2e8a:	01234333          	xor	t1,t1,s2
    2e8e:	01f54533          	xor	a0,a0,t6
    2e92:	8f25                	c.xor	a4,s1
    2e94:	8ea1                	c.xor	a3,s0
    2e96:	01e34333          	xor	t1,t1,t5
    2e9a:	01d54533          	xor	a0,a0,t4
    2e9e:	01034333          	xor	t1,t1,a6
    2ea2:	27063e03          	ld	t3,624(a2)
    2ea6:	00774733          	xor	a4,a4,t2
    2eaa:	0056c6b3          	xor	a3,a3,t0
    2eae:	01154533          	xor	a0,a0,a7
    2eb2:	27060813          	addi	a6,a2,624
    2eb6:	c03fe06f          	jal	zero,1ab8 <.L53>
