
aesxam.o:     file format elf64-littleriscv


Disassembly of section .text:

0000000000000000 <fillrand>:
   0:	00000737          	lui	a4,0x0
   4:	00073783          	ld	a5,0(a4) # 0 <fillrand>
   8:	02078463          	beq	a5,zero,30 <.L2>
   c:	000007b7          	lui	a5,0x0
  10:	00073023          	sd	zero,0(a4)
  14:	0000f737          	lui	a4,0xf
  18:	00078793          	addi	a5,a5,0 # 0 <fillrand>
  1c:	af370713          	addi	a4,a4,-1293 # eaf3 <.L97+0xdc03>
  20:	00e7b023          	sd	a4,0(a5)
  24:	00003737          	lui	a4,0x3
  28:	5fe70713          	addi	a4,a4,1534 # 35fe <.L97+0x270e>
  2c:	00e7b423          	sd	a4,8(a5)

0000000000000030 <.L2>:
  30:	0eb05a63          	bge	zero,a1,124 <.L23>
  34:	fff5861b          	addiw	a2,a1,-1
  38:	000002b7          	lui	t0,0x0
  3c:	00028293          	addi	t0,t0,0 # 0 <fillrand>
  40:	000003b7          	lui	t2,0x0
  44:	02061613          	slli	a2,a2,0x20
  48:	fe010113          	addi	sp,sp,-32
  4c:	00150593          	addi	a1,a0,1
  50:	02065613          	srli	a2,a2,0x20
  54:	0002b703          	ld	a4,0(t0)
  58:	0082b683          	ld	a3,8(t0)
  5c:	0003b783          	ld	a5,0(t2) # 0 <fillrand>
  60:	00813c23          	sd	s0,24(sp)
  64:	00913823          	sd	s1,16(sp)
  68:	00b60633          	add	a2,a2,a1
  6c:	000004b7          	lui	s1,0x0
  70:	000105b7          	lui	a1,0x10
  74:	00009437          	lui	s0,0x9
  78:	00004fb7          	lui	t6,0x4
  7c:	01213423          	sd	s2,8(sp)
  80:	00400e93          	addi	t4,zero,4
  84:	00000913          	addi	s2,zero,0
  88:	fff58593          	addi	a1,a1,-1 # ffff <.L97+0xf10f>
  8c:	06940413          	addi	s0,s0,105 # 9069 <.L97+0x8179>
  90:	650f8f93          	addi	t6,t6,1616 # 4650 <.L97+0x3760>
  94:	00048f13          	addi	t5,s1,0 # 0 <fillrand>

0000000000000098 <.L6>:
  98:	00b778b3          	and	a7,a4,a1
  9c:	00b6f833          	and	a6,a3,a1
  a0:	01075e13          	srli	t3,a4,0x10
  a4:	0106d313          	srli	t1,a3,0x10
  a8:	03d79a63          	bne	a5,t4,dc <.L8>
  ac:	02888733          	mul	a4,a7,s0
  b0:	00150513          	addi	a0,a0,1
  b4:	00100793          	addi	a5,zero,1
  b8:	00100913          	addi	s2,zero,1
  bc:	03f806b3          	mul	a3,a6,t6
  c0:	01c70733          	add	a4,a4,t3
  c4:	01071813          	slli	a6,a4,0x10
  c8:	006686b3          	add	a3,a3,t1
  cc:	00d80833          	add	a6,a6,a3
  d0:	0104b023          	sd	a6,0(s1)
  d4:	ff050fa3          	sb	a6,-1(a0)
  d8:	02a60c63          	beq	a2,a0,110 <.L27>

00000000000000dc <.L8>:
  dc:	01e78833          	add	a6,a5,t5
  e0:	00084803          	lbu	a6,0(a6)
  e4:	00150513          	addi	a0,a0,1
  e8:	00178793          	addi	a5,a5,1
  ec:	ff050fa3          	sb	a6,-1(a0)
  f0:	faa614e3          	bne	a2,a0,98 <.L6>
  f4:	00f3b023          	sd	a5,0(t2)
  f8:	02091063          	bne	s2,zero,118 <.L11>

00000000000000fc <.L1>:
  fc:	01813403          	ld	s0,24(sp)
 100:	01013483          	ld	s1,16(sp)
 104:	00813903          	ld	s2,8(sp)
 108:	02010113          	addi	sp,sp,32
 10c:	00008067          	jalr	zero,0(ra)

0000000000000110 <.L27>:
 110:	00100793          	addi	a5,zero,1
 114:	00f3b023          	sd	a5,0(t2)

0000000000000118 <.L11>:
 118:	00e2b023          	sd	a4,0(t0)
 11c:	00d2b423          	sd	a3,8(t0)
 120:	fddff06f          	jal	zero,fc <.L1>

0000000000000124 <.L23>:
 124:	00008067          	jalr	zero,0(ra)

0000000000000128 <encfile>:
 128:	f5010113          	addi	sp,sp,-176
 12c:	07713423          	sd	s7,104(sp)
 130:	00000bb7          	lui	s7,0x0
 134:	000bb783          	ld	a5,0(s7) # 0 <fillrand>
 138:	0a813023          	sd	s0,160(sp)
 13c:	08913c23          	sd	s1,152(sp)
 140:	07513c23          	sd	s5,120(sp)
 144:	0a113423          	sd	ra,168(sp)
 148:	00000ab7          	lui	s5,0x0
 14c:	09213823          	sd	s2,144(sp)
 150:	09313423          	sd	s3,136(sp)
 154:	09413023          	sd	s4,128(sp)
 158:	07613823          	sd	s6,112(sp)
 15c:	07813023          	sd	s8,96(sp)
 160:	05913c23          	sd	s9,88(sp)
 164:	05a13823          	sd	s10,80(sp)
 168:	05b13423          	sd	s11,72(sp)
 16c:	00c13023          	sd	a2,0(sp)
 170:	00d13423          	sd	a3,8(sp)
 174:	00050413          	addi	s0,a0,0
 178:	00058493          	addi	s1,a1,0
 17c:	000a8a93          	addi	s5,s5,0 # 0 <fillrand>
 180:	36079663          	bne	a5,zero,4ec <.L29>
 184:	00000b37          	lui	s6,0x0
 188:	000b3783          	ld	a5,0(s6) # 0 <fillrand>
 18c:	00400613          	addi	a2,zero,4
 190:	008ab703          	ld	a4,8(s5)
 194:	000ab683          	ld	a3,0(s5)
 198:	38c78063          	beq	a5,a2,518 <.L31>

000000000000019c <.L83>:
 19c:	00000a37          	lui	s4,0x0
 1a0:	000a0993          	addi	s3,s4,0 # 0 <fillrand>
 1a4:	00f985b3          	add	a1,s3,a5
 1a8:	0005c583          	lbu	a1,0(a1)
 1ac:	00178793          	addi	a5,a5,1
 1b0:	02b10823          	sb	a1,48(sp)
 1b4:	3cc79063          	bne	a5,a2,574 <.L82>
 1b8:	000107b7          	lui	a5,0x10
 1bc:	fff78793          	addi	a5,a5,-1 # ffff <.L97+0xf10f>
 1c0:	00f6f533          	and	a0,a3,a5
 1c4:	00f775b3          	and	a1,a4,a5
 1c8:	000097b7          	lui	a5,0x9
 1cc:	06978793          	addi	a5,a5,105 # 9069 <.L97+0x8179>
 1d0:	00004837          	lui	a6,0x4
 1d4:	02f50533          	mul	a0,a0,a5
 1d8:	65080813          	addi	a6,a6,1616 # 4650 <.L97+0x3760>
 1dc:	0106d693          	srli	a3,a3,0x10
 1e0:	01075713          	srli	a4,a4,0x10
 1e4:	00100613          	addi	a2,zero,1
 1e8:	00100793          	addi	a5,zero,1
 1ec:	030585b3          	mul	a1,a1,a6
 1f0:	00d506b3          	add	a3,a0,a3
 1f4:	01069513          	slli	a0,a3,0x10
 1f8:	00e58733          	add	a4,a1,a4
 1fc:	00e505b3          	add	a1,a0,a4
 200:	00ba3023          	sd	a1,0(s4)
 204:	02b108a3          	sb	a1,49(sp)

0000000000000208 <.L35>:
 208:	00f985b3          	add	a1,s3,a5
 20c:	0005c503          	lbu	a0,0(a1)
 210:	00178793          	addi	a5,a5,1
 214:	00400593          	addi	a1,zero,4
 218:	02a10923          	sb	a0,50(sp)
 21c:	3cb79263          	bne	a5,a1,5e0 <.L37>
 220:	000107b7          	lui	a5,0x10
 224:	fff78793          	addi	a5,a5,-1 # ffff <.L97+0xf10f>
 228:	00f6f533          	and	a0,a3,a5
 22c:	00f775b3          	and	a1,a4,a5
 230:	000097b7          	lui	a5,0x9
 234:	06978793          	addi	a5,a5,105 # 9069 <.L97+0x8179>
 238:	00004837          	lui	a6,0x4
 23c:	02f50533          	mul	a0,a0,a5
 240:	65080813          	addi	a6,a6,1616 # 4650 <.L97+0x3760>
 244:	0106d693          	srli	a3,a3,0x10
 248:	01075713          	srli	a4,a4,0x10
 24c:	00100793          	addi	a5,zero,1
 250:	00100613          	addi	a2,zero,1
 254:	030585b3          	mul	a1,a1,a6
 258:	00d506b3          	add	a3,a0,a3
 25c:	01069513          	slli	a0,a3,0x10
 260:	00e58733          	add	a4,a1,a4
 264:	00e505b3          	add	a1,a0,a4
 268:	00ba3023          	sd	a1,0(s4)
 26c:	02b109a3          	sb	a1,51(sp)

0000000000000270 <.L39>:
 270:	00f985b3          	add	a1,s3,a5
 274:	0005c503          	lbu	a0,0(a1)
 278:	00178793          	addi	a5,a5,1
 27c:	00400593          	addi	a1,zero,4
 280:	02a10a23          	sb	a0,52(sp)
 284:	3cb79263          	bne	a5,a1,648 <.L41>
 288:	000107b7          	lui	a5,0x10
 28c:	fff78793          	addi	a5,a5,-1 # ffff <.L97+0xf10f>
 290:	00f6f533          	and	a0,a3,a5
 294:	00f775b3          	and	a1,a4,a5
 298:	000097b7          	lui	a5,0x9
 29c:	06978793          	addi	a5,a5,105 # 9069 <.L97+0x8179>
 2a0:	00004837          	lui	a6,0x4
 2a4:	02f50533          	mul	a0,a0,a5
 2a8:	65080813          	addi	a6,a6,1616 # 4650 <.L97+0x3760>
 2ac:	0106d693          	srli	a3,a3,0x10
 2b0:	01075713          	srli	a4,a4,0x10
 2b4:	00100793          	addi	a5,zero,1
 2b8:	00100613          	addi	a2,zero,1
 2bc:	030585b3          	mul	a1,a1,a6
 2c0:	00d506b3          	add	a3,a0,a3
 2c4:	01069513          	slli	a0,a3,0x10
 2c8:	00e58733          	add	a4,a1,a4
 2cc:	00e505b3          	add	a1,a0,a4
 2d0:	00ba3023          	sd	a1,0(s4)
 2d4:	02b10aa3          	sb	a1,53(sp)

00000000000002d8 <.L43>:
 2d8:	00f985b3          	add	a1,s3,a5
 2dc:	0005c503          	lbu	a0,0(a1)
 2e0:	00178793          	addi	a5,a5,1
 2e4:	00400593          	addi	a1,zero,4
 2e8:	02a10b23          	sb	a0,54(sp)
 2ec:	3cb79263          	bne	a5,a1,6b0 <.L45>
 2f0:	000107b7          	lui	a5,0x10
 2f4:	fff78793          	addi	a5,a5,-1 # ffff <.L97+0xf10f>
 2f8:	00f6f533          	and	a0,a3,a5
 2fc:	00f775b3          	and	a1,a4,a5
 300:	000097b7          	lui	a5,0x9
 304:	06978793          	addi	a5,a5,105 # 9069 <.L97+0x8179>
 308:	00004837          	lui	a6,0x4
 30c:	02f50533          	mul	a0,a0,a5
 310:	65080813          	addi	a6,a6,1616 # 4650 <.L97+0x3760>
 314:	0106d693          	srli	a3,a3,0x10
 318:	01075713          	srli	a4,a4,0x10
 31c:	00100793          	addi	a5,zero,1
 320:	00100613          	addi	a2,zero,1
 324:	030585b3          	mul	a1,a1,a6
 328:	00d506b3          	add	a3,a0,a3
 32c:	01069513          	slli	a0,a3,0x10
 330:	00e58733          	add	a4,a1,a4
 334:	00e505b3          	add	a1,a0,a4
 338:	00ba3023          	sd	a1,0(s4)
 33c:	02b10ba3          	sb	a1,55(sp)

0000000000000340 <.L47>:
 340:	00f985b3          	add	a1,s3,a5
 344:	0005c503          	lbu	a0,0(a1)
 348:	00178793          	addi	a5,a5,1
 34c:	00400593          	addi	a1,zero,4
 350:	02a10c23          	sb	a0,56(sp)
 354:	3cb79263          	bne	a5,a1,718 <.L49>
 358:	000107b7          	lui	a5,0x10
 35c:	fff78793          	addi	a5,a5,-1 # ffff <.L97+0xf10f>
 360:	00f6f533          	and	a0,a3,a5
 364:	00f775b3          	and	a1,a4,a5
 368:	000097b7          	lui	a5,0x9
 36c:	06978793          	addi	a5,a5,105 # 9069 <.L97+0x8179>
 370:	00004837          	lui	a6,0x4
 374:	02f50533          	mul	a0,a0,a5
 378:	65080813          	addi	a6,a6,1616 # 4650 <.L97+0x3760>
 37c:	0106d693          	srli	a3,a3,0x10
 380:	01075713          	srli	a4,a4,0x10
 384:	00100793          	addi	a5,zero,1
 388:	00100613          	addi	a2,zero,1
 38c:	030585b3          	mul	a1,a1,a6
 390:	00d506b3          	add	a3,a0,a3
 394:	01069513          	slli	a0,a3,0x10
 398:	00e58733          	add	a4,a1,a4
 39c:	00e505b3          	add	a1,a0,a4
 3a0:	00ba3023          	sd	a1,0(s4)
 3a4:	02b10ca3          	sb	a1,57(sp)

00000000000003a8 <.L51>:
 3a8:	00f985b3          	add	a1,s3,a5
 3ac:	0005c503          	lbu	a0,0(a1)
 3b0:	00178793          	addi	a5,a5,1
 3b4:	00400593          	addi	a1,zero,4
 3b8:	02a10d23          	sb	a0,58(sp)
 3bc:	3cb79263          	bne	a5,a1,780 <.L53>
 3c0:	000107b7          	lui	a5,0x10
 3c4:	fff78793          	addi	a5,a5,-1 # ffff <.L97+0xf10f>
 3c8:	00f6f533          	and	a0,a3,a5
 3cc:	00f775b3          	and	a1,a4,a5
 3d0:	000097b7          	lui	a5,0x9
 3d4:	06978793          	addi	a5,a5,105 # 9069 <.L97+0x8179>
 3d8:	00004837          	lui	a6,0x4
 3dc:	02f50533          	mul	a0,a0,a5
 3e0:	65080813          	addi	a6,a6,1616 # 4650 <.L97+0x3760>
 3e4:	0106d693          	srli	a3,a3,0x10
 3e8:	01075713          	srli	a4,a4,0x10
 3ec:	00100793          	addi	a5,zero,1
 3f0:	00100613          	addi	a2,zero,1
 3f4:	030585b3          	mul	a1,a1,a6
 3f8:	00d506b3          	add	a3,a0,a3
 3fc:	01069513          	slli	a0,a3,0x10
 400:	00e58733          	add	a4,a1,a4
 404:	00e505b3          	add	a1,a0,a4
 408:	00ba3023          	sd	a1,0(s4)
 40c:	02b10da3          	sb	a1,59(sp)

0000000000000410 <.L55>:
 410:	00f985b3          	add	a1,s3,a5
 414:	0005c503          	lbu	a0,0(a1)
 418:	00178793          	addi	a5,a5,1
 41c:	00400593          	addi	a1,zero,4
 420:	02a10e23          	sb	a0,60(sp)
 424:	3cb79263          	bne	a5,a1,7e8 <.L57>
 428:	000107b7          	lui	a5,0x10
 42c:	fff78793          	addi	a5,a5,-1 # ffff <.L97+0xf10f>
 430:	00f6f533          	and	a0,a3,a5
 434:	00f775b3          	and	a1,a4,a5
 438:	000097b7          	lui	a5,0x9
 43c:	06978793          	addi	a5,a5,105 # 9069 <.L97+0x8179>
 440:	00004837          	lui	a6,0x4
 444:	02f50533          	mul	a0,a0,a5
 448:	65080813          	addi	a6,a6,1616 # 4650 <.L97+0x3760>
 44c:	0106d693          	srli	a3,a3,0x10
 450:	01075713          	srli	a4,a4,0x10
 454:	00100793          	addi	a5,zero,1
 458:	00100613          	addi	a2,zero,1
 45c:	030585b3          	mul	a1,a1,a6
 460:	00d506b3          	add	a3,a0,a3
 464:	01069513          	slli	a0,a3,0x10
 468:	00e58733          	add	a4,a1,a4
 46c:	00e505b3          	add	a1,a0,a4
 470:	00ba3023          	sd	a1,0(s4)
 474:	02b10ea3          	sb	a1,61(sp)

0000000000000478 <.L59>:
 478:	00f985b3          	add	a1,s3,a5
 47c:	0005c503          	lbu	a0,0(a1)
 480:	00178793          	addi	a5,a5,1
 484:	00400593          	addi	a1,zero,4
 488:	02a10f23          	sb	a0,62(sp)
 48c:	3cb79263          	bne	a5,a1,850 <.L61>
 490:	000107b7          	lui	a5,0x10
 494:	fff78793          	addi	a5,a5,-1 # ffff <.L97+0xf10f>
 498:	000095b7          	lui	a1,0x9
 49c:	00f6f633          	and	a2,a3,a5
 4a0:	06958593          	addi	a1,a1,105 # 9069 <.L97+0x8179>
 4a4:	02b60633          	mul	a2,a2,a1
 4a8:	00100593          	addi	a1,zero,1
 4ac:	00bb3023          	sd	a1,0(s6)
 4b0:	000045b7          	lui	a1,0x4
 4b4:	00f777b3          	and	a5,a4,a5
 4b8:	65058593          	addi	a1,a1,1616 # 4650 <.L97+0x3760>
 4bc:	0106d693          	srli	a3,a3,0x10
 4c0:	01075713          	srli	a4,a4,0x10
 4c4:	02b787b3          	mul	a5,a5,a1
 4c8:	00d606b3          	add	a3,a2,a3
 4cc:	01069613          	slli	a2,a3,0x10
 4d0:	00e78733          	add	a4,a5,a4
 4d4:	00e607b3          	add	a5,a2,a4
 4d8:	00fa3023          	sd	a5,0(s4)
 4dc:	02f10fa3          	sb	a5,63(sp)

00000000000004e0 <.L62>:
 4e0:	00dab023          	sd	a3,0(s5)
 4e4:	00eab423          	sd	a4,8(s5)
 4e8:	3800006f          	jal	zero,868 <.L63>

00000000000004ec <.L29>:
 4ec:	00000b37          	lui	s6,0x0
 4f0:	0000f6b7          	lui	a3,0xf
 4f4:	00003737          	lui	a4,0x3
 4f8:	000b3783          	ld	a5,0(s6) # 0 <fillrand>
 4fc:	af368693          	addi	a3,a3,-1293 # eaf3 <.L97+0xdc03>
 500:	5fe70713          	addi	a4,a4,1534 # 35fe <.L97+0x270e>
 504:	000bb023          	sd	zero,0(s7)
 508:	00dab023          	sd	a3,0(s5)
 50c:	00eab423          	sd	a4,8(s5)
 510:	00400613          	addi	a2,zero,4
 514:	c8c794e3          	bne	a5,a2,19c <.L83>

0000000000000518 <.L31>:
 518:	000107b7          	lui	a5,0x10
 51c:	fff78793          	addi	a5,a5,-1 # ffff <.L97+0xf10f>
 520:	00f6f533          	and	a0,a3,a5
 524:	00f775b3          	and	a1,a4,a5
 528:	000097b7          	lui	a5,0x9
 52c:	06978793          	addi	a5,a5,105 # 9069 <.L97+0x8179>
 530:	00004837          	lui	a6,0x4
 534:	02f50533          	mul	a0,a0,a5
 538:	65080813          	addi	a6,a6,1616 # 4650 <.L97+0x3760>
 53c:	0106d693          	srli	a3,a3,0x10
 540:	01075713          	srli	a4,a4,0x10
 544:	00000a37          	lui	s4,0x0
 548:	00100613          	addi	a2,zero,1
 54c:	00100793          	addi	a5,zero,1
 550:	000a0993          	addi	s3,s4,0 # 0 <fillrand>
 554:	030585b3          	mul	a1,a1,a6
 558:	00d506b3          	add	a3,a0,a3
 55c:	01069513          	slli	a0,a3,0x10
 560:	00e58733          	add	a4,a1,a4
 564:	00e505b3          	add	a1,a0,a4
 568:	00ba3023          	sd	a1,0(s4)
 56c:	02b10823          	sb	a1,48(sp)
 570:	0080006f          	jal	zero,578 <.L33>

0000000000000574 <.L82>:
 574:	00000613          	addi	a2,zero,0

0000000000000578 <.L33>:
 578:	00f985b3          	add	a1,s3,a5
 57c:	0005c503          	lbu	a0,0(a1)
 580:	00178793          	addi	a5,a5,1
 584:	00400593          	addi	a1,zero,4
 588:	02a108a3          	sb	a0,49(sp)
 58c:	c6b79ee3          	bne	a5,a1,208 <.L35>
 590:	000107b7          	lui	a5,0x10
 594:	fff78793          	addi	a5,a5,-1 # ffff <.L97+0xf10f>
 598:	00f6f533          	and	a0,a3,a5
 59c:	00f775b3          	and	a1,a4,a5
 5a0:	000097b7          	lui	a5,0x9
 5a4:	06978793          	addi	a5,a5,105 # 9069 <.L97+0x8179>
 5a8:	00004837          	lui	a6,0x4
 5ac:	02f50533          	mul	a0,a0,a5
 5b0:	65080813          	addi	a6,a6,1616 # 4650 <.L97+0x3760>
 5b4:	0106d693          	srli	a3,a3,0x10
 5b8:	01075713          	srli	a4,a4,0x10
 5bc:	00100793          	addi	a5,zero,1
 5c0:	00100613          	addi	a2,zero,1
 5c4:	030585b3          	mul	a1,a1,a6
 5c8:	00d506b3          	add	a3,a0,a3
 5cc:	01069513          	slli	a0,a3,0x10
 5d0:	00e58733          	add	a4,a1,a4
 5d4:	00e505b3          	add	a1,a0,a4
 5d8:	00ba3023          	sd	a1,0(s4)
 5dc:	02b10923          	sb	a1,50(sp)

00000000000005e0 <.L37>:
 5e0:	00f985b3          	add	a1,s3,a5
 5e4:	0005c503          	lbu	a0,0(a1)
 5e8:	00178793          	addi	a5,a5,1
 5ec:	00400593          	addi	a1,zero,4
 5f0:	02a109a3          	sb	a0,51(sp)
 5f4:	c6b79ee3          	bne	a5,a1,270 <.L39>
 5f8:	000107b7          	lui	a5,0x10
 5fc:	fff78793          	addi	a5,a5,-1 # ffff <.L97+0xf10f>
 600:	00f6f533          	and	a0,a3,a5
 604:	00f775b3          	and	a1,a4,a5
 608:	000097b7          	lui	a5,0x9
 60c:	06978793          	addi	a5,a5,105 # 9069 <.L97+0x8179>
 610:	00004837          	lui	a6,0x4
 614:	02f50533          	mul	a0,a0,a5
 618:	65080813          	addi	a6,a6,1616 # 4650 <.L97+0x3760>
 61c:	0106d693          	srli	a3,a3,0x10
 620:	01075713          	srli	a4,a4,0x10
 624:	00100793          	addi	a5,zero,1
 628:	00100613          	addi	a2,zero,1
 62c:	030585b3          	mul	a1,a1,a6
 630:	00d506b3          	add	a3,a0,a3
 634:	01069513          	slli	a0,a3,0x10
 638:	00e58733          	add	a4,a1,a4
 63c:	00e505b3          	add	a1,a0,a4
 640:	00ba3023          	sd	a1,0(s4)
 644:	02b10a23          	sb	a1,52(sp)

0000000000000648 <.L41>:
 648:	00f985b3          	add	a1,s3,a5
 64c:	0005c503          	lbu	a0,0(a1)
 650:	00178793          	addi	a5,a5,1
 654:	00400593          	addi	a1,zero,4
 658:	02a10aa3          	sb	a0,53(sp)
 65c:	c6b79ee3          	bne	a5,a1,2d8 <.L43>
 660:	000107b7          	lui	a5,0x10
 664:	fff78793          	addi	a5,a5,-1 # ffff <.L97+0xf10f>
 668:	00f6f533          	and	a0,a3,a5
 66c:	00f775b3          	and	a1,a4,a5
 670:	000097b7          	lui	a5,0x9
 674:	06978793          	addi	a5,a5,105 # 9069 <.L97+0x8179>
 678:	00004837          	lui	a6,0x4
 67c:	02f50533          	mul	a0,a0,a5
 680:	65080813          	addi	a6,a6,1616 # 4650 <.L97+0x3760>
 684:	0106d693          	srli	a3,a3,0x10
 688:	01075713          	srli	a4,a4,0x10
 68c:	00100793          	addi	a5,zero,1
 690:	00100613          	addi	a2,zero,1
 694:	030585b3          	mul	a1,a1,a6
 698:	00d506b3          	add	a3,a0,a3
 69c:	01069513          	slli	a0,a3,0x10
 6a0:	00e58733          	add	a4,a1,a4
 6a4:	00e505b3          	add	a1,a0,a4
 6a8:	00ba3023          	sd	a1,0(s4)
 6ac:	02b10b23          	sb	a1,54(sp)

00000000000006b0 <.L45>:
 6b0:	00f985b3          	add	a1,s3,a5
 6b4:	0005c503          	lbu	a0,0(a1)
 6b8:	00178793          	addi	a5,a5,1
 6bc:	00400593          	addi	a1,zero,4
 6c0:	02a10ba3          	sb	a0,55(sp)
 6c4:	c6b79ee3          	bne	a5,a1,340 <.L47>
 6c8:	000107b7          	lui	a5,0x10
 6cc:	fff78793          	addi	a5,a5,-1 # ffff <.L97+0xf10f>
 6d0:	00f6f533          	and	a0,a3,a5
 6d4:	00f775b3          	and	a1,a4,a5
 6d8:	000097b7          	lui	a5,0x9
 6dc:	06978793          	addi	a5,a5,105 # 9069 <.L97+0x8179>
 6e0:	00004837          	lui	a6,0x4
 6e4:	02f50533          	mul	a0,a0,a5
 6e8:	65080813          	addi	a6,a6,1616 # 4650 <.L97+0x3760>
 6ec:	0106d693          	srli	a3,a3,0x10
 6f0:	01075713          	srli	a4,a4,0x10
 6f4:	00100793          	addi	a5,zero,1
 6f8:	00100613          	addi	a2,zero,1
 6fc:	030585b3          	mul	a1,a1,a6
 700:	00d506b3          	add	a3,a0,a3
 704:	01069513          	slli	a0,a3,0x10
 708:	00e58733          	add	a4,a1,a4
 70c:	00e505b3          	add	a1,a0,a4
 710:	00ba3023          	sd	a1,0(s4)
 714:	02b10c23          	sb	a1,56(sp)

0000000000000718 <.L49>:
 718:	00f985b3          	add	a1,s3,a5
 71c:	0005c503          	lbu	a0,0(a1)
 720:	00178793          	addi	a5,a5,1
 724:	00400593          	addi	a1,zero,4
 728:	02a10ca3          	sb	a0,57(sp)
 72c:	c6b79ee3          	bne	a5,a1,3a8 <.L51>
 730:	000107b7          	lui	a5,0x10
 734:	fff78793          	addi	a5,a5,-1 # ffff <.L97+0xf10f>
 738:	00f6f533          	and	a0,a3,a5
 73c:	00f775b3          	and	a1,a4,a5
 740:	000097b7          	lui	a5,0x9
 744:	06978793          	addi	a5,a5,105 # 9069 <.L97+0x8179>
 748:	00004837          	lui	a6,0x4
 74c:	02f50533          	mul	a0,a0,a5
 750:	65080813          	addi	a6,a6,1616 # 4650 <.L97+0x3760>
 754:	0106d693          	srli	a3,a3,0x10
 758:	01075713          	srli	a4,a4,0x10
 75c:	00100793          	addi	a5,zero,1
 760:	00100613          	addi	a2,zero,1
 764:	030585b3          	mul	a1,a1,a6
 768:	00d506b3          	add	a3,a0,a3
 76c:	01069513          	slli	a0,a3,0x10
 770:	00e58733          	add	a4,a1,a4
 774:	00e505b3          	add	a1,a0,a4
 778:	00ba3023          	sd	a1,0(s4)
 77c:	02b10d23          	sb	a1,58(sp)

0000000000000780 <.L53>:
 780:	00f985b3          	add	a1,s3,a5
 784:	0005c503          	lbu	a0,0(a1)
 788:	00178793          	addi	a5,a5,1
 78c:	00400593          	addi	a1,zero,4
 790:	02a10da3          	sb	a0,59(sp)
 794:	c6b79ee3          	bne	a5,a1,410 <.L55>
 798:	000107b7          	lui	a5,0x10
 79c:	fff78793          	addi	a5,a5,-1 # ffff <.L97+0xf10f>
 7a0:	00f6f533          	and	a0,a3,a5
 7a4:	00f775b3          	and	a1,a4,a5
 7a8:	000097b7          	lui	a5,0x9
 7ac:	06978793          	addi	a5,a5,105 # 9069 <.L97+0x8179>
 7b0:	00004837          	lui	a6,0x4
 7b4:	02f50533          	mul	a0,a0,a5
 7b8:	65080813          	addi	a6,a6,1616 # 4650 <.L97+0x3760>
 7bc:	0106d693          	srli	a3,a3,0x10
 7c0:	01075713          	srli	a4,a4,0x10
 7c4:	00100793          	addi	a5,zero,1
 7c8:	00100613          	addi	a2,zero,1
 7cc:	030585b3          	mul	a1,a1,a6
 7d0:	00d506b3          	add	a3,a0,a3
 7d4:	01069513          	slli	a0,a3,0x10
 7d8:	00e58733          	add	a4,a1,a4
 7dc:	00e505b3          	add	a1,a0,a4
 7e0:	00ba3023          	sd	a1,0(s4)
 7e4:	02b10e23          	sb	a1,60(sp)

00000000000007e8 <.L57>:
 7e8:	00f985b3          	add	a1,s3,a5
 7ec:	0005c503          	lbu	a0,0(a1)
 7f0:	00178793          	addi	a5,a5,1
 7f4:	00400593          	addi	a1,zero,4
 7f8:	02a10ea3          	sb	a0,61(sp)
 7fc:	c6b79ee3          	bne	a5,a1,478 <.L59>
 800:	000107b7          	lui	a5,0x10
 804:	fff78793          	addi	a5,a5,-1 # ffff <.L97+0xf10f>
 808:	00f6f533          	and	a0,a3,a5
 80c:	00f775b3          	and	a1,a4,a5
 810:	000097b7          	lui	a5,0x9
 814:	06978793          	addi	a5,a5,105 # 9069 <.L97+0x8179>
 818:	00004837          	lui	a6,0x4
 81c:	02f50533          	mul	a0,a0,a5
 820:	65080813          	addi	a6,a6,1616 # 4650 <.L97+0x3760>
 824:	0106d693          	srli	a3,a3,0x10
 828:	01075713          	srli	a4,a4,0x10
 82c:	00100793          	addi	a5,zero,1
 830:	00100613          	addi	a2,zero,1
 834:	030585b3          	mul	a1,a1,a6
 838:	00d506b3          	add	a3,a0,a3
 83c:	01069513          	slli	a0,a3,0x10
 840:	00e58733          	add	a4,a1,a4
 844:	00e505b3          	add	a1,a0,a4
 848:	00ba3023          	sd	a1,0(s4)
 84c:	02b10f23          	sb	a1,62(sp)

0000000000000850 <.L61>:
 850:	00f985b3          	add	a1,s3,a5
 854:	0005c583          	lbu	a1,0(a1)
 858:	00178793          	addi	a5,a5,1
 85c:	00fb3023          	sd	a5,0(s6)
 860:	02b10fa3          	sb	a1,63(sp)
 864:	c6061ee3          	bne	a2,zero,4e0 <.L62>

0000000000000868 <.L63>:
 868:	00200613          	addi	a2,zero,2
 86c:	00000593          	addi	a1,zero,0
 870:	00040513          	addi	a0,s0,0
 874:	00000097          	auipc	ra,0x0
 878:	000080e7          	jalr	ra,0(ra) # 874 <.L63+0xc>
 87c:	01810593          	addi	a1,sp,24
 880:	00040513          	addi	a0,s0,0
 884:	00000097          	auipc	ra,0x0
 888:	000080e7          	jalr	ra,0(ra) # 884 <.L63+0x1c>
 88c:	00000613          	addi	a2,zero,0
 890:	00000593          	addi	a1,zero,0
 894:	00040513          	addi	a0,s0,0
 898:	00000097          	auipc	ra,0x0
 89c:	000080e7          	jalr	ra,0(ra) # 898 <.L63+0x30>
 8a0:	00048693          	addi	a3,s1,0
 8a4:	01000613          	addi	a2,zero,16
 8a8:	00100593          	addi	a1,zero,1
 8ac:	03010513          	addi	a0,sp,48
 8b0:	00000097          	auipc	ra,0x0
 8b4:	000080e7          	jalr	ra,0(ra) # 8b0 <.L63+0x48>
 8b8:	000bb783          	ld	a5,0(s7)
 8bc:	02078063          	beq	a5,zero,8dc <.L64>
 8c0:	0000f7b7          	lui	a5,0xf
 8c4:	af378793          	addi	a5,a5,-1293 # eaf3 <.L97+0xdc03>
 8c8:	00fab023          	sd	a5,0(s5)
 8cc:	000037b7          	lui	a5,0x3
 8d0:	5fe78793          	addi	a5,a5,1534 # 35fe <.L97+0x270e>
 8d4:	000bb023          	sd	zero,0(s7)
 8d8:	00fab423          	sd	a5,8(s5)

00000000000008dc <.L64>:
 8dc:	000b3783          	ld	a5,0(s6)
 8e0:	00400713          	addi	a4,zero,4
 8e4:	00178613          	addi	a2,a5,1
 8e8:	06e79063          	bne	a5,a4,948 <.L66>
 8ec:	000ab583          	ld	a1,0(s5)
 8f0:	008ab603          	ld	a2,8(s5)
 8f4:	000107b7          	lui	a5,0x10
 8f8:	fff78793          	addi	a5,a5,-1 # ffff <.L97+0xf10f>
 8fc:	00009737          	lui	a4,0x9
 900:	00f5f6b3          	and	a3,a1,a5
 904:	06970713          	addi	a4,a4,105 # 9069 <.L97+0x8179>
 908:	00004837          	lui	a6,0x4
 90c:	02e686b3          	mul	a3,a3,a4
 910:	65080813          	addi	a6,a6,1616 # 4650 <.L97+0x3760>
 914:	00f67733          	and	a4,a2,a5
 918:	0105d513          	srli	a0,a1,0x10
 91c:	01065593          	srli	a1,a2,0x10
 920:	00000793          	addi	a5,zero,0
 924:	00100613          	addi	a2,zero,1
 928:	03070733          	mul	a4,a4,a6
 92c:	00a686b3          	add	a3,a3,a0
 930:	01069513          	slli	a0,a3,0x10
 934:	00dab023          	sd	a3,0(s5)
 938:	00b70733          	add	a4,a4,a1
 93c:	00e506b3          	add	a3,a0,a4
 940:	00eab423          	sd	a4,8(s5)
 944:	00da3023          	sd	a3,0(s4)

0000000000000948 <.L66>:
 948:	00f989b3          	add	s3,s3,a5
 94c:	0009c703          	lbu	a4,0(s3)
 950:	01813783          	ld	a5,24(sp)
 954:	00cb3023          	sd	a2,0(s6)
 958:	ff077713          	andi	a4,a4,-16
 95c:	00f7f793          	andi	a5,a5,15
 960:	00e7e7b3          	or	a5,a5,a4
 964:	02f10023          	sb	a5,32(sp)
 968:	00f00993          	addi	s3,zero,15
 96c:	00000713          	addi	a4,zero,0
 970:	01000913          	addi	s2,zero,16
 974:	14c0006f          	jal	zero,ac0 <.L67>

0000000000000978 <.L70>:
 978:	00000097          	auipc	ra,0x0
 97c:	000080e7          	jalr	ra,0(ra) # 978 <.L70>
 980:	00050713          	addi	a4,a0,0
 984:	00013603          	ld	a2,0(sp)
 988:	03010593          	addi	a1,sp,48
 98c:	02010513          	addi	a0,sp,32
 990:	15376a63          	bltu	a4,s3,ae4 <.L68>
 994:	03914083          	lbu	ra,57(sp)
 998:	02014283          	lbu	t0,32(sp)
 99c:	02114d03          	lbu	s10,33(sp)
 9a0:	02214c83          	lbu	s9,34(sp)
 9a4:	02314c03          	lbu	s8,35(sp)
 9a8:	02414b83          	lbu	s7,36(sp)
 9ac:	02514303          	lbu	t1,37(sp)
 9b0:	02614883          	lbu	a7,38(sp)
 9b4:	02714803          	lbu	a6,39(sp)
 9b8:	02814683          	lbu	a3,40(sp)
 9bc:	02914703          	lbu	a4,41(sp)
 9c0:	03814983          	lbu	s3,56(sp)
 9c4:	03014d83          	lbu	s11,48(sp)
 9c8:	03114f83          	lbu	t6,49(sp)
 9cc:	03214f03          	lbu	t5,50(sp)
 9d0:	03314e83          	lbu	t4,51(sp)
 9d4:	03414e03          	lbu	t3,52(sp)
 9d8:	03514b03          	lbu	s6,53(sp)
 9dc:	03614a83          	lbu	s5,54(sp)
 9e0:	03714a03          	lbu	s4,55(sp)
 9e4:	03a14383          	lbu	t2,58(sp)
 9e8:	02a14783          	lbu	a5,42(sp)
 9ec:	00174733          	xor	a4,a4,ra
 9f0:	01b2c2b3          	xor	t0,t0,s11
 9f4:	0136c6b3          	xor	a3,a3,s3
 9f8:	01fd4fb3          	xor	t6,s10,t6
 9fc:	01eccf33          	xor	t5,s9,t5
 a00:	01dc4eb3          	xor	t4,s8,t4
 a04:	01cbce33          	xor	t3,s7,t3
 a08:	01634333          	xor	t1,t1,s6
 a0c:	0158c8b3          	xor	a7,a7,s5
 a10:	01484833          	xor	a6,a6,s4
 a14:	0077c7b3          	xor	a5,a5,t2
 a18:	02510023          	sb	t0,32(sp)
 a1c:	03f100a3          	sb	t6,33(sp)
 a20:	03e10123          	sb	t5,34(sp)
 a24:	03d101a3          	sb	t4,35(sp)
 a28:	03c10223          	sb	t3,36(sp)
 a2c:	026102a3          	sb	t1,37(sp)
 a30:	03110323          	sb	a7,38(sp)
 a34:	030103a3          	sb	a6,39(sp)
 a38:	02d10423          	sb	a3,40(sp)
 a3c:	02e104a3          	sb	a4,41(sp)
 a40:	02f10523          	sb	a5,42(sp)
 a44:	02b14883          	lbu	a7,43(sp)
 a48:	02c14803          	lbu	a6,44(sp)
 a4c:	02d14683          	lbu	a3,45(sp)
 a50:	02e14703          	lbu	a4,46(sp)
 a54:	02f14783          	lbu	a5,47(sp)
 a58:	03b14f83          	lbu	t6,59(sp)
 a5c:	03c14f03          	lbu	t5,60(sp)
 a60:	03d14e83          	lbu	t4,61(sp)
 a64:	03e14e03          	lbu	t3,62(sp)
 a68:	03f14303          	lbu	t1,63(sp)
 a6c:	01d6c6b3          	xor	a3,a3,t4
 a70:	01c74733          	xor	a4,a4,t3
 a74:	01f8c8b3          	xor	a7,a7,t6
 a78:	01e84833          	xor	a6,a6,t5
 a7c:	0067c7b3          	xor	a5,a5,t1
 a80:	02e10723          	sb	a4,46(sp)
 a84:	031105a3          	sb	a7,43(sp)
 a88:	03010623          	sb	a6,44(sp)
 a8c:	02d106a3          	sb	a3,45(sp)
 a90:	02f107a3          	sb	a5,47(sp)
 a94:	00000097          	auipc	ra,0x0
 a98:	000080e7          	jalr	ra,0(ra) # a94 <.L70+0x11c>
 a9c:	00048693          	addi	a3,s1,0
 aa0:	01000613          	addi	a2,zero,16
 aa4:	00100593          	addi	a1,zero,1
 aa8:	03010513          	addi	a0,sp,48
 aac:	00000097          	auipc	ra,0x0
 ab0:	000080e7          	jalr	ra,0(ra) # aac <.L70+0x134>
 ab4:	01000713          	addi	a4,zero,16
 ab8:	01000993          	addi	s3,zero,16
 abc:	0ee51863          	bne	a0,a4,bac <.L84>

0000000000000ac0 <.L67>:
 ac0:	01045783          	lhu	a5,16(s0)
 ac4:	41390533          	sub	a0,s2,s3
 ac8:	02010813          	addi	a6,sp,32
 acc:	0207f793          	andi	a5,a5,32
 ad0:	00098613          	addi	a2,s3,0
 ad4:	00040693          	addi	a3,s0,0
 ad8:	00100593          	addi	a1,zero,1
 adc:	00a80533          	add	a0,a6,a0
 ae0:	e8078ce3          	beq	a5,zero,978 <.L70>

0000000000000ae4 <.L68>:
 ae4:	ff198793          	addi	a5,s3,-15
 ae8:	0017b793          	sltiu	a5,a5,1
 aec:	00f70733          	add	a4,a4,a5
 af0:	06070e63          	beq	a4,zero,b6c <.L74>
 af4:	00f00793          	addi	a5,zero,15
 af8:	02010413          	addi	s0,sp,32
 afc:	00e7ee63          	bltu	a5,a4,b18 <.L73>
 b00:	01000613          	addi	a2,zero,16
 b04:	40e60633          	sub	a2,a2,a4
 b08:	00000593          	addi	a1,zero,0
 b0c:	00e40533          	add	a0,s0,a4
 b10:	00000097          	auipc	ra,0x0
 b14:	000080e7          	jalr	ra,0(ra) # b10 <.L68+0x2c>

0000000000000b18 <.L73>:
 b18:	02013703          	ld	a4,32(sp)
 b1c:	03013783          	ld	a5,48(sp)
 b20:	03813683          	ld	a3,56(sp)
 b24:	00013603          	ld	a2,0(sp)
 b28:	00f74733          	xor	a4,a4,a5
 b2c:	02813783          	ld	a5,40(sp)
 b30:	03010593          	addi	a1,sp,48
 b34:	00040513          	addi	a0,s0,0
 b38:	00d7c7b3          	xor	a5,a5,a3
 b3c:	02f13423          	sd	a5,40(sp)
 b40:	02e13023          	sd	a4,32(sp)
 b44:	00000097          	auipc	ra,0x0
 b48:	000080e7          	jalr	ra,0(ra) # b44 <.L73+0x2c>
 b4c:	00048693          	addi	a3,s1,0
 b50:	01000613          	addi	a2,zero,16
 b54:	00100593          	addi	a1,zero,1
 b58:	03010513          	addi	a0,sp,48
 b5c:	00000097          	auipc	ra,0x0
 b60:	000080e7          	jalr	ra,0(ra) # b5c <.L73+0x44>
 b64:	01000793          	addi	a5,zero,16
 b68:	06f51063          	bne	a0,a5,bc8 <.L85>

0000000000000b6c <.L74>:
 b6c:	00000513          	addi	a0,zero,0

0000000000000b70 <.L69>:
 b70:	0a813083          	ld	ra,168(sp)
 b74:	0a013403          	ld	s0,160(sp)
 b78:	09813483          	ld	s1,152(sp)
 b7c:	09013903          	ld	s2,144(sp)
 b80:	08813983          	ld	s3,136(sp)
 b84:	08013a03          	ld	s4,128(sp)
 b88:	07813a83          	ld	s5,120(sp)
 b8c:	07013b03          	ld	s6,112(sp)
 b90:	06813b83          	ld	s7,104(sp)
 b94:	06013c03          	ld	s8,96(sp)
 b98:	05813c83          	ld	s9,88(sp)
 b9c:	05013d03          	ld	s10,80(sp)
 ba0:	04813d83          	ld	s11,72(sp)
 ba4:	0b010113          	addi	sp,sp,176
 ba8:	00008067          	jalr	zero,0(ra)

0000000000000bac <.L84>:
 bac:	00813583          	ld	a1,8(sp)
 bb0:	00000537          	lui	a0,0x0
 bb4:	00050513          	addi	a0,a0,0 # 0 <fillrand>
 bb8:	00000097          	auipc	ra,0x0
 bbc:	000080e7          	jalr	ra,0(ra) # bb8 <.L84+0xc>
 bc0:	ff900513          	addi	a0,zero,-7
 bc4:	fadff06f          	jal	zero,b70 <.L69>

0000000000000bc8 <.L85>:
 bc8:	00813583          	ld	a1,8(sp)
 bcc:	00000537          	lui	a0,0x0
 bd0:	00050513          	addi	a0,a0,0 # 0 <fillrand>
 bd4:	00000097          	auipc	ra,0x0
 bd8:	000080e7          	jalr	ra,0(ra) # bd4 <.L85+0xc>
 bdc:	ff800513          	addi	a0,zero,-8
 be0:	f91ff06f          	jal	zero,b70 <.L69>

0000000000000be4 <decfile>:
 be4:	f5010113          	addi	sp,sp,-176
 be8:	0a813023          	sd	s0,160(sp)
 bec:	09213823          	sd	s2,144(sp)
 bf0:	09313423          	sd	s3,136(sp)
 bf4:	09413023          	sd	s4,128(sp)
 bf8:	00050913          	addi	s2,a0,0
 bfc:	00058a13          	addi	s4,a1,0
 c00:	00060993          	addi	s3,a2,0
 c04:	00068413          	addi	s0,a3,0
 c08:	01000613          	addi	a2,zero,16
 c0c:	00050693          	addi	a3,a0,0
 c10:	00100593          	addi	a1,zero,1
 c14:	01010513          	addi	a0,sp,16
 c18:	0a113423          	sd	ra,168(sp)
 c1c:	08913c23          	sd	s1,152(sp)
 c20:	07513c23          	sd	s5,120(sp)
 c24:	07613823          	sd	s6,112(sp)
 c28:	07713423          	sd	s7,104(sp)
 c2c:	07813023          	sd	s8,96(sp)
 c30:	05913c23          	sd	s9,88(sp)
 c34:	05a13823          	sd	s10,80(sp)
 c38:	05b13423          	sd	s11,72(sp)
 c3c:	00e13023          	sd	a4,0(sp)
 c40:	00000097          	auipc	ra,0x0
 c44:	000080e7          	jalr	ra,0(ra) # c40 <decfile+0x5c>
 c48:	01000793          	addi	a5,zero,16
 c4c:	28f51463          	bne	a0,a5,ed4 <.L96>
 c50:	00090693          	addi	a3,s2,0
 c54:	01000613          	addi	a2,zero,16
 c58:	00100593          	addi	a1,zero,1
 c5c:	02010513          	addi	a0,sp,32
 c60:	00000097          	auipc	ra,0x0
 c64:	000080e7          	jalr	ra,0(ra) # c60 <decfile+0x7c>
 c68:	fef57513          	andi	a0,a0,-17
 c6c:	00050a9b          	addiw	s5,a0,0
 c70:	040a8c63          	beq	s5,zero,cc8 <.L89>
 c74:	00000537          	lui	a0,0x0
 c78:	00050513          	addi	a0,a0,0 # 0 <fillrand>
 c7c:	00000097          	auipc	ra,0x0
 c80:	000080e7          	jalr	ra,0(ra) # c7c <decfile+0x98>
 c84:	ff600a93          	addi	s5,zero,-10

0000000000000c88 <.L88>:
 c88:	0a813083          	ld	ra,168(sp)
 c8c:	0a013403          	ld	s0,160(sp)
 c90:	000a8513          	addi	a0,s5,0
 c94:	09813483          	ld	s1,152(sp)
 c98:	09013903          	ld	s2,144(sp)
 c9c:	08813983          	ld	s3,136(sp)
 ca0:	08013a03          	ld	s4,128(sp)
 ca4:	07813a83          	ld	s5,120(sp)
 ca8:	07013b03          	ld	s6,112(sp)
 cac:	06813b83          	ld	s7,104(sp)
 cb0:	06013c03          	ld	s8,96(sp)
 cb4:	05813c83          	ld	s9,88(sp)
 cb8:	05013d03          	ld	s10,80(sp)
 cbc:	04813d83          	ld	s11,72(sp)
 cc0:	0b010113          	addi	sp,sp,176
 cc4:	00008067          	jalr	zero,0(ra)

0000000000000cc8 <.L89>:
 cc8:	00098613          	addi	a2,s3,0
 ccc:	03010593          	addi	a1,sp,48
 cd0:	02010513          	addi	a0,sp,32
 cd4:	00000097          	auipc	ra,0x0
 cd8:	000080e7          	jalr	ra,0(ra) # cd4 <.L89+0xc>
 cdc:	03013783          	ld	a5,48(sp)
 ce0:	01013703          	ld	a4,16(sp)
 ce4:	03813683          	ld	a3,56(sp)
 ce8:	00f00b13          	addi	s6,zero,15
 cec:	00e7c7b3          	xor	a5,a5,a4
 cf0:	01813703          	ld	a4,24(sp)
 cf4:	02f13823          	sd	a5,48(sp)
 cf8:	0ff7f793          	andi	a5,a5,255
 cfc:	00d74733          	xor	a4,a4,a3
 d00:	02e13c23          	sd	a4,56(sp)
 d04:	00f13423          	sd	a5,8(sp)
 d08:	02010413          	addi	s0,sp,32
 d0c:	01010493          	addi	s1,sp,16
 d10:	1340006f          	jal	zero,e44 <.L92>

0000000000000d14 <.L98>:
 d14:	00000097          	auipc	ra,0x0
 d18:	000080e7          	jalr	ra,0(ra) # d14 <.L98>
 d1c:	00098613          	addi	a2,s3,0
 d20:	03010593          	addi	a1,sp,48
 d24:	1cab1663          	bne	s6,a0,ef0 <.L97>
 d28:	00048513          	addi	a0,s1,0
 d2c:	00000097          	auipc	ra,0x0
 d30:	000080e7          	jalr	ra,0(ra) # d2c <.L98+0x18>
 d34:	03014e83          	lbu	t4,48(sp)
 d38:	00544b03          	lbu	s6,5(s0)
 d3c:	00044d83          	lbu	s11,0(s0)
 d40:	03114d03          	lbu	s10,49(sp)
 d44:	00144e03          	lbu	t3,1(s0)
 d48:	03214c83          	lbu	s9,50(sp)
 d4c:	00244303          	lbu	t1,2(s0)
 d50:	03314c03          	lbu	s8,51(sp)
 d54:	00344883          	lbu	a7,3(s0)
 d58:	03414b83          	lbu	s7,52(sp)
 d5c:	00444803          	lbu	a6,4(s0)
 d60:	03514503          	lbu	a0,53(sp)
 d64:	03614583          	lbu	a1,54(sp)
 d68:	00644083          	lbu	ra,6(s0)
 d6c:	03714603          	lbu	a2,55(sp)
 d70:	00744383          	lbu	t2,7(s0)
 d74:	03814683          	lbu	a3,56(sp)
 d78:	00844283          	lbu	t0,8(s0)
 d7c:	03914703          	lbu	a4,57(sp)
 d80:	00944f83          	lbu	t6,9(s0)
 d84:	00a44f03          	lbu	t5,10(s0)
 d88:	03a14783          	lbu	a5,58(sp)
 d8c:	01654533          	xor	a0,a0,s6
 d90:	01beceb3          	xor	t4,t4,s11
 d94:	01cd4e33          	xor	t3,s10,t3
 d98:	006cc333          	xor	t1,s9,t1
 d9c:	011c48b3          	xor	a7,s8,a7
 da0:	010bc833          	xor	a6,s7,a6
 da4:	0015c5b3          	xor	a1,a1,ra
 da8:	00764633          	xor	a2,a2,t2
 dac:	0056c6b3          	xor	a3,a3,t0
 db0:	01f74733          	xor	a4,a4,t6
 db4:	03d10823          	sb	t4,48(sp)
 db8:	03c108a3          	sb	t3,49(sp)
 dbc:	02610923          	sb	t1,50(sp)
 dc0:	031109a3          	sb	a7,51(sp)
 dc4:	03010a23          	sb	a6,52(sp)
 dc8:	02a10aa3          	sb	a0,53(sp)
 dcc:	02b10b23          	sb	a1,54(sp)
 dd0:	02c10ba3          	sb	a2,55(sp)
 dd4:	02d10c23          	sb	a3,56(sp)
 dd8:	02e10ca3          	sb	a4,57(sp)
 ddc:	01e7c7b3          	xor	a5,a5,t5
 de0:	02f10d23          	sb	a5,58(sp)
 de4:	03b14583          	lbu	a1,59(sp)
 de8:	00b44e83          	lbu	t4,11(s0)
 dec:	03c14603          	lbu	a2,60(sp)
 df0:	00c44e03          	lbu	t3,12(s0)
 df4:	03d14683          	lbu	a3,61(sp)
 df8:	00d44303          	lbu	t1,13(s0)
 dfc:	03e14703          	lbu	a4,62(sp)
 e00:	00e44883          	lbu	a7,14(s0)
 e04:	03f14783          	lbu	a5,63(sp)
 e08:	00f44803          	lbu	a6,15(s0)
 e0c:	00040513          	addi	a0,s0,0
 e10:	01d5c5b3          	xor	a1,a1,t4
 e14:	01c64633          	xor	a2,a2,t3
 e18:	0066c6b3          	xor	a3,a3,t1
 e1c:	01174733          	xor	a4,a4,a7
 e20:	0107c7b3          	xor	a5,a5,a6
 e24:	00048413          	addi	s0,s1,0
 e28:	02b10da3          	sb	a1,59(sp)
 e2c:	02c10e23          	sb	a2,60(sp)
 e30:	02d10ea3          	sb	a3,61(sp)
 e34:	02e10f23          	sb	a4,62(sp)
 e38:	02f10fa3          	sb	a5,63(sp)
 e3c:	01000b13          	addi	s6,zero,16
 e40:	00050493          	addi	s1,a0,0

0000000000000e44 <.L92>:
 e44:	00090693          	addi	a3,s2,0
 e48:	01000613          	addi	a2,zero,16
 e4c:	00100593          	addi	a1,zero,1
 e50:	00048513          	addi	a0,s1,0
 e54:	00000097          	auipc	ra,0x0
 e58:	000080e7          	jalr	ra,0(ra) # e54 <.L92+0x10>
 e5c:	0005079b          	addiw	a5,a0,0
 e60:	03010713          	addi	a4,sp,48
 e64:	41678533          	sub	a0,a5,s6
 e68:	00a70533          	add	a0,a4,a0
 e6c:	01000713          	addi	a4,zero,16
 e70:	000a0693          	addi	a3,s4,0
 e74:	000b0613          	addi	a2,s6,0
 e78:	00100593          	addi	a1,zero,1
 e7c:	e8e78ce3          	beq	a5,a4,d14 <.L98>
 e80:	00812783          	lw	a5,8(sp)
 e84:	ff1b0b13          	addi	s6,s6,-15
 e88:	01603433          	sltu	s0,zero,s6
 e8c:	00f7f793          	andi	a5,a5,15
 e90:	00f40433          	add	s0,s0,a5
 e94:	001b3b13          	sltiu	s6,s6,1
 e98:	de0408e3          	beq	s0,zero,c88 <.L88>
 e9c:	03010793          	addi	a5,sp,48
 ea0:	00040613          	addi	a2,s0,0
 ea4:	00100593          	addi	a1,zero,1
 ea8:	01678533          	add	a0,a5,s6
 eac:	00000097          	auipc	ra,0x0
 eb0:	000080e7          	jalr	ra,0(ra) # eac <.L92+0x68>
 eb4:	dca40ae3          	beq	s0,a0,c88 <.L88>
 eb8:	00013583          	ld	a1,0(sp)
 ebc:	00000537          	lui	a0,0x0
 ec0:	00050513          	addi	a0,a0,0 # 0 <fillrand>
 ec4:	00000097          	auipc	ra,0x0
 ec8:	000080e7          	jalr	ra,0(ra) # ec4 <.L92+0x80>
 ecc:	ff400a93          	addi	s5,zero,-12
 ed0:	db9ff06f          	jal	zero,c88 <.L88>

0000000000000ed4 <.L96>:
 ed4:	00000537          	lui	a0,0x0
 ed8:	00040593          	addi	a1,s0,0
 edc:	00050513          	addi	a0,a0,0 # 0 <fillrand>
 ee0:	00000097          	auipc	ra,0x0
 ee4:	000080e7          	jalr	ra,0(ra) # ee0 <.L96+0xc>
 ee8:	00900a93          	addi	s5,zero,9
 eec:	d9dff06f          	jal	zero,c88 <.L88>

0000000000000ef0 <.L97>:
 ef0:	00013583          	ld	a1,0(sp)
 ef4:	00000537          	lui	a0,0x0
 ef8:	00050513          	addi	a0,a0,0 # 0 <fillrand>
 efc:	00000097          	auipc	ra,0x0
 f00:	000080e7          	jalr	ra,0(ra) # efc <.L97+0xc>
 f04:	ff500a93          	addi	s5,zero,-11
 f08:	d81ff06f          	jal	zero,c88 <.L88>

Disassembly of section .text.startup:

0000000000000000 <main>:
   0:	b7010113          	addi	sp,sp,-1168
   4:	48113423          	sd	ra,1160(sp)
   8:	48813023          	sd	s0,1152(sp)
   c:	46913c23          	sd	s1,1144(sp)
  10:	47213823          	sd	s2,1136(sp)
  14:	47313423          	sd	s3,1128(sp)
  18:	47413023          	sd	s4,1120(sp)
  1c:	45513c23          	sd	s5,1112(sp)
  20:	45613823          	sd	s6,1104(sp)
  24:	45713423          	sd	s7,1096(sp)
  28:	45813023          	sd	s8,1088(sp)
  2c:	00500793          	addi	a5,zero,5
  30:	24f51263          	bne	a0,a5,274 <.L105>
  34:	0185b783          	ld	a5,24(a1)
  38:	00058a93          	addi	s5,a1,0
  3c:	0007c403          	lbu	s0,0(a5)
  40:	00000097          	auipc	ra,0x0
  44:	000080e7          	jalr	ra,0(ra) # 40 <main+0x40>
  48:	00200713          	addi	a4,zero,2
  4c:	00850533          	add	a0,a0,s0
  50:	00154783          	lbu	a5,1(a0)
  54:	0004041b          	addiw	s0,s0,0
  58:	0037f793          	andi	a5,a5,3
  5c:	00e79463          	bne	a5,a4,64 <.L102>
  60:	fe04041b          	addiw	s0,s0,-32

0000000000000064 <.L102>:
  64:	04400793          	addi	a5,zero,68
  68:	1cf41c63          	bne	s0,a5,240 <.L133>

000000000000006c <.L103>:
  6c:	020abc03          	ld	s8,32(s5)
  70:	00000493          	addi	s1,zero,0
  74:	00000b93          	addi	s7,zero,0
  78:	00200993          	addi	s3,zero,2
  7c:	00900913          	addi	s2,zero,9
  80:	00500b13          	addi	s6,zero,5
  84:	04000a13          	addi	s4,zero,64

0000000000000088 <.L106>:
  88:	000c4403          	lbu	s0,0(s8)
  8c:	18040663          	beq	s0,zero,218 <.L134>
  90:	00000097          	auipc	ra,0x0
  94:	000080e7          	jalr	ra,0(ra) # 90 <.L106+0x8>
  98:	00850533          	add	a0,a0,s0
  9c:	00154783          	lbu	a5,1(a0)
  a0:	001c0c13          	addi	s8,s8,1
  a4:	0004041b          	addiw	s0,s0,0
  a8:	0037f793          	andi	a5,a5,3
  ac:	01379463          	bne	a5,s3,b4 <.L107>
  b0:	fe04041b          	addiw	s0,s0,-32

00000000000000b4 <.L107>:
  b4:	0ff47793          	andi	a5,s0,255
  b8:	fd07871b          	addiw	a4,a5,-48
  bc:	0ff77713          	andi	a4,a4,255
  c0:	12e96c63          	bltu	s2,a4,1f8 <.L108>
  c4:	0044949b          	slliw	s1,s1,0x4
  c8:	0ff47413          	andi	s0,s0,255
  cc:	0084843b          	addw	s0,s1,s0
  d0:	fd04049b          	addiw	s1,s0,-48

00000000000000d4 <.L109>:
  d4:	001b879b          	addiw	a5,s7,1
  d8:	001bf713          	andi	a4,s7,1
  dc:	00078b9b          	addiw	s7,a5,0
  e0:	00070c63          	beq	a4,zero,f8 <.L111>
  e4:	4017d79b          	sraiw	a5,a5,0x1
  e8:	fff7879b          	addiw	a5,a5,-1
  ec:	44010713          	addi	a4,sp,1088
  f0:	00f707b3          	add	a5,a4,a5
  f4:	bc978423          	sb	s1,-1080(a5)

00000000000000f8 <.L111>:
  f8:	f94b98e3          	bne	s7,s4,88 <.L106>
  fc:	000c4783          	lbu	a5,0(s8)
 100:	1e079063          	bne	a5,zero,2e0 <.L123>
 104:	04000b93          	addi	s7,zero,64

0000000000000108 <.L116>:
 108:	008ab503          	ld	a0,8(s5)
 10c:	000005b7          	lui	a1,0x0
 110:	00058593          	addi	a1,a1,0 # 0 <main>
 114:	00000097          	auipc	ra,0x0
 118:	000080e7          	jalr	ra,0(ra) # 114 <.L116+0xc>
 11c:	00050913          	addi	s2,a0,0
 120:	401bdb93          	srai	s7,s7,0x1
 124:	1e050863          	beq	a0,zero,314 <.L135>
 128:	010ab503          	ld	a0,16(s5)
 12c:	000005b7          	lui	a1,0x0
 130:	00058593          	addi	a1,a1,0 # 0 <main>
 134:	00000097          	auipc	ra,0x0
 138:	000080e7          	jalr	ra,0(ra) # 134 <.L116+0x2c>
 13c:	00050493          	addi	s1,a0,0
 140:	1a050c63          	beq	a0,zero,2f8 <.L136>
 144:	018ab783          	ld	a5,24(s5)
 148:	0007c403          	lbu	s0,0(a5)
 14c:	00000097          	auipc	ra,0x0
 150:	000080e7          	jalr	ra,0(ra) # 14c <.L116+0x44>
 154:	00200713          	addi	a4,zero,2
 158:	00850533          	add	a0,a0,s0
 15c:	00154783          	lbu	a5,1(a0)
 160:	0004041b          	addiw	s0,s0,0
 164:	0037f793          	andi	a5,a5,3
 168:	12e78263          	beq	a5,a4,28c <.L137>

000000000000016c <.L120>:
 16c:	04500793          	addi	a5,zero,69
 170:	02810693          	addi	a3,sp,40
 174:	12f40063          	beq	s0,a5,294 <.L138>
 178:	00200613          	addi	a2,zero,2
 17c:	000b8593          	addi	a1,s7,0
 180:	00810513          	addi	a0,sp,8
 184:	00000097          	auipc	ra,0x0
 188:	000080e7          	jalr	ra,0(ra) # 184 <.L120+0x18>
 18c:	010ab703          	ld	a4,16(s5)
 190:	008ab683          	ld	a3,8(s5)
 194:	02810613          	addi	a2,sp,40
 198:	00048593          	addi	a1,s1,0
 19c:	00090513          	addi	a0,s2,0
 1a0:	00000097          	auipc	ra,0x0
 1a4:	000080e7          	jalr	ra,0(ra) # 1a0 <.L120+0x34>
 1a8:	00050413          	addi	s0,a0,0

00000000000001ac <.L122>:
 1ac:	00048513          	addi	a0,s1,0
 1b0:	00000097          	auipc	ra,0x0
 1b4:	000080e7          	jalr	ra,0(ra) # 1b0 <.L122+0x4>

00000000000001b8 <.L119>:
 1b8:	00090513          	addi	a0,s2,0
 1bc:	00000097          	auipc	ra,0x0
 1c0:	000080e7          	jalr	ra,0(ra) # 1bc <.L119+0x4>

00000000000001c4 <.L130>:
 1c4:	00040513          	addi	a0,s0,0
 1c8:	48813083          	ld	ra,1160(sp)
 1cc:	48013403          	ld	s0,1152(sp)
 1d0:	47813483          	ld	s1,1144(sp)
 1d4:	47013903          	ld	s2,1136(sp)
 1d8:	46813983          	ld	s3,1128(sp)
 1dc:	46013a03          	ld	s4,1120(sp)
 1e0:	45813a83          	ld	s5,1112(sp)
 1e4:	45013b03          	ld	s6,1104(sp)
 1e8:	44813b83          	ld	s7,1096(sp)
 1ec:	44013c03          	ld	s8,1088(sp)
 1f0:	49010113          	addi	sp,sp,1168
 1f4:	00008067          	jalr	zero,0(ra)

00000000000001f8 <.L108>:
 1f8:	fbf7879b          	addiw	a5,a5,-65
 1fc:	0ff7f793          	andi	a5,a5,255
 200:	0cfb6463          	bltu	s6,a5,2c8 <.L110>
 204:	0044949b          	slliw	s1,s1,0x4
 208:	0ff47413          	andi	s0,s0,255
 20c:	0084843b          	addw	s0,s1,s0
 210:	fc94049b          	addiw	s1,s0,-55
 214:	ec1ff06f          	jal	zero,d4 <.L109>

0000000000000218 <.L134>:
 218:	01f00793          	addi	a5,zero,31
 21c:	0177d663          	bge	a5,s7,228 <.L114>
 220:	00fbf793          	andi	a5,s7,15
 224:	ee0782e3          	beq	a5,zero,108 <.L116>

0000000000000228 <.L114>:
 228:	00000537          	lui	a0,0x0
 22c:	00050513          	addi	a0,a0,0 # 0 <main>
 230:	00000097          	auipc	ra,0x0
 234:	000080e7          	jalr	ra,0(ra) # 230 <.L114+0x8>
 238:	ffc00413          	addi	s0,zero,-4
 23c:	f89ff06f          	jal	zero,1c4 <.L130>

0000000000000240 <.L133>:
 240:	018ab783          	ld	a5,24(s5)
 244:	0007c403          	lbu	s0,0(a5)
 248:	00000097          	auipc	ra,0x0
 24c:	000080e7          	jalr	ra,0(ra) # 248 <.L133+0x8>
 250:	00200713          	addi	a4,zero,2
 254:	00850533          	add	a0,a0,s0
 258:	00154783          	lbu	a5,1(a0)
 25c:	0004041b          	addiw	s0,s0,0
 260:	0037f793          	andi	a5,a5,3
 264:	00e79463          	bne	a5,a4,26c <.L104>
 268:	fe04041b          	addiw	s0,s0,-32

000000000000026c <.L104>:
 26c:	04500793          	addi	a5,zero,69
 270:	def40ee3          	beq	s0,a5,6c <.L103>

0000000000000274 <.L105>:
 274:	00000537          	lui	a0,0x0
 278:	00050513          	addi	a0,a0,0 # 0 <main>
 27c:	00000097          	auipc	ra,0x0
 280:	000080e7          	jalr	ra,0(ra) # 27c <.L105+0x8>
 284:	fff00413          	addi	s0,zero,-1
 288:	f3dff06f          	jal	zero,1c4 <.L130>

000000000000028c <.L137>:
 28c:	fe04041b          	addiw	s0,s0,-32
 290:	eddff06f          	jal	zero,16c <.L120>

0000000000000294 <.L138>:
 294:	00100613          	addi	a2,zero,1
 298:	000b8593          	addi	a1,s7,0
 29c:	00810513          	addi	a0,sp,8
 2a0:	00000097          	auipc	ra,0x0
 2a4:	000080e7          	jalr	ra,0(ra) # 2a0 <.L138+0xc>
 2a8:	008ab683          	ld	a3,8(s5)
 2ac:	02810613          	addi	a2,sp,40
 2b0:	00048593          	addi	a1,s1,0
 2b4:	00090513          	addi	a0,s2,0
 2b8:	00000097          	auipc	ra,0x0
 2bc:	000080e7          	jalr	ra,0(ra) # 2b8 <.L138+0x24>
 2c0:	00050413          	addi	s0,a0,0
 2c4:	ee9ff06f          	jal	zero,1ac <.L122>

00000000000002c8 <.L110>:
 2c8:	00000537          	lui	a0,0x0
 2cc:	00050513          	addi	a0,a0,0 # 0 <main>
 2d0:	00000097          	auipc	ra,0x0
 2d4:	000080e7          	jalr	ra,0(ra) # 2d0 <.L110+0x8>
 2d8:	ffe00413          	addi	s0,zero,-2
 2dc:	ee9ff06f          	jal	zero,1c4 <.L130>

00000000000002e0 <.L123>:
 2e0:	00000537          	lui	a0,0x0
 2e4:	00050513          	addi	a0,a0,0 # 0 <main>
 2e8:	00000097          	auipc	ra,0x0
 2ec:	000080e7          	jalr	ra,0(ra) # 2e8 <.L123+0x8>
 2f0:	ffd00413          	addi	s0,zero,-3
 2f4:	ed1ff06f          	jal	zero,1c4 <.L130>

00000000000002f8 <.L136>:
 2f8:	008ab583          	ld	a1,8(s5)
 2fc:	00000537          	lui	a0,0x0
 300:	00050513          	addi	a0,a0,0 # 0 <main>
 304:	00000097          	auipc	ra,0x0
 308:	000080e7          	jalr	ra,0(ra) # 304 <.L136+0xc>
 30c:	ffa00413          	addi	s0,zero,-6
 310:	ea9ff06f          	jal	zero,1b8 <.L119>

0000000000000314 <.L135>:
 314:	008ab583          	ld	a1,8(s5)
 318:	00000537          	lui	a0,0x0
 31c:	00050513          	addi	a0,a0,0 # 0 <main>
 320:	00000097          	auipc	ra,0x0
 324:	000080e7          	jalr	ra,0(ra) # 320 <.L135+0xc>
 328:	ffb00413          	addi	s0,zero,-5
 32c:	e99ff06f          	jal	zero,1c4 <.L130>
