
aes.o:     file format elf64-littleriscv


Disassembly of section .text:

0000000000000000 <set_key>:
       0:	f9010113          	addi	sp,sp,-112
       4:	06113423          	sd	ra,104(sp)
       8:	06813023          	sd	s0,96(sp)
       c:	07010413          	addi	s0,sp,112
      10:	fea43023          	sd	a0,-32(s0)
      14:	fcb43c23          	sd	a1,-40(s0)
      18:	fcc42a23          	sw	a2,-44(s0)
      1c:	fcd43423          	sd	a3,-56(s0)
      20:	fd844503          	lbu	a0,-40(s0)
      24:	00757513          	andi	a0,a0,7
      28:	00000593          	addi	a1,zero,0
      2c:	00b51063          	bne	a0,a1,2c <set_key+0x2c>
      30:	0000006f          	jal	zero,30 <set_key+0x30>

0000000000000034 <.LBB0_1>:
      34:	fd843503          	ld	a0,-40(s0)
      38:	01000593          	addi	a1,zero,16
      3c:	00b56063          	bltu	a0,a1,3c <.LBB0_1+0x8>
      40:	0000006f          	jal	zero,40 <.LBB0_1+0xc>

0000000000000044 <.LBB0_2>:
      44:	fd843583          	ld	a1,-40(s0)
      48:	02000513          	addi	a0,zero,32
      4c:	00b56063          	bltu	a0,a1,4c <.LBB0_2+0x8>
      50:	0000006f          	jal	zero,50 <.LBB0_2+0xc>

0000000000000054 <.LBB0_3>:
      54:	fd444503          	lbu	a0,-44(s0)
      58:	00157513          	andi	a0,a0,1
      5c:	00000593          	addi	a1,zero,0
      60:	00b51063          	bne	a0,a1,60 <.LBB0_3+0xc>
      64:	0000006f          	jal	zero,64 <.LBB0_3+0x10>

0000000000000068 <.LBB0_4>:
      68:	fd444503          	lbu	a0,-44(s0)
      6c:	00257513          	andi	a0,a0,2
      70:	00000593          	addi	a1,zero,0
      74:	00b51063          	bne	a0,a1,74 <.LBB0_4+0xc>
      78:	0000006f          	jal	zero,78 <.LBB0_4+0x10>

000000000000007c <.LBB0_5>:
      7c:	fd843503          	ld	a0,-40(s0)
      80:	00000593          	addi	a1,zero,0
      84:	00b50063          	beq	a0,a1,84 <.LBB0_5+0x8>
      88:	0000006f          	jal	zero,88 <.LBB0_5+0xc>

000000000000008c <.LBB0_6>:
      8c:	fc843583          	ld	a1,-56(s0)
      90:	4105c503          	lbu	a0,1040(a1)
      94:	0fc57513          	andi	a0,a0,252
      98:	40a58823          	sb	a0,1040(a1)
      9c:	00000513          	addi	a0,zero,0
      a0:	faa43023          	sd	a0,-96(s0)
      a4:	0000006f          	jal	zero,a4 <.LBB0_6+0x18>

00000000000000a8 <.LBB0_7>:
      a8:	fc843503          	ld	a0,-56(s0)
      ac:	00053503          	ld	a0,0(a0)
      b0:	03251513          	slli	a0,a0,0x32
      b4:	43055513          	srai	a0,a0,0x30
      b8:	faa43023          	sd	a0,-96(s0)
      bc:	0000006f          	jal	zero,bc <.LBB0_7+0x14>

00000000000000c0 <.LBB0_8>:
      c0:	fa043503          	ld	a0,-96(s0)
      c4:	fea41723          	sh	a0,-18(s0)
      c8:	0000006f          	jal	zero,c8 <.LBB0_8+0x8>

00000000000000cc <.LBB0_9>:
      cc:	fc843583          	ld	a1,-56(s0)
      d0:	4105c503          	lbu	a0,1040(a1)
      d4:	0fc57513          	andi	a0,a0,252
      d8:	fd446603          	lwu	a2,-44(s0)
      dc:	00367613          	andi	a2,a2,3
      e0:	00c56533          	or	a0,a0,a2
      e4:	40a58823          	sb	a0,1040(a1)
      e8:	fd843503          	ld	a0,-40(s0)
      ec:	00255513          	srli	a0,a0,0x2
      f0:	fc843583          	ld	a1,-56(s0)
      f4:	00a5b023          	sd	a0,0(a1)
      f8:	fc843503          	ld	a0,-56(s0)
      fc:	00053503          	ld	a0,0(a0)
     100:	00500593          	addi	a1,zero,5
     104:	00b56063          	bltu	a0,a1,104 <.LBB0_9+0x38>
     108:	0000006f          	jal	zero,108 <.LBB0_9+0x3c>

000000000000010c <.LBB0_10>:
     10c:	fc843503          	ld	a0,-56(s0)
     110:	00053503          	ld	a0,0(a0)
     114:	f8a43c23          	sd	a0,-104(s0)
     118:	0000006f          	jal	zero,118 <.LBB0_10+0xc>

000000000000011c <.LBB0_11>:
     11c:	00400513          	addi	a0,zero,4
     120:	f8a43c23          	sd	a0,-104(s0)
     124:	0000006f          	jal	zero,124 <.LBB0_11+0x8>

0000000000000128 <.LBB0_12>:
     128:	f9843503          	ld	a0,-104(s0)
     12c:	00650513          	addi	a0,a0,6
     130:	fc843583          	ld	a1,-56(s0)
     134:	00a5b423          	sd	a0,8(a1)
     138:	fe043503          	ld	a0,-32(s0)
     13c:	00053503          	ld	a0,0(a0)
     140:	fc843583          	ld	a1,-56(s0)
     144:	00a5b823          	sd	a0,16(a1)
     148:	fe043503          	ld	a0,-32(s0)
     14c:	00453503          	ld	a0,4(a0)
     150:	fc843583          	ld	a1,-56(s0)
     154:	00a5bc23          	sd	a0,24(a1)
     158:	fe043503          	ld	a0,-32(s0)
     15c:	00853503          	ld	a0,8(a0)
     160:	fc843583          	ld	a1,-56(s0)
     164:	02a5b023          	sd	a0,32(a1)
     168:	fe043503          	ld	a0,-32(s0)
     16c:	00c53503          	ld	a0,12(a0)
     170:	fc843583          	ld	a1,-56(s0)
     174:	02a5b423          	sd	a0,40(a1)
     178:	fc843503          	ld	a0,-56(s0)
     17c:	01050513          	addi	a0,a0,16
     180:	fca43023          	sd	a0,-64(s0)
     184:	fc043603          	ld	a2,-64(s0)
     188:	fc843583          	ld	a1,-56(s0)
     18c:	0085b503          	ld	a0,8(a1)
     190:	00551513          	slli	a0,a0,0x5
     194:	00c50533          	add	a0,a0,a2
     198:	0005b583          	ld	a1,0(a1)
     19c:	00359593          	slli	a1,a1,0x3
     1a0:	40b50533          	sub	a0,a0,a1
     1a4:	02050513          	addi	a0,a0,32
     1a8:	faa43c23          	sd	a0,-72(s0)
     1ac:	00000513          	addi	a0,zero,0
     1b0:	faa43823          	sd	a0,-80(s0)
     1b4:	fc843503          	ld	a0,-56(s0)
     1b8:	00053503          	ld	a0,0(a0)
     1bc:	f8a43823          	sd	a0,-112(s0)
     1c0:	00400593          	addi	a1,zero,4
     1c4:	00b50063          	beq	a0,a1,1c4 <.LBB0_12+0x9c>
     1c8:	0000006f          	jal	zero,1c8 <.LBB0_12+0xa0>

00000000000001cc <.LBB0_13>:
     1cc:	f9043503          	ld	a0,-112(s0)
     1d0:	00600593          	addi	a1,zero,6
     1d4:	00b50063          	beq	a0,a1,1d4 <.LBB0_13+0x8>
     1d8:	0000006f          	jal	zero,1d8 <.LBB0_13+0xc>

00000000000001dc <.LBB0_14>:
     1dc:	f9043503          	ld	a0,-112(s0)
     1e0:	00800593          	addi	a1,zero,8
     1e4:	00b50063          	beq	a0,a1,1e4 <.LBB0_14+0x8>
     1e8:	0000006f          	jal	zero,1e8 <.LBB0_14+0xc>

00000000000001ec <.LBB0_15>:
     1ec:	0000006f          	jal	zero,1ec <.LBB0_15>

00000000000001f0 <.LBB0_16>:
     1f0:	fc043583          	ld	a1,-64(s0)
     1f4:	0005b503          	ld	a0,0(a1)
     1f8:	0185b683          	ld	a3,24(a1)
     1fc:	0056d593          	srli	a1,a3,0x5
     200:	7f85f593          	andi	a1,a1,2040
     204:	00000637          	lui	a2,0x0
     208:	00060613          	addi	a2,a2,0 # 0 <set_key>
     20c:	00c585b3          	add	a1,a1,a2
     210:	0005b583          	ld	a1,0(a1)
     214:	00d6d713          	srli	a4,a3,0xd
     218:	7f877713          	andi	a4,a4,2040
     21c:	00e60733          	add	a4,a2,a4
     220:	40070713          	addi	a4,a4,1024
     224:	40073703          	ld	a4,1024(a4)
     228:	00e5c5b3          	xor	a1,a1,a4
     22c:	0156d713          	srli	a4,a3,0x15
     230:	7f877713          	andi	a4,a4,2040
     234:	00e60733          	add	a4,a2,a4
     238:	000017b7          	lui	a5,0x1
     23c:	00f70733          	add	a4,a4,a5
     240:	00073703          	ld	a4,0(a4)
     244:	00e5c5b3          	xor	a1,a1,a4
     248:	0ff6f693          	andi	a3,a3,255
     24c:	00369693          	slli	a3,a3,0x3
     250:	00d60633          	add	a2,a2,a3
     254:	000026b7          	lui	a3,0x2
     258:	8006869b          	addiw	a3,a3,-2048
     25c:	00d60633          	add	a2,a2,a3
     260:	00063603          	ld	a2,0(a2)
     264:	00c5c5b3          	xor	a1,a1,a2
     268:	00b54533          	xor	a0,a0,a1
     26c:	fb043583          	ld	a1,-80(s0)
     270:	00158613          	addi	a2,a1,1
     274:	fac43823          	sd	a2,-80(s0)
     278:	00000637          	lui	a2,0x0
     27c:	00060613          	addi	a2,a2,0 # 0 <set_key>
     280:	00359593          	slli	a1,a1,0x3
     284:	00c585b3          	add	a1,a1,a2
     288:	0005b583          	ld	a1,0(a1)
     28c:	00b54533          	xor	a0,a0,a1
     290:	fc043583          	ld	a1,-64(s0)
     294:	02a5b023          	sd	a0,32(a1)
     298:	fc043583          	ld	a1,-64(s0)
     29c:	0085b503          	ld	a0,8(a1)
     2a0:	0205b603          	ld	a2,32(a1)
     2a4:	00c54533          	xor	a0,a0,a2
     2a8:	02a5b423          	sd	a0,40(a1)
     2ac:	fc043583          	ld	a1,-64(s0)
     2b0:	0105b503          	ld	a0,16(a1)
     2b4:	0285b603          	ld	a2,40(a1)
     2b8:	00c54533          	xor	a0,a0,a2
     2bc:	02a5b823          	sd	a0,48(a1)
     2c0:	fc043583          	ld	a1,-64(s0)
     2c4:	0185b503          	ld	a0,24(a1)
     2c8:	0305b603          	ld	a2,48(a1)
     2cc:	00c54533          	xor	a0,a0,a2
     2d0:	02a5bc23          	sd	a0,56(a1)
     2d4:	fc043503          	ld	a0,-64(s0)
     2d8:	02050513          	addi	a0,a0,32
     2dc:	fca43023          	sd	a0,-64(s0)
     2e0:	0000006f          	jal	zero,2e0 <.LBB0_16+0xf0>

00000000000002e4 <.LBB0_17>:
     2e4:	fc043503          	ld	a0,-64(s0)
     2e8:	fb843583          	ld	a1,-72(s0)
     2ec:	00b56063          	bltu	a0,a1,2ec <.LBB0_17+0x8>
     2f0:	0000006f          	jal	zero,2f0 <.LBB0_17+0xc>

00000000000002f4 <.LBB0_18>:
     2f4:	0000006f          	jal	zero,2f4 <.LBB0_18>

00000000000002f8 <.LBB0_19>:
     2f8:	fe043503          	ld	a0,-32(s0)
     2fc:	01053503          	ld	a0,16(a0)
     300:	fc843583          	ld	a1,-56(s0)
     304:	02a5b823          	sd	a0,48(a1)
     308:	fe043503          	ld	a0,-32(s0)
     30c:	01453503          	ld	a0,20(a0)
     310:	fc843583          	ld	a1,-56(s0)
     314:	02a5bc23          	sd	a0,56(a1)
     318:	0000006f          	jal	zero,318 <.LBB0_19+0x20>

000000000000031c <.LBB0_20>:
     31c:	fc043583          	ld	a1,-64(s0)
     320:	0005b503          	ld	a0,0(a1)
     324:	0285b683          	ld	a3,40(a1)
     328:	0056d593          	srli	a1,a3,0x5
     32c:	7f85f593          	andi	a1,a1,2040
     330:	00000637          	lui	a2,0x0
     334:	00060613          	addi	a2,a2,0 # 0 <set_key>
     338:	00c585b3          	add	a1,a1,a2
     33c:	0005b583          	ld	a1,0(a1)
     340:	00d6d713          	srli	a4,a3,0xd
     344:	7f877713          	andi	a4,a4,2040
     348:	00e60733          	add	a4,a2,a4
     34c:	40070713          	addi	a4,a4,1024
     350:	40073703          	ld	a4,1024(a4)
     354:	00e5c5b3          	xor	a1,a1,a4
     358:	0156d713          	srli	a4,a3,0x15
     35c:	7f877713          	andi	a4,a4,2040
     360:	00e60733          	add	a4,a2,a4
     364:	000017b7          	lui	a5,0x1
     368:	00f70733          	add	a4,a4,a5
     36c:	00073703          	ld	a4,0(a4)
     370:	00e5c5b3          	xor	a1,a1,a4
     374:	0ff6f693          	andi	a3,a3,255
     378:	00369693          	slli	a3,a3,0x3
     37c:	00d60633          	add	a2,a2,a3
     380:	000026b7          	lui	a3,0x2
     384:	8006869b          	addiw	a3,a3,-2048
     388:	00d60633          	add	a2,a2,a3
     38c:	00063603          	ld	a2,0(a2)
     390:	00c5c5b3          	xor	a1,a1,a2
     394:	00b54533          	xor	a0,a0,a1
     398:	fb043583          	ld	a1,-80(s0)
     39c:	00158613          	addi	a2,a1,1
     3a0:	fac43823          	sd	a2,-80(s0)
     3a4:	00000637          	lui	a2,0x0
     3a8:	00060613          	addi	a2,a2,0 # 0 <set_key>
     3ac:	00359593          	slli	a1,a1,0x3
     3b0:	00c585b3          	add	a1,a1,a2
     3b4:	0005b583          	ld	a1,0(a1)
     3b8:	00b54533          	xor	a0,a0,a1
     3bc:	fc043583          	ld	a1,-64(s0)
     3c0:	02a5b823          	sd	a0,48(a1)
     3c4:	fc043583          	ld	a1,-64(s0)
     3c8:	0085b503          	ld	a0,8(a1)
     3cc:	0305b603          	ld	a2,48(a1)
     3d0:	00c54533          	xor	a0,a0,a2
     3d4:	02a5bc23          	sd	a0,56(a1)
     3d8:	fc043583          	ld	a1,-64(s0)
     3dc:	0105b503          	ld	a0,16(a1)
     3e0:	0385b603          	ld	a2,56(a1)
     3e4:	00c54533          	xor	a0,a0,a2
     3e8:	04a5b023          	sd	a0,64(a1)
     3ec:	fc043583          	ld	a1,-64(s0)
     3f0:	0185b503          	ld	a0,24(a1)
     3f4:	0405b603          	ld	a2,64(a1)
     3f8:	00c54533          	xor	a0,a0,a2
     3fc:	04a5b423          	sd	a0,72(a1)
     400:	fc043583          	ld	a1,-64(s0)
     404:	0205b503          	ld	a0,32(a1)
     408:	0485b603          	ld	a2,72(a1)
     40c:	00c54533          	xor	a0,a0,a2
     410:	04a5b823          	sd	a0,80(a1)
     414:	fc043583          	ld	a1,-64(s0)
     418:	0285b503          	ld	a0,40(a1)
     41c:	0505b603          	ld	a2,80(a1)
     420:	00c54533          	xor	a0,a0,a2
     424:	04a5bc23          	sd	a0,88(a1)
     428:	fc043503          	ld	a0,-64(s0)
     42c:	03050513          	addi	a0,a0,48
     430:	fca43023          	sd	a0,-64(s0)
     434:	0000006f          	jal	zero,434 <.LBB0_20+0x118>

0000000000000438 <.LBB0_21>:
     438:	fc043503          	ld	a0,-64(s0)
     43c:	fb843583          	ld	a1,-72(s0)
     440:	00b56063          	bltu	a0,a1,440 <.LBB0_21+0x8>
     444:	0000006f          	jal	zero,444 <.LBB0_21+0xc>

0000000000000448 <.LBB0_22>:
     448:	0000006f          	jal	zero,448 <.LBB0_22>

000000000000044c <.LBB0_23>:
     44c:	fe043503          	ld	a0,-32(s0)
     450:	01053503          	ld	a0,16(a0)
     454:	fc843583          	ld	a1,-56(s0)
     458:	02a5b823          	sd	a0,48(a1)
     45c:	fe043503          	ld	a0,-32(s0)
     460:	01453503          	ld	a0,20(a0)
     464:	fc843583          	ld	a1,-56(s0)
     468:	02a5bc23          	sd	a0,56(a1)
     46c:	fe043503          	ld	a0,-32(s0)
     470:	01853503          	ld	a0,24(a0)
     474:	fc843583          	ld	a1,-56(s0)
     478:	04a5b023          	sd	a0,64(a1)
     47c:	fe043503          	ld	a0,-32(s0)
     480:	01c53503          	ld	a0,28(a0)
     484:	fc843583          	ld	a1,-56(s0)
     488:	04a5b423          	sd	a0,72(a1)
     48c:	0000006f          	jal	zero,48c <.LBB0_23+0x40>

0000000000000490 <.LBB0_24>:
     490:	fc043583          	ld	a1,-64(s0)
     494:	0005b503          	ld	a0,0(a1)
     498:	0385b603          	ld	a2,56(a1)
     49c:	00565593          	srli	a1,a2,0x5
     4a0:	7f85f593          	andi	a1,a1,2040
     4a4:	000006b7          	lui	a3,0x0
     4a8:	00068793          	addi	a5,a3,0 # 0 <set_key>
     4ac:	00f585b3          	add	a1,a1,a5
     4b0:	0005b583          	ld	a1,0(a1)
     4b4:	00d65693          	srli	a3,a2,0xd
     4b8:	7f86f693          	andi	a3,a3,2040
     4bc:	40078713          	addi	a4,a5,1024 # 1400 <.LBB1_7+0x300>
     4c0:	40070893          	addi	a7,a4,1024
     4c4:	011686b3          	add	a3,a3,a7
     4c8:	0006b683          	ld	a3,0(a3)
     4cc:	00d5c5b3          	xor	a1,a1,a3
     4d0:	01565693          	srli	a3,a2,0x15
     4d4:	7f86f693          	andi	a3,a3,2040
     4d8:	00001737          	lui	a4,0x1
     4dc:	00e78833          	add	a6,a5,a4
     4e0:	010686b3          	add	a3,a3,a6
     4e4:	0006b683          	ld	a3,0(a3)
     4e8:	00d5c5b3          	xor	a1,a1,a3
     4ec:	0ff67613          	andi	a2,a2,255
     4f0:	00361613          	slli	a2,a2,0x3
     4f4:	000026b7          	lui	a3,0x2
     4f8:	8006869b          	addiw	a3,a3,-2048
     4fc:	00d78733          	add	a4,a5,a3
     500:	00e60633          	add	a2,a2,a4
     504:	00063603          	ld	a2,0(a2)
     508:	00c5c5b3          	xor	a1,a1,a2
     50c:	00b54533          	xor	a0,a0,a1
     510:	fb043583          	ld	a1,-80(s0)
     514:	00158613          	addi	a2,a1,1
     518:	fac43823          	sd	a2,-80(s0)
     51c:	00000637          	lui	a2,0x0
     520:	00060613          	addi	a2,a2,0 # 0 <set_key>
     524:	00359593          	slli	a1,a1,0x3
     528:	00c585b3          	add	a1,a1,a2
     52c:	0005b583          	ld	a1,0(a1)
     530:	00b54533          	xor	a0,a0,a1
     534:	fc043583          	ld	a1,-64(s0)
     538:	04a5b023          	sd	a0,64(a1)
     53c:	fc043583          	ld	a1,-64(s0)
     540:	0085b503          	ld	a0,8(a1)
     544:	0405b603          	ld	a2,64(a1)
     548:	00c54533          	xor	a0,a0,a2
     54c:	04a5b423          	sd	a0,72(a1)
     550:	fc043583          	ld	a1,-64(s0)
     554:	0105b503          	ld	a0,16(a1)
     558:	0485b603          	ld	a2,72(a1)
     55c:	00c54533          	xor	a0,a0,a2
     560:	04a5b823          	sd	a0,80(a1)
     564:	fc043583          	ld	a1,-64(s0)
     568:	0185b503          	ld	a0,24(a1)
     56c:	0505b603          	ld	a2,80(a1)
     570:	00c54533          	xor	a0,a0,a2
     574:	04a5bc23          	sd	a0,88(a1)
     578:	fc043583          	ld	a1,-64(s0)
     57c:	0205b503          	ld	a0,32(a1)
     580:	0585b683          	ld	a3,88(a1)
     584:	0ff6f613          	andi	a2,a3,255
     588:	00361613          	slli	a2,a2,0x3
     58c:	00f60633          	add	a2,a2,a5
     590:	00063603          	ld	a2,0(a2)
     594:	0056d793          	srli	a5,a3,0x5
     598:	7f87f793          	andi	a5,a5,2040
     59c:	011787b3          	add	a5,a5,a7
     5a0:	0007b783          	ld	a5,0(a5)
     5a4:	00f64633          	xor	a2,a2,a5
     5a8:	00d6d793          	srli	a5,a3,0xd
     5ac:	7f87f793          	andi	a5,a5,2040
     5b0:	010787b3          	add	a5,a5,a6
     5b4:	0007b783          	ld	a5,0(a5)
     5b8:	00f64633          	xor	a2,a2,a5
     5bc:	0156d693          	srli	a3,a3,0x15
     5c0:	7f86f693          	andi	a3,a3,2040
     5c4:	00e686b3          	add	a3,a3,a4
     5c8:	0006b683          	ld	a3,0(a3) # 2000 <decrypt+0x4>
     5cc:	00d64633          	xor	a2,a2,a3
     5d0:	00c54533          	xor	a0,a0,a2
     5d4:	06a5b023          	sd	a0,96(a1)
     5d8:	fc043583          	ld	a1,-64(s0)
     5dc:	0285b503          	ld	a0,40(a1)
     5e0:	0605b603          	ld	a2,96(a1)
     5e4:	00c54533          	xor	a0,a0,a2
     5e8:	06a5b423          	sd	a0,104(a1)
     5ec:	fc043583          	ld	a1,-64(s0)
     5f0:	0305b503          	ld	a0,48(a1)
     5f4:	0685b603          	ld	a2,104(a1)
     5f8:	00c54533          	xor	a0,a0,a2
     5fc:	06a5b823          	sd	a0,112(a1)
     600:	fc043583          	ld	a1,-64(s0)
     604:	0385b503          	ld	a0,56(a1)
     608:	0705b603          	ld	a2,112(a1)
     60c:	00c54533          	xor	a0,a0,a2
     610:	06a5bc23          	sd	a0,120(a1)
     614:	fc043503          	ld	a0,-64(s0)
     618:	04050513          	addi	a0,a0,64
     61c:	fca43023          	sd	a0,-64(s0)
     620:	0000006f          	jal	zero,620 <.LBB0_24+0x190>

0000000000000624 <.LBB0_25>:
     624:	fc043503          	ld	a0,-64(s0)
     628:	fb843583          	ld	a1,-72(s0)
     62c:	00b56063          	bltu	a0,a1,62c <.LBB0_25+0x8>
     630:	0000006f          	jal	zero,630 <.LBB0_25+0xc>

0000000000000634 <.LBB0_26>:
     634:	0000006f          	jal	zero,634 <.LBB0_26>

0000000000000638 <.LBB0_27>:
     638:	fc843503          	ld	a0,-56(s0)
     63c:	41054503          	lbu	a0,1040(a0)
     640:	00357513          	andi	a0,a0,3
     644:	00100593          	addi	a1,zero,1
     648:	00b50063          	beq	a0,a1,648 <.LBB0_27+0x10>
     64c:	0000006f          	jal	zero,64c <.LBB0_27+0x14>

0000000000000650 <.LBB0_28>:
     650:	fc843503          	ld	a0,-56(s0)
     654:	00853583          	ld	a1,8(a0)
     658:	00559593          	slli	a1,a1,0x5
     65c:	00b50533          	add	a0,a0,a1
     660:	21050513          	addi	a0,a0,528
     664:	faa43c23          	sd	a0,-72(s0)
     668:	fc843503          	ld	a0,-56(s0)
     66c:	01050513          	addi	a0,a0,16
     670:	fca43023          	sd	a0,-64(s0)
     674:	fc043503          	ld	a0,-64(s0)
     678:	00850593          	addi	a1,a0,8
     67c:	fcb43023          	sd	a1,-64(s0)
     680:	00053503          	ld	a0,0(a0)
     684:	fb843583          	ld	a1,-72(s0)
     688:	00858613          	addi	a2,a1,8
     68c:	fac43c23          	sd	a2,-72(s0)
     690:	00a5b023          	sd	a0,0(a1)
     694:	fc043503          	ld	a0,-64(s0)
     698:	00850593          	addi	a1,a0,8
     69c:	fcb43023          	sd	a1,-64(s0)
     6a0:	00053503          	ld	a0,0(a0)
     6a4:	fb843583          	ld	a1,-72(s0)
     6a8:	00858613          	addi	a2,a1,8
     6ac:	fac43c23          	sd	a2,-72(s0)
     6b0:	00a5b023          	sd	a0,0(a1)
     6b4:	fc043503          	ld	a0,-64(s0)
     6b8:	00850593          	addi	a1,a0,8
     6bc:	fcb43023          	sd	a1,-64(s0)
     6c0:	00053503          	ld	a0,0(a0)
     6c4:	fb843583          	ld	a1,-72(s0)
     6c8:	00858613          	addi	a2,a1,8
     6cc:	fac43c23          	sd	a2,-72(s0)
     6d0:	00a5b023          	sd	a0,0(a1)
     6d4:	fc043503          	ld	a0,-64(s0)
     6d8:	00850593          	addi	a1,a0,8
     6dc:	fcb43023          	sd	a1,-64(s0)
     6e0:	00053503          	ld	a0,0(a0)
     6e4:	fb843583          	ld	a1,-72(s0)
     6e8:	00858613          	addi	a2,a1,8
     6ec:	fac43c23          	sd	a2,-72(s0)
     6f0:	00a5b023          	sd	a0,0(a1)
     6f4:	fb843503          	ld	a0,-72(s0)
     6f8:	fc050513          	addi	a0,a0,-64
     6fc:	faa43c23          	sd	a0,-72(s0)
     700:	00100513          	addi	a0,zero,1
     704:	faa43423          	sd	a0,-88(s0)
     708:	0000006f          	jal	zero,708 <.LBB0_28+0xb8>

000000000000070c <.LBB0_29>:
     70c:	fa843503          	ld	a0,-88(s0)
     710:	fc843583          	ld	a1,-56(s0)
     714:	0085b583          	ld	a1,8(a1)
     718:	00b57063          	bgeu	a0,a1,718 <.LBB0_29+0xc>
     71c:	0000006f          	jal	zero,71c <.LBB0_29+0x10>

0000000000000720 <.LBB0_30>:
     720:	fc043503          	ld	a0,-64(s0)
     724:	00053583          	ld	a1,0(a0)
     728:	0ff5f513          	andi	a0,a1,255
     72c:	00351513          	slli	a0,a0,0x3
     730:	00000637          	lui	a2,0x0
     734:	00060693          	addi	a3,a2,0 # 0 <set_key>
     738:	00d50533          	add	a0,a0,a3
     73c:	00053503          	ld	a0,0(a0)
     740:	0055d613          	srli	a2,a1,0x5
     744:	7f867613          	andi	a2,a2,2040
     748:	40068713          	addi	a4,a3,1024
     74c:	40070793          	addi	a5,a4,1024 # 1400 <.LBB1_7+0x300>
     750:	00f60633          	add	a2,a2,a5
     754:	00063603          	ld	a2,0(a2)
     758:	00c54533          	xor	a0,a0,a2
     75c:	00d5d613          	srli	a2,a1,0xd
     760:	7f867613          	andi	a2,a2,2040
     764:	00001737          	lui	a4,0x1
     768:	00e68733          	add	a4,a3,a4
     76c:	00e60633          	add	a2,a2,a4
     770:	00063603          	ld	a2,0(a2)
     774:	00c54533          	xor	a0,a0,a2
     778:	0155d593          	srli	a1,a1,0x15
     77c:	7f85f593          	andi	a1,a1,2040
     780:	00002637          	lui	a2,0x2
     784:	8006061b          	addiw	a2,a2,-2048
     788:	00c68633          	add	a2,a3,a2
     78c:	00c585b3          	add	a1,a1,a2
     790:	0005b583          	ld	a1,0(a1)
     794:	00b54533          	xor	a0,a0,a1
     798:	fb843583          	ld	a1,-72(s0)
     79c:	00858813          	addi	a6,a1,8
     7a0:	fb043c23          	sd	a6,-72(s0)
     7a4:	00a5b023          	sd	a0,0(a1)
     7a8:	fc043503          	ld	a0,-64(s0)
     7ac:	00850513          	addi	a0,a0,8
     7b0:	fca43023          	sd	a0,-64(s0)
     7b4:	fc043503          	ld	a0,-64(s0)
     7b8:	00053583          	ld	a1,0(a0)
     7bc:	0ff5f513          	andi	a0,a1,255
     7c0:	00351513          	slli	a0,a0,0x3
     7c4:	00d50533          	add	a0,a0,a3
     7c8:	00053503          	ld	a0,0(a0)
     7cc:	0055d813          	srli	a6,a1,0x5
     7d0:	7f887813          	andi	a6,a6,2040
     7d4:	00f80833          	add	a6,a6,a5
     7d8:	00083803          	ld	a6,0(a6)
     7dc:	01054533          	xor	a0,a0,a6
     7e0:	00d5d813          	srli	a6,a1,0xd
     7e4:	7f887813          	andi	a6,a6,2040
     7e8:	00e80833          	add	a6,a6,a4
     7ec:	00083803          	ld	a6,0(a6)
     7f0:	01054533          	xor	a0,a0,a6
     7f4:	0155d593          	srli	a1,a1,0x15
     7f8:	7f85f593          	andi	a1,a1,2040
     7fc:	00c585b3          	add	a1,a1,a2
     800:	0005b583          	ld	a1,0(a1)
     804:	00b54533          	xor	a0,a0,a1
     808:	fb843583          	ld	a1,-72(s0)
     80c:	00858813          	addi	a6,a1,8
     810:	fb043c23          	sd	a6,-72(s0)
     814:	00a5b023          	sd	a0,0(a1)
     818:	fc043503          	ld	a0,-64(s0)
     81c:	00850513          	addi	a0,a0,8
     820:	fca43023          	sd	a0,-64(s0)
     824:	fc043503          	ld	a0,-64(s0)
     828:	00053583          	ld	a1,0(a0)
     82c:	0ff5f513          	andi	a0,a1,255
     830:	00351513          	slli	a0,a0,0x3
     834:	00d50533          	add	a0,a0,a3
     838:	00053503          	ld	a0,0(a0)
     83c:	0055d813          	srli	a6,a1,0x5
     840:	7f887813          	andi	a6,a6,2040
     844:	00f80833          	add	a6,a6,a5
     848:	00083803          	ld	a6,0(a6)
     84c:	01054533          	xor	a0,a0,a6
     850:	00d5d813          	srli	a6,a1,0xd
     854:	7f887813          	andi	a6,a6,2040
     858:	00e80833          	add	a6,a6,a4
     85c:	00083803          	ld	a6,0(a6)
     860:	01054533          	xor	a0,a0,a6
     864:	0155d593          	srli	a1,a1,0x15
     868:	7f85f593          	andi	a1,a1,2040
     86c:	00c585b3          	add	a1,a1,a2
     870:	0005b583          	ld	a1,0(a1)
     874:	00b54533          	xor	a0,a0,a1
     878:	fb843583          	ld	a1,-72(s0)
     87c:	00858813          	addi	a6,a1,8
     880:	fb043c23          	sd	a6,-72(s0)
     884:	00a5b023          	sd	a0,0(a1)
     888:	fc043503          	ld	a0,-64(s0)
     88c:	00850513          	addi	a0,a0,8
     890:	fca43023          	sd	a0,-64(s0)
     894:	fc043503          	ld	a0,-64(s0)
     898:	00053583          	ld	a1,0(a0)
     89c:	0ff5f513          	andi	a0,a1,255
     8a0:	00351513          	slli	a0,a0,0x3
     8a4:	00d50533          	add	a0,a0,a3
     8a8:	00053503          	ld	a0,0(a0)
     8ac:	0055d693          	srli	a3,a1,0x5
     8b0:	7f86f693          	andi	a3,a3,2040
     8b4:	00f686b3          	add	a3,a3,a5
     8b8:	0006b683          	ld	a3,0(a3)
     8bc:	00d54533          	xor	a0,a0,a3
     8c0:	00d5d693          	srli	a3,a1,0xd
     8c4:	7f86f693          	andi	a3,a3,2040
     8c8:	00e686b3          	add	a3,a3,a4
     8cc:	0006b683          	ld	a3,0(a3)
     8d0:	00d54533          	xor	a0,a0,a3
     8d4:	0155d593          	srli	a1,a1,0x15
     8d8:	7f85f593          	andi	a1,a1,2040
     8dc:	00c585b3          	add	a1,a1,a2
     8e0:	0005b583          	ld	a1,0(a1)
     8e4:	00b54533          	xor	a0,a0,a1
     8e8:	fb843583          	ld	a1,-72(s0)
     8ec:	00858613          	addi	a2,a1,8
     8f0:	fac43c23          	sd	a2,-72(s0)
     8f4:	00a5b023          	sd	a0,0(a1)
     8f8:	fc043503          	ld	a0,-64(s0)
     8fc:	00850513          	addi	a0,a0,8
     900:	fca43023          	sd	a0,-64(s0)
     904:	fb843503          	ld	a0,-72(s0)
     908:	fc050513          	addi	a0,a0,-64
     90c:	faa43c23          	sd	a0,-72(s0)
     910:	0000006f          	jal	zero,910 <.LBB0_30+0x1f0>

0000000000000914 <.LBB0_31>:
     914:	fa843503          	ld	a0,-88(s0)
     918:	00150513          	addi	a0,a0,1
     91c:	faa43423          	sd	a0,-88(s0)
     920:	0000006f          	jal	zero,920 <.LBB0_31+0xc>

0000000000000924 <.LBB0_32>:
     924:	fc043503          	ld	a0,-64(s0)
     928:	00850593          	addi	a1,a0,8
     92c:	fcb43023          	sd	a1,-64(s0)
     930:	00053503          	ld	a0,0(a0)
     934:	fb843583          	ld	a1,-72(s0)
     938:	00858613          	addi	a2,a1,8
     93c:	fac43c23          	sd	a2,-72(s0)
     940:	00a5b023          	sd	a0,0(a1)
     944:	fc043503          	ld	a0,-64(s0)
     948:	00850593          	addi	a1,a0,8
     94c:	fcb43023          	sd	a1,-64(s0)
     950:	00053503          	ld	a0,0(a0)
     954:	fb843583          	ld	a1,-72(s0)
     958:	00858613          	addi	a2,a1,8
     95c:	fac43c23          	sd	a2,-72(s0)
     960:	00a5b023          	sd	a0,0(a1)
     964:	fc043503          	ld	a0,-64(s0)
     968:	00850593          	addi	a1,a0,8
     96c:	fcb43023          	sd	a1,-64(s0)
     970:	00053503          	ld	a0,0(a0)
     974:	fb843583          	ld	a1,-72(s0)
     978:	00858613          	addi	a2,a1,8
     97c:	fac43c23          	sd	a2,-72(s0)
     980:	00a5b023          	sd	a0,0(a1)
     984:	fc043503          	ld	a0,-64(s0)
     988:	00850593          	addi	a1,a0,8
     98c:	fcb43023          	sd	a1,-64(s0)
     990:	00053503          	ld	a0,0(a0)
     994:	fb843583          	ld	a1,-72(s0)
     998:	00858613          	addi	a2,a1,8
     99c:	fac43c23          	sd	a2,-72(s0)
     9a0:	00a5b023          	sd	a0,0(a1)
     9a4:	0000006f          	jal	zero,9a4 <.LBB0_32+0x80>

00000000000009a8 <.LBB0_33>:
     9a8:	00100513          	addi	a0,zero,1
     9ac:	fea41723          	sh	a0,-18(s0)
     9b0:	0000006f          	jal	zero,9b0 <.LBB0_33+0x8>

00000000000009b4 <.LBB0_34>:
     9b4:	fee41503          	lh	a0,-18(s0)
     9b8:	06813083          	ld	ra,104(sp)
     9bc:	06013403          	ld	s0,96(sp)
     9c0:	07010113          	addi	sp,sp,112
     9c4:	00008067          	jalr	zero,0(ra)

00000000000009c8 <encrypt>:
     9c8:	f2010113          	addi	sp,sp,-224
     9cc:	0c113c23          	sd	ra,216(sp)
     9d0:	0c813823          	sd	s0,208(sp)
     9d4:	0e010413          	addi	s0,sp,224
     9d8:	fea43023          	sd	a0,-32(s0)
     9dc:	fcb43c23          	sd	a1,-40(s0)
     9e0:	fcc43823          	sd	a2,-48(s0)
     9e4:	fd043503          	ld	a0,-48(s0)
     9e8:	01050513          	addi	a0,a0,16
     9ec:	f8a43423          	sd	a0,-120(s0)
     9f0:	fd043503          	ld	a0,-48(s0)
     9f4:	41054503          	lbu	a0,1040(a0)
     9f8:	00157513          	andi	a0,a0,1
     9fc:	00000593          	addi	a1,zero,0
     a00:	00b51063          	bne	a0,a1,a00 <encrypt+0x38>
     a04:	0000006f          	jal	zero,a04 <encrypt+0x3c>

0000000000000a08 <.LBB1_1>:
     a08:	00000513          	addi	a0,zero,0
     a0c:	fea41723          	sh	a0,-18(s0)
     a10:	0000006f          	jal	zero,a10 <.LBB1_1+0x8>

0000000000000a14 <.LBB1_2>:
     a14:	fe043503          	ld	a0,-32(s0)
     a18:	00053503          	ld	a0,0(a0)
     a1c:	f8843583          	ld	a1,-120(s0)
     a20:	0005b583          	ld	a1,0(a1)
     a24:	00b54533          	xor	a0,a0,a1
     a28:	f8a43823          	sd	a0,-112(s0)
     a2c:	fe043503          	ld	a0,-32(s0)
     a30:	00453503          	ld	a0,4(a0)
     a34:	f8843583          	ld	a1,-120(s0)
     a38:	0085b583          	ld	a1,8(a1)
     a3c:	00b54533          	xor	a0,a0,a1
     a40:	f8a43c23          	sd	a0,-104(s0)
     a44:	fe043503          	ld	a0,-32(s0)
     a48:	00853503          	ld	a0,8(a0)
     a4c:	f8843583          	ld	a1,-120(s0)
     a50:	0105b583          	ld	a1,16(a1)
     a54:	00b54533          	xor	a0,a0,a1
     a58:	faa43023          	sd	a0,-96(s0)
     a5c:	fe043503          	ld	a0,-32(s0)
     a60:	00c53503          	ld	a0,12(a0)
     a64:	f8843583          	ld	a1,-120(s0)
     a68:	0185b583          	ld	a1,24(a1)
     a6c:	00b54533          	xor	a0,a0,a1
     a70:	faa43423          	sd	a0,-88(s0)
     a74:	f8843503          	ld	a0,-120(s0)
     a78:	02050513          	addi	a0,a0,32
     a7c:	f8a43423          	sd	a0,-120(s0)
     a80:	fd043503          	ld	a0,-48(s0)
     a84:	00853503          	ld	a0,8(a0)
     a88:	f8a43023          	sd	a0,-128(s0)
     a8c:	00a00593          	addi	a1,zero,10
     a90:	00b50063          	beq	a0,a1,a90 <.LBB1_2+0x7c>
     a94:	0000006f          	jal	zero,a94 <.LBB1_2+0x80>

0000000000000a98 <.LBB1_3>:
     a98:	f8043503          	ld	a0,-128(s0)
     a9c:	00c00593          	addi	a1,zero,12
     aa0:	00b50063          	beq	a0,a1,aa0 <.LBB1_3+0x8>
     aa4:	0000006f          	jal	zero,aa4 <.LBB1_3+0xc>

0000000000000aa8 <.LBB1_4>:
     aa8:	f8043503          	ld	a0,-128(s0)
     aac:	00e00593          	addi	a1,zero,14
     ab0:	00b50063          	beq	a0,a1,ab0 <.LBB1_4+0x8>
     ab4:	0000006f          	jal	zero,ab4 <.LBB1_4+0xc>

0000000000000ab8 <.LBB1_5>:
     ab8:	f8843503          	ld	a0,-120(s0)
     abc:	00053503          	ld	a0,0(a0)
     ac0:	f9044583          	lbu	a1,-112(s0)
     ac4:	00359593          	slli	a1,a1,0x3
     ac8:	00000637          	lui	a2,0x0
     acc:	00060613          	addi	a2,a2,0 # 0 <set_key>
     ad0:	f6c43023          	sd	a2,-160(s0)
     ad4:	00c585b3          	add	a1,a1,a2
     ad8:	0005b583          	ld	a1,0(a1)
     adc:	f9944683          	lbu	a3,-103(s0)
     ae0:	00369693          	slli	a3,a3,0x3
     ae4:	40060713          	addi	a4,a2,1024
     ae8:	40070793          	addi	a5,a4,1024 # 1400 <.LBB1_7+0x300>
     aec:	f6f43423          	sd	a5,-152(s0)
     af0:	00f686b3          	add	a3,a3,a5
     af4:	0006b683          	ld	a3,0(a3)
     af8:	00d5c5b3          	xor	a1,a1,a3
     afc:	fa244683          	lbu	a3,-94(s0)
     b00:	00369693          	slli	a3,a3,0x3
     b04:	00001737          	lui	a4,0x1
     b08:	00e60733          	add	a4,a2,a4
     b0c:	f6e43823          	sd	a4,-144(s0)
     b10:	00e686b3          	add	a3,a3,a4
     b14:	0006b683          	ld	a3,0(a3)
     b18:	00d5c5b3          	xor	a1,a1,a3
     b1c:	fab44683          	lbu	a3,-85(s0)
     b20:	00369813          	slli	a6,a3,0x3
     b24:	000026b7          	lui	a3,0x2
     b28:	8006869b          	addiw	a3,a3,-2048
     b2c:	00d606b3          	add	a3,a2,a3
     b30:	f6d43c23          	sd	a3,-136(s0)
     b34:	00d80833          	add	a6,a6,a3
     b38:	00083803          	ld	a6,0(a6)
     b3c:	0105c5b3          	xor	a1,a1,a6
     b40:	00b54533          	xor	a0,a0,a1
     b44:	faa43823          	sd	a0,-80(s0)
     b48:	f8843503          	ld	a0,-120(s0)
     b4c:	00853503          	ld	a0,8(a0)
     b50:	f9844583          	lbu	a1,-104(s0)
     b54:	00359593          	slli	a1,a1,0x3
     b58:	00c585b3          	add	a1,a1,a2
     b5c:	0005b583          	ld	a1,0(a1)
     b60:	fa144803          	lbu	a6,-95(s0)
     b64:	00381813          	slli	a6,a6,0x3
     b68:	00f80833          	add	a6,a6,a5
     b6c:	00083803          	ld	a6,0(a6)
     b70:	0105c5b3          	xor	a1,a1,a6
     b74:	faa44803          	lbu	a6,-86(s0)
     b78:	00381813          	slli	a6,a6,0x3
     b7c:	00e80833          	add	a6,a6,a4
     b80:	00083803          	ld	a6,0(a6)
     b84:	0105c5b3          	xor	a1,a1,a6
     b88:	f9344803          	lbu	a6,-109(s0)
     b8c:	00381813          	slli	a6,a6,0x3
     b90:	00d80833          	add	a6,a6,a3
     b94:	00083803          	ld	a6,0(a6)
     b98:	0105c5b3          	xor	a1,a1,a6
     b9c:	00b54533          	xor	a0,a0,a1
     ba0:	faa43c23          	sd	a0,-72(s0)
     ba4:	f8843503          	ld	a0,-120(s0)
     ba8:	01053503          	ld	a0,16(a0)
     bac:	fa044583          	lbu	a1,-96(s0)
     bb0:	00359593          	slli	a1,a1,0x3
     bb4:	00c585b3          	add	a1,a1,a2
     bb8:	0005b583          	ld	a1,0(a1)
     bbc:	fa944803          	lbu	a6,-87(s0)
     bc0:	00381813          	slli	a6,a6,0x3
     bc4:	00f80833          	add	a6,a6,a5
     bc8:	00083803          	ld	a6,0(a6)
     bcc:	0105c5b3          	xor	a1,a1,a6
     bd0:	f9244803          	lbu	a6,-110(s0)
     bd4:	00381813          	slli	a6,a6,0x3
     bd8:	00e80833          	add	a6,a6,a4
     bdc:	00083803          	ld	a6,0(a6)
     be0:	0105c5b3          	xor	a1,a1,a6
     be4:	f9b44803          	lbu	a6,-101(s0)
     be8:	00381813          	slli	a6,a6,0x3
     bec:	00d80833          	add	a6,a6,a3
     bf0:	00083803          	ld	a6,0(a6)
     bf4:	0105c5b3          	xor	a1,a1,a6
     bf8:	00b54533          	xor	a0,a0,a1
     bfc:	fca43023          	sd	a0,-64(s0)
     c00:	f8843503          	ld	a0,-120(s0)
     c04:	01853503          	ld	a0,24(a0)
     c08:	fa844583          	lbu	a1,-88(s0)
     c0c:	00359593          	slli	a1,a1,0x3
     c10:	00c585b3          	add	a1,a1,a2
     c14:	0005b583          	ld	a1,0(a1)
     c18:	f9144803          	lbu	a6,-111(s0)
     c1c:	00381813          	slli	a6,a6,0x3
     c20:	00f80833          	add	a6,a6,a5
     c24:	00083803          	ld	a6,0(a6)
     c28:	0105c5b3          	xor	a1,a1,a6
     c2c:	f9a44803          	lbu	a6,-102(s0)
     c30:	00381813          	slli	a6,a6,0x3
     c34:	00e80833          	add	a6,a6,a4
     c38:	00083803          	ld	a6,0(a6)
     c3c:	0105c5b3          	xor	a1,a1,a6
     c40:	fa344803          	lbu	a6,-93(s0)
     c44:	00381813          	slli	a6,a6,0x3
     c48:	00d80833          	add	a6,a6,a3
     c4c:	00083803          	ld	a6,0(a6)
     c50:	0105c5b3          	xor	a1,a1,a6
     c54:	00b54533          	xor	a0,a0,a1
     c58:	fca43423          	sd	a0,-56(s0)
     c5c:	f8843503          	ld	a0,-120(s0)
     c60:	02053503          	ld	a0,32(a0)
     c64:	fb044583          	lbu	a1,-80(s0)
     c68:	00359593          	slli	a1,a1,0x3
     c6c:	00c585b3          	add	a1,a1,a2
     c70:	0005b583          	ld	a1,0(a1)
     c74:	fb944803          	lbu	a6,-71(s0)
     c78:	00381813          	slli	a6,a6,0x3
     c7c:	00f80833          	add	a6,a6,a5
     c80:	00083803          	ld	a6,0(a6)
     c84:	0105c5b3          	xor	a1,a1,a6
     c88:	fc244803          	lbu	a6,-62(s0)
     c8c:	00381813          	slli	a6,a6,0x3
     c90:	00e80833          	add	a6,a6,a4
     c94:	00083803          	ld	a6,0(a6)
     c98:	0105c5b3          	xor	a1,a1,a6
     c9c:	fcb44803          	lbu	a6,-53(s0)
     ca0:	00381813          	slli	a6,a6,0x3
     ca4:	00d80833          	add	a6,a6,a3
     ca8:	00083803          	ld	a6,0(a6)
     cac:	0105c5b3          	xor	a1,a1,a6
     cb0:	00b54533          	xor	a0,a0,a1
     cb4:	f8a43823          	sd	a0,-112(s0)
     cb8:	f8843503          	ld	a0,-120(s0)
     cbc:	02853503          	ld	a0,40(a0)
     cc0:	fb844583          	lbu	a1,-72(s0)
     cc4:	00359593          	slli	a1,a1,0x3
     cc8:	00c585b3          	add	a1,a1,a2
     ccc:	0005b583          	ld	a1,0(a1)
     cd0:	fc144803          	lbu	a6,-63(s0)
     cd4:	00381813          	slli	a6,a6,0x3
     cd8:	00f80833          	add	a6,a6,a5
     cdc:	00083803          	ld	a6,0(a6)
     ce0:	0105c5b3          	xor	a1,a1,a6
     ce4:	fca44803          	lbu	a6,-54(s0)
     ce8:	00381813          	slli	a6,a6,0x3
     cec:	00e80833          	add	a6,a6,a4
     cf0:	00083803          	ld	a6,0(a6)
     cf4:	0105c5b3          	xor	a1,a1,a6
     cf8:	fb344803          	lbu	a6,-77(s0)
     cfc:	00381813          	slli	a6,a6,0x3
     d00:	00d80833          	add	a6,a6,a3
     d04:	00083803          	ld	a6,0(a6)
     d08:	0105c5b3          	xor	a1,a1,a6
     d0c:	00b54533          	xor	a0,a0,a1
     d10:	f8a43c23          	sd	a0,-104(s0)
     d14:	f8843503          	ld	a0,-120(s0)
     d18:	03053503          	ld	a0,48(a0)
     d1c:	fc044583          	lbu	a1,-64(s0)
     d20:	00359593          	slli	a1,a1,0x3
     d24:	00c585b3          	add	a1,a1,a2
     d28:	0005b583          	ld	a1,0(a1)
     d2c:	fc944803          	lbu	a6,-55(s0)
     d30:	00381813          	slli	a6,a6,0x3
     d34:	00f80833          	add	a6,a6,a5
     d38:	00083803          	ld	a6,0(a6)
     d3c:	0105c5b3          	xor	a1,a1,a6
     d40:	fb244803          	lbu	a6,-78(s0)
     d44:	00381813          	slli	a6,a6,0x3
     d48:	00e80833          	add	a6,a6,a4
     d4c:	00083803          	ld	a6,0(a6)
     d50:	0105c5b3          	xor	a1,a1,a6
     d54:	fbb44803          	lbu	a6,-69(s0)
     d58:	00381813          	slli	a6,a6,0x3
     d5c:	00d80833          	add	a6,a6,a3
     d60:	00083803          	ld	a6,0(a6)
     d64:	0105c5b3          	xor	a1,a1,a6
     d68:	00b54533          	xor	a0,a0,a1
     d6c:	faa43023          	sd	a0,-96(s0)
     d70:	f8843503          	ld	a0,-120(s0)
     d74:	03853503          	ld	a0,56(a0)
     d78:	fc844583          	lbu	a1,-56(s0)
     d7c:	00359593          	slli	a1,a1,0x3
     d80:	00c585b3          	add	a1,a1,a2
     d84:	0005b583          	ld	a1,0(a1)
     d88:	fb144603          	lbu	a2,-79(s0)
     d8c:	00361613          	slli	a2,a2,0x3
     d90:	00f60633          	add	a2,a2,a5
     d94:	00063603          	ld	a2,0(a2)
     d98:	00c5c5b3          	xor	a1,a1,a2
     d9c:	fba44603          	lbu	a2,-70(s0)
     da0:	00361613          	slli	a2,a2,0x3
     da4:	00e60633          	add	a2,a2,a4
     da8:	00063603          	ld	a2,0(a2)
     dac:	00c5c5b3          	xor	a1,a1,a2
     db0:	fc344603          	lbu	a2,-61(s0)
     db4:	00361613          	slli	a2,a2,0x3
     db8:	00d60633          	add	a2,a2,a3
     dbc:	00063603          	ld	a2,0(a2)
     dc0:	00c5c5b3          	xor	a1,a1,a2
     dc4:	00b54533          	xor	a0,a0,a1
     dc8:	faa43423          	sd	a0,-88(s0)
     dcc:	f8843503          	ld	a0,-120(s0)
     dd0:	04050513          	addi	a0,a0,64
     dd4:	f8a43423          	sd	a0,-120(s0)
     dd8:	0000006f          	jal	zero,dd8 <.LBB1_5+0x320>

0000000000000ddc <.LBB1_6>:
     ddc:	f8843503          	ld	a0,-120(s0)
     de0:	00053503          	ld	a0,0(a0)
     de4:	f9044583          	lbu	a1,-112(s0)
     de8:	00359593          	slli	a1,a1,0x3
     dec:	00000637          	lui	a2,0x0
     df0:	00060613          	addi	a2,a2,0 # 0 <set_key>
     df4:	f4c43023          	sd	a2,-192(s0)
     df8:	00c585b3          	add	a1,a1,a2
     dfc:	0005b583          	ld	a1,0(a1)
     e00:	f9944683          	lbu	a3,-103(s0)
     e04:	00369693          	slli	a3,a3,0x3
     e08:	40060713          	addi	a4,a2,1024
     e0c:	40070793          	addi	a5,a4,1024 # 1400 <.LBB1_7+0x300>
     e10:	f4f43423          	sd	a5,-184(s0)
     e14:	00f686b3          	add	a3,a3,a5
     e18:	0006b683          	ld	a3,0(a3) # 2000 <decrypt+0x4>
     e1c:	00d5c5b3          	xor	a1,a1,a3
     e20:	fa244683          	lbu	a3,-94(s0)
     e24:	00369693          	slli	a3,a3,0x3
     e28:	00001737          	lui	a4,0x1
     e2c:	00e60733          	add	a4,a2,a4
     e30:	f4e43823          	sd	a4,-176(s0)
     e34:	00e686b3          	add	a3,a3,a4
     e38:	0006b683          	ld	a3,0(a3)
     e3c:	00d5c5b3          	xor	a1,a1,a3
     e40:	fab44683          	lbu	a3,-85(s0)
     e44:	00369813          	slli	a6,a3,0x3
     e48:	000026b7          	lui	a3,0x2
     e4c:	8006869b          	addiw	a3,a3,-2048
     e50:	00d606b3          	add	a3,a2,a3
     e54:	f4d43c23          	sd	a3,-168(s0)
     e58:	00d80833          	add	a6,a6,a3
     e5c:	00083803          	ld	a6,0(a6)
     e60:	0105c5b3          	xor	a1,a1,a6
     e64:	00b54533          	xor	a0,a0,a1
     e68:	faa43823          	sd	a0,-80(s0)
     e6c:	f8843503          	ld	a0,-120(s0)
     e70:	00853503          	ld	a0,8(a0)
     e74:	f9844583          	lbu	a1,-104(s0)
     e78:	00359593          	slli	a1,a1,0x3
     e7c:	00c585b3          	add	a1,a1,a2
     e80:	0005b583          	ld	a1,0(a1)
     e84:	fa144803          	lbu	a6,-95(s0)
     e88:	00381813          	slli	a6,a6,0x3
     e8c:	00f80833          	add	a6,a6,a5
     e90:	00083803          	ld	a6,0(a6)
     e94:	0105c5b3          	xor	a1,a1,a6
     e98:	faa44803          	lbu	a6,-86(s0)
     e9c:	00381813          	slli	a6,a6,0x3
     ea0:	00e80833          	add	a6,a6,a4
     ea4:	00083803          	ld	a6,0(a6)
     ea8:	0105c5b3          	xor	a1,a1,a6
     eac:	f9344803          	lbu	a6,-109(s0)
     eb0:	00381813          	slli	a6,a6,0x3
     eb4:	00d80833          	add	a6,a6,a3
     eb8:	00083803          	ld	a6,0(a6)
     ebc:	0105c5b3          	xor	a1,a1,a6
     ec0:	00b54533          	xor	a0,a0,a1
     ec4:	faa43c23          	sd	a0,-72(s0)
     ec8:	f8843503          	ld	a0,-120(s0)
     ecc:	01053503          	ld	a0,16(a0)
     ed0:	fa044583          	lbu	a1,-96(s0)
     ed4:	00359593          	slli	a1,a1,0x3
     ed8:	00c585b3          	add	a1,a1,a2
     edc:	0005b583          	ld	a1,0(a1)
     ee0:	fa944803          	lbu	a6,-87(s0)
     ee4:	00381813          	slli	a6,a6,0x3
     ee8:	00f80833          	add	a6,a6,a5
     eec:	00083803          	ld	a6,0(a6)
     ef0:	0105c5b3          	xor	a1,a1,a6
     ef4:	f9244803          	lbu	a6,-110(s0)
     ef8:	00381813          	slli	a6,a6,0x3
     efc:	00e80833          	add	a6,a6,a4
     f00:	00083803          	ld	a6,0(a6)
     f04:	0105c5b3          	xor	a1,a1,a6
     f08:	f9b44803          	lbu	a6,-101(s0)
     f0c:	00381813          	slli	a6,a6,0x3
     f10:	00d80833          	add	a6,a6,a3
     f14:	00083803          	ld	a6,0(a6)
     f18:	0105c5b3          	xor	a1,a1,a6
     f1c:	00b54533          	xor	a0,a0,a1
     f20:	fca43023          	sd	a0,-64(s0)
     f24:	f8843503          	ld	a0,-120(s0)
     f28:	01853503          	ld	a0,24(a0)
     f2c:	fa844583          	lbu	a1,-88(s0)
     f30:	00359593          	slli	a1,a1,0x3
     f34:	00c585b3          	add	a1,a1,a2
     f38:	0005b583          	ld	a1,0(a1)
     f3c:	f9144803          	lbu	a6,-111(s0)
     f40:	00381813          	slli	a6,a6,0x3
     f44:	00f80833          	add	a6,a6,a5
     f48:	00083803          	ld	a6,0(a6)
     f4c:	0105c5b3          	xor	a1,a1,a6
     f50:	f9a44803          	lbu	a6,-102(s0)
     f54:	00381813          	slli	a6,a6,0x3
     f58:	00e80833          	add	a6,a6,a4
     f5c:	00083803          	ld	a6,0(a6)
     f60:	0105c5b3          	xor	a1,a1,a6
     f64:	fa344803          	lbu	a6,-93(s0)
     f68:	00381813          	slli	a6,a6,0x3
     f6c:	00d80833          	add	a6,a6,a3
     f70:	00083803          	ld	a6,0(a6)
     f74:	0105c5b3          	xor	a1,a1,a6
     f78:	00b54533          	xor	a0,a0,a1
     f7c:	fca43423          	sd	a0,-56(s0)
     f80:	f8843503          	ld	a0,-120(s0)
     f84:	02053503          	ld	a0,32(a0)
     f88:	fb044583          	lbu	a1,-80(s0)
     f8c:	00359593          	slli	a1,a1,0x3
     f90:	00c585b3          	add	a1,a1,a2
     f94:	0005b583          	ld	a1,0(a1)
     f98:	fb944803          	lbu	a6,-71(s0)
     f9c:	00381813          	slli	a6,a6,0x3
     fa0:	00f80833          	add	a6,a6,a5
     fa4:	00083803          	ld	a6,0(a6)
     fa8:	0105c5b3          	xor	a1,a1,a6
     fac:	fc244803          	lbu	a6,-62(s0)
     fb0:	00381813          	slli	a6,a6,0x3
     fb4:	00e80833          	add	a6,a6,a4
     fb8:	00083803          	ld	a6,0(a6)
     fbc:	0105c5b3          	xor	a1,a1,a6
     fc0:	fcb44803          	lbu	a6,-53(s0)
     fc4:	00381813          	slli	a6,a6,0x3
     fc8:	00d80833          	add	a6,a6,a3
     fcc:	00083803          	ld	a6,0(a6)
     fd0:	0105c5b3          	xor	a1,a1,a6
     fd4:	00b54533          	xor	a0,a0,a1
     fd8:	f8a43823          	sd	a0,-112(s0)
     fdc:	f8843503          	ld	a0,-120(s0)
     fe0:	02853503          	ld	a0,40(a0)
     fe4:	fb844583          	lbu	a1,-72(s0)
     fe8:	00359593          	slli	a1,a1,0x3
     fec:	00c585b3          	add	a1,a1,a2
     ff0:	0005b583          	ld	a1,0(a1)
     ff4:	fc144803          	lbu	a6,-63(s0)
     ff8:	00381813          	slli	a6,a6,0x3
     ffc:	00f80833          	add	a6,a6,a5
    1000:	00083803          	ld	a6,0(a6)
    1004:	0105c5b3          	xor	a1,a1,a6
    1008:	fca44803          	lbu	a6,-54(s0)
    100c:	00381813          	slli	a6,a6,0x3
    1010:	00e80833          	add	a6,a6,a4
    1014:	00083803          	ld	a6,0(a6)
    1018:	0105c5b3          	xor	a1,a1,a6
    101c:	fb344803          	lbu	a6,-77(s0)
    1020:	00381813          	slli	a6,a6,0x3
    1024:	00d80833          	add	a6,a6,a3
    1028:	00083803          	ld	a6,0(a6)
    102c:	0105c5b3          	xor	a1,a1,a6
    1030:	00b54533          	xor	a0,a0,a1
    1034:	f8a43c23          	sd	a0,-104(s0)
    1038:	f8843503          	ld	a0,-120(s0)
    103c:	03053503          	ld	a0,48(a0)
    1040:	fc044583          	lbu	a1,-64(s0)
    1044:	00359593          	slli	a1,a1,0x3
    1048:	00c585b3          	add	a1,a1,a2
    104c:	0005b583          	ld	a1,0(a1)
    1050:	fc944803          	lbu	a6,-55(s0)
    1054:	00381813          	slli	a6,a6,0x3
    1058:	00f80833          	add	a6,a6,a5
    105c:	00083803          	ld	a6,0(a6)
    1060:	0105c5b3          	xor	a1,a1,a6
    1064:	fb244803          	lbu	a6,-78(s0)
    1068:	00381813          	slli	a6,a6,0x3
    106c:	00e80833          	add	a6,a6,a4
    1070:	00083803          	ld	a6,0(a6)
    1074:	0105c5b3          	xor	a1,a1,a6
    1078:	fbb44803          	lbu	a6,-69(s0)
    107c:	00381813          	slli	a6,a6,0x3
    1080:	00d80833          	add	a6,a6,a3
    1084:	00083803          	ld	a6,0(a6)
    1088:	0105c5b3          	xor	a1,a1,a6
    108c:	00b54533          	xor	a0,a0,a1
    1090:	faa43023          	sd	a0,-96(s0)
    1094:	f8843503          	ld	a0,-120(s0)
    1098:	03853503          	ld	a0,56(a0)
    109c:	fc844583          	lbu	a1,-56(s0)
    10a0:	00359593          	slli	a1,a1,0x3
    10a4:	00c585b3          	add	a1,a1,a2
    10a8:	0005b583          	ld	a1,0(a1)
    10ac:	fb144603          	lbu	a2,-79(s0)
    10b0:	00361613          	slli	a2,a2,0x3
    10b4:	00f60633          	add	a2,a2,a5
    10b8:	00063603          	ld	a2,0(a2)
    10bc:	00c5c5b3          	xor	a1,a1,a2
    10c0:	fba44603          	lbu	a2,-70(s0)
    10c4:	00361613          	slli	a2,a2,0x3
    10c8:	00e60633          	add	a2,a2,a4
    10cc:	00063603          	ld	a2,0(a2)
    10d0:	00c5c5b3          	xor	a1,a1,a2
    10d4:	fc344603          	lbu	a2,-61(s0)
    10d8:	00361613          	slli	a2,a2,0x3
    10dc:	00d60633          	add	a2,a2,a3
    10e0:	00063603          	ld	a2,0(a2)
    10e4:	00c5c5b3          	xor	a1,a1,a2
    10e8:	00b54533          	xor	a0,a0,a1
    10ec:	faa43423          	sd	a0,-88(s0)
    10f0:	f8843503          	ld	a0,-120(s0)
    10f4:	04050513          	addi	a0,a0,64
    10f8:	f8a43423          	sd	a0,-120(s0)
    10fc:	0000006f          	jal	zero,10fc <.LBB1_6+0x320>

0000000000001100 <.LBB1_7>:
    1100:	f8843503          	ld	a0,-120(s0)
    1104:	00053503          	ld	a0,0(a0)
    1108:	f9044583          	lbu	a1,-112(s0)
    110c:	00359593          	slli	a1,a1,0x3
    1110:	00000637          	lui	a2,0x0
    1114:	00060613          	addi	a2,a2,0 # 0 <set_key>
    1118:	f2c43023          	sd	a2,-224(s0)
    111c:	00c585b3          	add	a1,a1,a2
    1120:	0005b583          	ld	a1,0(a1)
    1124:	f9944683          	lbu	a3,-103(s0)
    1128:	00369693          	slli	a3,a3,0x3
    112c:	00001737          	lui	a4,0x1
    1130:	8007079b          	addiw	a5,a4,-2048
    1134:	00f602b3          	add	t0,a2,a5
    1138:	f2543423          	sd	t0,-216(s0)
    113c:	005686b3          	add	a3,a3,t0
    1140:	0006b683          	ld	a3,0(a3) # 2000 <decrypt+0x4>
    1144:	00d5c5b3          	xor	a1,a1,a3
    1148:	fa244683          	lbu	a3,-94(s0)
    114c:	00369693          	slli	a3,a3,0x3
    1150:	00e608b3          	add	a7,a2,a4
    1154:	f3143823          	sd	a7,-208(s0)
    1158:	011686b3          	add	a3,a3,a7
    115c:	0006b683          	ld	a3,0(a3)
    1160:	00d5c5b3          	xor	a1,a1,a3
    1164:	fab44683          	lbu	a3,-85(s0)
    1168:	00369313          	slli	t1,a3,0x3
    116c:	000026b7          	lui	a3,0x2
    1170:	8006869b          	addiw	a3,a3,-2048
    1174:	00d60833          	add	a6,a2,a3
    1178:	f3043c23          	sd	a6,-200(s0)
    117c:	01030333          	add	t1,t1,a6
    1180:	00033303          	ld	t1,0(t1)
    1184:	0065c5b3          	xor	a1,a1,t1
    1188:	00b54533          	xor	a0,a0,a1
    118c:	faa43823          	sd	a0,-80(s0)
    1190:	f8843503          	ld	a0,-120(s0)
    1194:	00853503          	ld	a0,8(a0)
    1198:	f9844583          	lbu	a1,-104(s0)
    119c:	00359593          	slli	a1,a1,0x3
    11a0:	00c585b3          	add	a1,a1,a2
    11a4:	0005b583          	ld	a1,0(a1)
    11a8:	fa144303          	lbu	t1,-95(s0)
    11ac:	00331313          	slli	t1,t1,0x3
    11b0:	00530333          	add	t1,t1,t0
    11b4:	00033303          	ld	t1,0(t1)
    11b8:	0065c5b3          	xor	a1,a1,t1
    11bc:	faa44303          	lbu	t1,-86(s0)
    11c0:	00331313          	slli	t1,t1,0x3
    11c4:	01130333          	add	t1,t1,a7
    11c8:	00033303          	ld	t1,0(t1)
    11cc:	0065c5b3          	xor	a1,a1,t1
    11d0:	f9344303          	lbu	t1,-109(s0)
    11d4:	00331313          	slli	t1,t1,0x3
    11d8:	01030333          	add	t1,t1,a6
    11dc:	00033303          	ld	t1,0(t1)
    11e0:	0065c5b3          	xor	a1,a1,t1
    11e4:	00b54533          	xor	a0,a0,a1
    11e8:	faa43c23          	sd	a0,-72(s0)
    11ec:	f8843503          	ld	a0,-120(s0)
    11f0:	01053503          	ld	a0,16(a0)
    11f4:	fa044583          	lbu	a1,-96(s0)
    11f8:	00359593          	slli	a1,a1,0x3
    11fc:	00c585b3          	add	a1,a1,a2
    1200:	0005b583          	ld	a1,0(a1)
    1204:	fa944303          	lbu	t1,-87(s0)
    1208:	00331313          	slli	t1,t1,0x3
    120c:	00530333          	add	t1,t1,t0
    1210:	00033303          	ld	t1,0(t1)
    1214:	0065c5b3          	xor	a1,a1,t1
    1218:	f9244303          	lbu	t1,-110(s0)
    121c:	00331313          	slli	t1,t1,0x3
    1220:	01130333          	add	t1,t1,a7
    1224:	00033303          	ld	t1,0(t1)
    1228:	0065c5b3          	xor	a1,a1,t1
    122c:	f9b44303          	lbu	t1,-101(s0)
    1230:	00331313          	slli	t1,t1,0x3
    1234:	01030333          	add	t1,t1,a6
    1238:	00033303          	ld	t1,0(t1)
    123c:	0065c5b3          	xor	a1,a1,t1
    1240:	00b54533          	xor	a0,a0,a1
    1244:	fca43023          	sd	a0,-64(s0)
    1248:	f8843503          	ld	a0,-120(s0)
    124c:	01853503          	ld	a0,24(a0)
    1250:	fa844583          	lbu	a1,-88(s0)
    1254:	00359593          	slli	a1,a1,0x3
    1258:	00c585b3          	add	a1,a1,a2
    125c:	0005b583          	ld	a1,0(a1)
    1260:	f9144303          	lbu	t1,-111(s0)
    1264:	00331313          	slli	t1,t1,0x3
    1268:	00530333          	add	t1,t1,t0
    126c:	00033303          	ld	t1,0(t1)
    1270:	0065c5b3          	xor	a1,a1,t1
    1274:	f9a44303          	lbu	t1,-102(s0)
    1278:	00331313          	slli	t1,t1,0x3
    127c:	01130333          	add	t1,t1,a7
    1280:	00033303          	ld	t1,0(t1)
    1284:	0065c5b3          	xor	a1,a1,t1
    1288:	fa344303          	lbu	t1,-93(s0)
    128c:	00331313          	slli	t1,t1,0x3
    1290:	01030333          	add	t1,t1,a6
    1294:	00033303          	ld	t1,0(t1)
    1298:	0065c5b3          	xor	a1,a1,t1
    129c:	00b54533          	xor	a0,a0,a1
    12a0:	fca43423          	sd	a0,-56(s0)
    12a4:	f8843503          	ld	a0,-120(s0)
    12a8:	02053503          	ld	a0,32(a0)
    12ac:	fb044583          	lbu	a1,-80(s0)
    12b0:	00359593          	slli	a1,a1,0x3
    12b4:	00c585b3          	add	a1,a1,a2
    12b8:	0005b583          	ld	a1,0(a1)
    12bc:	fb944303          	lbu	t1,-71(s0)
    12c0:	00331313          	slli	t1,t1,0x3
    12c4:	00530333          	add	t1,t1,t0
    12c8:	00033303          	ld	t1,0(t1)
    12cc:	0065c5b3          	xor	a1,a1,t1
    12d0:	fc244303          	lbu	t1,-62(s0)
    12d4:	00331313          	slli	t1,t1,0x3
    12d8:	01130333          	add	t1,t1,a7
    12dc:	00033303          	ld	t1,0(t1)
    12e0:	0065c5b3          	xor	a1,a1,t1
    12e4:	fcb44303          	lbu	t1,-53(s0)
    12e8:	00331313          	slli	t1,t1,0x3
    12ec:	01030333          	add	t1,t1,a6
    12f0:	00033303          	ld	t1,0(t1)
    12f4:	0065c5b3          	xor	a1,a1,t1
    12f8:	00b54533          	xor	a0,a0,a1
    12fc:	f8a43823          	sd	a0,-112(s0)
    1300:	f8843503          	ld	a0,-120(s0)
    1304:	02853503          	ld	a0,40(a0)
    1308:	fb844583          	lbu	a1,-72(s0)
    130c:	00359593          	slli	a1,a1,0x3
    1310:	00c585b3          	add	a1,a1,a2
    1314:	0005b583          	ld	a1,0(a1)
    1318:	fc144303          	lbu	t1,-63(s0)
    131c:	00331313          	slli	t1,t1,0x3
    1320:	00530333          	add	t1,t1,t0
    1324:	00033303          	ld	t1,0(t1)
    1328:	0065c5b3          	xor	a1,a1,t1
    132c:	fca44303          	lbu	t1,-54(s0)
    1330:	00331313          	slli	t1,t1,0x3
    1334:	01130333          	add	t1,t1,a7
    1338:	00033303          	ld	t1,0(t1)
    133c:	0065c5b3          	xor	a1,a1,t1
    1340:	fb344303          	lbu	t1,-77(s0)
    1344:	00331313          	slli	t1,t1,0x3
    1348:	01030333          	add	t1,t1,a6
    134c:	00033303          	ld	t1,0(t1)
    1350:	0065c5b3          	xor	a1,a1,t1
    1354:	00b54533          	xor	a0,a0,a1
    1358:	f8a43c23          	sd	a0,-104(s0)
    135c:	f8843503          	ld	a0,-120(s0)
    1360:	03053503          	ld	a0,48(a0)
    1364:	fc044583          	lbu	a1,-64(s0)
    1368:	00359593          	slli	a1,a1,0x3
    136c:	00c585b3          	add	a1,a1,a2
    1370:	0005b583          	ld	a1,0(a1)
    1374:	fc944303          	lbu	t1,-55(s0)
    1378:	00331313          	slli	t1,t1,0x3
    137c:	00530333          	add	t1,t1,t0
    1380:	00033303          	ld	t1,0(t1)
    1384:	0065c5b3          	xor	a1,a1,t1
    1388:	fb244303          	lbu	t1,-78(s0)
    138c:	00331313          	slli	t1,t1,0x3
    1390:	01130333          	add	t1,t1,a7
    1394:	00033303          	ld	t1,0(t1)
    1398:	0065c5b3          	xor	a1,a1,t1
    139c:	fbb44303          	lbu	t1,-69(s0)
    13a0:	00331313          	slli	t1,t1,0x3
    13a4:	01030333          	add	t1,t1,a6
    13a8:	00033303          	ld	t1,0(t1)
    13ac:	0065c5b3          	xor	a1,a1,t1
    13b0:	00b54533          	xor	a0,a0,a1
    13b4:	faa43023          	sd	a0,-96(s0)
    13b8:	f8843503          	ld	a0,-120(s0)
    13bc:	03853503          	ld	a0,56(a0)
    13c0:	fc844583          	lbu	a1,-56(s0)
    13c4:	00359593          	slli	a1,a1,0x3
    13c8:	00c585b3          	add	a1,a1,a2
    13cc:	0005b583          	ld	a1,0(a1)
    13d0:	fb144303          	lbu	t1,-79(s0)
    13d4:	00331313          	slli	t1,t1,0x3
    13d8:	00530333          	add	t1,t1,t0
    13dc:	00033303          	ld	t1,0(t1)
    13e0:	0065c5b3          	xor	a1,a1,t1
    13e4:	fba44303          	lbu	t1,-70(s0)
    13e8:	00331313          	slli	t1,t1,0x3
    13ec:	01130333          	add	t1,t1,a7
    13f0:	00033303          	ld	t1,0(t1)
    13f4:	0065c5b3          	xor	a1,a1,t1
    13f8:	fc344303          	lbu	t1,-61(s0)
    13fc:	00331313          	slli	t1,t1,0x3
    1400:	01030333          	add	t1,t1,a6
    1404:	00033303          	ld	t1,0(t1)
    1408:	0065c5b3          	xor	a1,a1,t1
    140c:	00b54533          	xor	a0,a0,a1
    1410:	faa43423          	sd	a0,-88(s0)
    1414:	f8843503          	ld	a0,-120(s0)
    1418:	04053503          	ld	a0,64(a0)
    141c:	f9044583          	lbu	a1,-112(s0)
    1420:	00359593          	slli	a1,a1,0x3
    1424:	00c585b3          	add	a1,a1,a2
    1428:	0005b583          	ld	a1,0(a1)
    142c:	f9944303          	lbu	t1,-103(s0)
    1430:	00331313          	slli	t1,t1,0x3
    1434:	00530333          	add	t1,t1,t0
    1438:	00033303          	ld	t1,0(t1)
    143c:	0065c5b3          	xor	a1,a1,t1
    1440:	fa244303          	lbu	t1,-94(s0)
    1444:	00331313          	slli	t1,t1,0x3
    1448:	01130333          	add	t1,t1,a7
    144c:	00033303          	ld	t1,0(t1)
    1450:	0065c5b3          	xor	a1,a1,t1
    1454:	fab44303          	lbu	t1,-85(s0)
    1458:	00331313          	slli	t1,t1,0x3
    145c:	01030333          	add	t1,t1,a6
    1460:	00033303          	ld	t1,0(t1)
    1464:	0065c5b3          	xor	a1,a1,t1
    1468:	00b54533          	xor	a0,a0,a1
    146c:	faa43823          	sd	a0,-80(s0)
    1470:	f8843503          	ld	a0,-120(s0)
    1474:	04853503          	ld	a0,72(a0)
    1478:	f9844583          	lbu	a1,-104(s0)
    147c:	00359593          	slli	a1,a1,0x3
    1480:	00c585b3          	add	a1,a1,a2
    1484:	0005b583          	ld	a1,0(a1)
    1488:	fa144303          	lbu	t1,-95(s0)
    148c:	00331313          	slli	t1,t1,0x3
    1490:	00530333          	add	t1,t1,t0
    1494:	00033303          	ld	t1,0(t1)
    1498:	0065c5b3          	xor	a1,a1,t1
    149c:	faa44303          	lbu	t1,-86(s0)
    14a0:	00331313          	slli	t1,t1,0x3
    14a4:	01130333          	add	t1,t1,a7
    14a8:	00033303          	ld	t1,0(t1)
    14ac:	0065c5b3          	xor	a1,a1,t1
    14b0:	f9344303          	lbu	t1,-109(s0)
    14b4:	00331313          	slli	t1,t1,0x3
    14b8:	01030333          	add	t1,t1,a6
    14bc:	00033303          	ld	t1,0(t1)
    14c0:	0065c5b3          	xor	a1,a1,t1
    14c4:	00b54533          	xor	a0,a0,a1
    14c8:	faa43c23          	sd	a0,-72(s0)
    14cc:	f8843503          	ld	a0,-120(s0)
    14d0:	05053503          	ld	a0,80(a0)
    14d4:	fa044583          	lbu	a1,-96(s0)
    14d8:	00359593          	slli	a1,a1,0x3
    14dc:	00c585b3          	add	a1,a1,a2
    14e0:	0005b583          	ld	a1,0(a1)
    14e4:	fa944303          	lbu	t1,-87(s0)
    14e8:	00331313          	slli	t1,t1,0x3
    14ec:	00530333          	add	t1,t1,t0
    14f0:	00033303          	ld	t1,0(t1)
    14f4:	0065c5b3          	xor	a1,a1,t1
    14f8:	f9244303          	lbu	t1,-110(s0)
    14fc:	00331313          	slli	t1,t1,0x3
    1500:	01130333          	add	t1,t1,a7
    1504:	00033303          	ld	t1,0(t1)
    1508:	0065c5b3          	xor	a1,a1,t1
    150c:	f9b44303          	lbu	t1,-101(s0)
    1510:	00331313          	slli	t1,t1,0x3
    1514:	01030333          	add	t1,t1,a6
    1518:	00033303          	ld	t1,0(t1)
    151c:	0065c5b3          	xor	a1,a1,t1
    1520:	00b54533          	xor	a0,a0,a1
    1524:	fca43023          	sd	a0,-64(s0)
    1528:	f8843503          	ld	a0,-120(s0)
    152c:	05853503          	ld	a0,88(a0)
    1530:	fa844583          	lbu	a1,-88(s0)
    1534:	00359593          	slli	a1,a1,0x3
    1538:	00c585b3          	add	a1,a1,a2
    153c:	0005b583          	ld	a1,0(a1)
    1540:	f9144303          	lbu	t1,-111(s0)
    1544:	00331313          	slli	t1,t1,0x3
    1548:	00530333          	add	t1,t1,t0
    154c:	00033303          	ld	t1,0(t1)
    1550:	0065c5b3          	xor	a1,a1,t1
    1554:	f9a44303          	lbu	t1,-102(s0)
    1558:	00331313          	slli	t1,t1,0x3
    155c:	01130333          	add	t1,t1,a7
    1560:	00033303          	ld	t1,0(t1)
    1564:	0065c5b3          	xor	a1,a1,t1
    1568:	fa344303          	lbu	t1,-93(s0)
    156c:	00331313          	slli	t1,t1,0x3
    1570:	01030333          	add	t1,t1,a6
    1574:	00033303          	ld	t1,0(t1)
    1578:	0065c5b3          	xor	a1,a1,t1
    157c:	00b54533          	xor	a0,a0,a1
    1580:	fca43423          	sd	a0,-56(s0)
    1584:	f8843503          	ld	a0,-120(s0)
    1588:	06053503          	ld	a0,96(a0)
    158c:	fb044583          	lbu	a1,-80(s0)
    1590:	00359593          	slli	a1,a1,0x3
    1594:	00c585b3          	add	a1,a1,a2
    1598:	0005b583          	ld	a1,0(a1)
    159c:	fb944303          	lbu	t1,-71(s0)
    15a0:	00331313          	slli	t1,t1,0x3
    15a4:	00530333          	add	t1,t1,t0
    15a8:	00033303          	ld	t1,0(t1)
    15ac:	0065c5b3          	xor	a1,a1,t1
    15b0:	fc244303          	lbu	t1,-62(s0)
    15b4:	00331313          	slli	t1,t1,0x3
    15b8:	01130333          	add	t1,t1,a7
    15bc:	00033303          	ld	t1,0(t1)
    15c0:	0065c5b3          	xor	a1,a1,t1
    15c4:	fcb44303          	lbu	t1,-53(s0)
    15c8:	00331313          	slli	t1,t1,0x3
    15cc:	01030333          	add	t1,t1,a6
    15d0:	00033303          	ld	t1,0(t1)
    15d4:	0065c5b3          	xor	a1,a1,t1
    15d8:	00b54533          	xor	a0,a0,a1
    15dc:	f8a43823          	sd	a0,-112(s0)
    15e0:	f8843503          	ld	a0,-120(s0)
    15e4:	06853503          	ld	a0,104(a0)
    15e8:	fb844583          	lbu	a1,-72(s0)
    15ec:	00359593          	slli	a1,a1,0x3
    15f0:	00c585b3          	add	a1,a1,a2
    15f4:	0005b583          	ld	a1,0(a1)
    15f8:	fc144303          	lbu	t1,-63(s0)
    15fc:	00331313          	slli	t1,t1,0x3
    1600:	00530333          	add	t1,t1,t0
    1604:	00033303          	ld	t1,0(t1)
    1608:	0065c5b3          	xor	a1,a1,t1
    160c:	fca44303          	lbu	t1,-54(s0)
    1610:	00331313          	slli	t1,t1,0x3
    1614:	01130333          	add	t1,t1,a7
    1618:	00033303          	ld	t1,0(t1)
    161c:	0065c5b3          	xor	a1,a1,t1
    1620:	fb344303          	lbu	t1,-77(s0)
    1624:	00331313          	slli	t1,t1,0x3
    1628:	01030333          	add	t1,t1,a6
    162c:	00033303          	ld	t1,0(t1)
    1630:	0065c5b3          	xor	a1,a1,t1
    1634:	00b54533          	xor	a0,a0,a1
    1638:	f8a43c23          	sd	a0,-104(s0)
    163c:	f8843503          	ld	a0,-120(s0)
    1640:	07053503          	ld	a0,112(a0)
    1644:	fc044583          	lbu	a1,-64(s0)
    1648:	00359593          	slli	a1,a1,0x3
    164c:	00c585b3          	add	a1,a1,a2
    1650:	0005b583          	ld	a1,0(a1)
    1654:	fc944303          	lbu	t1,-55(s0)
    1658:	00331313          	slli	t1,t1,0x3
    165c:	00530333          	add	t1,t1,t0
    1660:	00033303          	ld	t1,0(t1)
    1664:	0065c5b3          	xor	a1,a1,t1
    1668:	fb244303          	lbu	t1,-78(s0)
    166c:	00331313          	slli	t1,t1,0x3
    1670:	01130333          	add	t1,t1,a7
    1674:	00033303          	ld	t1,0(t1)
    1678:	0065c5b3          	xor	a1,a1,t1
    167c:	fbb44303          	lbu	t1,-69(s0)
    1680:	00331313          	slli	t1,t1,0x3
    1684:	01030333          	add	t1,t1,a6
    1688:	00033303          	ld	t1,0(t1)
    168c:	0065c5b3          	xor	a1,a1,t1
    1690:	00b54533          	xor	a0,a0,a1
    1694:	faa43023          	sd	a0,-96(s0)
    1698:	f8843503          	ld	a0,-120(s0)
    169c:	07853503          	ld	a0,120(a0)
    16a0:	fc844583          	lbu	a1,-56(s0)
    16a4:	00359593          	slli	a1,a1,0x3
    16a8:	00c585b3          	add	a1,a1,a2
    16ac:	0005b583          	ld	a1,0(a1)
    16b0:	fb144303          	lbu	t1,-79(s0)
    16b4:	00331313          	slli	t1,t1,0x3
    16b8:	00530333          	add	t1,t1,t0
    16bc:	00033303          	ld	t1,0(t1)
    16c0:	0065c5b3          	xor	a1,a1,t1
    16c4:	fba44303          	lbu	t1,-70(s0)
    16c8:	00331313          	slli	t1,t1,0x3
    16cc:	01130333          	add	t1,t1,a7
    16d0:	00033303          	ld	t1,0(t1)
    16d4:	0065c5b3          	xor	a1,a1,t1
    16d8:	fc344303          	lbu	t1,-61(s0)
    16dc:	00331313          	slli	t1,t1,0x3
    16e0:	01030333          	add	t1,t1,a6
    16e4:	00033303          	ld	t1,0(t1)
    16e8:	0065c5b3          	xor	a1,a1,t1
    16ec:	00b54533          	xor	a0,a0,a1
    16f0:	faa43423          	sd	a0,-88(s0)
    16f4:	f8843503          	ld	a0,-120(s0)
    16f8:	08053503          	ld	a0,128(a0)
    16fc:	f9044583          	lbu	a1,-112(s0)
    1700:	00359593          	slli	a1,a1,0x3
    1704:	00c585b3          	add	a1,a1,a2
    1708:	0005b583          	ld	a1,0(a1)
    170c:	f9944303          	lbu	t1,-103(s0)
    1710:	00331313          	slli	t1,t1,0x3
    1714:	00530333          	add	t1,t1,t0
    1718:	00033303          	ld	t1,0(t1)
    171c:	0065c5b3          	xor	a1,a1,t1
    1720:	fa244303          	lbu	t1,-94(s0)
    1724:	00331313          	slli	t1,t1,0x3
    1728:	01130333          	add	t1,t1,a7
    172c:	00033303          	ld	t1,0(t1)
    1730:	0065c5b3          	xor	a1,a1,t1
    1734:	fab44303          	lbu	t1,-85(s0)
    1738:	00331313          	slli	t1,t1,0x3
    173c:	01030333          	add	t1,t1,a6
    1740:	00033303          	ld	t1,0(t1)
    1744:	0065c5b3          	xor	a1,a1,t1
    1748:	00b54533          	xor	a0,a0,a1
    174c:	faa43823          	sd	a0,-80(s0)
    1750:	f8843503          	ld	a0,-120(s0)
    1754:	08853503          	ld	a0,136(a0)
    1758:	f9844583          	lbu	a1,-104(s0)
    175c:	00359593          	slli	a1,a1,0x3
    1760:	00c585b3          	add	a1,a1,a2
    1764:	0005b583          	ld	a1,0(a1)
    1768:	fa144303          	lbu	t1,-95(s0)
    176c:	00331313          	slli	t1,t1,0x3
    1770:	00530333          	add	t1,t1,t0
    1774:	00033303          	ld	t1,0(t1)
    1778:	0065c5b3          	xor	a1,a1,t1
    177c:	faa44303          	lbu	t1,-86(s0)
    1780:	00331313          	slli	t1,t1,0x3
    1784:	01130333          	add	t1,t1,a7
    1788:	00033303          	ld	t1,0(t1)
    178c:	0065c5b3          	xor	a1,a1,t1
    1790:	f9344303          	lbu	t1,-109(s0)
    1794:	00331313          	slli	t1,t1,0x3
    1798:	01030333          	add	t1,t1,a6
    179c:	00033303          	ld	t1,0(t1)
    17a0:	0065c5b3          	xor	a1,a1,t1
    17a4:	00b54533          	xor	a0,a0,a1
    17a8:	faa43c23          	sd	a0,-72(s0)
    17ac:	f8843503          	ld	a0,-120(s0)
    17b0:	09053503          	ld	a0,144(a0)
    17b4:	fa044583          	lbu	a1,-96(s0)
    17b8:	00359593          	slli	a1,a1,0x3
    17bc:	00c585b3          	add	a1,a1,a2
    17c0:	0005b583          	ld	a1,0(a1)
    17c4:	fa944303          	lbu	t1,-87(s0)
    17c8:	00331313          	slli	t1,t1,0x3
    17cc:	00530333          	add	t1,t1,t0
    17d0:	00033303          	ld	t1,0(t1)
    17d4:	0065c5b3          	xor	a1,a1,t1
    17d8:	f9244303          	lbu	t1,-110(s0)
    17dc:	00331313          	slli	t1,t1,0x3
    17e0:	01130333          	add	t1,t1,a7
    17e4:	00033303          	ld	t1,0(t1)
    17e8:	0065c5b3          	xor	a1,a1,t1
    17ec:	f9b44303          	lbu	t1,-101(s0)
    17f0:	00331313          	slli	t1,t1,0x3
    17f4:	01030333          	add	t1,t1,a6
    17f8:	00033303          	ld	t1,0(t1)
    17fc:	0065c5b3          	xor	a1,a1,t1
    1800:	00b54533          	xor	a0,a0,a1
    1804:	fca43023          	sd	a0,-64(s0)
    1808:	f8843503          	ld	a0,-120(s0)
    180c:	09853503          	ld	a0,152(a0)
    1810:	fa844583          	lbu	a1,-88(s0)
    1814:	00359593          	slli	a1,a1,0x3
    1818:	00c585b3          	add	a1,a1,a2
    181c:	0005b583          	ld	a1,0(a1)
    1820:	f9144303          	lbu	t1,-111(s0)
    1824:	00331313          	slli	t1,t1,0x3
    1828:	00530333          	add	t1,t1,t0
    182c:	00033303          	ld	t1,0(t1)
    1830:	0065c5b3          	xor	a1,a1,t1
    1834:	f9a44303          	lbu	t1,-102(s0)
    1838:	00331313          	slli	t1,t1,0x3
    183c:	01130333          	add	t1,t1,a7
    1840:	00033303          	ld	t1,0(t1)
    1844:	0065c5b3          	xor	a1,a1,t1
    1848:	fa344303          	lbu	t1,-93(s0)
    184c:	00331313          	slli	t1,t1,0x3
    1850:	01030333          	add	t1,t1,a6
    1854:	00033303          	ld	t1,0(t1)
    1858:	0065c5b3          	xor	a1,a1,t1
    185c:	00b54533          	xor	a0,a0,a1
    1860:	fca43423          	sd	a0,-56(s0)
    1864:	f8843503          	ld	a0,-120(s0)
    1868:	0a053503          	ld	a0,160(a0)
    186c:	fb044583          	lbu	a1,-80(s0)
    1870:	00359593          	slli	a1,a1,0x3
    1874:	00c585b3          	add	a1,a1,a2
    1878:	0005b583          	ld	a1,0(a1)
    187c:	fb944303          	lbu	t1,-71(s0)
    1880:	00331313          	slli	t1,t1,0x3
    1884:	00530333          	add	t1,t1,t0
    1888:	00033303          	ld	t1,0(t1)
    188c:	0065c5b3          	xor	a1,a1,t1
    1890:	fc244303          	lbu	t1,-62(s0)
    1894:	00331313          	slli	t1,t1,0x3
    1898:	01130333          	add	t1,t1,a7
    189c:	00033303          	ld	t1,0(t1)
    18a0:	0065c5b3          	xor	a1,a1,t1
    18a4:	fcb44303          	lbu	t1,-53(s0)
    18a8:	00331313          	slli	t1,t1,0x3
    18ac:	01030333          	add	t1,t1,a6
    18b0:	00033303          	ld	t1,0(t1)
    18b4:	0065c5b3          	xor	a1,a1,t1
    18b8:	00b54533          	xor	a0,a0,a1
    18bc:	f8a43823          	sd	a0,-112(s0)
    18c0:	f8843503          	ld	a0,-120(s0)
    18c4:	0a853503          	ld	a0,168(a0)
    18c8:	fb844583          	lbu	a1,-72(s0)
    18cc:	00359593          	slli	a1,a1,0x3
    18d0:	00c585b3          	add	a1,a1,a2
    18d4:	0005b583          	ld	a1,0(a1)
    18d8:	fc144303          	lbu	t1,-63(s0)
    18dc:	00331313          	slli	t1,t1,0x3
    18e0:	00530333          	add	t1,t1,t0
    18e4:	00033303          	ld	t1,0(t1)
    18e8:	0065c5b3          	xor	a1,a1,t1
    18ec:	fca44303          	lbu	t1,-54(s0)
    18f0:	00331313          	slli	t1,t1,0x3
    18f4:	01130333          	add	t1,t1,a7
    18f8:	00033303          	ld	t1,0(t1)
    18fc:	0065c5b3          	xor	a1,a1,t1
    1900:	fb344303          	lbu	t1,-77(s0)
    1904:	00331313          	slli	t1,t1,0x3
    1908:	01030333          	add	t1,t1,a6
    190c:	00033303          	ld	t1,0(t1)
    1910:	0065c5b3          	xor	a1,a1,t1
    1914:	00b54533          	xor	a0,a0,a1
    1918:	f8a43c23          	sd	a0,-104(s0)
    191c:	f8843503          	ld	a0,-120(s0)
    1920:	0b053503          	ld	a0,176(a0)
    1924:	fc044583          	lbu	a1,-64(s0)
    1928:	00359593          	slli	a1,a1,0x3
    192c:	00c585b3          	add	a1,a1,a2
    1930:	0005b583          	ld	a1,0(a1)
    1934:	fc944303          	lbu	t1,-55(s0)
    1938:	00331313          	slli	t1,t1,0x3
    193c:	00530333          	add	t1,t1,t0
    1940:	00033303          	ld	t1,0(t1)
    1944:	0065c5b3          	xor	a1,a1,t1
    1948:	fb244303          	lbu	t1,-78(s0)
    194c:	00331313          	slli	t1,t1,0x3
    1950:	01130333          	add	t1,t1,a7
    1954:	00033303          	ld	t1,0(t1)
    1958:	0065c5b3          	xor	a1,a1,t1
    195c:	fbb44303          	lbu	t1,-69(s0)
    1960:	00331313          	slli	t1,t1,0x3
    1964:	01030333          	add	t1,t1,a6
    1968:	00033303          	ld	t1,0(t1)
    196c:	0065c5b3          	xor	a1,a1,t1
    1970:	00b54533          	xor	a0,a0,a1
    1974:	faa43023          	sd	a0,-96(s0)
    1978:	f8843503          	ld	a0,-120(s0)
    197c:	0b853503          	ld	a0,184(a0)
    1980:	fc844583          	lbu	a1,-56(s0)
    1984:	00359593          	slli	a1,a1,0x3
    1988:	00c585b3          	add	a1,a1,a2
    198c:	0005b583          	ld	a1,0(a1)
    1990:	fb144303          	lbu	t1,-79(s0)
    1994:	00331313          	slli	t1,t1,0x3
    1998:	00530333          	add	t1,t1,t0
    199c:	00033303          	ld	t1,0(t1)
    19a0:	0065c5b3          	xor	a1,a1,t1
    19a4:	fba44303          	lbu	t1,-70(s0)
    19a8:	00331313          	slli	t1,t1,0x3
    19ac:	01130333          	add	t1,t1,a7
    19b0:	00033303          	ld	t1,0(t1)
    19b4:	0065c5b3          	xor	a1,a1,t1
    19b8:	fc344303          	lbu	t1,-61(s0)
    19bc:	00331313          	slli	t1,t1,0x3
    19c0:	01030333          	add	t1,t1,a6
    19c4:	00033303          	ld	t1,0(t1)
    19c8:	0065c5b3          	xor	a1,a1,t1
    19cc:	00b54533          	xor	a0,a0,a1
    19d0:	faa43423          	sd	a0,-88(s0)
    19d4:	f8843503          	ld	a0,-120(s0)
    19d8:	0c053503          	ld	a0,192(a0)
    19dc:	f9044583          	lbu	a1,-112(s0)
    19e0:	00359593          	slli	a1,a1,0x3
    19e4:	00c585b3          	add	a1,a1,a2
    19e8:	0005b583          	ld	a1,0(a1)
    19ec:	f9944303          	lbu	t1,-103(s0)
    19f0:	00331313          	slli	t1,t1,0x3
    19f4:	00530333          	add	t1,t1,t0
    19f8:	00033303          	ld	t1,0(t1)
    19fc:	0065c5b3          	xor	a1,a1,t1
    1a00:	fa244303          	lbu	t1,-94(s0)
    1a04:	00331313          	slli	t1,t1,0x3
    1a08:	01130333          	add	t1,t1,a7
    1a0c:	00033303          	ld	t1,0(t1)
    1a10:	0065c5b3          	xor	a1,a1,t1
    1a14:	fab44303          	lbu	t1,-85(s0)
    1a18:	00331313          	slli	t1,t1,0x3
    1a1c:	01030333          	add	t1,t1,a6
    1a20:	00033303          	ld	t1,0(t1)
    1a24:	0065c5b3          	xor	a1,a1,t1
    1a28:	00b54533          	xor	a0,a0,a1
    1a2c:	faa43823          	sd	a0,-80(s0)
    1a30:	f8843503          	ld	a0,-120(s0)
    1a34:	0c853503          	ld	a0,200(a0)
    1a38:	f9844583          	lbu	a1,-104(s0)
    1a3c:	00359593          	slli	a1,a1,0x3
    1a40:	00c585b3          	add	a1,a1,a2
    1a44:	0005b583          	ld	a1,0(a1)
    1a48:	fa144303          	lbu	t1,-95(s0)
    1a4c:	00331313          	slli	t1,t1,0x3
    1a50:	00530333          	add	t1,t1,t0
    1a54:	00033303          	ld	t1,0(t1)
    1a58:	0065c5b3          	xor	a1,a1,t1
    1a5c:	faa44303          	lbu	t1,-86(s0)
    1a60:	00331313          	slli	t1,t1,0x3
    1a64:	01130333          	add	t1,t1,a7
    1a68:	00033303          	ld	t1,0(t1)
    1a6c:	0065c5b3          	xor	a1,a1,t1
    1a70:	f9344303          	lbu	t1,-109(s0)
    1a74:	00331313          	slli	t1,t1,0x3
    1a78:	01030333          	add	t1,t1,a6
    1a7c:	00033303          	ld	t1,0(t1)
    1a80:	0065c5b3          	xor	a1,a1,t1
    1a84:	00b54533          	xor	a0,a0,a1
    1a88:	faa43c23          	sd	a0,-72(s0)
    1a8c:	f8843503          	ld	a0,-120(s0)
    1a90:	0d053503          	ld	a0,208(a0)
    1a94:	fa044583          	lbu	a1,-96(s0)
    1a98:	00359593          	slli	a1,a1,0x3
    1a9c:	00c585b3          	add	a1,a1,a2
    1aa0:	0005b583          	ld	a1,0(a1)
    1aa4:	fa944303          	lbu	t1,-87(s0)
    1aa8:	00331313          	slli	t1,t1,0x3
    1aac:	00530333          	add	t1,t1,t0
    1ab0:	00033303          	ld	t1,0(t1)
    1ab4:	0065c5b3          	xor	a1,a1,t1
    1ab8:	f9244303          	lbu	t1,-110(s0)
    1abc:	00331313          	slli	t1,t1,0x3
    1ac0:	01130333          	add	t1,t1,a7
    1ac4:	00033303          	ld	t1,0(t1)
    1ac8:	0065c5b3          	xor	a1,a1,t1
    1acc:	f9b44303          	lbu	t1,-101(s0)
    1ad0:	00331313          	slli	t1,t1,0x3
    1ad4:	01030333          	add	t1,t1,a6
    1ad8:	00033303          	ld	t1,0(t1)
    1adc:	0065c5b3          	xor	a1,a1,t1
    1ae0:	00b54533          	xor	a0,a0,a1
    1ae4:	fca43023          	sd	a0,-64(s0)
    1ae8:	f8843503          	ld	a0,-120(s0)
    1aec:	0d853503          	ld	a0,216(a0)
    1af0:	fa844583          	lbu	a1,-88(s0)
    1af4:	00359593          	slli	a1,a1,0x3
    1af8:	00c585b3          	add	a1,a1,a2
    1afc:	0005b583          	ld	a1,0(a1)
    1b00:	f9144303          	lbu	t1,-111(s0)
    1b04:	00331313          	slli	t1,t1,0x3
    1b08:	00530333          	add	t1,t1,t0
    1b0c:	00033303          	ld	t1,0(t1)
    1b10:	0065c5b3          	xor	a1,a1,t1
    1b14:	f9a44303          	lbu	t1,-102(s0)
    1b18:	00331313          	slli	t1,t1,0x3
    1b1c:	01130333          	add	t1,t1,a7
    1b20:	00033303          	ld	t1,0(t1)
    1b24:	0065c5b3          	xor	a1,a1,t1
    1b28:	fa344303          	lbu	t1,-93(s0)
    1b2c:	00331313          	slli	t1,t1,0x3
    1b30:	01030333          	add	t1,t1,a6
    1b34:	00033303          	ld	t1,0(t1)
    1b38:	0065c5b3          	xor	a1,a1,t1
    1b3c:	00b54533          	xor	a0,a0,a1
    1b40:	fca43423          	sd	a0,-56(s0)
    1b44:	f8843503          	ld	a0,-120(s0)
    1b48:	0e053503          	ld	a0,224(a0)
    1b4c:	fb044583          	lbu	a1,-80(s0)
    1b50:	00359593          	slli	a1,a1,0x3
    1b54:	00c585b3          	add	a1,a1,a2
    1b58:	0005b583          	ld	a1,0(a1)
    1b5c:	fb944303          	lbu	t1,-71(s0)
    1b60:	00331313          	slli	t1,t1,0x3
    1b64:	00530333          	add	t1,t1,t0
    1b68:	00033303          	ld	t1,0(t1)
    1b6c:	0065c5b3          	xor	a1,a1,t1
    1b70:	fc244303          	lbu	t1,-62(s0)
    1b74:	00331313          	slli	t1,t1,0x3
    1b78:	01130333          	add	t1,t1,a7
    1b7c:	00033303          	ld	t1,0(t1)
    1b80:	0065c5b3          	xor	a1,a1,t1
    1b84:	fcb44303          	lbu	t1,-53(s0)
    1b88:	00331313          	slli	t1,t1,0x3
    1b8c:	01030333          	add	t1,t1,a6
    1b90:	00033303          	ld	t1,0(t1)
    1b94:	0065c5b3          	xor	a1,a1,t1
    1b98:	00b54533          	xor	a0,a0,a1
    1b9c:	f8a43823          	sd	a0,-112(s0)
    1ba0:	f8843503          	ld	a0,-120(s0)
    1ba4:	0e853503          	ld	a0,232(a0)
    1ba8:	fb844583          	lbu	a1,-72(s0)
    1bac:	00359593          	slli	a1,a1,0x3
    1bb0:	00c585b3          	add	a1,a1,a2
    1bb4:	0005b583          	ld	a1,0(a1)
    1bb8:	fc144303          	lbu	t1,-63(s0)
    1bbc:	00331313          	slli	t1,t1,0x3
    1bc0:	00530333          	add	t1,t1,t0
    1bc4:	00033303          	ld	t1,0(t1)
    1bc8:	0065c5b3          	xor	a1,a1,t1
    1bcc:	fca44303          	lbu	t1,-54(s0)
    1bd0:	00331313          	slli	t1,t1,0x3
    1bd4:	01130333          	add	t1,t1,a7
    1bd8:	00033303          	ld	t1,0(t1)
    1bdc:	0065c5b3          	xor	a1,a1,t1
    1be0:	fb344303          	lbu	t1,-77(s0)
    1be4:	00331313          	slli	t1,t1,0x3
    1be8:	01030333          	add	t1,t1,a6
    1bec:	00033303          	ld	t1,0(t1)
    1bf0:	0065c5b3          	xor	a1,a1,t1
    1bf4:	00b54533          	xor	a0,a0,a1
    1bf8:	f8a43c23          	sd	a0,-104(s0)
    1bfc:	f8843503          	ld	a0,-120(s0)
    1c00:	0f053503          	ld	a0,240(a0)
    1c04:	fc044583          	lbu	a1,-64(s0)
    1c08:	00359593          	slli	a1,a1,0x3
    1c0c:	00c585b3          	add	a1,a1,a2
    1c10:	0005b583          	ld	a1,0(a1)
    1c14:	fc944303          	lbu	t1,-55(s0)
    1c18:	00331313          	slli	t1,t1,0x3
    1c1c:	00530333          	add	t1,t1,t0
    1c20:	00033303          	ld	t1,0(t1)
    1c24:	0065c5b3          	xor	a1,a1,t1
    1c28:	fb244303          	lbu	t1,-78(s0)
    1c2c:	00331313          	slli	t1,t1,0x3
    1c30:	01130333          	add	t1,t1,a7
    1c34:	00033303          	ld	t1,0(t1)
    1c38:	0065c5b3          	xor	a1,a1,t1
    1c3c:	fbb44303          	lbu	t1,-69(s0)
    1c40:	00331313          	slli	t1,t1,0x3
    1c44:	01030333          	add	t1,t1,a6
    1c48:	00033303          	ld	t1,0(t1)
    1c4c:	0065c5b3          	xor	a1,a1,t1
    1c50:	00b54533          	xor	a0,a0,a1
    1c54:	faa43023          	sd	a0,-96(s0)
    1c58:	f8843503          	ld	a0,-120(s0)
    1c5c:	0f853503          	ld	a0,248(a0)
    1c60:	fc844583          	lbu	a1,-56(s0)
    1c64:	00359593          	slli	a1,a1,0x3
    1c68:	00c585b3          	add	a1,a1,a2
    1c6c:	0005b583          	ld	a1,0(a1)
    1c70:	fb144303          	lbu	t1,-79(s0)
    1c74:	00331313          	slli	t1,t1,0x3
    1c78:	00530333          	add	t1,t1,t0
    1c7c:	00033303          	ld	t1,0(t1)
    1c80:	0065c5b3          	xor	a1,a1,t1
    1c84:	fba44303          	lbu	t1,-70(s0)
    1c88:	00331313          	slli	t1,t1,0x3
    1c8c:	01130333          	add	t1,t1,a7
    1c90:	00033303          	ld	t1,0(t1)
    1c94:	0065c5b3          	xor	a1,a1,t1
    1c98:	fc344303          	lbu	t1,-61(s0)
    1c9c:	00331313          	slli	t1,t1,0x3
    1ca0:	01030333          	add	t1,t1,a6
    1ca4:	00033303          	ld	t1,0(t1)
    1ca8:	0065c5b3          	xor	a1,a1,t1
    1cac:	00b54533          	xor	a0,a0,a1
    1cb0:	faa43423          	sd	a0,-88(s0)
    1cb4:	f8843503          	ld	a0,-120(s0)
    1cb8:	10053503          	ld	a0,256(a0)
    1cbc:	f9044583          	lbu	a1,-112(s0)
    1cc0:	00359593          	slli	a1,a1,0x3
    1cc4:	00c585b3          	add	a1,a1,a2
    1cc8:	0005b583          	ld	a1,0(a1)
    1ccc:	f9944303          	lbu	t1,-103(s0)
    1cd0:	00331313          	slli	t1,t1,0x3
    1cd4:	00530333          	add	t1,t1,t0
    1cd8:	00033303          	ld	t1,0(t1)
    1cdc:	0065c5b3          	xor	a1,a1,t1
    1ce0:	fa244303          	lbu	t1,-94(s0)
    1ce4:	00331313          	slli	t1,t1,0x3
    1ce8:	01130333          	add	t1,t1,a7
    1cec:	00033303          	ld	t1,0(t1)
    1cf0:	0065c5b3          	xor	a1,a1,t1
    1cf4:	fab44303          	lbu	t1,-85(s0)
    1cf8:	00331313          	slli	t1,t1,0x3
    1cfc:	01030333          	add	t1,t1,a6
    1d00:	00033303          	ld	t1,0(t1)
    1d04:	0065c5b3          	xor	a1,a1,t1
    1d08:	00b54533          	xor	a0,a0,a1
    1d0c:	faa43823          	sd	a0,-80(s0)
    1d10:	f8843503          	ld	a0,-120(s0)
    1d14:	10853503          	ld	a0,264(a0)
    1d18:	f9844583          	lbu	a1,-104(s0)
    1d1c:	00359593          	slli	a1,a1,0x3
    1d20:	00c585b3          	add	a1,a1,a2
    1d24:	0005b583          	ld	a1,0(a1)
    1d28:	fa144303          	lbu	t1,-95(s0)
    1d2c:	00331313          	slli	t1,t1,0x3
    1d30:	00530333          	add	t1,t1,t0
    1d34:	00033303          	ld	t1,0(t1)
    1d38:	0065c5b3          	xor	a1,a1,t1
    1d3c:	faa44303          	lbu	t1,-86(s0)
    1d40:	00331313          	slli	t1,t1,0x3
    1d44:	01130333          	add	t1,t1,a7
    1d48:	00033303          	ld	t1,0(t1)
    1d4c:	0065c5b3          	xor	a1,a1,t1
    1d50:	f9344303          	lbu	t1,-109(s0)
    1d54:	00331313          	slli	t1,t1,0x3
    1d58:	01030333          	add	t1,t1,a6
    1d5c:	00033303          	ld	t1,0(t1)
    1d60:	0065c5b3          	xor	a1,a1,t1
    1d64:	00b54533          	xor	a0,a0,a1
    1d68:	faa43c23          	sd	a0,-72(s0)
    1d6c:	f8843503          	ld	a0,-120(s0)
    1d70:	11053503          	ld	a0,272(a0)
    1d74:	fa044583          	lbu	a1,-96(s0)
    1d78:	00359593          	slli	a1,a1,0x3
    1d7c:	00c585b3          	add	a1,a1,a2
    1d80:	0005b583          	ld	a1,0(a1)
    1d84:	fa944303          	lbu	t1,-87(s0)
    1d88:	00331313          	slli	t1,t1,0x3
    1d8c:	00530333          	add	t1,t1,t0
    1d90:	00033303          	ld	t1,0(t1)
    1d94:	0065c5b3          	xor	a1,a1,t1
    1d98:	f9244303          	lbu	t1,-110(s0)
    1d9c:	00331313          	slli	t1,t1,0x3
    1da0:	01130333          	add	t1,t1,a7
    1da4:	00033303          	ld	t1,0(t1)
    1da8:	0065c5b3          	xor	a1,a1,t1
    1dac:	f9b44303          	lbu	t1,-101(s0)
    1db0:	00331313          	slli	t1,t1,0x3
    1db4:	01030333          	add	t1,t1,a6
    1db8:	00033303          	ld	t1,0(t1)
    1dbc:	0065c5b3          	xor	a1,a1,t1
    1dc0:	00b54533          	xor	a0,a0,a1
    1dc4:	fca43023          	sd	a0,-64(s0)
    1dc8:	f8843503          	ld	a0,-120(s0)
    1dcc:	11853503          	ld	a0,280(a0)
    1dd0:	fa844583          	lbu	a1,-88(s0)
    1dd4:	00359593          	slli	a1,a1,0x3
    1dd8:	00c585b3          	add	a1,a1,a2
    1ddc:	0005b583          	ld	a1,0(a1)
    1de0:	f9144603          	lbu	a2,-111(s0)
    1de4:	00361613          	slli	a2,a2,0x3
    1de8:	00560633          	add	a2,a2,t0
    1dec:	00063603          	ld	a2,0(a2)
    1df0:	00c5c5b3          	xor	a1,a1,a2
    1df4:	f9a44603          	lbu	a2,-102(s0)
    1df8:	00361613          	slli	a2,a2,0x3
    1dfc:	01160633          	add	a2,a2,a7
    1e00:	00063603          	ld	a2,0(a2)
    1e04:	00c5c5b3          	xor	a1,a1,a2
    1e08:	fa344603          	lbu	a2,-93(s0)
    1e0c:	00361613          	slli	a2,a2,0x3
    1e10:	01060633          	add	a2,a2,a6
    1e14:	00063603          	ld	a2,0(a2)
    1e18:	00c5c5b3          	xor	a1,a1,a2
    1e1c:	00b54533          	xor	a0,a0,a1
    1e20:	fca43423          	sd	a0,-56(s0)
    1e24:	f8843503          	ld	a0,-120(s0)
    1e28:	12053503          	ld	a0,288(a0)
    1e2c:	fb044583          	lbu	a1,-80(s0)
    1e30:	00359593          	slli	a1,a1,0x3
    1e34:	00000637          	lui	a2,0x0
    1e38:	00060613          	addi	a2,a2,0 # 0 <set_key>
    1e3c:	00c585b3          	add	a1,a1,a2
    1e40:	0005b583          	ld	a1,0(a1)
    1e44:	fb944803          	lbu	a6,-71(s0)
    1e48:	00381813          	slli	a6,a6,0x3
    1e4c:	00f607b3          	add	a5,a2,a5
    1e50:	00f80833          	add	a6,a6,a5
    1e54:	00083803          	ld	a6,0(a6)
    1e58:	0105c5b3          	xor	a1,a1,a6
    1e5c:	fc244803          	lbu	a6,-62(s0)
    1e60:	00381813          	slli	a6,a6,0x3
    1e64:	00e60733          	add	a4,a2,a4
    1e68:	00e80833          	add	a6,a6,a4
    1e6c:	00083803          	ld	a6,0(a6)
    1e70:	0105c5b3          	xor	a1,a1,a6
    1e74:	fcb44803          	lbu	a6,-53(s0)
    1e78:	00381813          	slli	a6,a6,0x3
    1e7c:	00d606b3          	add	a3,a2,a3
    1e80:	00d80833          	add	a6,a6,a3
    1e84:	00083803          	ld	a6,0(a6)
    1e88:	0105c5b3          	xor	a1,a1,a6
    1e8c:	00b54533          	xor	a0,a0,a1
    1e90:	f8a43823          	sd	a0,-112(s0)
    1e94:	f8843503          	ld	a0,-120(s0)
    1e98:	12853503          	ld	a0,296(a0)
    1e9c:	fb844583          	lbu	a1,-72(s0)
    1ea0:	00359593          	slli	a1,a1,0x3
    1ea4:	00c585b3          	add	a1,a1,a2
    1ea8:	0005b583          	ld	a1,0(a1)
    1eac:	fc144803          	lbu	a6,-63(s0)
    1eb0:	00381813          	slli	a6,a6,0x3
    1eb4:	00f80833          	add	a6,a6,a5
    1eb8:	00083803          	ld	a6,0(a6)
    1ebc:	0105c5b3          	xor	a1,a1,a6
    1ec0:	fca44803          	lbu	a6,-54(s0)
    1ec4:	00381813          	slli	a6,a6,0x3
    1ec8:	00e80833          	add	a6,a6,a4
    1ecc:	00083803          	ld	a6,0(a6)
    1ed0:	0105c5b3          	xor	a1,a1,a6
    1ed4:	fb344803          	lbu	a6,-77(s0)
    1ed8:	00381813          	slli	a6,a6,0x3
    1edc:	00d80833          	add	a6,a6,a3
    1ee0:	00083803          	ld	a6,0(a6)
    1ee4:	0105c5b3          	xor	a1,a1,a6
    1ee8:	00b54533          	xor	a0,a0,a1
    1eec:	f8a43c23          	sd	a0,-104(s0)
    1ef0:	f8843503          	ld	a0,-120(s0)
    1ef4:	13053503          	ld	a0,304(a0)
    1ef8:	fc044583          	lbu	a1,-64(s0)
    1efc:	00359593          	slli	a1,a1,0x3
    1f00:	00c585b3          	add	a1,a1,a2
    1f04:	0005b583          	ld	a1,0(a1)
    1f08:	fc944803          	lbu	a6,-55(s0)
    1f0c:	00381813          	slli	a6,a6,0x3
    1f10:	00f80833          	add	a6,a6,a5
    1f14:	00083803          	ld	a6,0(a6)
    1f18:	0105c5b3          	xor	a1,a1,a6
    1f1c:	fb244803          	lbu	a6,-78(s0)
    1f20:	00381813          	slli	a6,a6,0x3
    1f24:	00e80833          	add	a6,a6,a4
    1f28:	00083803          	ld	a6,0(a6)
    1f2c:	0105c5b3          	xor	a1,a1,a6
    1f30:	fbb44803          	lbu	a6,-69(s0)
    1f34:	00381813          	slli	a6,a6,0x3
    1f38:	00d80833          	add	a6,a6,a3
    1f3c:	00083803          	ld	a6,0(a6)
    1f40:	0105c5b3          	xor	a1,a1,a6
    1f44:	00b54533          	xor	a0,a0,a1
    1f48:	faa43023          	sd	a0,-96(s0)
    1f4c:	f8843503          	ld	a0,-120(s0)
    1f50:	13853503          	ld	a0,312(a0)
    1f54:	fc844583          	lbu	a1,-56(s0)
    1f58:	00359593          	slli	a1,a1,0x3
    1f5c:	00c585b3          	add	a1,a1,a2
    1f60:	0005b583          	ld	a1,0(a1)
    1f64:	fb144603          	lbu	a2,-79(s0)
    1f68:	00361613          	slli	a2,a2,0x3
    1f6c:	00f60633          	add	a2,a2,a5
    1f70:	00063603          	ld	a2,0(a2)
    1f74:	00c5c5b3          	xor	a1,a1,a2
    1f78:	fba44603          	lbu	a2,-70(s0)
    1f7c:	00361613          	slli	a2,a2,0x3
    1f80:	00e60633          	add	a2,a2,a4
    1f84:	00063603          	ld	a2,0(a2)
    1f88:	00c5c5b3          	xor	a1,a1,a2
    1f8c:	fc344603          	lbu	a2,-61(s0)
    1f90:	00361613          	slli	a2,a2,0x3
    1f94:	00d60633          	add	a2,a2,a3
    1f98:	00063603          	ld	a2,0(a2)
    1f9c:	00c5c5b3          	xor	a1,a1,a2
    1fa0:	00b54533          	xor	a0,a0,a1
    1fa4:	faa43423          	sd	a0,-88(s0)
    1fa8:	0000006f          	jal	zero,1fa8 <.LBB1_7+0xea8>

0000000000001fac <.LBB1_8>:
    1fac:	f9043503          	ld	a0,-112(s0)
    1fb0:	fd843583          	ld	a1,-40(s0)
    1fb4:	00a5b023          	sd	a0,0(a1)
    1fb8:	f9843503          	ld	a0,-104(s0)
    1fbc:	fd843583          	ld	a1,-40(s0)
    1fc0:	00a5b223          	sd	a0,4(a1)
    1fc4:	fa043503          	ld	a0,-96(s0)
    1fc8:	fd843583          	ld	a1,-40(s0)
    1fcc:	00a5b423          	sd	a0,8(a1)
    1fd0:	fa843503          	ld	a0,-88(s0)
    1fd4:	fd843583          	ld	a1,-40(s0)
    1fd8:	00a5b623          	sd	a0,12(a1)
    1fdc:	00100513          	addi	a0,zero,1
    1fe0:	fea41723          	sh	a0,-18(s0)
    1fe4:	0000006f          	jal	zero,1fe4 <.LBB1_8+0x38>

0000000000001fe8 <.LBB1_9>:
    1fe8:	fee41503          	lh	a0,-18(s0)
    1fec:	0d813083          	ld	ra,216(sp)
    1ff0:	0d013403          	ld	s0,208(sp)
    1ff4:	0e010113          	addi	sp,sp,224
    1ff8:	00008067          	jalr	zero,0(ra)

0000000000001ffc <decrypt>:
    1ffc:	f2010113          	addi	sp,sp,-224
    2000:	0c113c23          	sd	ra,216(sp)
    2004:	0c813823          	sd	s0,208(sp)
    2008:	0e010413          	addi	s0,sp,224
    200c:	fea43023          	sd	a0,-32(s0)
    2010:	fcb43c23          	sd	a1,-40(s0)
    2014:	fcc43823          	sd	a2,-48(s0)
    2018:	fd043503          	ld	a0,-48(s0)
    201c:	21050513          	addi	a0,a0,528
    2020:	f8a43423          	sd	a0,-120(s0)
    2024:	fd043503          	ld	a0,-48(s0)
    2028:	41054503          	lbu	a0,1040(a0)
    202c:	00257513          	andi	a0,a0,2
    2030:	00000593          	addi	a1,zero,0
    2034:	00b51063          	bne	a0,a1,2034 <decrypt+0x38>
    2038:	0000006f          	jal	zero,2038 <decrypt+0x3c>

000000000000203c <.LBB2_1>:
    203c:	00000513          	addi	a0,zero,0
    2040:	fea41723          	sh	a0,-18(s0)
    2044:	0000006f          	jal	zero,2044 <.LBB2_1+0x8>

0000000000002048 <.LBB2_2>:
    2048:	fe043503          	ld	a0,-32(s0)
    204c:	00053503          	ld	a0,0(a0)
    2050:	f8843583          	ld	a1,-120(s0)
    2054:	0005b583          	ld	a1,0(a1)
    2058:	00b54533          	xor	a0,a0,a1
    205c:	f8a43823          	sd	a0,-112(s0)
    2060:	fe043503          	ld	a0,-32(s0)
    2064:	00453503          	ld	a0,4(a0)
    2068:	f8843583          	ld	a1,-120(s0)
    206c:	0085b583          	ld	a1,8(a1)
    2070:	00b54533          	xor	a0,a0,a1
    2074:	f8a43c23          	sd	a0,-104(s0)
    2078:	fe043503          	ld	a0,-32(s0)
    207c:	00853503          	ld	a0,8(a0)
    2080:	f8843583          	ld	a1,-120(s0)
    2084:	0105b583          	ld	a1,16(a1)
    2088:	00b54533          	xor	a0,a0,a1
    208c:	faa43023          	sd	a0,-96(s0)
    2090:	fe043503          	ld	a0,-32(s0)
    2094:	00c53503          	ld	a0,12(a0)
    2098:	f8843583          	ld	a1,-120(s0)
    209c:	0185b583          	ld	a1,24(a1)
    20a0:	00b54533          	xor	a0,a0,a1
    20a4:	faa43423          	sd	a0,-88(s0)
    20a8:	f8843503          	ld	a0,-120(s0)
    20ac:	02050513          	addi	a0,a0,32
    20b0:	f8a43423          	sd	a0,-120(s0)
    20b4:	fd043503          	ld	a0,-48(s0)
    20b8:	00853503          	ld	a0,8(a0)
    20bc:	f8a43023          	sd	a0,-128(s0)
    20c0:	00a00593          	addi	a1,zero,10
    20c4:	00b50063          	beq	a0,a1,20c4 <.LBB2_2+0x7c>
    20c8:	0000006f          	jal	zero,20c8 <.LBB2_2+0x80>

00000000000020cc <.LBB2_3>:
    20cc:	f8043503          	ld	a0,-128(s0)
    20d0:	00c00593          	addi	a1,zero,12
    20d4:	00b50063          	beq	a0,a1,20d4 <.LBB2_3+0x8>
    20d8:	0000006f          	jal	zero,20d8 <.LBB2_3+0xc>

00000000000020dc <.LBB2_4>:
    20dc:	f8043503          	ld	a0,-128(s0)
    20e0:	00e00593          	addi	a1,zero,14
    20e4:	00b50063          	beq	a0,a1,20e4 <.LBB2_4+0x8>
    20e8:	0000006f          	jal	zero,20e8 <.LBB2_4+0xc>

00000000000020ec <.LBB2_5>:
    20ec:	f8843503          	ld	a0,-120(s0)
    20f0:	00053503          	ld	a0,0(a0)
    20f4:	f9044583          	lbu	a1,-112(s0)
    20f8:	00359593          	slli	a1,a1,0x3
    20fc:	00000637          	lui	a2,0x0
    2100:	00060613          	addi	a2,a2,0 # 0 <set_key>
    2104:	f6c43023          	sd	a2,-160(s0)
    2108:	00c585b3          	add	a1,a1,a2
    210c:	0005b583          	ld	a1,0(a1)
    2110:	fa944683          	lbu	a3,-87(s0)
    2114:	00369693          	slli	a3,a3,0x3
    2118:	40060713          	addi	a4,a2,1024
    211c:	40070793          	addi	a5,a4,1024 # 1400 <.LBB1_7+0x300>
    2120:	f6f43423          	sd	a5,-152(s0)
    2124:	00f686b3          	add	a3,a3,a5
    2128:	0006b683          	ld	a3,0(a3) # 2000 <decrypt+0x4>
    212c:	00d5c5b3          	xor	a1,a1,a3
    2130:	fa244683          	lbu	a3,-94(s0)
    2134:	00369693          	slli	a3,a3,0x3
    2138:	00001737          	lui	a4,0x1
    213c:	00e60733          	add	a4,a2,a4
    2140:	f6e43823          	sd	a4,-144(s0)
    2144:	00e686b3          	add	a3,a3,a4
    2148:	0006b683          	ld	a3,0(a3)
    214c:	00d5c5b3          	xor	a1,a1,a3
    2150:	f9b44683          	lbu	a3,-101(s0)
    2154:	00369813          	slli	a6,a3,0x3
    2158:	000026b7          	lui	a3,0x2
    215c:	8006869b          	addiw	a3,a3,-2048
    2160:	00d606b3          	add	a3,a2,a3
    2164:	f6d43c23          	sd	a3,-136(s0)
    2168:	00d80833          	add	a6,a6,a3
    216c:	00083803          	ld	a6,0(a6)
    2170:	0105c5b3          	xor	a1,a1,a6
    2174:	00b54533          	xor	a0,a0,a1
    2178:	faa43823          	sd	a0,-80(s0)
    217c:	f8843503          	ld	a0,-120(s0)
    2180:	00853503          	ld	a0,8(a0)
    2184:	f9844583          	lbu	a1,-104(s0)
    2188:	00359593          	slli	a1,a1,0x3
    218c:	00c585b3          	add	a1,a1,a2
    2190:	0005b583          	ld	a1,0(a1)
    2194:	f9144803          	lbu	a6,-111(s0)
    2198:	00381813          	slli	a6,a6,0x3
    219c:	00f80833          	add	a6,a6,a5
    21a0:	00083803          	ld	a6,0(a6)
    21a4:	0105c5b3          	xor	a1,a1,a6
    21a8:	faa44803          	lbu	a6,-86(s0)
    21ac:	00381813          	slli	a6,a6,0x3
    21b0:	00e80833          	add	a6,a6,a4
    21b4:	00083803          	ld	a6,0(a6)
    21b8:	0105c5b3          	xor	a1,a1,a6
    21bc:	fa344803          	lbu	a6,-93(s0)
    21c0:	00381813          	slli	a6,a6,0x3
    21c4:	00d80833          	add	a6,a6,a3
    21c8:	00083803          	ld	a6,0(a6)
    21cc:	0105c5b3          	xor	a1,a1,a6
    21d0:	00b54533          	xor	a0,a0,a1
    21d4:	faa43c23          	sd	a0,-72(s0)
    21d8:	f8843503          	ld	a0,-120(s0)
    21dc:	01053503          	ld	a0,16(a0)
    21e0:	fa044583          	lbu	a1,-96(s0)
    21e4:	00359593          	slli	a1,a1,0x3
    21e8:	00c585b3          	add	a1,a1,a2
    21ec:	0005b583          	ld	a1,0(a1)
    21f0:	f9944803          	lbu	a6,-103(s0)
    21f4:	00381813          	slli	a6,a6,0x3
    21f8:	00f80833          	add	a6,a6,a5
    21fc:	00083803          	ld	a6,0(a6)
    2200:	0105c5b3          	xor	a1,a1,a6
    2204:	f9244803          	lbu	a6,-110(s0)
    2208:	00381813          	slli	a6,a6,0x3
    220c:	00e80833          	add	a6,a6,a4
    2210:	00083803          	ld	a6,0(a6)
    2214:	0105c5b3          	xor	a1,a1,a6
    2218:	fab44803          	lbu	a6,-85(s0)
    221c:	00381813          	slli	a6,a6,0x3
    2220:	00d80833          	add	a6,a6,a3
    2224:	00083803          	ld	a6,0(a6)
    2228:	0105c5b3          	xor	a1,a1,a6
    222c:	00b54533          	xor	a0,a0,a1
    2230:	fca43023          	sd	a0,-64(s0)
    2234:	f8843503          	ld	a0,-120(s0)
    2238:	01853503          	ld	a0,24(a0)
    223c:	fa844583          	lbu	a1,-88(s0)
    2240:	00359593          	slli	a1,a1,0x3
    2244:	00c585b3          	add	a1,a1,a2
    2248:	0005b583          	ld	a1,0(a1)
    224c:	fa144803          	lbu	a6,-95(s0)
    2250:	00381813          	slli	a6,a6,0x3
    2254:	00f80833          	add	a6,a6,a5
    2258:	00083803          	ld	a6,0(a6)
    225c:	0105c5b3          	xor	a1,a1,a6
    2260:	f9a44803          	lbu	a6,-102(s0)
    2264:	00381813          	slli	a6,a6,0x3
    2268:	00e80833          	add	a6,a6,a4
    226c:	00083803          	ld	a6,0(a6)
    2270:	0105c5b3          	xor	a1,a1,a6
    2274:	f9344803          	lbu	a6,-109(s0)
    2278:	00381813          	slli	a6,a6,0x3
    227c:	00d80833          	add	a6,a6,a3
    2280:	00083803          	ld	a6,0(a6)
    2284:	0105c5b3          	xor	a1,a1,a6
    2288:	00b54533          	xor	a0,a0,a1
    228c:	fca43423          	sd	a0,-56(s0)
    2290:	f8843503          	ld	a0,-120(s0)
    2294:	02053503          	ld	a0,32(a0)
    2298:	fb044583          	lbu	a1,-80(s0)
    229c:	00359593          	slli	a1,a1,0x3
    22a0:	00c585b3          	add	a1,a1,a2
    22a4:	0005b583          	ld	a1,0(a1)
    22a8:	fc944803          	lbu	a6,-55(s0)
    22ac:	00381813          	slli	a6,a6,0x3
    22b0:	00f80833          	add	a6,a6,a5
    22b4:	00083803          	ld	a6,0(a6)
    22b8:	0105c5b3          	xor	a1,a1,a6
    22bc:	fc244803          	lbu	a6,-62(s0)
    22c0:	00381813          	slli	a6,a6,0x3
    22c4:	00e80833          	add	a6,a6,a4
    22c8:	00083803          	ld	a6,0(a6)
    22cc:	0105c5b3          	xor	a1,a1,a6
    22d0:	fbb44803          	lbu	a6,-69(s0)
    22d4:	00381813          	slli	a6,a6,0x3
    22d8:	00d80833          	add	a6,a6,a3
    22dc:	00083803          	ld	a6,0(a6)
    22e0:	0105c5b3          	xor	a1,a1,a6
    22e4:	00b54533          	xor	a0,a0,a1
    22e8:	f8a43823          	sd	a0,-112(s0)
    22ec:	f8843503          	ld	a0,-120(s0)
    22f0:	02853503          	ld	a0,40(a0)
    22f4:	fb844583          	lbu	a1,-72(s0)
    22f8:	00359593          	slli	a1,a1,0x3
    22fc:	00c585b3          	add	a1,a1,a2
    2300:	0005b583          	ld	a1,0(a1)
    2304:	fb144803          	lbu	a6,-79(s0)
    2308:	00381813          	slli	a6,a6,0x3
    230c:	00f80833          	add	a6,a6,a5
    2310:	00083803          	ld	a6,0(a6)
    2314:	0105c5b3          	xor	a1,a1,a6
    2318:	fca44803          	lbu	a6,-54(s0)
    231c:	00381813          	slli	a6,a6,0x3
    2320:	00e80833          	add	a6,a6,a4
    2324:	00083803          	ld	a6,0(a6)
    2328:	0105c5b3          	xor	a1,a1,a6
    232c:	fc344803          	lbu	a6,-61(s0)
    2330:	00381813          	slli	a6,a6,0x3
    2334:	00d80833          	add	a6,a6,a3
    2338:	00083803          	ld	a6,0(a6)
    233c:	0105c5b3          	xor	a1,a1,a6
    2340:	00b54533          	xor	a0,a0,a1
    2344:	f8a43c23          	sd	a0,-104(s0)
    2348:	f8843503          	ld	a0,-120(s0)
    234c:	03053503          	ld	a0,48(a0)
    2350:	fc044583          	lbu	a1,-64(s0)
    2354:	00359593          	slli	a1,a1,0x3
    2358:	00c585b3          	add	a1,a1,a2
    235c:	0005b583          	ld	a1,0(a1)
    2360:	fb944803          	lbu	a6,-71(s0)
    2364:	00381813          	slli	a6,a6,0x3
    2368:	00f80833          	add	a6,a6,a5
    236c:	00083803          	ld	a6,0(a6)
    2370:	0105c5b3          	xor	a1,a1,a6
    2374:	fb244803          	lbu	a6,-78(s0)
    2378:	00381813          	slli	a6,a6,0x3
    237c:	00e80833          	add	a6,a6,a4
    2380:	00083803          	ld	a6,0(a6)
    2384:	0105c5b3          	xor	a1,a1,a6
    2388:	fcb44803          	lbu	a6,-53(s0)
    238c:	00381813          	slli	a6,a6,0x3
    2390:	00d80833          	add	a6,a6,a3
    2394:	00083803          	ld	a6,0(a6)
    2398:	0105c5b3          	xor	a1,a1,a6
    239c:	00b54533          	xor	a0,a0,a1
    23a0:	faa43023          	sd	a0,-96(s0)
    23a4:	f8843503          	ld	a0,-120(s0)
    23a8:	03853503          	ld	a0,56(a0)
    23ac:	fc844583          	lbu	a1,-56(s0)
    23b0:	00359593          	slli	a1,a1,0x3
    23b4:	00c585b3          	add	a1,a1,a2
    23b8:	0005b583          	ld	a1,0(a1)
    23bc:	fc144603          	lbu	a2,-63(s0)
    23c0:	00361613          	slli	a2,a2,0x3
    23c4:	00f60633          	add	a2,a2,a5
    23c8:	00063603          	ld	a2,0(a2)
    23cc:	00c5c5b3          	xor	a1,a1,a2
    23d0:	fba44603          	lbu	a2,-70(s0)
    23d4:	00361613          	slli	a2,a2,0x3
    23d8:	00e60633          	add	a2,a2,a4
    23dc:	00063603          	ld	a2,0(a2)
    23e0:	00c5c5b3          	xor	a1,a1,a2
    23e4:	fb344603          	lbu	a2,-77(s0)
    23e8:	00361613          	slli	a2,a2,0x3
    23ec:	00d60633          	add	a2,a2,a3
    23f0:	00063603          	ld	a2,0(a2)
    23f4:	00c5c5b3          	xor	a1,a1,a2
    23f8:	00b54533          	xor	a0,a0,a1
    23fc:	faa43423          	sd	a0,-88(s0)
    2400:	f8843503          	ld	a0,-120(s0)
    2404:	04050513          	addi	a0,a0,64
    2408:	f8a43423          	sd	a0,-120(s0)
    240c:	0000006f          	jal	zero,240c <.LBB2_5+0x320>

0000000000002410 <.LBB2_6>:
    2410:	f8843503          	ld	a0,-120(s0)
    2414:	00053503          	ld	a0,0(a0)
    2418:	f9044583          	lbu	a1,-112(s0)
    241c:	00359593          	slli	a1,a1,0x3
    2420:	00000637          	lui	a2,0x0
    2424:	00060613          	addi	a2,a2,0 # 0 <set_key>
    2428:	f4c43023          	sd	a2,-192(s0)
    242c:	00c585b3          	add	a1,a1,a2
    2430:	0005b583          	ld	a1,0(a1)
    2434:	fa944683          	lbu	a3,-87(s0)
    2438:	00369693          	slli	a3,a3,0x3
    243c:	40060713          	addi	a4,a2,1024
    2440:	40070793          	addi	a5,a4,1024 # 1400 <.LBB1_7+0x300>
    2444:	f4f43423          	sd	a5,-184(s0)
    2448:	00f686b3          	add	a3,a3,a5
    244c:	0006b683          	ld	a3,0(a3) # 2000 <decrypt+0x4>
    2450:	00d5c5b3          	xor	a1,a1,a3
    2454:	fa244683          	lbu	a3,-94(s0)
    2458:	00369693          	slli	a3,a3,0x3
    245c:	00001737          	lui	a4,0x1
    2460:	00e60733          	add	a4,a2,a4
    2464:	f4e43823          	sd	a4,-176(s0)
    2468:	00e686b3          	add	a3,a3,a4
    246c:	0006b683          	ld	a3,0(a3)
    2470:	00d5c5b3          	xor	a1,a1,a3
    2474:	f9b44683          	lbu	a3,-101(s0)
    2478:	00369813          	slli	a6,a3,0x3
    247c:	000026b7          	lui	a3,0x2
    2480:	8006869b          	addiw	a3,a3,-2048
    2484:	00d606b3          	add	a3,a2,a3
    2488:	f4d43c23          	sd	a3,-168(s0)
    248c:	00d80833          	add	a6,a6,a3
    2490:	00083803          	ld	a6,0(a6)
    2494:	0105c5b3          	xor	a1,a1,a6
    2498:	00b54533          	xor	a0,a0,a1
    249c:	faa43823          	sd	a0,-80(s0)
    24a0:	f8843503          	ld	a0,-120(s0)
    24a4:	00853503          	ld	a0,8(a0)
    24a8:	f9844583          	lbu	a1,-104(s0)
    24ac:	00359593          	slli	a1,a1,0x3
    24b0:	00c585b3          	add	a1,a1,a2
    24b4:	0005b583          	ld	a1,0(a1)
    24b8:	f9144803          	lbu	a6,-111(s0)
    24bc:	00381813          	slli	a6,a6,0x3
    24c0:	00f80833          	add	a6,a6,a5
    24c4:	00083803          	ld	a6,0(a6)
    24c8:	0105c5b3          	xor	a1,a1,a6
    24cc:	faa44803          	lbu	a6,-86(s0)
    24d0:	00381813          	slli	a6,a6,0x3
    24d4:	00e80833          	add	a6,a6,a4
    24d8:	00083803          	ld	a6,0(a6)
    24dc:	0105c5b3          	xor	a1,a1,a6
    24e0:	fa344803          	lbu	a6,-93(s0)
    24e4:	00381813          	slli	a6,a6,0x3
    24e8:	00d80833          	add	a6,a6,a3
    24ec:	00083803          	ld	a6,0(a6)
    24f0:	0105c5b3          	xor	a1,a1,a6
    24f4:	00b54533          	xor	a0,a0,a1
    24f8:	faa43c23          	sd	a0,-72(s0)
    24fc:	f8843503          	ld	a0,-120(s0)
    2500:	01053503          	ld	a0,16(a0)
    2504:	fa044583          	lbu	a1,-96(s0)
    2508:	00359593          	slli	a1,a1,0x3
    250c:	00c585b3          	add	a1,a1,a2
    2510:	0005b583          	ld	a1,0(a1)
    2514:	f9944803          	lbu	a6,-103(s0)
    2518:	00381813          	slli	a6,a6,0x3
    251c:	00f80833          	add	a6,a6,a5
    2520:	00083803          	ld	a6,0(a6)
    2524:	0105c5b3          	xor	a1,a1,a6
    2528:	f9244803          	lbu	a6,-110(s0)
    252c:	00381813          	slli	a6,a6,0x3
    2530:	00e80833          	add	a6,a6,a4
    2534:	00083803          	ld	a6,0(a6)
    2538:	0105c5b3          	xor	a1,a1,a6
    253c:	fab44803          	lbu	a6,-85(s0)
    2540:	00381813          	slli	a6,a6,0x3
    2544:	00d80833          	add	a6,a6,a3
    2548:	00083803          	ld	a6,0(a6)
    254c:	0105c5b3          	xor	a1,a1,a6
    2550:	00b54533          	xor	a0,a0,a1
    2554:	fca43023          	sd	a0,-64(s0)
    2558:	f8843503          	ld	a0,-120(s0)
    255c:	01853503          	ld	a0,24(a0)
    2560:	fa844583          	lbu	a1,-88(s0)
    2564:	00359593          	slli	a1,a1,0x3
    2568:	00c585b3          	add	a1,a1,a2
    256c:	0005b583          	ld	a1,0(a1)
    2570:	fa144803          	lbu	a6,-95(s0)
    2574:	00381813          	slli	a6,a6,0x3
    2578:	00f80833          	add	a6,a6,a5
    257c:	00083803          	ld	a6,0(a6)
    2580:	0105c5b3          	xor	a1,a1,a6
    2584:	f9a44803          	lbu	a6,-102(s0)
    2588:	00381813          	slli	a6,a6,0x3
    258c:	00e80833          	add	a6,a6,a4
    2590:	00083803          	ld	a6,0(a6)
    2594:	0105c5b3          	xor	a1,a1,a6
    2598:	f9344803          	lbu	a6,-109(s0)
    259c:	00381813          	slli	a6,a6,0x3
    25a0:	00d80833          	add	a6,a6,a3
    25a4:	00083803          	ld	a6,0(a6)
    25a8:	0105c5b3          	xor	a1,a1,a6
    25ac:	00b54533          	xor	a0,a0,a1
    25b0:	fca43423          	sd	a0,-56(s0)
    25b4:	f8843503          	ld	a0,-120(s0)
    25b8:	02053503          	ld	a0,32(a0)
    25bc:	fb044583          	lbu	a1,-80(s0)
    25c0:	00359593          	slli	a1,a1,0x3
    25c4:	00c585b3          	add	a1,a1,a2
    25c8:	0005b583          	ld	a1,0(a1)
    25cc:	fc944803          	lbu	a6,-55(s0)
    25d0:	00381813          	slli	a6,a6,0x3
    25d4:	00f80833          	add	a6,a6,a5
    25d8:	00083803          	ld	a6,0(a6)
    25dc:	0105c5b3          	xor	a1,a1,a6
    25e0:	fc244803          	lbu	a6,-62(s0)
    25e4:	00381813          	slli	a6,a6,0x3
    25e8:	00e80833          	add	a6,a6,a4
    25ec:	00083803          	ld	a6,0(a6)
    25f0:	0105c5b3          	xor	a1,a1,a6
    25f4:	fbb44803          	lbu	a6,-69(s0)
    25f8:	00381813          	slli	a6,a6,0x3
    25fc:	00d80833          	add	a6,a6,a3
    2600:	00083803          	ld	a6,0(a6)
    2604:	0105c5b3          	xor	a1,a1,a6
    2608:	00b54533          	xor	a0,a0,a1
    260c:	f8a43823          	sd	a0,-112(s0)
    2610:	f8843503          	ld	a0,-120(s0)
    2614:	02853503          	ld	a0,40(a0)
    2618:	fb844583          	lbu	a1,-72(s0)
    261c:	00359593          	slli	a1,a1,0x3
    2620:	00c585b3          	add	a1,a1,a2
    2624:	0005b583          	ld	a1,0(a1)
    2628:	fb144803          	lbu	a6,-79(s0)
    262c:	00381813          	slli	a6,a6,0x3
    2630:	00f80833          	add	a6,a6,a5
    2634:	00083803          	ld	a6,0(a6)
    2638:	0105c5b3          	xor	a1,a1,a6
    263c:	fca44803          	lbu	a6,-54(s0)
    2640:	00381813          	slli	a6,a6,0x3
    2644:	00e80833          	add	a6,a6,a4
    2648:	00083803          	ld	a6,0(a6)
    264c:	0105c5b3          	xor	a1,a1,a6
    2650:	fc344803          	lbu	a6,-61(s0)
    2654:	00381813          	slli	a6,a6,0x3
    2658:	00d80833          	add	a6,a6,a3
    265c:	00083803          	ld	a6,0(a6)
    2660:	0105c5b3          	xor	a1,a1,a6
    2664:	00b54533          	xor	a0,a0,a1
    2668:	f8a43c23          	sd	a0,-104(s0)
    266c:	f8843503          	ld	a0,-120(s0)
    2670:	03053503          	ld	a0,48(a0)
    2674:	fc044583          	lbu	a1,-64(s0)
    2678:	00359593          	slli	a1,a1,0x3
    267c:	00c585b3          	add	a1,a1,a2
    2680:	0005b583          	ld	a1,0(a1)
    2684:	fb944803          	lbu	a6,-71(s0)
    2688:	00381813          	slli	a6,a6,0x3
    268c:	00f80833          	add	a6,a6,a5
    2690:	00083803          	ld	a6,0(a6)
    2694:	0105c5b3          	xor	a1,a1,a6
    2698:	fb244803          	lbu	a6,-78(s0)
    269c:	00381813          	slli	a6,a6,0x3
    26a0:	00e80833          	add	a6,a6,a4
    26a4:	00083803          	ld	a6,0(a6)
    26a8:	0105c5b3          	xor	a1,a1,a6
    26ac:	fcb44803          	lbu	a6,-53(s0)
    26b0:	00381813          	slli	a6,a6,0x3
    26b4:	00d80833          	add	a6,a6,a3
    26b8:	00083803          	ld	a6,0(a6)
    26bc:	0105c5b3          	xor	a1,a1,a6
    26c0:	00b54533          	xor	a0,a0,a1
    26c4:	faa43023          	sd	a0,-96(s0)
    26c8:	f8843503          	ld	a0,-120(s0)
    26cc:	03853503          	ld	a0,56(a0)
    26d0:	fc844583          	lbu	a1,-56(s0)
    26d4:	00359593          	slli	a1,a1,0x3
    26d8:	00c585b3          	add	a1,a1,a2
    26dc:	0005b583          	ld	a1,0(a1)
    26e0:	fc144603          	lbu	a2,-63(s0)
    26e4:	00361613          	slli	a2,a2,0x3
    26e8:	00f60633          	add	a2,a2,a5
    26ec:	00063603          	ld	a2,0(a2)
    26f0:	00c5c5b3          	xor	a1,a1,a2
    26f4:	fba44603          	lbu	a2,-70(s0)
    26f8:	00361613          	slli	a2,a2,0x3
    26fc:	00e60633          	add	a2,a2,a4
    2700:	00063603          	ld	a2,0(a2)
    2704:	00c5c5b3          	xor	a1,a1,a2
    2708:	fb344603          	lbu	a2,-77(s0)
    270c:	00361613          	slli	a2,a2,0x3
    2710:	00d60633          	add	a2,a2,a3
    2714:	00063603          	ld	a2,0(a2)
    2718:	00c5c5b3          	xor	a1,a1,a2
    271c:	00b54533          	xor	a0,a0,a1
    2720:	faa43423          	sd	a0,-88(s0)
    2724:	f8843503          	ld	a0,-120(s0)
    2728:	04050513          	addi	a0,a0,64
    272c:	f8a43423          	sd	a0,-120(s0)
    2730:	0000006f          	jal	zero,2730 <.LBB2_6+0x320>

0000000000002734 <.LBB2_7>:
    2734:	f8843503          	ld	a0,-120(s0)
    2738:	00053503          	ld	a0,0(a0)
    273c:	f9044583          	lbu	a1,-112(s0)
    2740:	00359593          	slli	a1,a1,0x3
    2744:	00000637          	lui	a2,0x0
    2748:	00060613          	addi	a2,a2,0 # 0 <set_key>
    274c:	f2c43023          	sd	a2,-224(s0)
    2750:	00c585b3          	add	a1,a1,a2
    2754:	0005b583          	ld	a1,0(a1)
    2758:	fa944683          	lbu	a3,-87(s0)
    275c:	00369693          	slli	a3,a3,0x3
    2760:	00001737          	lui	a4,0x1
    2764:	8007079b          	addiw	a5,a4,-2048
    2768:	00f602b3          	add	t0,a2,a5
    276c:	f2543423          	sd	t0,-216(s0)
    2770:	005686b3          	add	a3,a3,t0
    2774:	0006b683          	ld	a3,0(a3) # 2000 <decrypt+0x4>
    2778:	00d5c5b3          	xor	a1,a1,a3
    277c:	fa244683          	lbu	a3,-94(s0)
    2780:	00369693          	slli	a3,a3,0x3
    2784:	00e608b3          	add	a7,a2,a4
    2788:	f3143823          	sd	a7,-208(s0)
    278c:	011686b3          	add	a3,a3,a7
    2790:	0006b683          	ld	a3,0(a3)
    2794:	00d5c5b3          	xor	a1,a1,a3
    2798:	f9b44683          	lbu	a3,-101(s0)
    279c:	00369313          	slli	t1,a3,0x3
    27a0:	000026b7          	lui	a3,0x2
    27a4:	8006869b          	addiw	a3,a3,-2048
    27a8:	00d60833          	add	a6,a2,a3
    27ac:	f3043c23          	sd	a6,-200(s0)
    27b0:	01030333          	add	t1,t1,a6
    27b4:	00033303          	ld	t1,0(t1)
    27b8:	0065c5b3          	xor	a1,a1,t1
    27bc:	00b54533          	xor	a0,a0,a1
    27c0:	faa43823          	sd	a0,-80(s0)
    27c4:	f8843503          	ld	a0,-120(s0)
    27c8:	00853503          	ld	a0,8(a0)
    27cc:	f9844583          	lbu	a1,-104(s0)
    27d0:	00359593          	slli	a1,a1,0x3
    27d4:	00c585b3          	add	a1,a1,a2
    27d8:	0005b583          	ld	a1,0(a1)
    27dc:	f9144303          	lbu	t1,-111(s0)
    27e0:	00331313          	slli	t1,t1,0x3
    27e4:	00530333          	add	t1,t1,t0
    27e8:	00033303          	ld	t1,0(t1)
    27ec:	0065c5b3          	xor	a1,a1,t1
    27f0:	faa44303          	lbu	t1,-86(s0)
    27f4:	00331313          	slli	t1,t1,0x3
    27f8:	01130333          	add	t1,t1,a7
    27fc:	00033303          	ld	t1,0(t1)
    2800:	0065c5b3          	xor	a1,a1,t1
    2804:	fa344303          	lbu	t1,-93(s0)
    2808:	00331313          	slli	t1,t1,0x3
    280c:	01030333          	add	t1,t1,a6
    2810:	00033303          	ld	t1,0(t1)
    2814:	0065c5b3          	xor	a1,a1,t1
    2818:	00b54533          	xor	a0,a0,a1
    281c:	faa43c23          	sd	a0,-72(s0)
    2820:	f8843503          	ld	a0,-120(s0)
    2824:	01053503          	ld	a0,16(a0)
    2828:	fa044583          	lbu	a1,-96(s0)
    282c:	00359593          	slli	a1,a1,0x3
    2830:	00c585b3          	add	a1,a1,a2
    2834:	0005b583          	ld	a1,0(a1)
    2838:	f9944303          	lbu	t1,-103(s0)
    283c:	00331313          	slli	t1,t1,0x3
    2840:	00530333          	add	t1,t1,t0
    2844:	00033303          	ld	t1,0(t1)
    2848:	0065c5b3          	xor	a1,a1,t1
    284c:	f9244303          	lbu	t1,-110(s0)
    2850:	00331313          	slli	t1,t1,0x3
    2854:	01130333          	add	t1,t1,a7
    2858:	00033303          	ld	t1,0(t1)
    285c:	0065c5b3          	xor	a1,a1,t1
    2860:	fab44303          	lbu	t1,-85(s0)
    2864:	00331313          	slli	t1,t1,0x3
    2868:	01030333          	add	t1,t1,a6
    286c:	00033303          	ld	t1,0(t1)
    2870:	0065c5b3          	xor	a1,a1,t1
    2874:	00b54533          	xor	a0,a0,a1
    2878:	fca43023          	sd	a0,-64(s0)
    287c:	f8843503          	ld	a0,-120(s0)
    2880:	01853503          	ld	a0,24(a0)
    2884:	fa844583          	lbu	a1,-88(s0)
    2888:	00359593          	slli	a1,a1,0x3
    288c:	00c585b3          	add	a1,a1,a2
    2890:	0005b583          	ld	a1,0(a1)
    2894:	fa144303          	lbu	t1,-95(s0)
    2898:	00331313          	slli	t1,t1,0x3
    289c:	00530333          	add	t1,t1,t0
    28a0:	00033303          	ld	t1,0(t1)
    28a4:	0065c5b3          	xor	a1,a1,t1
    28a8:	f9a44303          	lbu	t1,-102(s0)
    28ac:	00331313          	slli	t1,t1,0x3
    28b0:	01130333          	add	t1,t1,a7
    28b4:	00033303          	ld	t1,0(t1)
    28b8:	0065c5b3          	xor	a1,a1,t1
    28bc:	f9344303          	lbu	t1,-109(s0)
    28c0:	00331313          	slli	t1,t1,0x3
    28c4:	01030333          	add	t1,t1,a6
    28c8:	00033303          	ld	t1,0(t1)
    28cc:	0065c5b3          	xor	a1,a1,t1
    28d0:	00b54533          	xor	a0,a0,a1
    28d4:	fca43423          	sd	a0,-56(s0)
    28d8:	f8843503          	ld	a0,-120(s0)
    28dc:	02053503          	ld	a0,32(a0)
    28e0:	fb044583          	lbu	a1,-80(s0)
    28e4:	00359593          	slli	a1,a1,0x3
    28e8:	00c585b3          	add	a1,a1,a2
    28ec:	0005b583          	ld	a1,0(a1)
    28f0:	fc944303          	lbu	t1,-55(s0)
    28f4:	00331313          	slli	t1,t1,0x3
    28f8:	00530333          	add	t1,t1,t0
    28fc:	00033303          	ld	t1,0(t1)
    2900:	0065c5b3          	xor	a1,a1,t1
    2904:	fc244303          	lbu	t1,-62(s0)
    2908:	00331313          	slli	t1,t1,0x3
    290c:	01130333          	add	t1,t1,a7
    2910:	00033303          	ld	t1,0(t1)
    2914:	0065c5b3          	xor	a1,a1,t1
    2918:	fbb44303          	lbu	t1,-69(s0)
    291c:	00331313          	slli	t1,t1,0x3
    2920:	01030333          	add	t1,t1,a6
    2924:	00033303          	ld	t1,0(t1)
    2928:	0065c5b3          	xor	a1,a1,t1
    292c:	00b54533          	xor	a0,a0,a1
    2930:	f8a43823          	sd	a0,-112(s0)
    2934:	f8843503          	ld	a0,-120(s0)
    2938:	02853503          	ld	a0,40(a0)
    293c:	fb844583          	lbu	a1,-72(s0)
    2940:	00359593          	slli	a1,a1,0x3
    2944:	00c585b3          	add	a1,a1,a2
    2948:	0005b583          	ld	a1,0(a1)
    294c:	fb144303          	lbu	t1,-79(s0)
    2950:	00331313          	slli	t1,t1,0x3
    2954:	00530333          	add	t1,t1,t0
    2958:	00033303          	ld	t1,0(t1)
    295c:	0065c5b3          	xor	a1,a1,t1
    2960:	fca44303          	lbu	t1,-54(s0)
    2964:	00331313          	slli	t1,t1,0x3
    2968:	01130333          	add	t1,t1,a7
    296c:	00033303          	ld	t1,0(t1)
    2970:	0065c5b3          	xor	a1,a1,t1
    2974:	fc344303          	lbu	t1,-61(s0)
    2978:	00331313          	slli	t1,t1,0x3
    297c:	01030333          	add	t1,t1,a6
    2980:	00033303          	ld	t1,0(t1)
    2984:	0065c5b3          	xor	a1,a1,t1
    2988:	00b54533          	xor	a0,a0,a1
    298c:	f8a43c23          	sd	a0,-104(s0)
    2990:	f8843503          	ld	a0,-120(s0)
    2994:	03053503          	ld	a0,48(a0)
    2998:	fc044583          	lbu	a1,-64(s0)
    299c:	00359593          	slli	a1,a1,0x3
    29a0:	00c585b3          	add	a1,a1,a2
    29a4:	0005b583          	ld	a1,0(a1)
    29a8:	fb944303          	lbu	t1,-71(s0)
    29ac:	00331313          	slli	t1,t1,0x3
    29b0:	00530333          	add	t1,t1,t0
    29b4:	00033303          	ld	t1,0(t1)
    29b8:	0065c5b3          	xor	a1,a1,t1
    29bc:	fb244303          	lbu	t1,-78(s0)
    29c0:	00331313          	slli	t1,t1,0x3
    29c4:	01130333          	add	t1,t1,a7
    29c8:	00033303          	ld	t1,0(t1)
    29cc:	0065c5b3          	xor	a1,a1,t1
    29d0:	fcb44303          	lbu	t1,-53(s0)
    29d4:	00331313          	slli	t1,t1,0x3
    29d8:	01030333          	add	t1,t1,a6
    29dc:	00033303          	ld	t1,0(t1)
    29e0:	0065c5b3          	xor	a1,a1,t1
    29e4:	00b54533          	xor	a0,a0,a1
    29e8:	faa43023          	sd	a0,-96(s0)
    29ec:	f8843503          	ld	a0,-120(s0)
    29f0:	03853503          	ld	a0,56(a0)
    29f4:	fc844583          	lbu	a1,-56(s0)
    29f8:	00359593          	slli	a1,a1,0x3
    29fc:	00c585b3          	add	a1,a1,a2
    2a00:	0005b583          	ld	a1,0(a1)
    2a04:	fc144303          	lbu	t1,-63(s0)
    2a08:	00331313          	slli	t1,t1,0x3
    2a0c:	00530333          	add	t1,t1,t0
    2a10:	00033303          	ld	t1,0(t1)
    2a14:	0065c5b3          	xor	a1,a1,t1
    2a18:	fba44303          	lbu	t1,-70(s0)
    2a1c:	00331313          	slli	t1,t1,0x3
    2a20:	01130333          	add	t1,t1,a7
    2a24:	00033303          	ld	t1,0(t1)
    2a28:	0065c5b3          	xor	a1,a1,t1
    2a2c:	fb344303          	lbu	t1,-77(s0)
    2a30:	00331313          	slli	t1,t1,0x3
    2a34:	01030333          	add	t1,t1,a6
    2a38:	00033303          	ld	t1,0(t1)
    2a3c:	0065c5b3          	xor	a1,a1,t1
    2a40:	00b54533          	xor	a0,a0,a1
    2a44:	faa43423          	sd	a0,-88(s0)
    2a48:	f8843503          	ld	a0,-120(s0)
    2a4c:	04053503          	ld	a0,64(a0)
    2a50:	f9044583          	lbu	a1,-112(s0)
    2a54:	00359593          	slli	a1,a1,0x3
    2a58:	00c585b3          	add	a1,a1,a2
    2a5c:	0005b583          	ld	a1,0(a1)
    2a60:	fa944303          	lbu	t1,-87(s0)
    2a64:	00331313          	slli	t1,t1,0x3
    2a68:	00530333          	add	t1,t1,t0
    2a6c:	00033303          	ld	t1,0(t1)
    2a70:	0065c5b3          	xor	a1,a1,t1
    2a74:	fa244303          	lbu	t1,-94(s0)
    2a78:	00331313          	slli	t1,t1,0x3
    2a7c:	01130333          	add	t1,t1,a7
    2a80:	00033303          	ld	t1,0(t1)
    2a84:	0065c5b3          	xor	a1,a1,t1
    2a88:	f9b44303          	lbu	t1,-101(s0)
    2a8c:	00331313          	slli	t1,t1,0x3
    2a90:	01030333          	add	t1,t1,a6
    2a94:	00033303          	ld	t1,0(t1)
    2a98:	0065c5b3          	xor	a1,a1,t1
    2a9c:	00b54533          	xor	a0,a0,a1
    2aa0:	faa43823          	sd	a0,-80(s0)
    2aa4:	f8843503          	ld	a0,-120(s0)
    2aa8:	04853503          	ld	a0,72(a0)
    2aac:	f9844583          	lbu	a1,-104(s0)
    2ab0:	00359593          	slli	a1,a1,0x3
    2ab4:	00c585b3          	add	a1,a1,a2
    2ab8:	0005b583          	ld	a1,0(a1)
    2abc:	f9144303          	lbu	t1,-111(s0)
    2ac0:	00331313          	slli	t1,t1,0x3
    2ac4:	00530333          	add	t1,t1,t0
    2ac8:	00033303          	ld	t1,0(t1)
    2acc:	0065c5b3          	xor	a1,a1,t1
    2ad0:	faa44303          	lbu	t1,-86(s0)
    2ad4:	00331313          	slli	t1,t1,0x3
    2ad8:	01130333          	add	t1,t1,a7
    2adc:	00033303          	ld	t1,0(t1)
    2ae0:	0065c5b3          	xor	a1,a1,t1
    2ae4:	fa344303          	lbu	t1,-93(s0)
    2ae8:	00331313          	slli	t1,t1,0x3
    2aec:	01030333          	add	t1,t1,a6
    2af0:	00033303          	ld	t1,0(t1)
    2af4:	0065c5b3          	xor	a1,a1,t1
    2af8:	00b54533          	xor	a0,a0,a1
    2afc:	faa43c23          	sd	a0,-72(s0)
    2b00:	f8843503          	ld	a0,-120(s0)
    2b04:	05053503          	ld	a0,80(a0)
    2b08:	fa044583          	lbu	a1,-96(s0)
    2b0c:	00359593          	slli	a1,a1,0x3
    2b10:	00c585b3          	add	a1,a1,a2
    2b14:	0005b583          	ld	a1,0(a1)
    2b18:	f9944303          	lbu	t1,-103(s0)
    2b1c:	00331313          	slli	t1,t1,0x3
    2b20:	00530333          	add	t1,t1,t0
    2b24:	00033303          	ld	t1,0(t1)
    2b28:	0065c5b3          	xor	a1,a1,t1
    2b2c:	f9244303          	lbu	t1,-110(s0)
    2b30:	00331313          	slli	t1,t1,0x3
    2b34:	01130333          	add	t1,t1,a7
    2b38:	00033303          	ld	t1,0(t1)
    2b3c:	0065c5b3          	xor	a1,a1,t1
    2b40:	fab44303          	lbu	t1,-85(s0)
    2b44:	00331313          	slli	t1,t1,0x3
    2b48:	01030333          	add	t1,t1,a6
    2b4c:	00033303          	ld	t1,0(t1)
    2b50:	0065c5b3          	xor	a1,a1,t1
    2b54:	00b54533          	xor	a0,a0,a1
    2b58:	fca43023          	sd	a0,-64(s0)
    2b5c:	f8843503          	ld	a0,-120(s0)
    2b60:	05853503          	ld	a0,88(a0)
    2b64:	fa844583          	lbu	a1,-88(s0)
    2b68:	00359593          	slli	a1,a1,0x3
    2b6c:	00c585b3          	add	a1,a1,a2
    2b70:	0005b583          	ld	a1,0(a1)
    2b74:	fa144303          	lbu	t1,-95(s0)
    2b78:	00331313          	slli	t1,t1,0x3
    2b7c:	00530333          	add	t1,t1,t0
    2b80:	00033303          	ld	t1,0(t1)
    2b84:	0065c5b3          	xor	a1,a1,t1
    2b88:	f9a44303          	lbu	t1,-102(s0)
    2b8c:	00331313          	slli	t1,t1,0x3
    2b90:	01130333          	add	t1,t1,a7
    2b94:	00033303          	ld	t1,0(t1)
    2b98:	0065c5b3          	xor	a1,a1,t1
    2b9c:	f9344303          	lbu	t1,-109(s0)
    2ba0:	00331313          	slli	t1,t1,0x3
    2ba4:	01030333          	add	t1,t1,a6
    2ba8:	00033303          	ld	t1,0(t1)
    2bac:	0065c5b3          	xor	a1,a1,t1
    2bb0:	00b54533          	xor	a0,a0,a1
    2bb4:	fca43423          	sd	a0,-56(s0)
    2bb8:	f8843503          	ld	a0,-120(s0)
    2bbc:	06053503          	ld	a0,96(a0)
    2bc0:	fb044583          	lbu	a1,-80(s0)
    2bc4:	00359593          	slli	a1,a1,0x3
    2bc8:	00c585b3          	add	a1,a1,a2
    2bcc:	0005b583          	ld	a1,0(a1)
    2bd0:	fc944303          	lbu	t1,-55(s0)
    2bd4:	00331313          	slli	t1,t1,0x3
    2bd8:	00530333          	add	t1,t1,t0
    2bdc:	00033303          	ld	t1,0(t1)
    2be0:	0065c5b3          	xor	a1,a1,t1
    2be4:	fc244303          	lbu	t1,-62(s0)
    2be8:	00331313          	slli	t1,t1,0x3
    2bec:	01130333          	add	t1,t1,a7
    2bf0:	00033303          	ld	t1,0(t1)
    2bf4:	0065c5b3          	xor	a1,a1,t1
    2bf8:	fbb44303          	lbu	t1,-69(s0)
    2bfc:	00331313          	slli	t1,t1,0x3
    2c00:	01030333          	add	t1,t1,a6
    2c04:	00033303          	ld	t1,0(t1)
    2c08:	0065c5b3          	xor	a1,a1,t1
    2c0c:	00b54533          	xor	a0,a0,a1
    2c10:	f8a43823          	sd	a0,-112(s0)
    2c14:	f8843503          	ld	a0,-120(s0)
    2c18:	06853503          	ld	a0,104(a0)
    2c1c:	fb844583          	lbu	a1,-72(s0)
    2c20:	00359593          	slli	a1,a1,0x3
    2c24:	00c585b3          	add	a1,a1,a2
    2c28:	0005b583          	ld	a1,0(a1)
    2c2c:	fb144303          	lbu	t1,-79(s0)
    2c30:	00331313          	slli	t1,t1,0x3
    2c34:	00530333          	add	t1,t1,t0
    2c38:	00033303          	ld	t1,0(t1)
    2c3c:	0065c5b3          	xor	a1,a1,t1
    2c40:	fca44303          	lbu	t1,-54(s0)
    2c44:	00331313          	slli	t1,t1,0x3
    2c48:	01130333          	add	t1,t1,a7
    2c4c:	00033303          	ld	t1,0(t1)
    2c50:	0065c5b3          	xor	a1,a1,t1
    2c54:	fc344303          	lbu	t1,-61(s0)
    2c58:	00331313          	slli	t1,t1,0x3
    2c5c:	01030333          	add	t1,t1,a6
    2c60:	00033303          	ld	t1,0(t1)
    2c64:	0065c5b3          	xor	a1,a1,t1
    2c68:	00b54533          	xor	a0,a0,a1
    2c6c:	f8a43c23          	sd	a0,-104(s0)
    2c70:	f8843503          	ld	a0,-120(s0)
    2c74:	07053503          	ld	a0,112(a0)
    2c78:	fc044583          	lbu	a1,-64(s0)
    2c7c:	00359593          	slli	a1,a1,0x3
    2c80:	00c585b3          	add	a1,a1,a2
    2c84:	0005b583          	ld	a1,0(a1)
    2c88:	fb944303          	lbu	t1,-71(s0)
    2c8c:	00331313          	slli	t1,t1,0x3
    2c90:	00530333          	add	t1,t1,t0
    2c94:	00033303          	ld	t1,0(t1)
    2c98:	0065c5b3          	xor	a1,a1,t1
    2c9c:	fb244303          	lbu	t1,-78(s0)
    2ca0:	00331313          	slli	t1,t1,0x3
    2ca4:	01130333          	add	t1,t1,a7
    2ca8:	00033303          	ld	t1,0(t1)
    2cac:	0065c5b3          	xor	a1,a1,t1
    2cb0:	fcb44303          	lbu	t1,-53(s0)
    2cb4:	00331313          	slli	t1,t1,0x3
    2cb8:	01030333          	add	t1,t1,a6
    2cbc:	00033303          	ld	t1,0(t1)
    2cc0:	0065c5b3          	xor	a1,a1,t1
    2cc4:	00b54533          	xor	a0,a0,a1
    2cc8:	faa43023          	sd	a0,-96(s0)
    2ccc:	f8843503          	ld	a0,-120(s0)
    2cd0:	07853503          	ld	a0,120(a0)
    2cd4:	fc844583          	lbu	a1,-56(s0)
    2cd8:	00359593          	slli	a1,a1,0x3
    2cdc:	00c585b3          	add	a1,a1,a2
    2ce0:	0005b583          	ld	a1,0(a1)
    2ce4:	fc144303          	lbu	t1,-63(s0)
    2ce8:	00331313          	slli	t1,t1,0x3
    2cec:	00530333          	add	t1,t1,t0
    2cf0:	00033303          	ld	t1,0(t1)
    2cf4:	0065c5b3          	xor	a1,a1,t1
    2cf8:	fba44303          	lbu	t1,-70(s0)
    2cfc:	00331313          	slli	t1,t1,0x3
    2d00:	01130333          	add	t1,t1,a7
    2d04:	00033303          	ld	t1,0(t1)
    2d08:	0065c5b3          	xor	a1,a1,t1
    2d0c:	fb344303          	lbu	t1,-77(s0)
    2d10:	00331313          	slli	t1,t1,0x3
    2d14:	01030333          	add	t1,t1,a6
    2d18:	00033303          	ld	t1,0(t1)
    2d1c:	0065c5b3          	xor	a1,a1,t1
    2d20:	00b54533          	xor	a0,a0,a1
    2d24:	faa43423          	sd	a0,-88(s0)
    2d28:	f8843503          	ld	a0,-120(s0)
    2d2c:	08053503          	ld	a0,128(a0)
    2d30:	f9044583          	lbu	a1,-112(s0)
    2d34:	00359593          	slli	a1,a1,0x3
    2d38:	00c585b3          	add	a1,a1,a2
    2d3c:	0005b583          	ld	a1,0(a1)
    2d40:	fa944303          	lbu	t1,-87(s0)
    2d44:	00331313          	slli	t1,t1,0x3
    2d48:	00530333          	add	t1,t1,t0
    2d4c:	00033303          	ld	t1,0(t1)
    2d50:	0065c5b3          	xor	a1,a1,t1
    2d54:	fa244303          	lbu	t1,-94(s0)
    2d58:	00331313          	slli	t1,t1,0x3
    2d5c:	01130333          	add	t1,t1,a7
    2d60:	00033303          	ld	t1,0(t1)
    2d64:	0065c5b3          	xor	a1,a1,t1
    2d68:	f9b44303          	lbu	t1,-101(s0)
    2d6c:	00331313          	slli	t1,t1,0x3
    2d70:	01030333          	add	t1,t1,a6
    2d74:	00033303          	ld	t1,0(t1)
    2d78:	0065c5b3          	xor	a1,a1,t1
    2d7c:	00b54533          	xor	a0,a0,a1
    2d80:	faa43823          	sd	a0,-80(s0)
    2d84:	f8843503          	ld	a0,-120(s0)
    2d88:	08853503          	ld	a0,136(a0)
    2d8c:	f9844583          	lbu	a1,-104(s0)
    2d90:	00359593          	slli	a1,a1,0x3
    2d94:	00c585b3          	add	a1,a1,a2
    2d98:	0005b583          	ld	a1,0(a1)
    2d9c:	f9144303          	lbu	t1,-111(s0)
    2da0:	00331313          	slli	t1,t1,0x3
    2da4:	00530333          	add	t1,t1,t0
    2da8:	00033303          	ld	t1,0(t1)
    2dac:	0065c5b3          	xor	a1,a1,t1
    2db0:	faa44303          	lbu	t1,-86(s0)
    2db4:	00331313          	slli	t1,t1,0x3
    2db8:	01130333          	add	t1,t1,a7
    2dbc:	00033303          	ld	t1,0(t1)
    2dc0:	0065c5b3          	xor	a1,a1,t1
    2dc4:	fa344303          	lbu	t1,-93(s0)
    2dc8:	00331313          	slli	t1,t1,0x3
    2dcc:	01030333          	add	t1,t1,a6
    2dd0:	00033303          	ld	t1,0(t1)
    2dd4:	0065c5b3          	xor	a1,a1,t1
    2dd8:	00b54533          	xor	a0,a0,a1
    2ddc:	faa43c23          	sd	a0,-72(s0)
    2de0:	f8843503          	ld	a0,-120(s0)
    2de4:	09053503          	ld	a0,144(a0)
    2de8:	fa044583          	lbu	a1,-96(s0)
    2dec:	00359593          	slli	a1,a1,0x3
    2df0:	00c585b3          	add	a1,a1,a2
    2df4:	0005b583          	ld	a1,0(a1)
    2df8:	f9944303          	lbu	t1,-103(s0)
    2dfc:	00331313          	slli	t1,t1,0x3
    2e00:	00530333          	add	t1,t1,t0
    2e04:	00033303          	ld	t1,0(t1)
    2e08:	0065c5b3          	xor	a1,a1,t1
    2e0c:	f9244303          	lbu	t1,-110(s0)
    2e10:	00331313          	slli	t1,t1,0x3
    2e14:	01130333          	add	t1,t1,a7
    2e18:	00033303          	ld	t1,0(t1)
    2e1c:	0065c5b3          	xor	a1,a1,t1
    2e20:	fab44303          	lbu	t1,-85(s0)
    2e24:	00331313          	slli	t1,t1,0x3
    2e28:	01030333          	add	t1,t1,a6
    2e2c:	00033303          	ld	t1,0(t1)
    2e30:	0065c5b3          	xor	a1,a1,t1
    2e34:	00b54533          	xor	a0,a0,a1
    2e38:	fca43023          	sd	a0,-64(s0)
    2e3c:	f8843503          	ld	a0,-120(s0)
    2e40:	09853503          	ld	a0,152(a0)
    2e44:	fa844583          	lbu	a1,-88(s0)
    2e48:	00359593          	slli	a1,a1,0x3
    2e4c:	00c585b3          	add	a1,a1,a2
    2e50:	0005b583          	ld	a1,0(a1)
    2e54:	fa144303          	lbu	t1,-95(s0)
    2e58:	00331313          	slli	t1,t1,0x3
    2e5c:	00530333          	add	t1,t1,t0
    2e60:	00033303          	ld	t1,0(t1)
    2e64:	0065c5b3          	xor	a1,a1,t1
    2e68:	f9a44303          	lbu	t1,-102(s0)
    2e6c:	00331313          	slli	t1,t1,0x3
    2e70:	01130333          	add	t1,t1,a7
    2e74:	00033303          	ld	t1,0(t1)
    2e78:	0065c5b3          	xor	a1,a1,t1
    2e7c:	f9344303          	lbu	t1,-109(s0)
    2e80:	00331313          	slli	t1,t1,0x3
    2e84:	01030333          	add	t1,t1,a6
    2e88:	00033303          	ld	t1,0(t1)
    2e8c:	0065c5b3          	xor	a1,a1,t1
    2e90:	00b54533          	xor	a0,a0,a1
    2e94:	fca43423          	sd	a0,-56(s0)
    2e98:	f8843503          	ld	a0,-120(s0)
    2e9c:	0a053503          	ld	a0,160(a0)
    2ea0:	fb044583          	lbu	a1,-80(s0)
    2ea4:	00359593          	slli	a1,a1,0x3
    2ea8:	00c585b3          	add	a1,a1,a2
    2eac:	0005b583          	ld	a1,0(a1)
    2eb0:	fc944303          	lbu	t1,-55(s0)
    2eb4:	00331313          	slli	t1,t1,0x3
    2eb8:	00530333          	add	t1,t1,t0
    2ebc:	00033303          	ld	t1,0(t1)
    2ec0:	0065c5b3          	xor	a1,a1,t1
    2ec4:	fc244303          	lbu	t1,-62(s0)
    2ec8:	00331313          	slli	t1,t1,0x3
    2ecc:	01130333          	add	t1,t1,a7
    2ed0:	00033303          	ld	t1,0(t1)
    2ed4:	0065c5b3          	xor	a1,a1,t1
    2ed8:	fbb44303          	lbu	t1,-69(s0)
    2edc:	00331313          	slli	t1,t1,0x3
    2ee0:	01030333          	add	t1,t1,a6
    2ee4:	00033303          	ld	t1,0(t1)
    2ee8:	0065c5b3          	xor	a1,a1,t1
    2eec:	00b54533          	xor	a0,a0,a1
    2ef0:	f8a43823          	sd	a0,-112(s0)
    2ef4:	f8843503          	ld	a0,-120(s0)
    2ef8:	0a853503          	ld	a0,168(a0)
    2efc:	fb844583          	lbu	a1,-72(s0)
    2f00:	00359593          	slli	a1,a1,0x3
    2f04:	00c585b3          	add	a1,a1,a2
    2f08:	0005b583          	ld	a1,0(a1)
    2f0c:	fb144303          	lbu	t1,-79(s0)
    2f10:	00331313          	slli	t1,t1,0x3
    2f14:	00530333          	add	t1,t1,t0
    2f18:	00033303          	ld	t1,0(t1)
    2f1c:	0065c5b3          	xor	a1,a1,t1
    2f20:	fca44303          	lbu	t1,-54(s0)
    2f24:	00331313          	slli	t1,t1,0x3
    2f28:	01130333          	add	t1,t1,a7
    2f2c:	00033303          	ld	t1,0(t1)
    2f30:	0065c5b3          	xor	a1,a1,t1
    2f34:	fc344303          	lbu	t1,-61(s0)
    2f38:	00331313          	slli	t1,t1,0x3
    2f3c:	01030333          	add	t1,t1,a6
    2f40:	00033303          	ld	t1,0(t1)
    2f44:	0065c5b3          	xor	a1,a1,t1
    2f48:	00b54533          	xor	a0,a0,a1
    2f4c:	f8a43c23          	sd	a0,-104(s0)
    2f50:	f8843503          	ld	a0,-120(s0)
    2f54:	0b053503          	ld	a0,176(a0)
    2f58:	fc044583          	lbu	a1,-64(s0)
    2f5c:	00359593          	slli	a1,a1,0x3
    2f60:	00c585b3          	add	a1,a1,a2
    2f64:	0005b583          	ld	a1,0(a1)
    2f68:	fb944303          	lbu	t1,-71(s0)
    2f6c:	00331313          	slli	t1,t1,0x3
    2f70:	00530333          	add	t1,t1,t0
    2f74:	00033303          	ld	t1,0(t1)
    2f78:	0065c5b3          	xor	a1,a1,t1
    2f7c:	fb244303          	lbu	t1,-78(s0)
    2f80:	00331313          	slli	t1,t1,0x3
    2f84:	01130333          	add	t1,t1,a7
    2f88:	00033303          	ld	t1,0(t1)
    2f8c:	0065c5b3          	xor	a1,a1,t1
    2f90:	fcb44303          	lbu	t1,-53(s0)
    2f94:	00331313          	slli	t1,t1,0x3
    2f98:	01030333          	add	t1,t1,a6
    2f9c:	00033303          	ld	t1,0(t1)
    2fa0:	0065c5b3          	xor	a1,a1,t1
    2fa4:	00b54533          	xor	a0,a0,a1
    2fa8:	faa43023          	sd	a0,-96(s0)
    2fac:	f8843503          	ld	a0,-120(s0)
    2fb0:	0b853503          	ld	a0,184(a0)
    2fb4:	fc844583          	lbu	a1,-56(s0)
    2fb8:	00359593          	slli	a1,a1,0x3
    2fbc:	00c585b3          	add	a1,a1,a2
    2fc0:	0005b583          	ld	a1,0(a1)
    2fc4:	fc144303          	lbu	t1,-63(s0)
    2fc8:	00331313          	slli	t1,t1,0x3
    2fcc:	00530333          	add	t1,t1,t0
    2fd0:	00033303          	ld	t1,0(t1)
    2fd4:	0065c5b3          	xor	a1,a1,t1
    2fd8:	fba44303          	lbu	t1,-70(s0)
    2fdc:	00331313          	slli	t1,t1,0x3
    2fe0:	01130333          	add	t1,t1,a7
    2fe4:	00033303          	ld	t1,0(t1)
    2fe8:	0065c5b3          	xor	a1,a1,t1
    2fec:	fb344303          	lbu	t1,-77(s0)
    2ff0:	00331313          	slli	t1,t1,0x3
    2ff4:	01030333          	add	t1,t1,a6
    2ff8:	00033303          	ld	t1,0(t1)
    2ffc:	0065c5b3          	xor	a1,a1,t1
    3000:	00b54533          	xor	a0,a0,a1
    3004:	faa43423          	sd	a0,-88(s0)
    3008:	f8843503          	ld	a0,-120(s0)
    300c:	0c053503          	ld	a0,192(a0)
    3010:	f9044583          	lbu	a1,-112(s0)
    3014:	00359593          	slli	a1,a1,0x3
    3018:	00c585b3          	add	a1,a1,a2
    301c:	0005b583          	ld	a1,0(a1)
    3020:	fa944303          	lbu	t1,-87(s0)
    3024:	00331313          	slli	t1,t1,0x3
    3028:	00530333          	add	t1,t1,t0
    302c:	00033303          	ld	t1,0(t1)
    3030:	0065c5b3          	xor	a1,a1,t1
    3034:	fa244303          	lbu	t1,-94(s0)
    3038:	00331313          	slli	t1,t1,0x3
    303c:	01130333          	add	t1,t1,a7
    3040:	00033303          	ld	t1,0(t1)
    3044:	0065c5b3          	xor	a1,a1,t1
    3048:	f9b44303          	lbu	t1,-101(s0)
    304c:	00331313          	slli	t1,t1,0x3
    3050:	01030333          	add	t1,t1,a6
    3054:	00033303          	ld	t1,0(t1)
    3058:	0065c5b3          	xor	a1,a1,t1
    305c:	00b54533          	xor	a0,a0,a1
    3060:	faa43823          	sd	a0,-80(s0)
    3064:	f8843503          	ld	a0,-120(s0)
    3068:	0c853503          	ld	a0,200(a0)
    306c:	f9844583          	lbu	a1,-104(s0)
    3070:	00359593          	slli	a1,a1,0x3
    3074:	00c585b3          	add	a1,a1,a2
    3078:	0005b583          	ld	a1,0(a1)
    307c:	f9144303          	lbu	t1,-111(s0)
    3080:	00331313          	slli	t1,t1,0x3
    3084:	00530333          	add	t1,t1,t0
    3088:	00033303          	ld	t1,0(t1)
    308c:	0065c5b3          	xor	a1,a1,t1
    3090:	faa44303          	lbu	t1,-86(s0)
    3094:	00331313          	slli	t1,t1,0x3
    3098:	01130333          	add	t1,t1,a7
    309c:	00033303          	ld	t1,0(t1)
    30a0:	0065c5b3          	xor	a1,a1,t1
    30a4:	fa344303          	lbu	t1,-93(s0)
    30a8:	00331313          	slli	t1,t1,0x3
    30ac:	01030333          	add	t1,t1,a6
    30b0:	00033303          	ld	t1,0(t1)
    30b4:	0065c5b3          	xor	a1,a1,t1
    30b8:	00b54533          	xor	a0,a0,a1
    30bc:	faa43c23          	sd	a0,-72(s0)
    30c0:	f8843503          	ld	a0,-120(s0)
    30c4:	0d053503          	ld	a0,208(a0)
    30c8:	fa044583          	lbu	a1,-96(s0)
    30cc:	00359593          	slli	a1,a1,0x3
    30d0:	00c585b3          	add	a1,a1,a2
    30d4:	0005b583          	ld	a1,0(a1)
    30d8:	f9944303          	lbu	t1,-103(s0)
    30dc:	00331313          	slli	t1,t1,0x3
    30e0:	00530333          	add	t1,t1,t0
    30e4:	00033303          	ld	t1,0(t1)
    30e8:	0065c5b3          	xor	a1,a1,t1
    30ec:	f9244303          	lbu	t1,-110(s0)
    30f0:	00331313          	slli	t1,t1,0x3
    30f4:	01130333          	add	t1,t1,a7
    30f8:	00033303          	ld	t1,0(t1)
    30fc:	0065c5b3          	xor	a1,a1,t1
    3100:	fab44303          	lbu	t1,-85(s0)
    3104:	00331313          	slli	t1,t1,0x3
    3108:	01030333          	add	t1,t1,a6
    310c:	00033303          	ld	t1,0(t1)
    3110:	0065c5b3          	xor	a1,a1,t1
    3114:	00b54533          	xor	a0,a0,a1
    3118:	fca43023          	sd	a0,-64(s0)
    311c:	f8843503          	ld	a0,-120(s0)
    3120:	0d853503          	ld	a0,216(a0)
    3124:	fa844583          	lbu	a1,-88(s0)
    3128:	00359593          	slli	a1,a1,0x3
    312c:	00c585b3          	add	a1,a1,a2
    3130:	0005b583          	ld	a1,0(a1)
    3134:	fa144303          	lbu	t1,-95(s0)
    3138:	00331313          	slli	t1,t1,0x3
    313c:	00530333          	add	t1,t1,t0
    3140:	00033303          	ld	t1,0(t1)
    3144:	0065c5b3          	xor	a1,a1,t1
    3148:	f9a44303          	lbu	t1,-102(s0)
    314c:	00331313          	slli	t1,t1,0x3
    3150:	01130333          	add	t1,t1,a7
    3154:	00033303          	ld	t1,0(t1)
    3158:	0065c5b3          	xor	a1,a1,t1
    315c:	f9344303          	lbu	t1,-109(s0)
    3160:	00331313          	slli	t1,t1,0x3
    3164:	01030333          	add	t1,t1,a6
    3168:	00033303          	ld	t1,0(t1)
    316c:	0065c5b3          	xor	a1,a1,t1
    3170:	00b54533          	xor	a0,a0,a1
    3174:	fca43423          	sd	a0,-56(s0)
    3178:	f8843503          	ld	a0,-120(s0)
    317c:	0e053503          	ld	a0,224(a0)
    3180:	fb044583          	lbu	a1,-80(s0)
    3184:	00359593          	slli	a1,a1,0x3
    3188:	00c585b3          	add	a1,a1,a2
    318c:	0005b583          	ld	a1,0(a1)
    3190:	fc944303          	lbu	t1,-55(s0)
    3194:	00331313          	slli	t1,t1,0x3
    3198:	00530333          	add	t1,t1,t0
    319c:	00033303          	ld	t1,0(t1)
    31a0:	0065c5b3          	xor	a1,a1,t1
    31a4:	fc244303          	lbu	t1,-62(s0)
    31a8:	00331313          	slli	t1,t1,0x3
    31ac:	01130333          	add	t1,t1,a7
    31b0:	00033303          	ld	t1,0(t1)
    31b4:	0065c5b3          	xor	a1,a1,t1
    31b8:	fbb44303          	lbu	t1,-69(s0)
    31bc:	00331313          	slli	t1,t1,0x3
    31c0:	01030333          	add	t1,t1,a6
    31c4:	00033303          	ld	t1,0(t1)
    31c8:	0065c5b3          	xor	a1,a1,t1
    31cc:	00b54533          	xor	a0,a0,a1
    31d0:	f8a43823          	sd	a0,-112(s0)
    31d4:	f8843503          	ld	a0,-120(s0)
    31d8:	0e853503          	ld	a0,232(a0)
    31dc:	fb844583          	lbu	a1,-72(s0)
    31e0:	00359593          	slli	a1,a1,0x3
    31e4:	00c585b3          	add	a1,a1,a2
    31e8:	0005b583          	ld	a1,0(a1)
    31ec:	fb144303          	lbu	t1,-79(s0)
    31f0:	00331313          	slli	t1,t1,0x3
    31f4:	00530333          	add	t1,t1,t0
    31f8:	00033303          	ld	t1,0(t1)
    31fc:	0065c5b3          	xor	a1,a1,t1
    3200:	fca44303          	lbu	t1,-54(s0)
    3204:	00331313          	slli	t1,t1,0x3
    3208:	01130333          	add	t1,t1,a7
    320c:	00033303          	ld	t1,0(t1)
    3210:	0065c5b3          	xor	a1,a1,t1
    3214:	fc344303          	lbu	t1,-61(s0)
    3218:	00331313          	slli	t1,t1,0x3
    321c:	01030333          	add	t1,t1,a6
    3220:	00033303          	ld	t1,0(t1)
    3224:	0065c5b3          	xor	a1,a1,t1
    3228:	00b54533          	xor	a0,a0,a1
    322c:	f8a43c23          	sd	a0,-104(s0)
    3230:	f8843503          	ld	a0,-120(s0)
    3234:	0f053503          	ld	a0,240(a0)
    3238:	fc044583          	lbu	a1,-64(s0)
    323c:	00359593          	slli	a1,a1,0x3
    3240:	00c585b3          	add	a1,a1,a2
    3244:	0005b583          	ld	a1,0(a1)
    3248:	fb944303          	lbu	t1,-71(s0)
    324c:	00331313          	slli	t1,t1,0x3
    3250:	00530333          	add	t1,t1,t0
    3254:	00033303          	ld	t1,0(t1)
    3258:	0065c5b3          	xor	a1,a1,t1
    325c:	fb244303          	lbu	t1,-78(s0)
    3260:	00331313          	slli	t1,t1,0x3
    3264:	01130333          	add	t1,t1,a7
    3268:	00033303          	ld	t1,0(t1)
    326c:	0065c5b3          	xor	a1,a1,t1
    3270:	fcb44303          	lbu	t1,-53(s0)
    3274:	00331313          	slli	t1,t1,0x3
    3278:	01030333          	add	t1,t1,a6
    327c:	00033303          	ld	t1,0(t1)
    3280:	0065c5b3          	xor	a1,a1,t1
    3284:	00b54533          	xor	a0,a0,a1
    3288:	faa43023          	sd	a0,-96(s0)
    328c:	f8843503          	ld	a0,-120(s0)
    3290:	0f853503          	ld	a0,248(a0)
    3294:	fc844583          	lbu	a1,-56(s0)
    3298:	00359593          	slli	a1,a1,0x3
    329c:	00c585b3          	add	a1,a1,a2
    32a0:	0005b583          	ld	a1,0(a1)
    32a4:	fc144303          	lbu	t1,-63(s0)
    32a8:	00331313          	slli	t1,t1,0x3
    32ac:	00530333          	add	t1,t1,t0
    32b0:	00033303          	ld	t1,0(t1)
    32b4:	0065c5b3          	xor	a1,a1,t1
    32b8:	fba44303          	lbu	t1,-70(s0)
    32bc:	00331313          	slli	t1,t1,0x3
    32c0:	01130333          	add	t1,t1,a7
    32c4:	00033303          	ld	t1,0(t1)
    32c8:	0065c5b3          	xor	a1,a1,t1
    32cc:	fb344303          	lbu	t1,-77(s0)
    32d0:	00331313          	slli	t1,t1,0x3
    32d4:	01030333          	add	t1,t1,a6
    32d8:	00033303          	ld	t1,0(t1)
    32dc:	0065c5b3          	xor	a1,a1,t1
    32e0:	00b54533          	xor	a0,a0,a1
    32e4:	faa43423          	sd	a0,-88(s0)
    32e8:	f8843503          	ld	a0,-120(s0)
    32ec:	10053503          	ld	a0,256(a0)
    32f0:	f9044583          	lbu	a1,-112(s0)
    32f4:	00359593          	slli	a1,a1,0x3
    32f8:	00c585b3          	add	a1,a1,a2
    32fc:	0005b583          	ld	a1,0(a1)
    3300:	fa944303          	lbu	t1,-87(s0)
    3304:	00331313          	slli	t1,t1,0x3
    3308:	00530333          	add	t1,t1,t0
    330c:	00033303          	ld	t1,0(t1)
    3310:	0065c5b3          	xor	a1,a1,t1
    3314:	fa244303          	lbu	t1,-94(s0)
    3318:	00331313          	slli	t1,t1,0x3
    331c:	01130333          	add	t1,t1,a7
    3320:	00033303          	ld	t1,0(t1)
    3324:	0065c5b3          	xor	a1,a1,t1
    3328:	f9b44303          	lbu	t1,-101(s0)
    332c:	00331313          	slli	t1,t1,0x3
    3330:	01030333          	add	t1,t1,a6
    3334:	00033303          	ld	t1,0(t1)
    3338:	0065c5b3          	xor	a1,a1,t1
    333c:	00b54533          	xor	a0,a0,a1
    3340:	faa43823          	sd	a0,-80(s0)
    3344:	f8843503          	ld	a0,-120(s0)
    3348:	10853503          	ld	a0,264(a0)
    334c:	f9844583          	lbu	a1,-104(s0)
    3350:	00359593          	slli	a1,a1,0x3
    3354:	00c585b3          	add	a1,a1,a2
    3358:	0005b583          	ld	a1,0(a1)
    335c:	f9144303          	lbu	t1,-111(s0)
    3360:	00331313          	slli	t1,t1,0x3
    3364:	00530333          	add	t1,t1,t0
    3368:	00033303          	ld	t1,0(t1)
    336c:	0065c5b3          	xor	a1,a1,t1
    3370:	faa44303          	lbu	t1,-86(s0)
    3374:	00331313          	slli	t1,t1,0x3
    3378:	01130333          	add	t1,t1,a7
    337c:	00033303          	ld	t1,0(t1)
    3380:	0065c5b3          	xor	a1,a1,t1
    3384:	fa344303          	lbu	t1,-93(s0)
    3388:	00331313          	slli	t1,t1,0x3
    338c:	01030333          	add	t1,t1,a6
    3390:	00033303          	ld	t1,0(t1)
    3394:	0065c5b3          	xor	a1,a1,t1
    3398:	00b54533          	xor	a0,a0,a1
    339c:	faa43c23          	sd	a0,-72(s0)
    33a0:	f8843503          	ld	a0,-120(s0)
    33a4:	11053503          	ld	a0,272(a0)
    33a8:	fa044583          	lbu	a1,-96(s0)
    33ac:	00359593          	slli	a1,a1,0x3
    33b0:	00c585b3          	add	a1,a1,a2
    33b4:	0005b583          	ld	a1,0(a1)
    33b8:	f9944303          	lbu	t1,-103(s0)
    33bc:	00331313          	slli	t1,t1,0x3
    33c0:	00530333          	add	t1,t1,t0
    33c4:	00033303          	ld	t1,0(t1)
    33c8:	0065c5b3          	xor	a1,a1,t1
    33cc:	f9244303          	lbu	t1,-110(s0)
    33d0:	00331313          	slli	t1,t1,0x3
    33d4:	01130333          	add	t1,t1,a7
    33d8:	00033303          	ld	t1,0(t1)
    33dc:	0065c5b3          	xor	a1,a1,t1
    33e0:	fab44303          	lbu	t1,-85(s0)
    33e4:	00331313          	slli	t1,t1,0x3
    33e8:	01030333          	add	t1,t1,a6
    33ec:	00033303          	ld	t1,0(t1)
    33f0:	0065c5b3          	xor	a1,a1,t1
    33f4:	00b54533          	xor	a0,a0,a1
    33f8:	fca43023          	sd	a0,-64(s0)
    33fc:	f8843503          	ld	a0,-120(s0)
    3400:	11853503          	ld	a0,280(a0)
    3404:	fa844583          	lbu	a1,-88(s0)
    3408:	00359593          	slli	a1,a1,0x3
    340c:	00c585b3          	add	a1,a1,a2
    3410:	0005b583          	ld	a1,0(a1)
    3414:	fa144603          	lbu	a2,-95(s0)
    3418:	00361613          	slli	a2,a2,0x3
    341c:	00560633          	add	a2,a2,t0
    3420:	00063603          	ld	a2,0(a2)
    3424:	00c5c5b3          	xor	a1,a1,a2
    3428:	f9a44603          	lbu	a2,-102(s0)
    342c:	00361613          	slli	a2,a2,0x3
    3430:	01160633          	add	a2,a2,a7
    3434:	00063603          	ld	a2,0(a2)
    3438:	00c5c5b3          	xor	a1,a1,a2
    343c:	f9344603          	lbu	a2,-109(s0)
    3440:	00361613          	slli	a2,a2,0x3
    3444:	01060633          	add	a2,a2,a6
    3448:	00063603          	ld	a2,0(a2)
    344c:	00c5c5b3          	xor	a1,a1,a2
    3450:	00b54533          	xor	a0,a0,a1
    3454:	fca43423          	sd	a0,-56(s0)
    3458:	f8843503          	ld	a0,-120(s0)
    345c:	12053503          	ld	a0,288(a0)
    3460:	fb044583          	lbu	a1,-80(s0)
    3464:	00359593          	slli	a1,a1,0x3
    3468:	00000637          	lui	a2,0x0
    346c:	00060613          	addi	a2,a2,0 # 0 <set_key>
    3470:	00c585b3          	add	a1,a1,a2
    3474:	0005b583          	ld	a1,0(a1)
    3478:	fc944803          	lbu	a6,-55(s0)
    347c:	00381813          	slli	a6,a6,0x3
    3480:	00f607b3          	add	a5,a2,a5
    3484:	00f80833          	add	a6,a6,a5
    3488:	00083803          	ld	a6,0(a6)
    348c:	0105c5b3          	xor	a1,a1,a6
    3490:	fc244803          	lbu	a6,-62(s0)
    3494:	00381813          	slli	a6,a6,0x3
    3498:	00e60733          	add	a4,a2,a4
    349c:	00e80833          	add	a6,a6,a4
    34a0:	00083803          	ld	a6,0(a6)
    34a4:	0105c5b3          	xor	a1,a1,a6
    34a8:	fbb44803          	lbu	a6,-69(s0)
    34ac:	00381813          	slli	a6,a6,0x3
    34b0:	00d606b3          	add	a3,a2,a3
    34b4:	00d80833          	add	a6,a6,a3
    34b8:	00083803          	ld	a6,0(a6)
    34bc:	0105c5b3          	xor	a1,a1,a6
    34c0:	00b54533          	xor	a0,a0,a1
    34c4:	f8a43823          	sd	a0,-112(s0)
    34c8:	f8843503          	ld	a0,-120(s0)
    34cc:	12853503          	ld	a0,296(a0)
    34d0:	fb844583          	lbu	a1,-72(s0)
    34d4:	00359593          	slli	a1,a1,0x3
    34d8:	00c585b3          	add	a1,a1,a2
    34dc:	0005b583          	ld	a1,0(a1)
    34e0:	fb144803          	lbu	a6,-79(s0)
    34e4:	00381813          	slli	a6,a6,0x3
    34e8:	00f80833          	add	a6,a6,a5
    34ec:	00083803          	ld	a6,0(a6)
    34f0:	0105c5b3          	xor	a1,a1,a6
    34f4:	fca44803          	lbu	a6,-54(s0)
    34f8:	00381813          	slli	a6,a6,0x3
    34fc:	00e80833          	add	a6,a6,a4
    3500:	00083803          	ld	a6,0(a6)
    3504:	0105c5b3          	xor	a1,a1,a6
    3508:	fc344803          	lbu	a6,-61(s0)
    350c:	00381813          	slli	a6,a6,0x3
    3510:	00d80833          	add	a6,a6,a3
    3514:	00083803          	ld	a6,0(a6)
    3518:	0105c5b3          	xor	a1,a1,a6
    351c:	00b54533          	xor	a0,a0,a1
    3520:	f8a43c23          	sd	a0,-104(s0)
    3524:	f8843503          	ld	a0,-120(s0)
    3528:	13053503          	ld	a0,304(a0)
    352c:	fc044583          	lbu	a1,-64(s0)
    3530:	00359593          	slli	a1,a1,0x3
    3534:	00c585b3          	add	a1,a1,a2
    3538:	0005b583          	ld	a1,0(a1)
    353c:	fb944803          	lbu	a6,-71(s0)
    3540:	00381813          	slli	a6,a6,0x3
    3544:	00f80833          	add	a6,a6,a5
    3548:	00083803          	ld	a6,0(a6)
    354c:	0105c5b3          	xor	a1,a1,a6
    3550:	fb244803          	lbu	a6,-78(s0)
    3554:	00381813          	slli	a6,a6,0x3
    3558:	00e80833          	add	a6,a6,a4
    355c:	00083803          	ld	a6,0(a6)
    3560:	0105c5b3          	xor	a1,a1,a6
    3564:	fcb44803          	lbu	a6,-53(s0)
    3568:	00381813          	slli	a6,a6,0x3
    356c:	00d80833          	add	a6,a6,a3
    3570:	00083803          	ld	a6,0(a6)
    3574:	0105c5b3          	xor	a1,a1,a6
    3578:	00b54533          	xor	a0,a0,a1
    357c:	faa43023          	sd	a0,-96(s0)
    3580:	f8843503          	ld	a0,-120(s0)
    3584:	13853503          	ld	a0,312(a0)
    3588:	fc844583          	lbu	a1,-56(s0)
    358c:	00359593          	slli	a1,a1,0x3
    3590:	00c585b3          	add	a1,a1,a2
    3594:	0005b583          	ld	a1,0(a1)
    3598:	fc144603          	lbu	a2,-63(s0)
    359c:	00361613          	slli	a2,a2,0x3
    35a0:	00f60633          	add	a2,a2,a5
    35a4:	00063603          	ld	a2,0(a2)
    35a8:	00c5c5b3          	xor	a1,a1,a2
    35ac:	fba44603          	lbu	a2,-70(s0)
    35b0:	00361613          	slli	a2,a2,0x3
    35b4:	00e60633          	add	a2,a2,a4
    35b8:	00063603          	ld	a2,0(a2)
    35bc:	00c5c5b3          	xor	a1,a1,a2
    35c0:	fb344603          	lbu	a2,-77(s0)
    35c4:	00361613          	slli	a2,a2,0x3
    35c8:	00d60633          	add	a2,a2,a3
    35cc:	00063603          	ld	a2,0(a2)
    35d0:	00c5c5b3          	xor	a1,a1,a2
    35d4:	00b54533          	xor	a0,a0,a1
    35d8:	faa43423          	sd	a0,-88(s0)
    35dc:	0000006f          	jal	zero,35dc <.LBB2_7+0xea8>

00000000000035e0 <.LBB2_8>:
    35e0:	f9043503          	ld	a0,-112(s0)
    35e4:	fd843583          	ld	a1,-40(s0)
    35e8:	00a5b023          	sd	a0,0(a1)
    35ec:	f9843503          	ld	a0,-104(s0)
    35f0:	fd843583          	ld	a1,-40(s0)
    35f4:	00a5b223          	sd	a0,4(a1)
    35f8:	fa043503          	ld	a0,-96(s0)
    35fc:	fd843583          	ld	a1,-40(s0)
    3600:	00a5b423          	sd	a0,8(a1)
    3604:	fa843503          	ld	a0,-88(s0)
    3608:	fd843583          	ld	a1,-40(s0)
    360c:	00a5b623          	sd	a0,12(a1)
    3610:	00100513          	addi	a0,zero,1
    3614:	fea41723          	sh	a0,-18(s0)
    3618:	0000006f          	jal	zero,3618 <.LBB2_8+0x38>

000000000000361c <.LBB2_9>:
    361c:	fee41503          	lh	a0,-18(s0)
    3620:	0d813083          	ld	ra,216(sp)
    3624:	0d013403          	ld	s0,208(sp)
    3628:	0e010113          	addi	sp,sp,224
    362c:	00008067          	jalr	zero,0(ra)
