
rijndael:     file format elf64-littleriscv


Disassembly of section .text:

00000000000100b0 <main>:
   100b0:	0ff0d073          	csrrwi	zero,0xff,1
   100b4:	0x8bd7977          	0x8bd7977
   100b8:	b7010113          	addi	sp,sp,-1168
   100bc:	48113423          	sd	ra,1160(sp)
   100c0:	48813023          	sd	s0,1152(sp)
   100c4:	46913c23          	sd	s1,1144(sp)
   100c8:	47213823          	sd	s2,1136(sp)
   100cc:	47313423          	sd	s3,1128(sp)
   100d0:	47413023          	sd	s4,1120(sp)
   100d4:	45513c23          	sd	s5,1112(sp)
   100d8:	45613823          	sd	s6,1104(sp)
   100dc:	45713423          	sd	s7,1096(sp)
   100e0:	45813023          	sd	s8,1088(sp)
   100e4:	4795                	c.li	a5,5
   100e6:	24f51b63          	bne	a0,a5,1033c <main+0x28c>
   100ea:	0x659e977          	0x659e977
   100ee:	6d9c                	c.ld	a5,24(a1)
   100f0:	8aae                	c.mv	s5,a1
   100f2:	0007c403          	lbu	s0,0(a5)
   100f6:	5d7040ef          	jal	ra,14ecc <__locale_ctype_ptr>
   100fa:	0x2324977          	0x2324977
   100fe:	4709                	c.li	a4,2
   10100:	9522                	c.add	a0,s0
   10102:	00154783          	lbu	a5,1(a0)
   10106:	2401                	c.addiw	s0,0
   10108:	8b8d                	c.andi	a5,3
   1010a:	00e79563          	bne	a5,a4,10114 <main+0x64>
   1010e:	0xf253977          	0xf253977
   10112:	3401                	c.addiw	s0,-32
   10114:	0xe501977          	0xe501977
   10118:	04400793          	addi	a5,zero,68
   1011c:	1ef41563          	bne	s0,a5,10306 <main+0x256>
   10120:	0x189f977          	0x189f977
   10124:	020abc03          	ld	s8,32(s5)
   10128:	4481                	c.li	s1,0
   1012a:	4b81                	c.li	s7,0
   1012c:	4989                	c.li	s3,2
   1012e:	4925                	c.li	s2,9
   10130:	4b15                	c.li	s6,5
   10132:	04000a13          	addi	s4,zero,64
   10136:	0x29c8977          	0x29c8977
   1013a:	000c4403          	lbu	s0,0(s8)
   1013e:	18040d63          	beq	s0,zero,102d8 <main+0x228>
   10142:	0xf402977          	0xf402977
   10146:	587040ef          	jal	ra,14ecc <__locale_ctype_ptr>
   1014a:	0xea78977          	0xea78977
   1014e:	9522                	c.add	a0,s0
   10150:	00154783          	lbu	a5,1(a0)
   10154:	0c05                	c.addi	s8,1
   10156:	2401                	c.addiw	s0,0
   10158:	8b8d                	c.andi	a5,3
   1015a:	01379563          	bne	a5,s3,10164 <main+0xb4>
   1015e:	0x7bb2977          	0x7bb2977
   10162:	3401                	c.addiw	s0,-32
   10164:	0xc5eb977          	0xc5eb977
   10168:	0ff47793          	andi	a5,s0,255
   1016c:	fd07871b          	addiw	a4,a5,-48
   10170:	0ff77713          	andi	a4,a4,255
   10174:	14e96063          	bltu	s2,a4,102b4 <main+0x204>
   10178:	0xa776977          	0xa776977
   1017c:	0044949b          	slliw	s1,s1,0x4
   10180:	0ff47413          	andi	s0,s0,255
   10184:	9c25                	c.addw	s0,s1
   10186:	fd04049b          	addiw	s1,s0,-48
   1018a:	0x8f7d977          	0x8f7d977
   1018e:	001b879b          	addiw	a5,s7,1
   10192:	001bf713          	andi	a4,s7,1
   10196:	00078b9b          	addiw	s7,a5,0
   1019a:	cb19                	c.beqz	a4,101b0 <main+0x100>
   1019c:	0xac45977          	0xac45977
   101a0:	4017d79b          	sraiw	a5,a5,0x1
   101a4:	37fd                	c.addiw	a5,-1
   101a6:	44010713          	addi	a4,sp,1088
   101aa:	97ba                	c.add	a5,a4
   101ac:	bc978423          	sb	s1,-1080(a5)
   101b0:	0x1875977          	0x1875977
   101b4:	f94b91e3          	bne	s7,s4,10136 <main+0x86>
   101b8:	0x79b2977          	0x79b2977
   101bc:	000c4783          	lbu	a5,0(s8)
   101c0:	1c079e63          	bne	a5,zero,1039c <main+0x2ec>
   101c4:	0x2024977          	0x2024977
   101c8:	04000b93          	addi	s7,zero,64
   101cc:	0xee97977          	0xee97977
   101d0:	008ab503          	ld	a0,8(s5)
   101d4:	000285b7          	lui	a1,0x28
   101d8:	60858593          	addi	a1,a1,1544 # 28608 <s_box+0x230>
   101dc:	3d2040ef          	jal	ra,145ae <fopen>
   101e0:	0x2b0c977          	0x2b0c977
   101e4:	892a                	c.mv	s2,a0
   101e6:	401bdb93          	srai	s7,s7,0x1
   101ea:	1e050363          	beq	a0,zero,103d0 <main+0x320>
   101ee:	0xfbdc977          	0xfbdc977
   101f2:	010ab503          	ld	a0,16(s5)
   101f6:	000285b7          	lui	a1,0x28
   101fa:	63858593          	addi	a1,a1,1592 # 28638 <s_box+0x260>
   101fe:	3b0040ef          	jal	ra,145ae <fopen>
   10202:	0x58af977          	0x58af977
   10206:	84aa                	c.mv	s1,a0
   10208:	1a050663          	beq	a0,zero,103b4 <main+0x304>
   1020c:	0x5c2c977          	0x5c2c977
   10210:	018ab783          	ld	a5,24(s5)
   10214:	0007c403          	lbu	s0,0(a5)
   10218:	4b5040ef          	jal	ra,14ecc <__locale_ctype_ptr>
   1021c:	0x1a4d977          	0x1a4d977
   10220:	4709                	c.li	a4,2
   10222:	9522                	c.add	a0,s0
   10224:	00154783          	lbu	a5,1(a0)
   10228:	2401                	c.addiw	s0,0
   1022a:	8b8d                	c.andi	a5,3
   1022c:	12e78463          	beq	a5,a4,10354 <main+0x2a4>
   10230:	0xea90977          	0xea90977
   10234:	04500793          	addi	a5,zero,69
   10238:	1034                	c.addi4spn	a3,sp,40
   1023a:	12f40163          	beq	s0,a5,1035c <main+0x2ac>
   1023e:	0xa8977          	0xa8977
   10242:	4609                	c.li	a2,2
   10244:	85de                	c.mv	a1,s7
   10246:	0028                	c.addi4spn	a0,sp,8
   10248:	29a000ef          	jal	ra,104e2 <set_key>
   1024c:	0xdf77977          	0xdf77977
   10250:	010ab703          	ld	a4,16(s5)
   10254:	008ab683          	ld	a3,8(s5)
   10258:	1030                	c.addi4spn	a2,sp,40
   1025a:	85a6                	c.mv	a1,s1
   1025c:	854a                	c.mv	a0,s2
   1025e:	34d030ef          	jal	ra,13daa <decfile>
   10262:	0x988c977          	0x988c977
   10266:	842a                	c.mv	s0,a0
   10268:	0xc48c977          	0xc48c977
   1026c:	8526                	c.mv	a0,s1
   1026e:	697030ef          	jal	ra,14104 <fclose>
   10272:	0xfc23977          	0xfc23977
   10276:	854a                	c.mv	a0,s2
   10278:	68d030ef          	jal	ra,14104 <fclose>
   1027c:	0x952977          	0x952977
   10280:	8522                	c.mv	a0,s0
   10282:	48813083          	ld	ra,1160(sp)
   10286:	48013403          	ld	s0,1152(sp)
   1028a:	47813483          	ld	s1,1144(sp)
   1028e:	47013903          	ld	s2,1136(sp)
   10292:	46813983          	ld	s3,1128(sp)
   10296:	46013a03          	ld	s4,1120(sp)
   1029a:	45813a83          	ld	s5,1112(sp)
   1029e:	45013b03          	ld	s6,1104(sp)
   102a2:	44813b83          	ld	s7,1096(sp)
   102a6:	44013c03          	ld	s8,1088(sp)
   102aa:	49010113          	addi	sp,sp,1168
   102ae:	0ff05073          	csrrwi	zero,0xff,0
   102b2:	8082                	c.jr	ra
   102b4:	0x2324977          	0x2324977
   102b8:	fbf7879b          	addiw	a5,a5,-65
   102bc:	0ff7f793          	andi	a5,a5,255
   102c0:	0cfb6263          	bltu	s6,a5,10384 <main+0x2d4>
   102c4:	0x23c3977          	0x23c3977
   102c8:	0044949b          	slliw	s1,s1,0x4
   102cc:	0ff47413          	andi	s0,s0,255
   102d0:	9c25                	c.addw	s0,s1
   102d2:	fc94049b          	addiw	s1,s0,-55
   102d6:	bd55                	c.j	1018a <main+0xda>
   102d8:	0xc02c977          	0xc02c977
   102dc:	47fd                	c.li	a5,31
   102de:	0177d863          	bge	a5,s7,102ee <main+0x23e>
   102e2:	0xf933977          	0xf933977
   102e6:	00fbf793          	andi	a5,s7,15
   102ea:	ee0781e3          	beq	a5,zero,101cc <main+0x11c>
   102ee:	0xe707977          	0xe707977
   102f2:	00028537          	lui	a0,0x28
   102f6:	5d050513          	addi	a0,a0,1488 # 285d0 <s_box+0x1f8>
   102fa:	494050ef          	jal	ra,1578e <puts>
   102fe:	0x155c977          	0x155c977
   10302:	5471                	c.li	s0,-4
   10304:	bfa5                	c.j	1027c <main+0x1cc>
   10306:	0x6b05977          	0x6b05977
   1030a:	018ab783          	ld	a5,24(s5)
   1030e:	0007c403          	lbu	s0,0(a5)
   10312:	3bb040ef          	jal	ra,14ecc <__locale_ctype_ptr>
   10316:	0x1a83977          	0x1a83977
   1031a:	4709                	c.li	a4,2
   1031c:	9522                	c.add	a0,s0
   1031e:	00154783          	lbu	a5,1(a0)
   10322:	2401                	c.addiw	s0,0
   10324:	8b8d                	c.andi	a5,3
   10326:	00e79563          	bne	a5,a4,10330 <main+0x280>
   1032a:	0xb7ac977          	0xb7ac977
   1032e:	3401                	c.addiw	s0,-32
   10330:	0xe5a3977          	0xe5a3977
   10334:	04500793          	addi	a5,zero,69
   10338:	def404e3          	beq	s0,a5,10120 <main+0x70>
   1033c:	0xb5ac977          	0xb5ac977
   10340:	00028537          	lui	a0,0x28
   10344:	54850513          	addi	a0,a0,1352 # 28548 <s_box+0x170>
   10348:	446050ef          	jal	ra,1578e <puts>
   1034c:	0xe713977          	0xe713977
   10350:	547d                	c.li	s0,-1
   10352:	b72d                	c.j	1027c <main+0x1cc>
   10354:	0x33a5977          	0x33a5977
   10358:	3401                	c.addiw	s0,-32
   1035a:	bdd9                	c.j	10230 <main+0x180>
   1035c:	0xe183977          	0xe183977
   10360:	4605                	c.li	a2,1
   10362:	85de                	c.mv	a1,s7
   10364:	0028                	c.addi4spn	a0,sp,8
   10366:	17c000ef          	jal	ra,104e2 <set_key>
   1036a:	0x3465977          	0x3465977
   1036e:	008ab683          	ld	a3,8(s5)
   10372:	1030                	c.addi4spn	a2,sp,40
   10374:	85a6                	c.mv	a1,s1
   10376:	854a                	c.mv	a0,s2
   10378:	120030ef          	jal	ra,13498 <encfile>
   1037c:	0xe2f3977          	0xe2f3977
   10380:	842a                	c.mv	s0,a0
   10382:	b5dd                	c.j	10268 <main+0x1b8>
   10384:	0xda05977          	0xda05977
   10388:	00028537          	lui	a0,0x28
   1038c:	58850513          	addi	a0,a0,1416 # 28588 <s_box+0x1b0>
   10390:	3fe050ef          	jal	ra,1578e <puts>
   10394:	0x38fe977          	0x38fe977
   10398:	5479                	c.li	s0,-2
   1039a:	b5cd                	c.j	1027c <main+0x1cc>
   1039c:	0x5e5f977          	0x5e5f977
   103a0:	00028537          	lui	a0,0x28
   103a4:	5b050513          	addi	a0,a0,1456 # 285b0 <s_box+0x1d8>
   103a8:	3e6050ef          	jal	ra,1578e <puts>
   103ac:	0x1a22977          	0x1a22977
   103b0:	5475                	c.li	s0,-3
   103b2:	b5e9                	c.j	1027c <main+0x1cc>
   103b4:	0x73df977          	0x73df977
   103b8:	008ab583          	ld	a1,8(s5)
   103bc:	00028537          	lui	a0,0x28
   103c0:	64050513          	addi	a0,a0,1600 # 28640 <s_box+0x268>
   103c4:	326050ef          	jal	ra,156ea <printf>
   103c8:	0x46f977          	0x46f977
   103cc:	5469                	c.li	s0,-6
   103ce:	b555                	c.j	10272 <main+0x1c2>
   103d0:	0x986977          	0x986977
   103d4:	008ab583          	ld	a1,8(s5)
   103d8:	00028537          	lui	a0,0x28
   103dc:	61050513          	addi	a0,a0,1552 # 28610 <s_box+0x238>
   103e0:	30a050ef          	jal	ra,156ea <printf>
   103e4:	0x547977          	0x547977
   103e8:	546d                	c.li	s0,-5
   103ea:	bd49                	c.j	1027c <main+0x1cc>

00000000000103ec <_start>:
   103ec:	0001c197          	auipc	gp,0x1c
   103f0:	89418193          	addi	gp,gp,-1900 # 2bc80 <__global_pointer$>
   103f4:	85818513          	addi	a0,gp,-1960 # 2b4d8 <_edata>
   103f8:	90018613          	addi	a2,gp,-1792 # 2b580 <_end>
   103fc:	8e09                	c.sub	a2,a0
   103fe:	4581                	c.li	a1,0
   10400:	1ea050ef          	jal	ra,155ea <memset>
   10404:	00004517          	auipc	a0,0x4
   10408:	0c050513          	addi	a0,a0,192 # 144c4 <__libc_fini_array>
   1040c:	441030ef          	jal	ra,1404c <atexit>
   10410:	1eb040ef          	jal	ra,14dfa <__libc_init_array>
   10414:	4502                	c.lwsp	a0,0(sp)
   10416:	002c                	c.addi4spn	a1,sp,8
   10418:	4601                	c.li	a2,0
   1041a:	c97ff0ef          	jal	ra,100b0 <main>
   1041e:	43b0306f          	jal	zero,14058 <exit>

0000000000010422 <_fini>:
   10422:	8082                	c.jr	ra

0000000000010424 <deregister_tm_clones>:
   10424:	0002b537          	lui	a0,0x2b
   10428:	0002b7b7          	lui	a5,0x2b
   1042c:	48050713          	addi	a4,a0,1152 # 2b480 <__TMC_END__>
   10430:	48078793          	addi	a5,a5,1152 # 2b480 <__TMC_END__>
   10434:	00e78b63          	beq	a5,a4,1044a <deregister_tm_clones+0x26>
   10438:	00000337          	lui	t1,0x0
   1043c:	00030313          	addi	t1,t1,0 # 0 <main-0x100b0>
   10440:	00030563          	beq	t1,zero,1044a <deregister_tm_clones+0x26>
   10444:	48050513          	addi	a0,a0,1152
   10448:	8302                	c.jr	t1
   1044a:	8082                	c.jr	ra

000000000001044c <register_tm_clones>:
   1044c:	0002b7b7          	lui	a5,0x2b
   10450:	0002b537          	lui	a0,0x2b
   10454:	48078593          	addi	a1,a5,1152 # 2b480 <__TMC_END__>
   10458:	48050793          	addi	a5,a0,1152 # 2b480 <__TMC_END__>
   1045c:	8d9d                	c.sub	a1,a5
   1045e:	858d                	c.srai	a1,0x3
   10460:	4789                	c.li	a5,2
   10462:	02f5c5b3          	div	a1,a1,a5
   10466:	c991                	c.beqz	a1,1047a <register_tm_clones+0x2e>
   10468:	00000337          	lui	t1,0x0
   1046c:	00030313          	addi	t1,t1,0 # 0 <main-0x100b0>
   10470:	00030563          	beq	t1,zero,1047a <register_tm_clones+0x2e>
   10474:	48050513          	addi	a0,a0,1152
   10478:	8302                	c.jr	t1
   1047a:	8082                	c.jr	ra

000000000001047c <__do_global_dtors_aux>:
   1047c:	8881c703          	lbu	a4,-1912(gp) # 2b508 <completed.5212>
   10480:	eb1d                	c.bnez	a4,104b6 <__do_global_dtors_aux+0x3a>
   10482:	1141                	c.addi	sp,-16
   10484:	e022                	c.sdsp	s0,0(sp)
   10486:	e406                	c.sdsp	ra,8(sp)
   10488:	843e                	c.mv	s0,a5
   1048a:	f9bff0ef          	jal	ra,10424 <deregister_tm_clones>
   1048e:	000007b7          	lui	a5,0x0
   10492:	00078793          	addi	a5,a5,0 # 0 <main-0x100b0>
   10496:	cb89                	c.beqz	a5,104a8 <__do_global_dtors_aux+0x2c>
   10498:	00029537          	lui	a0,0x29
   1049c:	36850513          	addi	a0,a0,872 # 29368 <__EH_FRAME_BEGIN__>
   104a0:	ffff0097          	auipc	ra,0xffff0
   104a4:	b60080e7          	jalr	ra,-1184(ra) # 0 <main-0x100b0>
   104a8:	4785                	c.li	a5,1
   104aa:	88f18423          	sb	a5,-1912(gp) # 2b508 <completed.5212>
   104ae:	60a2                	c.ldsp	ra,8(sp)
   104b0:	6402                	c.ldsp	s0,0(sp)
   104b2:	0141                	c.addi	sp,16
   104b4:	8082                	c.jr	ra
   104b6:	8082                	c.jr	ra

00000000000104b8 <frame_dummy>:
   104b8:	000007b7          	lui	a5,0x0
   104bc:	00078793          	addi	a5,a5,0 # 0 <main-0x100b0>
   104c0:	cf99                	c.beqz	a5,104de <frame_dummy+0x26>
   104c2:	00029537          	lui	a0,0x29
   104c6:	1141                	c.addi	sp,-16
   104c8:	89018593          	addi	a1,gp,-1904 # 2b510 <object.5217>
   104cc:	36850513          	addi	a0,a0,872 # 29368 <__EH_FRAME_BEGIN__>
   104d0:	e406                	c.sdsp	ra,8(sp)
   104d2:	ffff0097          	auipc	ra,0xffff0
   104d6:	b2e080e7          	jalr	ra,-1234(ra) # 0 <main-0x100b0>
   104da:	60a2                	c.ldsp	ra,8(sp)
   104dc:	0141                	c.addi	sp,16
   104de:	f6fff06f          	jal	zero,1044c <register_tm_clones>

00000000000104e2 <set_key>:
   104e2:	0x1d79977          	0x1d79977
   104e6:	0075f793          	andi	a5,a1,7
   104ea:	e795                	c.bnez	a5,10516 <set_key+0x34>
   104ec:	0x46f977          	0x46f977
   104f0:	ff058793          	addi	a5,a1,-16
   104f4:	4741                	c.li	a4,16
   104f6:	02f77b63          	bgeu	a4,a5,1052c <set_key+0x4a>
   104fa:	0x9279977          	0x9279977
   104fe:	ed81                	c.bnez	a1,10516 <set_key+0x34>
   10500:	0x547977          	0x547977
   10504:	6288                	c.ld	a0,0(a3)
   10506:	050a                	c.slli	a0,0x2
   10508:	0105151b          	slliw	a0,a0,0x10
   1050c:	4105551b          	sraiw	a0,a0,0x10
   10510:	0ff05073          	csrrwi	zero,0xff,0
   10514:	8082                	c.jr	ra
   10516:	0x1d79977          	0x1d79977
   1051a:	4106c783          	lbu	a5,1040(a3)
   1051e:	4501                	c.li	a0,0
   10520:	9bf1                	c.andi	a5,-4
   10522:	40f68823          	sb	a5,1040(a3)
   10526:	0ff05073          	csrrwi	zero,0xff,0
   1052a:	8082                	c.jr	ra
   1052c:	0x46f977          	0x46f977
   10530:	8a0d                	c.andi	a2,3
   10532:	d275                	c.beqz	a2,10516 <set_key+0x34>
   10534:	0x56e6977          	0x56e6977
   10538:	4106c883          	lbu	a7,1040(a3)
   1053c:	8189                	c.srli	a1,0x2
   1053e:	00658793          	addi	a5,a1,6
   10542:	ffc8f893          	andi	a7,a7,-4
   10546:	00c8e8b3          	or	a7,a7,a2
   1054a:	e69c                	c.sd	a5,8(a3)
   1054c:	41168823          	sb	a7,1040(a3)
   10550:	e28c                	c.sd	a1,0(a3)
   10552:	6118                	c.ld	a4,0(a0)
   10554:	00758e93          	addi	t4,a1,7
   10558:	0e8a                	c.slli	t4,0x2
   1055a:	ea98                	c.sd	a4,16(a3)
   1055c:	00453303          	ld	t1,4(a0)
   10560:	1101                	c.addi	sp,-32
   10562:	40be8eb3          	sub	t4,t4,a1
   10566:	0066bc23          	sd	t1,24(a3)
   1056a:	00853803          	ld	a6,8(a0)
   1056e:	01068793          	addi	a5,a3,16
   10572:	0e8e                	c.slli	t4,0x3
   10574:	0306b023          	sd	a6,32(a3)
   10578:	00c53603          	ld	a2,12(a0)
   1057c:	ec22                	c.sdsp	s0,24(sp)
   1057e:	e826                	c.sdsp	s1,16(sp)
   10580:	e44a                	c.sdsp	s2,8(sp)
   10582:	4e19                	c.li	t3,6
   10584:	f690                	c.sd	a2,40(a3)
   10586:	9ebe                	c.add	t4,a5
   10588:	1fc58c63          	beq	a1,t3,10780 <set_key+0x29e>
   1058c:	0xf711977          	0xf711977
   10590:	4e21                	c.li	t3,8
   10592:	35c58663          	beq	a1,t3,108de <set_key+0x3fc>
   10596:	0x947977          	0x947977
   1059a:	4511                	c.li	a0,4
   1059c:	2aa58063          	beq	a1,a0,1083c <set_key+0x35a>
   105a0:	0x6f2c977          	0x6f2c977
   105a4:	0038f613          	andi	a2,a7,3
   105a8:	4585                	c.li	a1,1
   105aa:	4505                	c.li	a0,1
   105ac:	1cb60163          	beq	a2,a1,1076e <set_key+0x28c>
   105b0:	0xaac977          	0xaac977
   105b4:	6698                	c.ld	a4,8(a3)
   105b6:	6a90                	c.ld	a2,16(a3)
   105b8:	21068793          	addi	a5,a3,528
   105bc:	0716                	c.slli	a4,0x5
   105be:	97ba                	c.add	a5,a4
   105c0:	e390                	c.sd	a2,0(a5)
   105c2:	6e98                	c.ld	a4,24(a3)
   105c4:	fe078813          	addi	a6,a5,-32
   105c8:	03068893          	addi	a7,a3,48
   105cc:	e798                	c.sd	a4,8(a5)
   105ce:	7298                	c.ld	a4,32(a3)
   105d0:	eb98                	c.sd	a4,16(a5)
   105d2:	7698                	c.ld	a4,40(a3)
   105d4:	ef98                	c.sd	a4,24(a5)
   105d6:	669c                	c.ld	a5,8(a3)
   105d8:	16f5f863          	bgeu	a1,a5,10748 <set_key+0x266>
   105dc:	0x46f977          	0x46f977
   105e0:	67f9                	c.lui	a5,0x1e
   105e2:	2d878793          	addi	a5,a5,728 # 1e2d8 <im_tab>
   105e6:	0xf47977          	0xf47977
   105ea:	0008b703          	ld	a4,0(a7)
   105ee:	02088893          	addi	a7,a7,32
   105f2:	1801                	c.addi	a6,-32
   105f4:	00875313          	srli	t1,a4,0x8
   105f8:	01075593          	srli	a1,a4,0x10
   105fc:	0ff37313          	andi	t1,t1,255
   10600:	0ff5f593          	andi	a1,a1,255
   10604:	0187561b          	srliw	a2,a4,0x18
   10608:	10030313          	addi	t1,t1,256
   1060c:	20058593          	addi	a1,a1,512
   10610:	030e                	c.slli	t1,0x3
   10612:	058e                	c.slli	a1,0x3
   10614:	0ff77713          	andi	a4,a4,255
   10618:	2601                	c.addiw	a2,0
   1061a:	95be                	c.add	a1,a5
   1061c:	933e                	c.add	t1,a5
   1061e:	070e                	c.slli	a4,0x3
   10620:	30060613          	addi	a2,a2,768
   10624:	0005be03          	ld	t3,0(a1)
   10628:	00033303          	ld	t1,0(t1)
   1062c:	973e                	c.add	a4,a5
   1062e:	060e                	c.slli	a2,0x3
   10630:	630c                	c.ld	a1,0(a4)
   10632:	00c78733          	add	a4,a5,a2
   10636:	6310                	c.ld	a2,0(a4)
   10638:	01c34733          	xor	a4,t1,t3
   1063c:	8f2d                	c.xor	a4,a1
   1063e:	8f31                	c.xor	a4,a2
   10640:	02e83023          	sd	a4,32(a6)
   10644:	fe88b703          	ld	a4,-24(a7)
   10648:	0505                	c.addi	a0,1
   1064a:	00875313          	srli	t1,a4,0x8
   1064e:	01075593          	srli	a1,a4,0x10
   10652:	0ff37313          	andi	t1,t1,255
   10656:	0ff5f593          	andi	a1,a1,255
   1065a:	0187561b          	srliw	a2,a4,0x18
   1065e:	10030313          	addi	t1,t1,256
   10662:	20058593          	addi	a1,a1,512
   10666:	030e                	c.slli	t1,0x3
   10668:	058e                	c.slli	a1,0x3
   1066a:	0ff77713          	andi	a4,a4,255
   1066e:	2601                	c.addiw	a2,0
   10670:	95be                	c.add	a1,a5
   10672:	933e                	c.add	t1,a5
   10674:	070e                	c.slli	a4,0x3
   10676:	30060613          	addi	a2,a2,768
   1067a:	0005be03          	ld	t3,0(a1)
   1067e:	00033303          	ld	t1,0(t1)
   10682:	973e                	c.add	a4,a5
   10684:	060e                	c.slli	a2,0x3
   10686:	630c                	c.ld	a1,0(a4)
   10688:	00c78733          	add	a4,a5,a2
   1068c:	6310                	c.ld	a2,0(a4)
   1068e:	01c34733          	xor	a4,t1,t3
   10692:	8f2d                	c.xor	a4,a1
   10694:	8f31                	c.xor	a4,a2
   10696:	02e83423          	sd	a4,40(a6)
   1069a:	ff08b703          	ld	a4,-16(a7)
   1069e:	00875313          	srli	t1,a4,0x8
   106a2:	01075593          	srli	a1,a4,0x10
   106a6:	0ff37313          	andi	t1,t1,255
   106aa:	0ff5f593          	andi	a1,a1,255
   106ae:	0187561b          	srliw	a2,a4,0x18
   106b2:	10030313          	addi	t1,t1,256
   106b6:	20058593          	addi	a1,a1,512
   106ba:	030e                	c.slli	t1,0x3
   106bc:	058e                	c.slli	a1,0x3
   106be:	0ff77713          	andi	a4,a4,255
   106c2:	2601                	c.addiw	a2,0
   106c4:	95be                	c.add	a1,a5
   106c6:	933e                	c.add	t1,a5
   106c8:	070e                	c.slli	a4,0x3
   106ca:	30060613          	addi	a2,a2,768
   106ce:	0005be03          	ld	t3,0(a1)
   106d2:	00033303          	ld	t1,0(t1)
   106d6:	973e                	c.add	a4,a5
   106d8:	060e                	c.slli	a2,0x3
   106da:	630c                	c.ld	a1,0(a4)
   106dc:	00c78733          	add	a4,a5,a2
   106e0:	6310                	c.ld	a2,0(a4)
   106e2:	01c34733          	xor	a4,t1,t3
   106e6:	8f2d                	c.xor	a4,a1
   106e8:	8f31                	c.xor	a4,a2
   106ea:	02e83823          	sd	a4,48(a6)
   106ee:	ff88b703          	ld	a4,-8(a7)
   106f2:	00875313          	srli	t1,a4,0x8
   106f6:	01075593          	srli	a1,a4,0x10
   106fa:	0ff37313          	andi	t1,t1,255
   106fe:	0ff5f593          	andi	a1,a1,255
   10702:	0187561b          	srliw	a2,a4,0x18
   10706:	10030313          	addi	t1,t1,256
   1070a:	20058593          	addi	a1,a1,512
   1070e:	030e                	c.slli	t1,0x3
   10710:	058e                	c.slli	a1,0x3
   10712:	0ff77713          	andi	a4,a4,255
   10716:	2601                	c.addiw	a2,0
   10718:	95be                	c.add	a1,a5
   1071a:	933e                	c.add	t1,a5
   1071c:	070e                	c.slli	a4,0x3
   1071e:	30060613          	addi	a2,a2,768
   10722:	0005be03          	ld	t3,0(a1)
   10726:	973e                	c.add	a4,a5
   10728:	060e                	c.slli	a2,0x3
   1072a:	00033303          	ld	t1,0(t1)
   1072e:	630c                	c.ld	a1,0(a4)
   10730:	00c78733          	add	a4,a5,a2
   10734:	6310                	c.ld	a2,0(a4)
   10736:	01c34733          	xor	a4,t1,t3
   1073a:	8f2d                	c.xor	a4,a1
   1073c:	8f31                	c.xor	a4,a2
   1073e:	02e83c23          	sd	a4,56(a6)
   10742:	6698                	c.ld	a4,8(a3)
   10744:	eae561e3          	bltu	a0,a4,105e6 <set_key+0x104>
   10748:	0x67b5977          	0x67b5977
   1074c:	0008b783          	ld	a5,0(a7)
   10750:	4505                	c.li	a0,1
   10752:	00f83023          	sd	a5,0(a6)
   10756:	0088b783          	ld	a5,8(a7)
   1075a:	00f83423          	sd	a5,8(a6)
   1075e:	0108b783          	ld	a5,16(a7)
   10762:	00f83823          	sd	a5,16(a6)
   10766:	0188b783          	ld	a5,24(a7)
   1076a:	00f83c23          	sd	a5,24(a6)
   1076e:	0xcacb977          	0xcacb977
   10772:	6462                	c.ldsp	s0,24(sp)
   10774:	64c2                	c.ldsp	s1,16(sp)
   10776:	6922                	c.ldsp	s2,8(sp)
   10778:	6105                	c.addi16sp	sp,32
   1077a:	0ff05073          	csrrwi	zero,0xff,0
   1077e:	8082                	c.jr	ra
   10780:	0x3700977          	0x3700977
   10784:	01053f03          	ld	t5,16(a0)
   10788:	000228b7          	lui	a7,0x22
   1078c:	62f9                	c.lui	t0,0x1e
   1078e:	03e6b823          	sd	t5,48(a3)
   10792:	01453f83          	ld	t6,20(a0)
   10796:	859a                	c.mv	a1,t1
   10798:	1f028293          	addi	t0,t0,496 # 1e1f0 <rcon_tab>
   1079c:	03f6bc23          	sd	t6,56(a3)
   107a0:	2d888513          	addi	a0,a7,728 # 222d8 <fl_tab>
   107a4:	0x6382977          	0x6382977
   107a8:	0ffff893          	andi	a7,t6,255
   107ac:	010fde13          	srli	t3,t6,0x10
   107b0:	30088893          	addi	a7,a7,768
   107b4:	005fd393          	srli	t2,t6,0x5
   107b8:	018fd31b          	srliw	t1,t6,0x18
   107bc:	088e                	c.slli	a7,0x3
   107be:	0ffe7e13          	andi	t3,t3,255
   107c2:	7f83f393          	andi	t2,t2,2040
   107c6:	98aa                	c.add	a7,a0
   107c8:	100e0e13          	addi	t3,t3,256
   107cc:	2301                	c.addiw	t1,0
   107ce:	0008b883          	ld	a7,0(a7)
   107d2:	93aa                	c.add	t2,a0
   107d4:	0e0e                	c.slli	t3,0x3
   107d6:	20030313          	addi	t1,t1,512
   107da:	0003b383          	ld	t2,0(t2)
   107de:	9e2a                	c.add	t3,a0
   107e0:	030e                	c.slli	t1,0x3
   107e2:	000e3e03          	ld	t3,0(t3)
   107e6:	932a                	c.add	t1,a0
   107e8:	01174733          	xor	a4,a4,a7
   107ec:	00033303          	ld	t1,0(t1)
   107f0:	0002b883          	ld	a7,0(t0)
   107f4:	00774733          	xor	a4,a4,t2
   107f8:	01c74733          	xor	a4,a4,t3
   107fc:	00674733          	xor	a4,a4,t1
   10800:	01174733          	xor	a4,a4,a7
   10804:	8db9                	c.xor	a1,a4
   10806:	00b84833          	xor	a6,a6,a1
   1080a:	01064633          	xor	a2,a2,a6
   1080e:	00cf4f33          	xor	t5,t5,a2
   10812:	01efcfb3          	xor	t6,t6,t5
   10816:	fb98                	c.sd	a4,48(a5)
   10818:	ff8c                	c.sd	a1,56(a5)
   1081a:	0507b023          	sd	a6,64(a5)
   1081e:	e7b0                	c.sd	a2,72(a5)
   10820:	05e7b823          	sd	t5,80(a5)
   10824:	05f7bc23          	sd	t6,88(a5)
   10828:	03078793          	addi	a5,a5,48
   1082c:	02a1                	c.addi	t0,8
   1082e:	f7d7ebe3          	bltu	a5,t4,107a4 <set_key+0x2c2>
   10832:	0x711977          	0x711977
   10836:	4106c883          	lbu	a7,1040(a3)
   1083a:	b39d                	c.j	105a0 <set_key+0xbe>
   1083c:	0x9c66977          	0x9c66977
   10840:	000228b7          	lui	a7,0x22
   10844:	6f79                	c.lui	t5,0x1e
   10846:	859a                	c.mv	a1,t1
   10848:	8fba                	c.mv	t6,a4
   1084a:	1f0f0f13          	addi	t5,t5,496 # 1e1f0 <rcon_tab>
   1084e:	2d888513          	addi	a0,a7,728 # 222d8 <fl_tab>
   10852:	0xfbdf977          	0xfbdf977
   10856:	0ff67e13          	andi	t3,a2,255
   1085a:	01065313          	srli	t1,a2,0x10
   1085e:	300e0e13          	addi	t3,t3,768
   10862:	00565293          	srli	t0,a2,0x5
   10866:	0186589b          	srliw	a7,a2,0x18
   1086a:	0e0e                	c.slli	t3,0x3
   1086c:	0ff37313          	andi	t1,t1,255
   10870:	9e2a                	c.add	t3,a0
   10872:	7f82f293          	andi	t0,t0,2040
   10876:	10030313          	addi	t1,t1,256
   1087a:	2881                	c.addiw	a7,0
   1087c:	000e3703          	ld	a4,0(t3)
   10880:	92aa                	c.add	t0,a0
   10882:	030e                	c.slli	t1,0x3
   10884:	20088893          	addi	a7,a7,512
   10888:	0002be03          	ld	t3,0(t0)
   1088c:	932a                	c.add	t1,a0
   1088e:	088e                	c.slli	a7,0x3
   10890:	00033303          	ld	t1,0(t1)
   10894:	98aa                	c.add	a7,a0
   10896:	00efc733          	xor	a4,t6,a4
   1089a:	0008b883          	ld	a7,0(a7)
   1089e:	000f3f83          	ld	t6,0(t5)
   108a2:	01c74733          	xor	a4,a4,t3
   108a6:	00674733          	xor	a4,a4,t1
   108aa:	01174733          	xor	a4,a4,a7
   108ae:	01f74fb3          	xor	t6,a4,t6
   108b2:	01f5c5b3          	xor	a1,a1,t6
   108b6:	00b84833          	xor	a6,a6,a1
   108ba:	01064633          	xor	a2,a2,a6
   108be:	03f7b023          	sd	t6,32(a5)
   108c2:	f78c                	c.sd	a1,40(a5)
   108c4:	0307b823          	sd	a6,48(a5)
   108c8:	ff90                	c.sd	a2,56(a5)
   108ca:	02078793          	addi	a5,a5,32
   108ce:	0f21                	c.addi	t5,8
   108d0:	f9d7e1e3          	bltu	a5,t4,10852 <set_key+0x370>
   108d4:	0x18fb977          	0x18fb977
   108d8:	4106c883          	lbu	a7,1040(a3)
   108dc:	b1d1                	c.j	105a0 <set_key+0xbe>
   108de:	0x8ac0977          	0x8ac0977
   108e2:	01053f83          	ld	t6,16(a0)
   108e6:	000228b7          	lui	a7,0x22
   108ea:	6479                	c.lui	s0,0x1e
   108ec:	03f6b823          	sd	t6,48(a3)
   108f0:	01453383          	ld	t2,20(a0)
   108f4:	859a                	c.mv	a1,t1
   108f6:	1f040413          	addi	s0,s0,496 # 1e1f0 <rcon_tab>
   108fa:	0276bc23          	sd	t2,56(a3)
   108fe:	01853283          	ld	t0,24(a0)
   10902:	0456b023          	sd	t0,64(a3)
   10906:	01c53f03          	ld	t5,28(a0)
   1090a:	2d888513          	addi	a0,a7,728 # 222d8 <fl_tab>
   1090e:	05e6b423          	sd	t5,72(a3)
   10912:	0xe926977          	0xe926977
   10916:	0fff7893          	andi	a7,t5,255
   1091a:	010f5e13          	srli	t3,t5,0x10
   1091e:	30088893          	addi	a7,a7,768
   10922:	005f5493          	srli	s1,t5,0x5
   10926:	018f531b          	srliw	t1,t5,0x18
   1092a:	088e                	c.slli	a7,0x3
   1092c:	0ffe7e13          	andi	t3,t3,255
   10930:	7f84f493          	andi	s1,s1,2040
   10934:	98aa                	c.add	a7,a0
   10936:	100e0e13          	addi	t3,t3,256
   1093a:	2301                	c.addiw	t1,0
   1093c:	0008b883          	ld	a7,0(a7)
   10940:	94aa                	c.add	s1,a0
   10942:	0e0e                	c.slli	t3,0x3
   10944:	20030313          	addi	t1,t1,512
   10948:	6084                	c.ld	s1,0(s1)
   1094a:	9e2a                	c.add	t3,a0
   1094c:	030e                	c.slli	t1,0x3
   1094e:	000e3e03          	ld	t3,0(t3)
   10952:	932a                	c.add	t1,a0
   10954:	01174733          	xor	a4,a4,a7
   10958:	00033303          	ld	t1,0(t1)
   1095c:	00043883          	ld	a7,0(s0)
   10960:	8f25                	c.xor	a4,s1
   10962:	01c74733          	xor	a4,a4,t3
   10966:	00674733          	xor	a4,a4,t1
   1096a:	01174733          	xor	a4,a4,a7
   1096e:	8db9                	c.xor	a1,a4
   10970:	00b84833          	xor	a6,a6,a1
   10974:	01064633          	xor	a2,a2,a6
   10978:	00865e13          	srli	t3,a2,0x8
   1097c:	0ff67493          	andi	s1,a2,255
   10980:	0ffe7e13          	andi	t3,t3,255
   10984:	01065313          	srli	t1,a2,0x10
   10988:	048e                	c.slli	s1,0x3
   1098a:	100e0e13          	addi	t3,t3,256
   1098e:	0ff37313          	andi	t1,t1,255
   10992:	0186589b          	srliw	a7,a2,0x18
   10996:	94aa                	c.add	s1,a0
   10998:	0e0e                	c.slli	t3,0x3
   1099a:	20030313          	addi	t1,t1,512
   1099e:	2881                	c.addiw	a7,0
   109a0:	9e2a                	c.add	t3,a0
   109a2:	6084                	c.ld	s1,0(s1)
   109a4:	030e                	c.slli	t1,0x3
   109a6:	30088893          	addi	a7,a7,768
   109aa:	000e3903          	ld	s2,0(t3)
   109ae:	932a                	c.add	t1,a0
   109b0:	088e                	c.slli	a7,0x3
   109b2:	00033e03          	ld	t3,0(t1)
   109b6:	98aa                	c.add	a7,a0
   109b8:	009fcfb3          	xor	t6,t6,s1
   109bc:	0008b303          	ld	t1,0(a7)
   109c0:	012fc8b3          	xor	a7,t6,s2
   109c4:	01c8c8b3          	xor	a7,a7,t3
   109c8:	0068cfb3          	xor	t6,a7,t1
   109cc:	01f3c3b3          	xor	t2,t2,t6
   109d0:	0072c2b3          	xor	t0,t0,t2
   109d4:	005f4f33          	xor	t5,t5,t0
   109d8:	e3b8                	c.sd	a4,64(a5)
   109da:	e7ac                	c.sd	a1,72(a5)
   109dc:	0507b823          	sd	a6,80(a5)
   109e0:	efb0                	c.sd	a2,88(a5)
   109e2:	07f7b023          	sd	t6,96(a5)
   109e6:	0677b423          	sd	t2,104(a5)
   109ea:	0657b823          	sd	t0,112(a5)
   109ee:	07e7bc23          	sd	t5,120(a5)
   109f2:	04078793          	addi	a5,a5,64
   109f6:	0421                	c.addi	s0,8
   109f8:	f1d7ede3          	bltu	a5,t4,10912 <set_key+0x430>
   109fc:	0xbd35977          	0xbd35977
   10a00:	4106c883          	lbu	a7,1040(a3)
   10a04:	be71                	c.j	105a0 <set_key+0xbe>

0000000000010a06 <encrypt>:
   10a06:	0xaf95977          	0xaf95977
   10a0a:	41064783          	lbu	a5,1040(a2)
   10a0e:	8b85                	c.andi	a5,1
   10a10:	c7c5                	c.beqz	a5,10ab8 <encrypt+0xb2>
   10a12:	0xeb7e977          	0xeb7e977
   10a16:	00053383          	ld	t2,0(a0)
   10a1a:	00453e83          	ld	t4,4(a0)
   10a1e:	00853803          	ld	a6,8(a0)
   10a22:	01063e03          	ld	t3,16(a2)
   10a26:	00c53503          	ld	a0,12(a0)
   10a2a:	6e18                	c.ld	a4,24(a2)
   10a2c:	721c                	c.ld	a5,32(a2)
   10a2e:	7614                	c.ld	a3,40(a2)
   10a30:	00863883          	ld	a7,8(a2)
   10a34:	711d                	c.addi16sp	sp,-96
   10a36:	eca2                	c.sdsp	s0,88(sp)
   10a38:	e8a6                	c.sdsp	s1,80(sp)
   10a3a:	e4ca                	c.sdsp	s2,72(sp)
   10a3c:	e0ce                	c.sdsp	s3,64(sp)
   10a3e:	fc52                	c.sdsp	s4,56(sp)
   10a40:	f856                	c.sdsp	s5,48(sp)
   10a42:	f45a                	c.sdsp	s6,40(sp)
   10a44:	f05e                	c.sdsp	s7,32(sp)
   10a46:	ec62                	c.sdsp	s8,24(sp)
   10a48:	e866                	c.sdsp	s9,16(sp)
   10a4a:	e46a                	c.sdsp	s10,8(sp)
   10a4c:	e06e                	c.sdsp	s11,0(sp)
   10a4e:	4331                	c.li	t1,12
   10a50:	8ea9                	c.xor	a3,a0
   10a52:	01c3ce33          	xor	t3,t2,t3
   10a56:	00eec733          	xor	a4,t4,a4
   10a5a:	00f84833          	xor	a6,a6,a5
   10a5e:	03060513          	addi	a0,a2,48
   10a62:	06688163          	beq	a7,t1,10ac4 <encrypt+0xbe>
   10a66:	0x2432977          	0x2432977
   10a6a:	47b9                	c.li	a5,14
   10a6c:	00f89463          	bne	a7,a5,10a74 <encrypt+0x6e>
   10a70:	1680106f          	jal	zero,11bd8 <encrypt+0x11d2>
   10a74:	0xf6a7977          	0xf6a7977
   10a78:	47a9                	c.li	a5,10
   10a7a:	00f89463          	bne	a7,a5,10a82 <encrypt+0x7c>
   10a7e:	14a0106f          	jal	zero,11bc8 <encrypt+0x11c2>
   10a82:	0x666f977          	0x666f977
   10a86:	01c5b023          	sd	t3,0(a1)
   10a8a:	00e5b223          	sd	a4,4(a1)
   10a8e:	6466                	c.ldsp	s0,88(sp)
   10a90:	0105b423          	sd	a6,8(a1)
   10a94:	00d5b623          	sd	a3,12(a1)
   10a98:	64c6                	c.ldsp	s1,80(sp)
   10a9a:	6926                	c.ldsp	s2,72(sp)
   10a9c:	6986                	c.ldsp	s3,64(sp)
   10a9e:	7a62                	c.ldsp	s4,56(sp)
   10aa0:	7ac2                	c.ldsp	s5,48(sp)
   10aa2:	7b22                	c.ldsp	s6,40(sp)
   10aa4:	7b82                	c.ldsp	s7,32(sp)
   10aa6:	6c62                	c.ldsp	s8,24(sp)
   10aa8:	6cc2                	c.ldsp	s9,16(sp)
   10aaa:	6d22                	c.ldsp	s10,8(sp)
   10aac:	6d82                	c.ldsp	s11,0(sp)
   10aae:	4505                	c.li	a0,1
   10ab0:	6125                	c.addi16sp	sp,96
   10ab2:	0ff05073          	csrrwi	zero,0xff,0
   10ab6:	8082                	c.jr	ra
   10ab8:	0x2700977          	0x2700977
   10abc:	4501                	c.li	a0,0
   10abe:	0ff05073          	csrrwi	zero,0xff,0
   10ac2:	8082                	c.jr	ra
   10ac4:	0xaf95977          	0xaf95977
   10ac8:	03063e83          	ld	t4,48(a2)
   10acc:	000267b7          	lui	a5,0x26
   10ad0:	2d878793          	addi	a5,a5,728 # 262d8 <ft_tab>
   10ad4:	0x99a2977          	0x99a2977
   10ad8:	00875293          	srli	t0,a4,0x8
   10adc:	00885993          	srli	s3,a6,0x8
   10ae0:	0086d913          	srli	s2,a3,0x8
   10ae4:	008e5493          	srli	s1,t3,0x8
   10ae8:	010e5613          	srli	a2,t3,0x10
   10aec:	0ffe7c13          	andi	s8,t3,255
   10af0:	01085413          	srli	s0,a6,0x10
   10af4:	0ff77b93          	andi	s7,a4,255
   10af8:	0106d393          	srli	t2,a3,0x10
   10afc:	0ff87b13          	andi	s6,a6,255
   10b00:	0ff6fa93          	andi	s5,a3,255
   10b04:	01075f93          	srli	t6,a4,0x10
   10b08:	0ff2f293          	andi	t0,t0,255
   10b0c:	0ff9f993          	andi	s3,s3,255
   10b10:	0ff97913          	andi	s2,s2,255
   10b14:	0ff4f493          	andi	s1,s1,255
   10b18:	0186df1b          	srliw	t5,a3,0x18
   10b1c:	0187531b          	srliw	t1,a4,0x18
   10b20:	0188589b          	srliw	a7,a6,0x18
   10b24:	10028a13          	addi	s4,t0,256
   10b28:	018e5e1b          	srliw	t3,t3,0x18
   10b2c:	0ff67293          	andi	t0,a2,255
   10b30:	0c0e                	c.slli	s8,0x3
   10b32:	0ff47413          	andi	s0,s0,255
   10b36:	0b8e                	c.slli	s7,0x3
   10b38:	10098993          	addi	s3,s3,256
   10b3c:	0ff3f393          	andi	t2,t2,255
   10b40:	0b0e                	c.slli	s6,0x3
   10b42:	10090913          	addi	s2,s2,256
   10b46:	0a8e                	c.slli	s5,0x3
   10b48:	10048493          	addi	s1,s1,256
   10b4c:	0fffff93          	andi	t6,t6,255
   10b50:	9c3e                	c.add	s8,a5
   10b52:	0a0e                	c.slli	s4,0x3
   10b54:	20040413          	addi	s0,s0,512
   10b58:	2f01                	c.addiw	t5,0
   10b5a:	9bbe                	c.add	s7,a5
   10b5c:	098e                	c.slli	s3,0x3
   10b5e:	20038393          	addi	t2,t2,512
   10b62:	2e01                	c.addiw	t3,0
   10b64:	9b3e                	c.add	s6,a5
   10b66:	090e                	c.slli	s2,0x3
   10b68:	20028293          	addi	t0,t0,512
   10b6c:	2301                	c.addiw	t1,0
   10b6e:	9abe                	c.add	s5,a5
   10b70:	048e                	c.slli	s1,0x3
   10b72:	200f8f93          	addi	t6,t6,512
   10b76:	2881                	c.addiw	a7,0
   10b78:	6510                	c.ld	a2,8(a0)
   10b7a:	6914                	c.ld	a3,16(a0)
   10b7c:	6d18                	c.ld	a4,24(a0)
   10b7e:	000c3803          	ld	a6,0(s8)
   10b82:	000bbb83          	ld	s7,0(s7)
   10b86:	000b3b03          	ld	s6,0(s6)
   10b8a:	000aba83          	ld	s5,0(s5)
   10b8e:	9a3e                	c.add	s4,a5
   10b90:	040e                	c.slli	s0,0x3
   10b92:	300f0f13          	addi	t5,t5,768
   10b96:	99be                	c.add	s3,a5
   10b98:	038e                	c.slli	t2,0x3
   10b9a:	300e0e13          	addi	t3,t3,768
   10b9e:	993e                	c.add	s2,a5
   10ba0:	028e                	c.slli	t0,0x3
   10ba2:	30030313          	addi	t1,t1,768
   10ba6:	94be                	c.add	s1,a5
   10ba8:	0f8e                	c.slli	t6,0x3
   10baa:	30088893          	addi	a7,a7,768
   10bae:	000a3a03          	ld	s4,0(s4)
   10bb2:	0009b983          	ld	s3,0(s3)
   10bb6:	00093903          	ld	s2,0(s2)
   10bba:	6084                	c.ld	s1,0(s1)
   10bbc:	943e                	c.add	s0,a5
   10bbe:	0f0e                	c.slli	t5,0x3
   10bc0:	93be                	c.add	t2,a5
   10bc2:	0e0e                	c.slli	t3,0x3
   10bc4:	92be                	c.add	t0,a5
   10bc6:	030e                	c.slli	t1,0x3
   10bc8:	9fbe                	c.add	t6,a5
   10bca:	088e                	c.slli	a7,0x3
   10bcc:	6000                	c.ld	s0,0(s0)
   10bce:	0003b383          	ld	t2,0(t2)
   10bd2:	0002b283          	ld	t0,0(t0)
   10bd6:	000fbf83          	ld	t6,0(t6)
   10bda:	9f3e                	c.add	t5,a5
   10bdc:	9e3e                	c.add	t3,a5
   10bde:	933e                	c.add	t1,a5
   10be0:	98be                	c.add	a7,a5
   10be2:	000f3f03          	ld	t5,0(t5)
   10be6:	000e3e03          	ld	t3,0(t3)
   10bea:	00033303          	ld	t1,0(t1)
   10bee:	0008b883          	ld	a7,0(a7)
   10bf2:	010ec833          	xor	a6,t4,a6
   10bf6:	01764633          	xor	a2,a2,s7
   10bfa:	0166c6b3          	xor	a3,a3,s6
   10bfe:	01574733          	xor	a4,a4,s5
   10c02:	01484833          	xor	a6,a6,s4
   10c06:	01364633          	xor	a2,a2,s3
   10c0a:	0126c6b3          	xor	a3,a3,s2
   10c0e:	8f25                	c.xor	a4,s1
   10c10:	00884833          	xor	a6,a6,s0
   10c14:	00764633          	xor	a2,a2,t2
   10c18:	0056c6b3          	xor	a3,a3,t0
   10c1c:	01f74733          	xor	a4,a4,t6
   10c20:	01e84833          	xor	a6,a6,t5
   10c24:	01c64633          	xor	a2,a2,t3
   10c28:	0066c6b3          	xor	a3,a3,t1
   10c2c:	01174733          	xor	a4,a4,a7
   10c30:	00865a13          	srli	s4,a2,0x8
   10c34:	0106d913          	srli	s2,a3,0x10
   10c38:	0187539b          	srliw	t2,a4,0x18
   10c3c:	0086d993          	srli	s3,a3,0x8
   10c40:	01075493          	srli	s1,a4,0x10
   10c44:	01885a9b          	srliw	s5,a6,0x18
   10c48:	00875413          	srli	s0,a4,0x8
   10c4c:	01085293          	srli	t0,a6,0x10
   10c50:	00885f93          	srli	t6,a6,0x8
   10c54:	0ffa7a13          	andi	s4,s4,255
   10c58:	0ff97913          	andi	s2,s2,255
   10c5c:	2381                	c.addiw	t2,0
   10c5e:	0ff9f993          	andi	s3,s3,255
   10c62:	0ff4f493          	andi	s1,s1,255
   10c66:	2a81                	c.addiw	s5,0
   10c68:	0ff47413          	andi	s0,s0,255
   10c6c:	0ff2f293          	andi	t0,t0,255
   10c70:	0ff87f13          	andi	t5,a6,255
   10c74:	0ff67b13          	andi	s6,a2,255
   10c78:	0ff6fc13          	andi	s8,a3,255
   10c7c:	01065e93          	srli	t4,a2,0x10
   10c80:	100a0a13          	addi	s4,s4,256
   10c84:	20090913          	addi	s2,s2,512
   10c88:	30038393          	addi	t2,t2,768
   10c8c:	10098993          	addi	s3,s3,256
   10c90:	20048493          	addi	s1,s1,512
   10c94:	300a8a93          	addi	s5,s5,768
   10c98:	10040413          	addi	s0,s0,256
   10c9c:	20028293          	addi	t0,t0,512
   10ca0:	0ff77713          	andi	a4,a4,255
   10ca4:	0fffff93          	andi	t6,t6,255
   10ca8:	0186561b          	srliw	a2,a2,0x18
   10cac:	070e                	c.slli	a4,0x3
   10cae:	0186d69b          	srliw	a3,a3,0x18
   10cb2:	0f0e                	c.slli	t5,0x3
   10cb4:	0a0e                	c.slli	s4,0x3
   10cb6:	090e                	c.slli	s2,0x3
   10cb8:	038e                	c.slli	t2,0x3
   10cba:	0b0e                	c.slli	s6,0x3
   10cbc:	098e                	c.slli	s3,0x3
   10cbe:	048e                	c.slli	s1,0x3
   10cc0:	0a8e                	c.slli	s5,0x3
   10cc2:	0c0e                	c.slli	s8,0x3
   10cc4:	040e                	c.slli	s0,0x3
   10cc6:	028e                	c.slli	t0,0x3
   10cc8:	100f8f93          	addi	t6,t6,256
   10ccc:	0ffefe93          	andi	t4,t4,255
   10cd0:	00e788b3          	add	a7,a5,a4
   10cd4:	9f3e                	c.add	t5,a5
   10cd6:	9abe                	c.add	s5,a5
   10cd8:	9c3e                	c.add	s8,a5
   10cda:	00060e1b          	addiw	t3,a2,0
   10cde:	0006831b          	addiw	t1,a3,0
   10ce2:	9a3e                	c.add	s4,a5
   10ce4:	993e                	c.add	s2,a5
   10ce6:	93be                	c.add	t2,a5
   10ce8:	9b3e                	c.add	s6,a5
   10cea:	99be                	c.add	s3,a5
   10cec:	94be                	c.add	s1,a5
   10cee:	943e                	c.add	s0,a5
   10cf0:	92be                	c.add	t0,a5
   10cf2:	0f8e                	c.slli	t6,0x3
   10cf4:	200e8e93          	addi	t4,t4,512
   10cf8:	7110                	c.ld	a2,32(a0)
   10cfa:	7518                	c.ld	a4,40(a0)
   10cfc:	03053803          	ld	a6,48(a0)
   10d00:	000f3b83          	ld	s7,0(t5)
   10d04:	000a3a03          	ld	s4,0(s4)
   10d08:	000abf03          	ld	t5,0(s5)
   10d0c:	00093903          	ld	s2,0(s2)
   10d10:	000c3a83          	ld	s5,0(s8)
   10d14:	0003b383          	ld	t2,0(t2)
   10d18:	000b3b03          	ld	s6,0(s6)
   10d1c:	0009b983          	ld	s3,0(s3)
   10d20:	6084                	c.ld	s1,0(s1)
   10d22:	6000                	c.ld	s0,0(s0)
   10d24:	300e0e13          	addi	t3,t3,768
   10d28:	0002b283          	ld	t0,0(t0)
   10d2c:	9fbe                	c.add	t6,a5
   10d2e:	7d14                	c.ld	a3,56(a0)
   10d30:	0008bc03          	ld	s8,0(a7)
   10d34:	0e8e                	c.slli	t4,0x3
   10d36:	30030313          	addi	t1,t1,768
   10d3a:	0e0e                	c.slli	t3,0x3
   10d3c:	000fbf83          	ld	t6,0(t6)
   10d40:	9ebe                	c.add	t4,a5
   10d42:	030e                	c.slli	t1,0x3
   10d44:	9e3e                	c.add	t3,a5
   10d46:	000ebe83          	ld	t4,0(t4)
   10d4a:	933e                	c.add	t1,a5
   10d4c:	000e3883          	ld	a7,0(t3)
   10d50:	01764633          	xor	a2,a2,s7
   10d54:	01674733          	xor	a4,a4,s6
   10d58:	01584833          	xor	a6,a6,s5
   10d5c:	0186c6b3          	xor	a3,a3,s8
   10d60:	00033303          	ld	t1,0(t1)
   10d64:	01464633          	xor	a2,a2,s4
   10d68:	01374733          	xor	a4,a4,s3
   10d6c:	00884833          	xor	a6,a6,s0
   10d70:	01f6c6b3          	xor	a3,a3,t6
   10d74:	01264633          	xor	a2,a2,s2
   10d78:	8f25                	c.xor	a4,s1
   10d7a:	00584833          	xor	a6,a6,t0
   10d7e:	01d6c6b3          	xor	a3,a3,t4
   10d82:	00764e33          	xor	t3,a2,t2
   10d86:	01e74733          	xor	a4,a4,t5
   10d8a:	01184833          	xor	a6,a6,a7
   10d8e:	0066c6b3          	xor	a3,a3,t1
   10d92:	04050513          	addi	a0,a0,64
   10d96:	0xb5b5977          	0xb5b5977
   10d9a:	00875f93          	srli	t6,a4,0x8
   10d9e:	00885493          	srli	s1,a6,0x8
   10da2:	0086d393          	srli	t2,a3,0x8
   10da6:	008e5413          	srli	s0,t3,0x8
   10daa:	0ffe7913          	andi	s2,t3,255
   10dae:	010e5613          	srli	a2,t3,0x10
   10db2:	01085c13          	srli	s8,a6,0x10
   10db6:	0ff77893          	andi	a7,a4,255
   10dba:	0106d293          	srli	t0,a3,0x10
   10dbe:	0ff87a13          	andi	s4,a6,255
   10dc2:	0ff6f993          	andi	s3,a3,255
   10dc6:	01075f13          	srli	t5,a4,0x10
   10dca:	0fffff93          	andi	t6,t6,255
   10dce:	0ff4f493          	andi	s1,s1,255
   10dd2:	0ff3f393          	andi	t2,t2,255
   10dd6:	0ff47413          	andi	s0,s0,255
   10dda:	0186de9b          	srliw	t4,a3,0x18
   10dde:	0187531b          	srliw	t1,a4,0x18
   10de2:	00391693          	slli	a3,s2,0x3
   10de6:	018e5e1b          	srliw	t3,t3,0x18
   10dea:	100f8913          	addi	s2,t6,256
   10dee:	0188581b          	srliw	a6,a6,0x18
   10df2:	0ff67f93          	andi	t6,a2,255
   10df6:	0ffc7c13          	andi	s8,s8,255
   10dfa:	088e                	c.slli	a7,0x3
   10dfc:	10048493          	addi	s1,s1,256
   10e00:	0ff2f293          	andi	t0,t0,255
   10e04:	0a0e                	c.slli	s4,0x3
   10e06:	10038393          	addi	t2,t2,256
   10e0a:	098e                	c.slli	s3,0x3
   10e0c:	10040413          	addi	s0,s0,256
   10e10:	0fff7f13          	andi	t5,t5,255
   10e14:	96be                	c.add	a3,a5
   10e16:	98be                	c.add	a7,a5
   10e18:	9a3e                	c.add	s4,a5
   10e1a:	99be                	c.add	s3,a5
   10e1c:	090e                	c.slli	s2,0x3
   10e1e:	200c0c13          	addi	s8,s8,512
   10e22:	2e81                	c.addiw	t4,0
   10e24:	048e                	c.slli	s1,0x3
   10e26:	20028293          	addi	t0,t0,512
   10e2a:	2e01                	c.addiw	t3,0
   10e2c:	038e                	c.slli	t2,0x3
   10e2e:	200f8f93          	addi	t6,t6,512
   10e32:	2301                	c.addiw	t1,0
   10e34:	040e                	c.slli	s0,0x3
   10e36:	200f0f13          	addi	t5,t5,512
   10e3a:	2801                	c.addiw	a6,0
   10e3c:	0006bb83          	ld	s7,0(a3)
   10e40:	0008bb03          	ld	s6,0(a7)
   10e44:	000a3a83          	ld	s5,0(s4)
   10e48:	6110                	c.ld	a2,0(a0)
   10e4a:	0009ba03          	ld	s4,0(s3)
   10e4e:	6514                	c.ld	a3,8(a0)
   10e50:	01053883          	ld	a7,16(a0)
   10e54:	6d18                	c.ld	a4,24(a0)
   10e56:	993e                	c.add	s2,a5
   10e58:	94be                	c.add	s1,a5
   10e5a:	93be                	c.add	t2,a5
   10e5c:	943e                	c.add	s0,a5
   10e5e:	0c0e                	c.slli	s8,0x3
   10e60:	300e8e93          	addi	t4,t4,768
   10e64:	028e                	c.slli	t0,0x3
   10e66:	300e0e13          	addi	t3,t3,768
   10e6a:	0f8e                	c.slli	t6,0x3
   10e6c:	30030313          	addi	t1,t1,768
   10e70:	0f0e                	c.slli	t5,0x3
   10e72:	30080813          	addi	a6,a6,768
   10e76:	00093983          	ld	s3,0(s2)
   10e7a:	6000                	c.ld	s0,0(s0)
   10e7c:	0004b903          	ld	s2,0(s1)
   10e80:	9c3e                	c.add	s8,a5
   10e82:	0003b483          	ld	s1,0(t2)
   10e86:	92be                	c.add	t0,a5
   10e88:	9fbe                	c.add	t6,a5
   10e8a:	9f3e                	c.add	t5,a5
   10e8c:	0e8e                	c.slli	t4,0x3
   10e8e:	0e0e                	c.slli	t3,0x3
   10e90:	030e                	c.slli	t1,0x3
   10e92:	080e                	c.slli	a6,0x3
   10e94:	000c3383          	ld	t2,0(s8)
   10e98:	0002b283          	ld	t0,0(t0)
   10e9c:	000fbf83          	ld	t6,0(t6)
   10ea0:	000f3f03          	ld	t5,0(t5)
   10ea4:	9ebe                	c.add	t4,a5
   10ea6:	9e3e                	c.add	t3,a5
   10ea8:	933e                	c.add	t1,a5
   10eaa:	983e                	c.add	a6,a5
   10eac:	000ebe83          	ld	t4,0(t4)
   10eb0:	000e3e03          	ld	t3,0(t3)
   10eb4:	00033303          	ld	t1,0(t1)
   10eb8:	00083803          	ld	a6,0(a6)
   10ebc:	01764633          	xor	a2,a2,s7
   10ec0:	0166c6b3          	xor	a3,a3,s6
   10ec4:	0158c8b3          	xor	a7,a7,s5
   10ec8:	01474733          	xor	a4,a4,s4
   10ecc:	01364633          	xor	a2,a2,s3
   10ed0:	0126c6b3          	xor	a3,a3,s2
   10ed4:	0098c8b3          	xor	a7,a7,s1
   10ed8:	8f21                	c.xor	a4,s0
   10eda:	00764633          	xor	a2,a2,t2
   10ede:	0056c6b3          	xor	a3,a3,t0
   10ee2:	01f8c8b3          	xor	a7,a7,t6
   10ee6:	01e74733          	xor	a4,a4,t5
   10eea:	01d64633          	xor	a2,a2,t4
   10eee:	01c6c6b3          	xor	a3,a3,t3
   10ef2:	0068c8b3          	xor	a7,a7,t1
   10ef6:	01074733          	xor	a4,a4,a6
   10efa:	0086d413          	srli	s0,a3,0x8
   10efe:	0108df13          	srli	t5,a7,0x10
   10f02:	0187531b          	srliw	t1,a4,0x18
   10f06:	0088de93          	srli	t4,a7,0x8
   10f0a:	01075e13          	srli	t3,a4,0x10
   10f0e:	0186581b          	srliw	a6,a2,0x18
   10f12:	00875913          	srli	s2,a4,0x8
   10f16:	00865c93          	srli	s9,a2,0x8
   10f1a:	0ff47413          	andi	s0,s0,255
   10f1e:	0fff7f13          	andi	t5,t5,255
   10f22:	2301                	c.addiw	t1,0
   10f24:	0ffefe93          	andi	t4,t4,255
   10f28:	0ffe7e13          	andi	t3,t3,255
   10f2c:	2801                	c.addiw	a6,0
   10f2e:	0ff97913          	andi	s2,s2,255
   10f32:	0ff67993          	andi	s3,a2,255
   10f36:	0ff6f393          	andi	t2,a3,255
   10f3a:	0ff8fa93          	andi	s5,a7,255
   10f3e:	8241                	c.srli	a2,0x10
   10f40:	0ff77713          	andi	a4,a4,255
   10f44:	0106df93          	srli	t6,a3,0x10
   10f48:	10040413          	addi	s0,s0,256
   10f4c:	200f0f13          	addi	t5,t5,512
   10f50:	30030313          	addi	t1,t1,768
   10f54:	100e8e93          	addi	t4,t4,256
   10f58:	200e0e13          	addi	t3,t3,512
   10f5c:	30080813          	addi	a6,a6,768
   10f60:	10090913          	addi	s2,s2,256
   10f64:	0ffcfc93          	andi	s9,s9,255
   10f68:	030e                	c.slli	t1,0x3
   10f6a:	080e                	c.slli	a6,0x3
   10f6c:	0ff67493          	andi	s1,a2,255
   10f70:	0186d69b          	srliw	a3,a3,0x18
   10f74:	00371293          	slli	t0,a4,0x3
   10f78:	098e                	c.slli	s3,0x3
   10f7a:	040e                	c.slli	s0,0x3
   10f7c:	0f0e                	c.slli	t5,0x3
   10f7e:	038e                	c.slli	t2,0x3
   10f80:	0e8e                	c.slli	t4,0x3
   10f82:	0e0e                	c.slli	t3,0x3
   10f84:	0a8e                	c.slli	s5,0x3
   10f86:	090e                	c.slli	s2,0x3
   10f88:	100c8c93          	addi	s9,s9,256
   10f8c:	0fffff93          	andi	t6,t6,255
   10f90:	0188d89b          	srliw	a7,a7,0x18
   10f94:	00678733          	add	a4,a5,t1
   10f98:	01078633          	add	a2,a5,a6
   10f9c:	99be                	c.add	s3,a5
   10f9e:	943e                	c.add	s0,a5
   10fa0:	9f3e                	c.add	t5,a5
   10fa2:	93be                	c.add	t2,a5
   10fa4:	9ebe                	c.add	t4,a5
   10fa6:	9e3e                	c.add	t3,a5
   10fa8:	9abe                	c.add	s5,a5
   10faa:	92be                	c.add	t0,a5
   10fac:	993e                	c.add	s2,a5
   10fae:	20048493          	addi	s1,s1,512
   10fb2:	0006831b          	addiw	t1,a3,0
   10fb6:	0c8e                	c.slli	s9,0x3
   10fb8:	200f8f93          	addi	t6,t6,512
   10fbc:	2881                	c.addiw	a7,0
   10fbe:	0009bb83          	ld	s7,0(s3)
   10fc2:	00043a03          	ld	s4,0(s0)
   10fc6:	0003b983          	ld	s3,0(t2)
   10fca:	000f3403          	ld	s0,0(t5)
   10fce:	000eb383          	ld	t2,0(t4)
   10fd2:	00073f03          	ld	t5,0(a4)
   10fd6:	000e3e83          	ld	t4,0(t3)
   10fda:	000abb03          	ld	s6,0(s5)
   10fde:	00063e03          	ld	t3,0(a2)
   10fe2:	02053803          	ld	a6,32(a0)
   10fe6:	7518                	c.ld	a4,40(a0)
   10fe8:	7910                	c.ld	a2,48(a0)
   10fea:	9cbe                	c.add	s9,a5
   10fec:	00093903          	ld	s2,0(s2)
   10ff0:	00349c13          	slli	s8,s1,0x3
   10ff4:	0002ba83          	ld	s5,0(t0)
   10ff8:	7d14                	c.ld	a3,56(a0)
   10ffa:	30030313          	addi	t1,t1,768
   10ffe:	0f8e                	c.slli	t6,0x3
   11000:	30088893          	addi	a7,a7,768
   11004:	000cb483          	ld	s1,0(s9)
   11008:	9c3e                	c.add	s8,a5
   1100a:	9fbe                	c.add	t6,a5
   1100c:	030e                	c.slli	t1,0x3
   1100e:	088e                	c.slli	a7,0x3
   11010:	000c3283          	ld	t0,0(s8)
   11014:	000fbf83          	ld	t6,0(t6)
   11018:	933e                	c.add	t1,a5
   1101a:	98be                	c.add	a7,a5
   1101c:	00033303          	ld	t1,0(t1)
   11020:	0008b883          	ld	a7,0(a7)
   11024:	01784833          	xor	a6,a6,s7
   11028:	01664633          	xor	a2,a2,s6
   1102c:	0156c6b3          	xor	a3,a3,s5
   11030:	01484833          	xor	a6,a6,s4
   11034:	01374733          	xor	a4,a4,s3
   11038:	01264633          	xor	a2,a2,s2
   1103c:	8ea5                	c.xor	a3,s1
   1103e:	00884833          	xor	a6,a6,s0
   11042:	00774733          	xor	a4,a4,t2
   11046:	00564633          	xor	a2,a2,t0
   1104a:	01f6c6b3          	xor	a3,a3,t6
   1104e:	01e84833          	xor	a6,a6,t5
   11052:	00664633          	xor	a2,a2,t1
   11056:	0116c6b3          	xor	a3,a3,a7
   1105a:	01d74733          	xor	a4,a4,t4
   1105e:	01c74733          	xor	a4,a4,t3
   11062:	00865e93          	srli	t4,a2,0x8
   11066:	0086d393          	srli	t2,a3,0x8
   1106a:	00885493          	srli	s1,a6,0x8
   1106e:	0106d893          	srli	a7,a3,0x10
   11072:	00875413          	srli	s0,a4,0x8
   11076:	0ff77a93          	andi	s5,a4,255
   1107a:	0ffefe93          	andi	t4,t4,255
   1107e:	0ff67b13          	andi	s6,a2,255
   11082:	0ff3f393          	andi	t2,t2,255
   11086:	01085e13          	srli	t3,a6,0x10
   1108a:	0ff6f313          	andi	t1,a3,255
   1108e:	01075f93          	srli	t6,a4,0x10
   11092:	0ff4f493          	andi	s1,s1,255
   11096:	0ff87a13          	andi	s4,a6,255
   1109a:	01065f13          	srli	t5,a2,0x10
   1109e:	100e8993          	addi	s3,t4,256
   110a2:	0188581b          	srliw	a6,a6,0x18
   110a6:	0ff8fe93          	andi	t4,a7,255
   110aa:	0b0e                	c.slli	s6,0x3
   110ac:	10038913          	addi	s2,t2,256
   110b0:	030e                	c.slli	t1,0x3
   110b2:	0186561b          	srliw	a2,a2,0x18
   110b6:	0ff47413          	andi	s0,s0,255
   110ba:	0a8e                	c.slli	s5,0x3
   110bc:	0ffe7e13          	andi	t3,t3,255
   110c0:	0187571b          	srliw	a4,a4,0x18
   110c4:	10048493          	addi	s1,s1,256
   110c8:	0fffff93          	andi	t6,t6,255
   110cc:	006782b3          	add	t0,a5,t1
   110d0:	9abe                	c.add	s5,a5
   110d2:	0186d89b          	srliw	a7,a3,0x18
   110d6:	200e8393          	addi	t2,t4,512
   110da:	016786b3          	add	a3,a5,s6
   110de:	00080e9b          	addiw	t4,a6,0
   110e2:	200e0e13          	addi	t3,t3,512
   110e6:	2701                	c.addiw	a4,0
   110e8:	0006031b          	addiw	t1,a2,0
   110ec:	0a0e                	c.slli	s4,0x3
   110ee:	10040413          	addi	s0,s0,256
   110f2:	0fff7f13          	andi	t5,t5,255
   110f6:	098e                	c.slli	s3,0x3
   110f8:	090e                	c.slli	s2,0x3
   110fa:	048e                	c.slli	s1,0x3
   110fc:	200f8f93          	addi	t6,t6,512
   11100:	000abb83          	ld	s7,0(s5)
   11104:	0006bb03          	ld	s6,0(a3)
   11108:	0002ba83          	ld	s5,0(t0)
   1110c:	04853803          	ld	a6,72(a0)
   11110:	6930                	c.ld	a2,80(a0)
   11112:	6d34                	c.ld	a3,88(a0)
   11114:	9a3e                	c.add	s4,a5
   11116:	99be                	c.add	s3,a5
   11118:	993e                	c.add	s2,a5
   1111a:	003e1293          	slli	t0,t3,0x3
   1111e:	94be                	c.add	s1,a5
   11120:	30070e13          	addi	t3,a4,768
   11124:	040e                	c.slli	s0,0x3
   11126:	200f0f13          	addi	t5,t5,512
   1112a:	2881                	c.addiw	a7,0
   1112c:	038e                	c.slli	t2,0x3
   1112e:	300e8e93          	addi	t4,t4,768
   11132:	0f8e                	c.slli	t6,0x3
   11134:	30030313          	addi	t1,t1,768
   11138:	6138                	c.ld	a4,64(a0)
   1113a:	000a3a03          	ld	s4,0(s4)
   1113e:	0009b983          	ld	s3,0(s3)
   11142:	00093903          	ld	s2,0(s2)
   11146:	6084                	c.ld	s1,0(s1)
   11148:	943e                	c.add	s0,a5
   1114a:	93be                	c.add	t2,a5
   1114c:	92be                	c.add	t0,a5
   1114e:	9fbe                	c.add	t6,a5
   11150:	0f0e                	c.slli	t5,0x3
   11152:	30088893          	addi	a7,a7,768
   11156:	0e8e                	c.slli	t4,0x3
   11158:	0e0e                	c.slli	t3,0x3
   1115a:	030e                	c.slli	t1,0x3
   1115c:	6000                	c.ld	s0,0(s0)
   1115e:	0003b383          	ld	t2,0(t2)
   11162:	0002b283          	ld	t0,0(t0)
   11166:	000fbf83          	ld	t6,0(t6)
   1116a:	9f3e                	c.add	t5,a5
   1116c:	9ebe                	c.add	t4,a5
   1116e:	9e3e                	c.add	t3,a5
   11170:	933e                	c.add	t1,a5
   11172:	088e                	c.slli	a7,0x3
   11174:	000f3f03          	ld	t5,0(t5)
   11178:	000ebe83          	ld	t4,0(t4)
   1117c:	000e3e03          	ld	t3,0(t3)
   11180:	00033303          	ld	t1,0(t1)
   11184:	98be                	c.add	a7,a5
   11186:	01784833          	xor	a6,a6,s7
   1118a:	01664633          	xor	a2,a2,s6
   1118e:	0156c6b3          	xor	a3,a3,s5
   11192:	0008b883          	ld	a7,0(a7)
   11196:	01474733          	xor	a4,a4,s4
   1119a:	01384833          	xor	a6,a6,s3
   1119e:	01264633          	xor	a2,a2,s2
   111a2:	8ea5                	c.xor	a3,s1
   111a4:	8f21                	c.xor	a4,s0
   111a6:	00784833          	xor	a6,a6,t2
   111aa:	00564633          	xor	a2,a2,t0
   111ae:	01f6c6b3          	xor	a3,a3,t6
   111b2:	01d84833          	xor	a6,a6,t4
   111b6:	01c64633          	xor	a2,a2,t3
   111ba:	0066c6b3          	xor	a3,a3,t1
   111be:	01e74733          	xor	a4,a4,t5
   111c2:	01174733          	xor	a4,a4,a7
   111c6:	00885e13          	srli	t3,a6,0x8
   111ca:	01065313          	srli	t1,a2,0x10
   111ce:	0186d89b          	srliw	a7,a3,0x18
   111d2:	00865f13          	srli	t5,a2,0x8
   111d6:	0086d993          	srli	s3,a3,0x8
   111da:	00875493          	srli	s1,a4,0x8
   111de:	0ffe7e13          	andi	t3,t3,255
   111e2:	0ff37313          	andi	t1,t1,255
   111e6:	2881                	c.addiw	a7,0
   111e8:	0ff67b93          	andi	s7,a2,255
   111ec:	0ff77b13          	andi	s6,a4,255
   111f0:	100e0e13          	addi	t3,t3,256
   111f4:	20030313          	addi	t1,t1,512
   111f8:	0ff87a93          	andi	s5,a6,255
   111fc:	0fff7f13          	andi	t5,t5,255
   11200:	0106dc93          	srli	s9,a3,0x10
   11204:	01075f93          	srli	t6,a4,0x10
   11208:	0ff6f693          	andi	a3,a3,255
   1120c:	01085e93          	srli	t4,a6,0x10
   11210:	30088893          	addi	a7,a7,768
   11214:	0ff9f993          	andi	s3,s3,255
   11218:	0ff4f493          	andi	s1,s1,255
   1121c:	00331413          	slli	s0,t1,0x3
   11220:	003e1a13          	slli	s4,t3,0x3
   11224:	100f0913          	addi	s2,t5,256
   11228:	0187571b          	srliw	a4,a4,0x18
   1122c:	003b9f13          	slli	t5,s7,0x3
   11230:	0188531b          	srliw	t1,a6,0x18
   11234:	00369393          	slli	t2,a3,0x3
   11238:	0186561b          	srliw	a2,a2,0x18
   1123c:	0b0e                	c.slli	s6,0x3
   1123e:	088e                	c.slli	a7,0x3
   11240:	0a8e                	c.slli	s5,0x3
   11242:	0ffcfc93          	andi	s9,s9,255
   11246:	10098993          	addi	s3,s3,256
   1124a:	0fffff93          	andi	t6,t6,255
   1124e:	10048493          	addi	s1,s1,256
   11252:	0ffefe93          	andi	t4,t4,255
   11256:	9b3e                	c.add	s6,a5
   11258:	008786b3          	add	a3,a5,s0
   1125c:	98be                	c.add	a7,a5
   1125e:	9abe                	c.add	s5,a5
   11260:	93be                	c.add	t2,a5
   11262:	9a3e                	c.add	s4,a5
   11264:	00070e1b          	addiw	t3,a4,0
   11268:	098e                	c.slli	s3,0x3
   1126a:	01e78733          	add	a4,a5,t5
   1126e:	048e                	c.slli	s1,0x3
   11270:	0006081b          	addiw	a6,a2,0
   11274:	090e                	c.slli	s2,0x3
   11276:	200c8c93          	addi	s9,s9,512
   1127a:	200f8f93          	addi	t6,t6,512
   1127e:	2301                	c.addiw	t1,0
   11280:	200e8e93          	addi	t4,t4,512
   11284:	000b3c03          	ld	s8,0(s6)
   11288:	6280                	c.ld	s0,0(a3)
   1128a:	7130                	c.ld	a2,96(a0)
   1128c:	000a3a03          	ld	s4,0(s4)
   11290:	993e                	c.add	s2,a5
   11292:	0008bf03          	ld	t5,0(a7)
   11296:	009782b3          	add	t0,a5,s1
   1129a:	000abb83          	ld	s7,0(s5)
   1129e:	00073b03          	ld	s6,0(a4)
   112a2:	0003ba83          	ld	s5,0(t2)
   112a6:	7534                	c.ld	a3,104(a0)
   112a8:	013783b3          	add	t2,a5,s3
   112ac:	07053883          	ld	a7,112(a0)
   112b0:	7d38                	c.ld	a4,120(a0)
   112b2:	0c8e                	c.slli	s9,0x3
   112b4:	300e0e13          	addi	t3,t3,768
   112b8:	0f8e                	c.slli	t6,0x3
   112ba:	30030313          	addi	t1,t1,768
   112be:	0e8e                	c.slli	t4,0x3
   112c0:	30080813          	addi	a6,a6,768
   112c4:	00093983          	ld	s3,0(s2)
   112c8:	0002b483          	ld	s1,0(t0)
   112cc:	0003b903          	ld	s2,0(t2)
   112d0:	019782b3          	add	t0,a5,s9
   112d4:	9fbe                	c.add	t6,a5
   112d6:	9ebe                	c.add	t4,a5
   112d8:	0e0e                	c.slli	t3,0x3
   112da:	030e                	c.slli	t1,0x3
   112dc:	080e                	c.slli	a6,0x3
   112de:	0002b383          	ld	t2,0(t0)
   112e2:	9e3e                	c.add	t3,a5
   112e4:	000fb283          	ld	t0,0(t6)
   112e8:	933e                	c.add	t1,a5
   112ea:	000ebf83          	ld	t6,0(t4)
   112ee:	983e                	c.add	a6,a5
   112f0:	000e3e83          	ld	t4,0(t3)
   112f4:	00083803          	ld	a6,0(a6)
   112f8:	00033e03          	ld	t3,0(t1)
   112fc:	01864633          	xor	a2,a2,s8
   11300:	0176c6b3          	xor	a3,a3,s7
   11304:	0168c8b3          	xor	a7,a7,s6
   11308:	01574733          	xor	a4,a4,s5
   1130c:	01464633          	xor	a2,a2,s4
   11310:	0136c6b3          	xor	a3,a3,s3
   11314:	0128c8b3          	xor	a7,a7,s2
   11318:	8f25                	c.xor	a4,s1
   1131a:	8e21                	c.xor	a2,s0
   1131c:	0076c6b3          	xor	a3,a3,t2
   11320:	0058c8b3          	xor	a7,a7,t0
   11324:	01f74733          	xor	a4,a4,t6
   11328:	01d6c6b3          	xor	a3,a3,t4
   1132c:	01e64633          	xor	a2,a2,t5
   11330:	01c8c8b3          	xor	a7,a7,t3
   11334:	01074733          	xor	a4,a4,a6
   11338:	0086d293          	srli	t0,a3,0x8
   1133c:	0108df93          	srli	t6,a7,0x10
   11340:	01875f1b          	srliw	t5,a4,0x18
   11344:	0088de93          	srli	t4,a7,0x8
   11348:	01075e13          	srli	t3,a4,0x10
   1134c:	0186581b          	srliw	a6,a2,0x18
   11350:	00875913          	srli	s2,a4,0x8
   11354:	01065c13          	srli	s8,a2,0x10
   11358:	0186d41b          	srliw	s0,a3,0x18
   1135c:	2f01                	c.addiw	t5,0
   1135e:	0ffe7e13          	andi	t3,t3,255
   11362:	2801                	c.addiw	a6,0
   11364:	00865493          	srli	s1,a2,0x8
   11368:	0ff2f293          	andi	t0,t0,255
   1136c:	0fffff93          	andi	t6,t6,255
   11370:	0ffefe93          	andi	t4,t4,255
   11374:	0ff97913          	andi	s2,s2,255
   11378:	0ffc7c13          	andi	s8,s8,255
   1137c:	2401                	c.addiw	s0,0
   1137e:	300f0993          	addi	s3,t5,768
   11382:	0ff6f393          	andi	t2,a3,255
   11386:	200e0c93          	addi	s9,t3,512
   1138a:	30080b13          	addi	s6,a6,768
   1138e:	0ff8ff13          	andi	t5,a7,255
   11392:	0ff77713          	andi	a4,a4,255
   11396:	0106d313          	srli	t1,a3,0x10
   1139a:	0ff67613          	andi	a2,a2,255
   1139e:	10028293          	addi	t0,t0,256
   113a2:	200f8f93          	addi	t6,t6,512
   113a6:	100e8e93          	addi	t4,t4,256
   113aa:	10090913          	addi	s2,s2,256
   113ae:	200c0c13          	addi	s8,s8,512
   113b2:	30040413          	addi	s0,s0,768
   113b6:	0ff4f493          	andi	s1,s1,255
   113ba:	098e                	c.slli	s3,0x3
   113bc:	040e                	c.slli	s0,0x3
   113be:	00371a93          	slli	s5,a4,0x3
   113c2:	060e                	c.slli	a2,0x3
   113c4:	028e                	c.slli	t0,0x3
   113c6:	0f8e                	c.slli	t6,0x3
   113c8:	038e                	c.slli	t2,0x3
   113ca:	0e8e                	c.slli	t4,0x3
   113cc:	0c8e                	c.slli	s9,0x3
   113ce:	0b0e                	c.slli	s6,0x3
   113d0:	0f0e                	c.slli	t5,0x3
   113d2:	090e                	c.slli	s2,0x3
   113d4:	0c0e                	c.slli	s8,0x3
   113d6:	10048493          	addi	s1,s1,256
   113da:	0ff37313          	andi	t1,t1,255
   113de:	0188d89b          	srliw	a7,a7,0x18
   113e2:	01378733          	add	a4,a5,s3
   113e6:	008786b3          	add	a3,a5,s0
   113ea:	963e                	c.add	a2,a5
   113ec:	92be                	c.add	t0,a5
   113ee:	9fbe                	c.add	t6,a5
   113f0:	93be                	c.add	t2,a5
   113f2:	9ebe                	c.add	t4,a5
   113f4:	9cbe                	c.add	s9,a5
   113f6:	9b3e                	c.add	s6,a5
   113f8:	9f3e                	c.add	t5,a5
   113fa:	9c3e                	c.add	s8,a5
   113fc:	993e                	c.add	s2,a5
   113fe:	9abe                	c.add	s5,a5
   11400:	048e                	c.slli	s1,0x3
   11402:	20030313          	addi	t1,t1,512
   11406:	2881                	c.addiw	a7,0
   11408:	00063b83          	ld	s7,0(a2)
   1140c:	0002ba03          	ld	s4,0(t0)
   11410:	000fb403          	ld	s0,0(t6)
   11414:	0003b983          	ld	s3,0(t2)
   11418:	00073f83          	ld	t6,0(a4)
   1141c:	000eb383          	ld	t2,0(t4)
   11420:	000b3e03          	ld	t3,0(s6)
   11424:	000cbe83          	ld	t4,0(s9)
   11428:	000f3b03          	ld	s6,0(t5)
   1142c:	000c3283          	ld	t0,0(s8)
   11430:	0006bf03          	ld	t5,0(a3)
   11434:	08053803          	ld	a6,128(a0)
   11438:	6558                	c.ld	a4,136(a0)
   1143a:	6950                	c.ld	a2,144(a0)
   1143c:	00093903          	ld	s2,0(s2)
   11440:	6d54                	c.ld	a3,152(a0)
   11442:	94be                	c.add	s1,a5
   11444:	000aba83          	ld	s5,0(s5)
   11448:	030e                	c.slli	t1,0x3
   1144a:	30088893          	addi	a7,a7,768
   1144e:	6084                	c.ld	s1,0(s1)
   11450:	933e                	c.add	t1,a5
   11452:	088e                	c.slli	a7,0x3
   11454:	00033303          	ld	t1,0(t1)
   11458:	98be                	c.add	a7,a5
   1145a:	0008b883          	ld	a7,0(a7)
   1145e:	01784833          	xor	a6,a6,s7
   11462:	01664633          	xor	a2,a2,s6
   11466:	0156c6b3          	xor	a3,a3,s5
   1146a:	01484833          	xor	a6,a6,s4
   1146e:	01374733          	xor	a4,a4,s3
   11472:	01264633          	xor	a2,a2,s2
   11476:	8ea5                	c.xor	a3,s1
   11478:	00884833          	xor	a6,a6,s0
   1147c:	00774733          	xor	a4,a4,t2
   11480:	00564633          	xor	a2,a2,t0
   11484:	0066c6b3          	xor	a3,a3,t1
   11488:	0116c6b3          	xor	a3,a3,a7
   1148c:	01f84833          	xor	a6,a6,t6
   11490:	01e64633          	xor	a2,a2,t5
   11494:	01d74733          	xor	a4,a4,t4
   11498:	01c74733          	xor	a4,a4,t3
   1149c:	00865e93          	srli	t4,a2,0x8
   114a0:	0086d313          	srli	t1,a3,0x8
   114a4:	00885913          	srli	s2,a6,0x8
   114a8:	0ff67893          	andi	a7,a2,255
   114ac:	00875413          	srli	s0,a4,0x8
   114b0:	0ff77b93          	andi	s7,a4,255
   114b4:	0ffefe93          	andi	t4,t4,255
   114b8:	0106d393          	srli	t2,a3,0x10
   114bc:	0ff37313          	andi	t1,t1,255
   114c0:	01085e13          	srli	t3,a6,0x10
   114c4:	0ff6fb13          	andi	s6,a3,255
   114c8:	01075c93          	srli	s9,a4,0x10
   114cc:	0ff97913          	andi	s2,s2,255
   114d0:	0ff87a93          	andi	s5,a6,255
   114d4:	01065493          	srli	s1,a2,0x10
   114d8:	100e8a13          	addi	s4,t4,256
   114dc:	0188581b          	srliw	a6,a6,0x18
   114e0:	00389e93          	slli	t4,a7,0x3
   114e4:	10030993          	addi	s3,t1,256
   114e8:	0b0e                	c.slli	s6,0x3
   114ea:	0186561b          	srliw	a2,a2,0x18
   114ee:	0ff47413          	andi	s0,s0,255
   114f2:	0b8e                	c.slli	s7,0x3
   114f4:	0ff3f393          	andi	t2,t2,255
   114f8:	0ffe7e13          	andi	t3,t3,255
   114fc:	0187571b          	srliw	a4,a4,0x18
   11500:	10090913          	addi	s2,s2,256
   11504:	0ffcfc93          	andi	s9,s9,255
   11508:	9bbe                	c.add	s7,a5
   1150a:	00080f9b          	addiw	t6,a6,0
   1150e:	016782b3          	add	t0,a5,s6
   11512:	00060f1b          	addiw	t5,a2,0
   11516:	0186d89b          	srliw	a7,a3,0x18
   1151a:	200e0e13          	addi	t3,t3,512
   1151e:	01d786b3          	add	a3,a5,t4
   11522:	2701                	c.addiw	a4,0
   11524:	200c8c93          	addi	s9,s9,512
   11528:	0a8e                	c.slli	s5,0x3
   1152a:	10040413          	addi	s0,s0,256
   1152e:	0ff4f493          	andi	s1,s1,255
   11532:	0a0e                	c.slli	s4,0x3
   11534:	20038393          	addi	t2,t2,512
   11538:	098e                	c.slli	s3,0x3
   1153a:	090e                	c.slli	s2,0x3
   1153c:	000bbc03          	ld	s8,0(s7)
   11540:	0002bb03          	ld	s6,0(t0)
   11544:	0006bb83          	ld	s7,0(a3)
   11548:	0a853803          	ld	a6,168(a0)
   1154c:	7950                	c.ld	a2,176(a0)
   1154e:	7d54                	c.ld	a3,184(a0)
   11550:	9abe                	c.add	s5,a5
   11552:	20048493          	addi	s1,s1,512
   11556:	9a3e                	c.add	s4,a5
   11558:	300f8e93          	addi	t4,t6,768
   1155c:	99be                	c.add	s3,a5
   1155e:	003e1293          	slli	t0,t3,0x3
   11562:	993e                	c.add	s2,a5
   11564:	30070e13          	addi	t3,a4,768
   11568:	003c9f93          	slli	t6,s9,0x3
   1156c:	300f0313          	addi	t1,t5,768
   11570:	040e                	c.slli	s0,0x3
   11572:	2881                	c.addiw	a7,0
   11574:	038e                	c.slli	t2,0x3
   11576:	7158                	c.ld	a4,160(a0)
   11578:	000aba83          	ld	s5,0(s5)
   1157c:	000a3a03          	ld	s4,0(s4)
   11580:	0009b983          	ld	s3,0(s3)
   11584:	00093903          	ld	s2,0(s2)
   11588:	943e                	c.add	s0,a5
   1158a:	93be                	c.add	t2,a5
   1158c:	92be                	c.add	t0,a5
   1158e:	9fbe                	c.add	t6,a5
   11590:	00349f13          	slli	t5,s1,0x3
   11594:	30088893          	addi	a7,a7,768
   11598:	0e8e                	c.slli	t4,0x3
   1159a:	0e0e                	c.slli	t3,0x3
   1159c:	030e                	c.slli	t1,0x3
   1159e:	6004                	c.ld	s1,0(s0)
   115a0:	9ebe                	c.add	t4,a5
   115a2:	0003b403          	ld	s0,0(t2)
   115a6:	9e3e                	c.add	t3,a5
   115a8:	0002b383          	ld	t2,0(t0)
   115ac:	933e                	c.add	t1,a5
   115ae:	000fb283          	ld	t0,0(t6)
   115b2:	9f3e                	c.add	t5,a5
   115b4:	088e                	c.slli	a7,0x3
   115b6:	000ebf83          	ld	t6,0(t4)
   115ba:	000f3f03          	ld	t5,0(t5)
   115be:	000e3e83          	ld	t4,0(t3)
   115c2:	98be                	c.add	a7,a5
   115c4:	00033e03          	ld	t3,0(t1)
   115c8:	01884833          	xor	a6,a6,s8
   115cc:	01764633          	xor	a2,a2,s7
   115d0:	0166c6b3          	xor	a3,a3,s6
   115d4:	0008b303          	ld	t1,0(a7)
   115d8:	01574733          	xor	a4,a4,s5
   115dc:	01484833          	xor	a6,a6,s4
   115e0:	01364633          	xor	a2,a2,s3
   115e4:	0126c6b3          	xor	a3,a3,s2
   115e8:	8f25                	c.xor	a4,s1
   115ea:	00884833          	xor	a6,a6,s0
   115ee:	00764633          	xor	a2,a2,t2
   115f2:	0056c6b3          	xor	a3,a3,t0
   115f6:	01d64633          	xor	a2,a2,t4
   115fa:	01f84833          	xor	a6,a6,t6
   115fe:	01c6c6b3          	xor	a3,a3,t3
   11602:	01e74733          	xor	a4,a4,t5
   11606:	00674733          	xor	a4,a4,t1
   1160a:	00885e93          	srli	t4,a6,0x8
   1160e:	01065e13          	srli	t3,a2,0x10
   11612:	0186d31b          	srliw	t1,a3,0x18
   11616:	00865f93          	srli	t6,a2,0x8
   1161a:	0106df13          	srli	t5,a3,0x10
   1161e:	0fffff93          	andi	t6,t6,255
   11622:	0fff7f13          	andi	t5,t5,255
   11626:	0086dc13          	srli	s8,a3,0x8
   1162a:	00875413          	srli	s0,a4,0x8
   1162e:	0ffefe93          	andi	t4,t4,255
   11632:	0ffe7e13          	andi	t3,t3,255
   11636:	2301                	c.addiw	t1,0
   11638:	0ff77993          	andi	s3,a4,255
   1163c:	100e8e93          	addi	t4,t4,256
   11640:	30030313          	addi	t1,t1,768
   11644:	0ff87b13          	andi	s6,a6,255
   11648:	100f8913          	addi	s2,t6,256
   1164c:	200f0293          	addi	t0,t5,512
   11650:	0ff67a93          	andi	s5,a2,255
   11654:	01075f93          	srli	t6,a4,0x10
   11658:	01085f13          	srli	t5,a6,0x10
   1165c:	200e0e13          	addi	t3,t3,512
   11660:	0ffc7c13          	andi	s8,s8,255
   11664:	0ff6f693          	andi	a3,a3,255
   11668:	0ff47413          	andi	s0,s0,255
   1166c:	003e9393          	slli	t2,t4,0x3
   11670:	00331a13          	slli	s4,t1,0x3
   11674:	0188581b          	srliw	a6,a6,0x18
   11678:	068e                	c.slli	a3,0x3
   1167a:	0186589b          	srliw	a7,a2,0x18
   1167e:	098e                	c.slli	s3,0x3
   11680:	0e0e                	c.slli	t3,0x3
   11682:	0b0e                	c.slli	s6,0x3
   11684:	090e                	c.slli	s2,0x3
   11686:	028e                	c.slli	t0,0x3
   11688:	0187571b          	srliw	a4,a4,0x18
   1168c:	0a8e                	c.slli	s5,0x3
   1168e:	100c0c13          	addi	s8,s8,256
   11692:	0fffff93          	andi	t6,t6,255
   11696:	10040413          	addi	s0,s0,256
   1169a:	0fff7f13          	andi	t5,t5,255
   1169e:	00d784b3          	add	s1,a5,a3
   116a2:	99be                	c.add	s3,a5
   116a4:	93be                	c.add	t2,a5
   116a6:	9e3e                	c.add	t3,a5
   116a8:	9a3e                	c.add	s4,a5
   116aa:	9b3e                	c.add	s6,a5
   116ac:	993e                	c.add	s2,a5
   116ae:	92be                	c.add	t0,a5
   116b0:	2701                	c.addiw	a4,0
   116b2:	9abe                	c.add	s5,a5
   116b4:	0008031b          	addiw	t1,a6,0
   116b8:	0c0e                	c.slli	s8,0x3
   116ba:	200f8f93          	addi	t6,t6,512
   116be:	040e                	c.slli	s0,0x3
   116c0:	200f0f13          	addi	t5,t5,512
   116c4:	2881                	c.addiw	a7,0
   116c6:	0009bb83          	ld	s7,0(s3)
   116ca:	000a3e83          	ld	t4,0(s4)
   116ce:	0003b983          	ld	s3,0(t2)
   116d2:	0c053803          	ld	a6,192(a0)
   116d6:	000e3383          	ld	t2,0(t3)
   116da:	6570                	c.ld	a2,200(a0)
   116dc:	000b3b03          	ld	s6,0(s6)
   116e0:	00093903          	ld	s2,0(s2)
   116e4:	9c3e                	c.add	s8,a5
   116e6:	0002b283          	ld	t0,0(t0)
   116ea:	30070e13          	addi	t3,a4,768
   116ee:	0004ba03          	ld	s4,0(s1)
   116f2:	6974                	c.ld	a3,208(a0)
   116f4:	000aba83          	ld	s5,0(s5)
   116f8:	6d78                	c.ld	a4,216(a0)
   116fa:	943e                	c.add	s0,a5
   116fc:	0f8e                	c.slli	t6,0x3
   116fe:	30030313          	addi	t1,t1,768
   11702:	0f0e                	c.slli	t5,0x3
   11704:	30088893          	addi	a7,a7,768
   11708:	000c3483          	ld	s1,0(s8)
   1170c:	6000                	c.ld	s0,0(s0)
   1170e:	9fbe                	c.add	t6,a5
   11710:	9f3e                	c.add	t5,a5
   11712:	0e0e                	c.slli	t3,0x3
   11714:	030e                	c.slli	t1,0x3
   11716:	088e                	c.slli	a7,0x3
   11718:	000fbf83          	ld	t6,0(t6)
   1171c:	000f3f03          	ld	t5,0(t5)
   11720:	9e3e                	c.add	t3,a5
   11722:	933e                	c.add	t1,a5
   11724:	98be                	c.add	a7,a5
   11726:	000e3e03          	ld	t3,0(t3)
   1172a:	00033303          	ld	t1,0(t1)
   1172e:	0008b883          	ld	a7,0(a7)
   11732:	01784833          	xor	a6,a6,s7
   11736:	01664633          	xor	a2,a2,s6
   1173a:	0156c6b3          	xor	a3,a3,s5
   1173e:	01474733          	xor	a4,a4,s4
   11742:	01384833          	xor	a6,a6,s3
   11746:	01264633          	xor	a2,a2,s2
   1174a:	8ea5                	c.xor	a3,s1
   1174c:	8f21                	c.xor	a4,s0
   1174e:	00784833          	xor	a6,a6,t2
   11752:	00564633          	xor	a2,a2,t0
   11756:	01f6c6b3          	xor	a3,a3,t6
   1175a:	01e74733          	xor	a4,a4,t5
   1175e:	01d84833          	xor	a6,a6,t4
   11762:	01c64633          	xor	a2,a2,t3
   11766:	0066c6b3          	xor	a3,a3,t1
   1176a:	01174733          	xor	a4,a4,a7
   1176e:	00865313          	srli	t1,a2,0x8
   11772:	0086d893          	srli	a7,a3,0x8
   11776:	00875413          	srli	s0,a4,0x8
   1177a:	00885993          	srli	s3,a6,0x8
   1177e:	0ff6fe93          	andi	t4,a3,255
   11782:	0ff87a93          	andi	s5,a6,255
   11786:	0106d293          	srli	t0,a3,0x10
   1178a:	0ff67a13          	andi	s4,a2,255
   1178e:	0ff8f893          	andi	a7,a7,255
   11792:	01075c93          	srli	s9,a4,0x10
   11796:	01085393          	srli	t2,a6,0x10
   1179a:	0ff77913          	andi	s2,a4,255
   1179e:	01065f13          	srli	t5,a2,0x10
   117a2:	0ff37313          	andi	t1,t1,255
   117a6:	0ff47413          	andi	s0,s0,255
   117aa:	0ff9f993          	andi	s3,s3,255
   117ae:	0187571b          	srliw	a4,a4,0x18
   117b2:	10088493          	addi	s1,a7,256
   117b6:	0188581b          	srliw	a6,a6,0x18
   117ba:	003e9893          	slli	a7,t4,0x3
   117be:	0186561b          	srliw	a2,a2,0x18
   117c2:	0186d69b          	srliw	a3,a3,0x18
   117c6:	0a8e                	c.slli	s5,0x3
   117c8:	10030313          	addi	t1,t1,256
   117cc:	0ff2f293          	andi	t0,t0,255
   117d0:	0a0e                	c.slli	s4,0x3
   117d2:	0ffcfc93          	andi	s9,s9,255
   117d6:	10040413          	addi	s0,s0,256
   117da:	0ff3f393          	andi	t2,t2,255
   117de:	090e                	c.slli	s2,0x3
   117e0:	10098993          	addi	s3,s3,256
   117e4:	0fff7f13          	andi	t5,t5,255
   117e8:	9abe                	c.add	s5,a5
   117ea:	9a3e                	c.add	s4,a5
   117ec:	00060e1b          	addiw	t3,a2,0
   117f0:	993e                	c.add	s2,a5
   117f2:	030e                	c.slli	t1,0x3
   117f4:	00070f9b          	addiw	t6,a4,0
   117f8:	00080e9b          	addiw	t4,a6,0
   117fc:	01178733          	add	a4,a5,a7
   11800:	098e                	c.slli	s3,0x3
   11802:	0006889b          	addiw	a7,a3,0
   11806:	20028293          	addi	t0,t0,512
   1180a:	048e                	c.slli	s1,0x3
   1180c:	200c8c93          	addi	s9,s9,512
   11810:	040e                	c.slli	s0,0x3
   11812:	20038393          	addi	t2,t2,512
   11816:	200f0f13          	addi	t5,t5,512
   1181a:	000abb83          	ld	s7,0(s5)
   1181e:	000a3b03          	ld	s6,0(s4)
   11822:	00073a83          	ld	s5,0(a4)
   11826:	00093a03          	ld	s4,0(s2)
   1182a:	0e053803          	ld	a6,224(a0)
   1182e:	00678933          	add	s2,a5,t1
   11832:	7570                	c.ld	a2,232(a0)
   11834:	7974                	c.ld	a3,240(a0)
   11836:	7d78                	c.ld	a4,248(a0)
   11838:	94be                	c.add	s1,a5
   1183a:	943e                	c.add	s0,a5
   1183c:	300f8f93          	addi	t6,t6,768
   11840:	0c8e                	c.slli	s9,0x3
   11842:	300e8e93          	addi	t4,t4,768
   11846:	038e                	c.slli	t2,0x3
   11848:	300e0313          	addi	t1,t3,768
   1184c:	028e                	c.slli	t0,0x3
   1184e:	01378e33          	add	t3,a5,s3
   11852:	0f0e                	c.slli	t5,0x3
   11854:	30088893          	addi	a7,a7,768
   11858:	00093983          	ld	s3,0(s2)
   1185c:	92be                	c.add	t0,a5
   1185e:	0004b903          	ld	s2,0(s1)
   11862:	003f9c13          	slli	s8,t6,0x3
   11866:	6004                	c.ld	s1,0(s0)
   11868:	01978fb3          	add	t6,a5,s9
   1186c:	000e3403          	ld	s0,0(t3)
   11870:	9f3e                	c.add	t5,a5
   11872:	003e9e13          	slli	t3,t4,0x3
   11876:	030e                	c.slli	t1,0x3
   11878:	00778eb3          	add	t4,a5,t2
   1187c:	088e                	c.slli	a7,0x3
   1187e:	0002b383          	ld	t2,0(t0)
   11882:	000f3f03          	ld	t5,0(t5)
   11886:	000fb283          	ld	t0,0(t6)
   1188a:	9e3e                	c.add	t3,a5
   1188c:	000ebf83          	ld	t6,0(t4)
   11890:	933e                	c.add	t1,a5
   11892:	01878eb3          	add	t4,a5,s8
   11896:	98be                	c.add	a7,a5
   11898:	000ebe83          	ld	t4,0(t4)
   1189c:	000e3e03          	ld	t3,0(t3)
   118a0:	00033303          	ld	t1,0(t1)
   118a4:	0008b883          	ld	a7,0(a7)
   118a8:	01784833          	xor	a6,a6,s7
   118ac:	01664633          	xor	a2,a2,s6
   118b0:	0156c6b3          	xor	a3,a3,s5
   118b4:	01474733          	xor	a4,a4,s4
   118b8:	01384833          	xor	a6,a6,s3
   118bc:	01264633          	xor	a2,a2,s2
   118c0:	8ea5                	c.xor	a3,s1
   118c2:	8f21                	c.xor	a4,s0
   118c4:	00784833          	xor	a6,a6,t2
   118c8:	00564633          	xor	a2,a2,t0
   118cc:	01f6c6b3          	xor	a3,a3,t6
   118d0:	01e74733          	xor	a4,a4,t5
   118d4:	01d84833          	xor	a6,a6,t4
   118d8:	01c64633          	xor	a2,a2,t3
   118dc:	0066c6b3          	xor	a3,a3,t1
   118e0:	01174733          	xor	a4,a4,a7
   118e4:	00865313          	srli	t1,a2,0x8
   118e8:	0086d893          	srli	a7,a3,0x8
   118ec:	00875493          	srli	s1,a4,0x8
   118f0:	00885413          	srli	s0,a6,0x8
   118f4:	0ff77f93          	andi	t6,a4,255
   118f8:	0ff87a13          	andi	s4,a6,255
   118fc:	0ff37313          	andi	t1,t1,255
   11900:	0106d393          	srli	t2,a3,0x10
   11904:	0ff67f13          	andi	t5,a2,255
   11908:	01075993          	srli	s3,a4,0x10
   1190c:	0ff6fe13          	andi	t3,a3,255
   11910:	01085c93          	srli	s9,a6,0x10
   11914:	01065e93          	srli	t4,a2,0x10
   11918:	0ff8f893          	andi	a7,a7,255
   1191c:	0ff4f493          	andi	s1,s1,255
   11920:	0ff47413          	andi	s0,s0,255
   11924:	10030913          	addi	s2,t1,256
   11928:	0187571b          	srliw	a4,a4,0x18
   1192c:	0f0e                	c.slli	t5,0x3
   1192e:	0186561b          	srliw	a2,a2,0x18
   11932:	003f9313          	slli	t1,t6,0x3
   11936:	0186d69b          	srliw	a3,a3,0x18
   1193a:	0a0e                	c.slli	s4,0x3
   1193c:	0ff3f393          	andi	t2,t2,255
   11940:	10088893          	addi	a7,a7,256
   11944:	0ff9f993          	andi	s3,s3,255
   11948:	0188581b          	srliw	a6,a6,0x18
   1194c:	0e0e                	c.slli	t3,0x3
   1194e:	10048493          	addi	s1,s1,256
   11952:	0ffcfc93          	andi	s9,s9,255
   11956:	10040413          	addi	s0,s0,256
   1195a:	0ffefe93          	andi	t4,t4,255
   1195e:	9a3e                	c.add	s4,a5
   11960:	0007029b          	addiw	t0,a4,0
   11964:	9e3e                	c.add	t3,a5
   11966:	01e78733          	add	a4,a5,t5
   1196a:	933e                	c.add	t1,a5
   1196c:	20098993          	addi	s3,s3,512
   11970:	00060f9b          	addiw	t6,a2,0
   11974:	00068f1b          	addiw	t5,a3,0
   11978:	090e                	c.slli	s2,0x3
   1197a:	20038393          	addi	t2,t2,512
   1197e:	088e                	c.slli	a7,0x3
   11980:	2801                	c.addiw	a6,0
   11982:	048e                	c.slli	s1,0x3
   11984:	200c8c93          	addi	s9,s9,512
   11988:	040e                	c.slli	s0,0x3
   1198a:	200e8e93          	addi	t4,t4,512
   1198e:	10053603          	ld	a2,256(a0)
   11992:	993e                	c.add	s2,a5
   11994:	000a3b83          	ld	s7,0(s4)
   11998:	00073b03          	ld	s6,0(a4)
   1199c:	000e3a83          	ld	s5,0(t3)
   119a0:	00033a03          	ld	s4,0(t1)
   119a4:	11853e03          	ld	t3,280(a0)
   119a8:	10853683          	ld	a3,264(a0)
   119ac:	11053703          	ld	a4,272(a0)
   119b0:	98be                	c.add	a7,a5
   119b2:	30028313          	addi	t1,t0,768
   119b6:	30080813          	addi	a6,a6,768
   119ba:	00399293          	slli	t0,s3,0x3
   119be:	94be                	c.add	s1,a5
   119c0:	300f8f93          	addi	t6,t6,768
   119c4:	943e                	c.add	s0,a5
   119c6:	300f0f13          	addi	t5,t5,768
   119ca:	038e                	c.slli	t2,0x3
   119cc:	0c8e                	c.slli	s9,0x3
   119ce:	0e8e                	c.slli	t4,0x3
   119d0:	00093983          	ld	s3,0(s2)
   119d4:	6084                	c.ld	s1,0(s1)
   119d6:	0008b903          	ld	s2,0(a7)
   119da:	6000                	c.ld	s0,0(s0)
   119dc:	9ebe                	c.add	t4,a5
   119de:	003f1c13          	slli	s8,t5,0x3
   119e2:	93be                	c.add	t2,a5
   119e4:	92be                	c.add	t0,a5
   119e6:	00381893          	slli	a7,a6,0x3
   119ea:	9cbe                	c.add	s9,a5
   119ec:	003f9813          	slli	a6,t6,0x3
   119f0:	030e                	c.slli	t1,0x3
   119f2:	000ebf03          	ld	t5,0(t4)
   119f6:	0003b383          	ld	t2,0(t2)
   119fa:	0002b283          	ld	t0,0(t0)
   119fe:	000cbf83          	ld	t6,0(s9)
   11a02:	933e                	c.add	t1,a5
   11a04:	98be                	c.add	a7,a5
   11a06:	983e                	c.add	a6,a5
   11a08:	97e2                	c.add	a5,s8
   11a0a:	00033e83          	ld	t4,0(t1)
   11a0e:	01764633          	xor	a2,a2,s7
   11a12:	0008b303          	ld	t1,0(a7)
   11a16:	0166c6b3          	xor	a3,a3,s6
   11a1a:	00083883          	ld	a7,0(a6)
   11a1e:	01574733          	xor	a4,a4,s5
   11a22:	0007b803          	ld	a6,0(a5)
   11a26:	014e47b3          	xor	a5,t3,s4
   11a2a:	01364633          	xor	a2,a2,s3
   11a2e:	0126c6b3          	xor	a3,a3,s2
   11a32:	8f25                	c.xor	a4,s1
   11a34:	8fa1                	c.xor	a5,s0
   11a36:	00764633          	xor	a2,a2,t2
   11a3a:	0056c6b3          	xor	a3,a3,t0
   11a3e:	01f74733          	xor	a4,a4,t6
   11a42:	01e7c7b3          	xor	a5,a5,t5
   11a46:	01d64633          	xor	a2,a2,t4
   11a4a:	0066c6b3          	xor	a3,a3,t1
   11a4e:	01174733          	xor	a4,a4,a7
   11a52:	0107c7b3          	xor	a5,a5,a6
   11a56:	0086d493          	srli	s1,a3,0x8
   11a5a:	01075f93          	srli	t6,a4,0x10
   11a5e:	0187de1b          	srliw	t3,a5,0x18
   11a62:	00875f13          	srli	t5,a4,0x8
   11a66:	0107d313          	srli	t1,a5,0x10
   11a6a:	0186581b          	srliw	a6,a2,0x18
   11a6e:	0087d913          	srli	s2,a5,0x8
   11a72:	00865b93          	srli	s7,a2,0x8
   11a76:	0ff4f493          	andi	s1,s1,255
   11a7a:	0fffff93          	andi	t6,t6,255
   11a7e:	2e01                	c.addiw	t3,0
   11a80:	0fff7f13          	andi	t5,t5,255
   11a84:	0ff37313          	andi	t1,t1,255
   11a88:	2801                	c.addiw	a6,0
   11a8a:	0ff97913          	andi	s2,s2,255
   11a8e:	0ff67a13          	andi	s4,a2,255
   11a92:	0ff6f413          	andi	s0,a3,255
   11a96:	0ff77993          	andi	s3,a4,255
   11a9a:	0ff7f793          	andi	a5,a5,255
   11a9e:	0106d893          	srli	a7,a3,0x10
   11aa2:	10048493          	addi	s1,s1,256
   11aa6:	200f8f93          	addi	t6,t6,512
   11aaa:	300e0e13          	addi	t3,t3,768
   11aae:	100f0f13          	addi	t5,t5,256
   11ab2:	20030313          	addi	t1,t1,512
   11ab6:	30080813          	addi	a6,a6,768
   11aba:	10090913          	addi	s2,s2,256
   11abe:	8241                	c.srli	a2,0x10
   11ac0:	0ffbfb93          	andi	s7,s7,255
   11ac4:	00022b37          	lui	s6,0x22
   11ac8:	2d8b0b13          	addi	s6,s6,728 # 222d8 <fl_tab>
   11acc:	080e                	c.slli	a6,0x3
   11ace:	0ff67613          	andi	a2,a2,255
   11ad2:	0186d69b          	srliw	a3,a3,0x18
   11ad6:	00379e93          	slli	t4,a5,0x3
   11ada:	0187571b          	srliw	a4,a4,0x18
   11ade:	0a0e                	c.slli	s4,0x3
   11ae0:	048e                	c.slli	s1,0x3
   11ae2:	0f8e                	c.slli	t6,0x3
   11ae4:	0e0e                	c.slli	t3,0x3
   11ae6:	040e                	c.slli	s0,0x3
   11ae8:	0f0e                	c.slli	t5,0x3
   11aea:	030e                	c.slli	t1,0x3
   11aec:	098e                	c.slli	s3,0x3
   11aee:	090e                	c.slli	s2,0x3
   11af0:	100b8b93          	addi	s7,s7,256
   11af4:	0ff8f893          	andi	a7,a7,255
   11af8:	016807b3          	add	a5,a6,s6
   11afc:	20060393          	addi	t2,a2,512
   11b00:	0007029b          	addiw	t0,a4,0
   11b04:	9a5a                	c.add	s4,s6
   11b06:	945a                	c.add	s0,s6
   11b08:	9f5a                	c.add	t5,s6
   11b0a:	935a                	c.add	t1,s6
   11b0c:	995a                	c.add	s2,s6
   11b0e:	0006881b          	addiw	a6,a3,0
   11b12:	9eda                	c.add	t4,s6
   11b14:	94da                	c.add	s1,s6
   11b16:	9fda                	c.add	t6,s6
   11b18:	9e5a                	c.add	t3,s6
   11b1a:	99da                	c.add	s3,s6
   11b1c:	0b8e                	c.slli	s7,0x3
   11b1e:	20088893          	addi	a7,a7,512
   11b22:	12053603          	ld	a2,288(a0)
   11b26:	000a3a83          	ld	s5,0(s4)
   11b2a:	12853703          	ld	a4,296(a0)
   11b2e:	00043a03          	ld	s4,0(s0)
   11b32:	6084                	c.ld	s1,0(s1)
   11b34:	000f3403          	ld	s0,0(t5)
   11b38:	000fbf83          	ld	t6,0(t6)
   11b3c:	00033f03          	ld	t5,0(t1)
   11b40:	000e3e03          	ld	t3,0(t3)
   11b44:	0007b303          	ld	t1,0(a5)
   11b48:	0009b983          	ld	s3,0(s3)
   11b4c:	13053783          	ld	a5,304(a0)
   11b50:	00339c13          	slli	s8,t2,0x3
   11b54:	30080813          	addi	a6,a6,768
   11b58:	00093383          	ld	t2,0(s2)
   11b5c:	9bda                	c.add	s7,s6
   11b5e:	13853683          	ld	a3,312(a0)
   11b62:	000eb903          	ld	s2,0(t4)
   11b66:	30028513          	addi	a0,t0,768
   11b6a:	088e                	c.slli	a7,0x3
   11b6c:	9c5a                	c.add	s8,s6
   11b6e:	080e                	c.slli	a6,0x3
   11b70:	000bb283          	ld	t0,0(s7)
   11b74:	98da                	c.add	a7,s6
   11b76:	050e                	c.slli	a0,0x3
   11b78:	000c3e83          	ld	t4,0(s8)
   11b7c:	985a                	c.add	a6,s6
   11b7e:	0008b883          	ld	a7,0(a7)
   11b82:	955a                	c.add	a0,s6
   11b84:	01564633          	xor	a2,a2,s5
   11b88:	01474733          	xor	a4,a4,s4
   11b8c:	0137c7b3          	xor	a5,a5,s3
   11b90:	00083803          	ld	a6,0(a6)
   11b94:	0126c6b3          	xor	a3,a3,s2
   11b98:	6108                	c.ld	a0,0(a0)
   11b9a:	8e25                	c.xor	a2,s1
   11b9c:	8f21                	c.xor	a4,s0
   11b9e:	0077c7b3          	xor	a5,a5,t2
   11ba2:	0056c6b3          	xor	a3,a3,t0
   11ba6:	01f64633          	xor	a2,a2,t6
   11baa:	01e74733          	xor	a4,a4,t5
   11bae:	01d7c7b3          	xor	a5,a5,t4
   11bb2:	0116c6b3          	xor	a3,a3,a7
   11bb6:	01c64e33          	xor	t3,a2,t3
   11bba:	00674733          	xor	a4,a4,t1
   11bbe:	0107c833          	xor	a6,a5,a6
   11bc2:	8ea9                	c.xor	a3,a0
   11bc4:	ebffe06f          	jal	zero,10a82 <encrypt+0x7c>
   11bc8:	0xd393977          	0xd393977
   11bcc:	000267b7          	lui	a5,0x26
   11bd0:	2d878793          	addi	a5,a5,728 # 262d8 <ft_tab>
   11bd4:	9c2ff06f          	jal	zero,10d96 <encrypt+0x390>
   11bd8:	0xc035977          	0xc035977
   11bdc:	00875493          	srli	s1,a4,0x8
   11be0:	00885413          	srli	s0,a6,0x8
   11be4:	0086d293          	srli	t0,a3,0x8
   11be8:	008e5f93          	srli	t6,t3,0x8
   11bec:	0ffe7f13          	andi	t5,t3,255
   11bf0:	01085d93          	srli	s11,a6,0x10
   11bf4:	0ff77513          	andi	a0,a4,255
   11bf8:	0106dd13          	srli	s10,a3,0x10
   11bfc:	0ff87e93          	andi	t4,a6,255
   11c00:	010e5c93          	srli	s9,t3,0x10
   11c04:	0ff6f313          	andi	t1,a3,255
   11c08:	01075c13          	srli	s8,a4,0x10
   11c0c:	0ff4f493          	andi	s1,s1,255
   11c10:	0ff47413          	andi	s0,s0,255
   11c14:	0ff2f293          	andi	t0,t0,255
   11c18:	0fffff93          	andi	t6,t6,255
   11c1c:	000267b7          	lui	a5,0x26
   11c20:	2d878793          	addi	a5,a5,728 # 262d8 <ft_tab>
   11c24:	0186d69b          	srliw	a3,a3,0x18
   11c28:	0187571b          	srliw	a4,a4,0x18
   11c2c:	0188581b          	srliw	a6,a6,0x18
   11c30:	018e5e1b          	srliw	t3,t3,0x18
   11c34:	0f0e                	c.slli	t5,0x3
   11c36:	10048493          	addi	s1,s1,256
   11c3a:	0ffdfd93          	andi	s11,s11,255
   11c3e:	050e                	c.slli	a0,0x3
   11c40:	10040413          	addi	s0,s0,256
   11c44:	0ffd7d13          	andi	s10,s10,255
   11c48:	0e8e                	c.slli	t4,0x3
   11c4a:	10028293          	addi	t0,t0,256
   11c4e:	0ffcfc93          	andi	s9,s9,255
   11c52:	030e                	c.slli	t1,0x3
   11c54:	100f8f93          	addi	t6,t6,256
   11c58:	0ffc7c13          	andi	s8,s8,255
   11c5c:	0006899b          	addiw	s3,a3,0
   11c60:	0007091b          	addiw	s2,a4,0
   11c64:	9f3e                	c.add	t5,a5
   11c66:	953e                	c.add	a0,a5
   11c68:	9ebe                	c.add	t4,a5
   11c6a:	933e                	c.add	t1,a5
   11c6c:	0008089b          	addiw	a7,a6,0
   11c70:	048e                	c.slli	s1,0x3
   11c72:	200d8d93          	addi	s11,s11,512
   11c76:	040e                	c.slli	s0,0x3
   11c78:	200d0d13          	addi	s10,s10,512
   11c7c:	2e01                	c.addiw	t3,0
   11c7e:	028e                	c.slli	t0,0x3
   11c80:	200c8c93          	addi	s9,s9,512
   11c84:	0f8e                	c.slli	t6,0x3
   11c86:	200c0c13          	addi	s8,s8,512
   11c8a:	000f3b83          	ld	s7,0(t5)
   11c8e:	00053b03          	ld	s6,0(a0)
   11c92:	000eba83          	ld	s5,0(t4)
   11c96:	00033a03          	ld	s4,0(t1)
   11c9a:	7a14                	c.ld	a3,48(a2)
   11c9c:	03863803          	ld	a6,56(a2)
   11ca0:	6228                	c.ld	a0,64(a2)
   11ca2:	6638                	c.ld	a4,72(a2)
   11ca4:	94be                	c.add	s1,a5
   11ca6:	30098e93          	addi	t4,s3,768
   11caa:	943e                	c.add	s0,a5
   11cac:	92be                	c.add	t0,a5
   11cae:	30090313          	addi	t1,s2,768
   11cb2:	9fbe                	c.add	t6,a5
   11cb4:	0d8e                	c.slli	s11,0x3
   11cb6:	0d0e                	c.slli	s10,0x3
   11cb8:	300e0e13          	addi	t3,t3,768
   11cbc:	0c8e                	c.slli	s9,0x3
   11cbe:	0c0e                	c.slli	s8,0x3
   11cc0:	30088893          	addi	a7,a7,768
   11cc4:	0004b983          	ld	s3,0(s1)
   11cc8:	00043903          	ld	s2,0(s0)
   11ccc:	0002b483          	ld	s1,0(t0)
   11cd0:	000fb403          	ld	s0,0(t6)
   11cd4:	9cbe                	c.add	s9,a5
   11cd6:	9c3e                	c.add	s8,a5
   11cd8:	9dbe                	c.add	s11,a5
   11cda:	0e8e                	c.slli	t4,0x3
   11cdc:	9d3e                	c.add	s10,a5
   11cde:	0e0e                	c.slli	t3,0x3
   11ce0:	030e                	c.slli	t1,0x3
   11ce2:	088e                	c.slli	a7,0x3
   11ce4:	000cbf83          	ld	t6,0(s9)
   11ce8:	000c3f03          	ld	t5,0(s8)
   11cec:	000db383          	ld	t2,0(s11)
   11cf0:	000d3283          	ld	t0,0(s10)
   11cf4:	9ebe                	c.add	t4,a5
   11cf6:	9e3e                	c.add	t3,a5
   11cf8:	933e                	c.add	t1,a5
   11cfa:	98be                	c.add	a7,a5
   11cfc:	000ebe83          	ld	t4,0(t4)
   11d00:	000e3e03          	ld	t3,0(t3)
   11d04:	00033303          	ld	t1,0(t1)
   11d08:	0008b883          	ld	a7,0(a7)
   11d0c:	0176c6b3          	xor	a3,a3,s7
   11d10:	01684833          	xor	a6,a6,s6
   11d14:	01554533          	xor	a0,a0,s5
   11d18:	01474733          	xor	a4,a4,s4
   11d1c:	0136c6b3          	xor	a3,a3,s3
   11d20:	01284833          	xor	a6,a6,s2
   11d24:	8d25                	c.xor	a0,s1
   11d26:	8f21                	c.xor	a4,s0
   11d28:	0076c6b3          	xor	a3,a3,t2
   11d2c:	00584833          	xor	a6,a6,t0
   11d30:	01f54533          	xor	a0,a0,t6
   11d34:	01e74733          	xor	a4,a4,t5
   11d38:	01d6c6b3          	xor	a3,a3,t4
   11d3c:	01c84833          	xor	a6,a6,t3
   11d40:	00654533          	xor	a0,a0,t1
   11d44:	01174733          	xor	a4,a4,a7
   11d48:	00885a13          	srli	s4,a6,0x8
   11d4c:	01055493          	srli	s1,a0,0x10
   11d50:	0187539b          	srliw	t2,a4,0x18
   11d54:	00855993          	srli	s3,a0,0x8
   11d58:	01075413          	srli	s0,a4,0x10
   11d5c:	0186d29b          	srliw	t0,a3,0x18
   11d60:	00875913          	srli	s2,a4,0x8
   11d64:	0086df93          	srli	t6,a3,0x8
   11d68:	0ffa7a13          	andi	s4,s4,255
   11d6c:	0ff4f493          	andi	s1,s1,255
   11d70:	2381                	c.addiw	t2,0
   11d72:	0ff9f993          	andi	s3,s3,255
   11d76:	0ff47413          	andi	s0,s0,255
   11d7a:	2281                	c.addiw	t0,0
   11d7c:	0ff97913          	andi	s2,s2,255
   11d80:	0ff6fb93          	andi	s7,a3,255
   11d84:	0ff87b13          	andi	s6,a6,255
   11d88:	0ff57a93          	andi	s5,a0,255
   11d8c:	01085f13          	srli	t5,a6,0x10
   11d90:	100a0a13          	addi	s4,s4,256
   11d94:	20048493          	addi	s1,s1,512
   11d98:	30038393          	addi	t2,t2,768
   11d9c:	10098993          	addi	s3,s3,256
   11da0:	20040413          	addi	s0,s0,512
   11da4:	30028293          	addi	t0,t0,768
   11da8:	10090913          	addi	s2,s2,256
   11dac:	82c1                	c.srli	a3,0x10
   11dae:	0ff77713          	andi	a4,a4,255
   11db2:	0fffff93          	andi	t6,t6,255
   11db6:	0188581b          	srliw	a6,a6,0x18
   11dba:	070e                	c.slli	a4,0x3
   11dbc:	0185551b          	srliw	a0,a0,0x18
   11dc0:	0b8e                	c.slli	s7,0x3
   11dc2:	0a0e                	c.slli	s4,0x3
   11dc4:	048e                	c.slli	s1,0x3
   11dc6:	038e                	c.slli	t2,0x3
   11dc8:	0b0e                	c.slli	s6,0x3
   11dca:	098e                	c.slli	s3,0x3
   11dcc:	040e                	c.slli	s0,0x3
   11dce:	028e                	c.slli	t0,0x3
   11dd0:	0a8e                	c.slli	s5,0x3
   11dd2:	090e                	c.slli	s2,0x3
   11dd4:	0ff6f693          	andi	a3,a3,255
   11dd8:	100f8f93          	addi	t6,t6,256
   11ddc:	0fff7f13          	andi	t5,t5,255
   11de0:	00e78333          	add	t1,a5,a4
   11de4:	9bbe                	c.add	s7,a5
   11de6:	9b3e                	c.add	s6,a5
   11de8:	9abe                	c.add	s5,a5
   11dea:	20068693          	addi	a3,a3,512
   11dee:	00080e9b          	addiw	t4,a6,0
   11df2:	0005089b          	addiw	a7,a0,0
   11df6:	9a3e                	c.add	s4,a5
   11df8:	94be                	c.add	s1,a5
   11dfa:	93be                	c.add	t2,a5
   11dfc:	99be                	c.add	s3,a5
   11dfe:	943e                	c.add	s0,a5
   11e00:	92be                	c.add	t0,a5
   11e02:	993e                	c.add	s2,a5
   11e04:	0f8e                	c.slli	t6,0x3
   11e06:	200f0f13          	addi	t5,t5,512
   11e0a:	000bbc03          	ld	s8,0(s7)
   11e0e:	6e28                	c.ld	a0,88(a2)
   11e10:	000b3703          	ld	a4,0(s6)
   11e14:	000abb83          	ld	s7,0(s5)
   11e18:	05063e03          	ld	t3,80(a2)
   11e1c:	00369a93          	slli	s5,a3,0x3
   11e20:	000a3a03          	ld	s4,0(s4)
   11e24:	6084                	c.ld	s1,0(s1)
   11e26:	0003b383          	ld	t2,0(t2)
   11e2a:	0009b983          	ld	s3,0(s3)
   11e2e:	6000                	c.ld	s0,0(s0)
   11e30:	0002b283          	ld	t0,0(t0)
   11e34:	06063803          	ld	a6,96(a2)
   11e38:	9fbe                	c.add	t6,a5
   11e3a:	00093903          	ld	s2,0(s2)
   11e3e:	0f0e                	c.slli	t5,0x3
   11e40:	00033b03          	ld	s6,0(t1)
   11e44:	30088893          	addi	a7,a7,768
   11e48:	300e8e93          	addi	t4,t4,768
   11e4c:	7634                	c.ld	a3,104(a2)
   11e4e:	01578cb3          	add	s9,a5,s5
   11e52:	01e78333          	add	t1,a5,t5
   11e56:	000fba83          	ld	s5,0(t6)
   11e5a:	00389f13          	slli	t5,a7,0x3
   11e5e:	0e8e                	c.slli	t4,0x3
   11e60:	9ebe                	c.add	t4,a5
   11e62:	000cbf83          	ld	t6,0(s9)
   11e66:	00033303          	ld	t1,0(t1)
   11e6a:	9f3e                	c.add	t5,a5
   11e6c:	8f29                	c.xor	a4,a0
   11e6e:	000eb883          	ld	a7,0(t4)
   11e72:	000f3503          	ld	a0,0(t5)
   11e76:	018e4e33          	xor	t3,t3,s8
   11e7a:	01784833          	xor	a6,a6,s7
   11e7e:	0166c6b3          	xor	a3,a3,s6
   11e82:	014e4e33          	xor	t3,t3,s4
   11e86:	01374733          	xor	a4,a4,s3
   11e8a:	01284833          	xor	a6,a6,s2
   11e8e:	0156c6b3          	xor	a3,a3,s5
   11e92:	009e4e33          	xor	t3,t3,s1
   11e96:	8f21                	c.xor	a4,s0
   11e98:	01f84833          	xor	a6,a6,t6
   11e9c:	0066c6b3          	xor	a3,a3,t1
   11ea0:	8ea9                	c.xor	a3,a0
   11ea2:	07063e83          	ld	t4,112(a2)
   11ea6:	007e4e33          	xor	t3,t3,t2
   11eaa:	00574733          	xor	a4,a4,t0
   11eae:	01184833          	xor	a6,a6,a7
   11eb2:	07060513          	addi	a0,a2,112
   11eb6:	c1ffe06f          	jal	zero,10ad4 <encrypt+0xce>

0000000000011eba <decrypt>:
   11eba:	0x7f65977          	0x7f65977
   11ebe:	41064783          	lbu	a5,1040(a2)
   11ec2:	8b89                	c.andi	a5,2
   11ec4:	c7dd                	c.beqz	a5,11f72 <decrypt+0xb8>
   11ec6:	0xbffd977          	0xbffd977
   11eca:	00453803          	ld	a6,4(a0)
   11ece:	00053f03          	ld	t5,0(a0)
   11ed2:	00853303          	ld	t1,8(a0)
   11ed6:	00c53e83          	ld	t4,12(a0)
   11eda:	21063703          	ld	a4,528(a2)
   11ede:	21863683          	ld	a3,536(a2)
   11ee2:	22063783          	ld	a5,544(a2)
   11ee6:	22863503          	ld	a0,552(a2)
   11eea:	00863883          	ld	a7,8(a2)
   11eee:	711d                	c.addi16sp	sp,-96
   11ef0:	eca2                	c.sdsp	s0,88(sp)
   11ef2:	e8a6                	c.sdsp	s1,80(sp)
   11ef4:	e4ca                	c.sdsp	s2,72(sp)
   11ef6:	e0ce                	c.sdsp	s3,64(sp)
   11ef8:	fc52                	c.sdsp	s4,56(sp)
   11efa:	f856                	c.sdsp	s5,48(sp)
   11efc:	f45a                	c.sdsp	s6,40(sp)
   11efe:	f05e                	c.sdsp	s7,32(sp)
   11f00:	ec62                	c.sdsp	s8,24(sp)
   11f02:	e866                	c.sdsp	s9,16(sp)
   11f04:	e46a                	c.sdsp	s10,8(sp)
   11f06:	e06e                	c.sdsp	s11,0(sp)
   11f08:	4e31                	c.li	t3,12
   11f0a:	00d846b3          	xor	a3,a6,a3
   11f0e:	00ef4733          	xor	a4,t5,a4
   11f12:	00f34333          	xor	t1,t1,a5
   11f16:	00aec533          	xor	a0,t4,a0
   11f1a:	23060813          	addi	a6,a2,560
   11f1e:	07c88063          	beq	a7,t3,11f7e <decrypt+0xc4>
   11f22:	0x93e8977          	0x93e8977
   11f26:	47b9                	c.li	a5,14
   11f28:	00f89463          	bne	a7,a5,11f30 <decrypt+0x76>
   11f2c:	1780106f          	jal	zero,130a4 <decrypt+0x11ea>
   11f30:	0x6ef977          	0x6ef977
   11f34:	47a9                	c.li	a5,10
   11f36:	00f89463          	bne	a7,a5,11f3e <decrypt+0x84>
   11f3a:	15a0106f          	jal	zero,13094 <decrypt+0x11da>
   11f3e:	0x93a8977          	0x93a8977
   11f42:	e198                	c.sd	a4,0(a1)
   11f44:	00d5b223          	sd	a3,4(a1)
   11f48:	6466                	c.ldsp	s0,88(sp)
   11f4a:	0065b423          	sd	t1,8(a1)
   11f4e:	00a5b623          	sd	a0,12(a1)
   11f52:	64c6                	c.ldsp	s1,80(sp)
   11f54:	6926                	c.ldsp	s2,72(sp)
   11f56:	6986                	c.ldsp	s3,64(sp)
   11f58:	7a62                	c.ldsp	s4,56(sp)
   11f5a:	7ac2                	c.ldsp	s5,48(sp)
   11f5c:	7b22                	c.ldsp	s6,40(sp)
   11f5e:	7b82                	c.ldsp	s7,32(sp)
   11f60:	6c62                	c.ldsp	s8,24(sp)
   11f62:	6cc2                	c.ldsp	s9,16(sp)
   11f64:	6d22                	c.ldsp	s10,8(sp)
   11f66:	6d82                	c.ldsp	s11,0(sp)
   11f68:	4505                	c.li	a0,1
   11f6a:	6125                	c.addi16sp	sp,96
   11f6c:	0ff05073          	csrrwi	zero,0xff,0
   11f70:	8082                	c.jr	ra
   11f72:	0x4cf977          	0x4cf977
   11f76:	4501                	c.li	a0,0
   11f78:	0ff05073          	csrrwi	zero,0xff,0
   11f7c:	8082                	c.jr	ra
   11f7e:	0x5f9d977          	0x5f9d977
   11f82:	23063e03          	ld	t3,560(a2)
   11f86:	000247b7          	lui	a5,0x24
   11f8a:	2d878793          	addi	a5,a5,728 # 242d8 <it_tab>
   11f8e:	0x5eff977          	0x5eff977
   11f92:	00855f93          	srli	t6,a0,0x8
   11f96:	00875913          	srli	s2,a4,0x8
   11f9a:	0086d493          	srli	s1,a3,0x8
   11f9e:	00835413          	srli	s0,t1,0x8
   11fa2:	01075613          	srli	a2,a4,0x10
   11fa6:	0ff77b93          	andi	s7,a4,255
   11faa:	01035393          	srli	t2,t1,0x10
   11fae:	0ff6fb13          	andi	s6,a3,255
   11fb2:	01055293          	srli	t0,a0,0x10
   11fb6:	0ff37a93          	andi	s5,t1,255
   11fba:	0ff57a13          	andi	s4,a0,255
   11fbe:	0106df13          	srli	t5,a3,0x10
   11fc2:	0fffff93          	andi	t6,t6,255
   11fc6:	0ff97913          	andi	s2,s2,255
   11fca:	0ff4f493          	andi	s1,s1,255
   11fce:	0ff47413          	andi	s0,s0,255
   11fd2:	0186de9b          	srliw	t4,a3,0x18
   11fd6:	0185589b          	srliw	a7,a0,0x18
   11fda:	01875c1b          	srliw	s8,a4,0x18
   11fde:	100f8993          	addi	s3,t6,256
   11fe2:	0183531b          	srliw	t1,t1,0x18
   11fe6:	0ff67f93          	andi	t6,a2,255
   11fea:	0b8e                	c.slli	s7,0x3
   11fec:	0ff3f393          	andi	t2,t2,255
   11ff0:	0b0e                	c.slli	s6,0x3
   11ff2:	10090913          	addi	s2,s2,256
   11ff6:	0ff2f293          	andi	t0,t0,255
   11ffa:	0a8e                	c.slli	s5,0x3
   11ffc:	10048493          	addi	s1,s1,256
   12000:	0a0e                	c.slli	s4,0x3
   12002:	10040413          	addi	s0,s0,256
   12006:	0fff7f13          	andi	t5,t5,255
   1200a:	9bbe                	c.add	s7,a5
   1200c:	9b3e                	c.add	s6,a5
   1200e:	9abe                	c.add	s5,a5
   12010:	9a3e                	c.add	s4,a5
   12012:	098e                	c.slli	s3,0x3
   12014:	20038393          	addi	t2,t2,512
   12018:	2e81                	c.addiw	t4,0
   1201a:	090e                	c.slli	s2,0x3
   1201c:	20028293          	addi	t0,t0,512
   12020:	2301                	c.addiw	t1,0
   12022:	048e                	c.slli	s1,0x3
   12024:	200f8f93          	addi	t6,t6,512
   12028:	2881                	c.addiw	a7,0
   1202a:	040e                	c.slli	s0,0x3
   1202c:	200f0f13          	addi	t5,t5,512
   12030:	2c01                	c.addiw	s8,0
   12032:	00883603          	ld	a2,8(a6)
   12036:	01083683          	ld	a3,16(a6)
   1203a:	01883703          	ld	a4,24(a6)
   1203e:	000bb503          	ld	a0,0(s7)
   12042:	99be                	c.add	s3,a5
   12044:	000b3b83          	ld	s7,0(s6)
   12048:	993e                	c.add	s2,a5
   1204a:	000abb03          	ld	s6,0(s5)
   1204e:	94be                	c.add	s1,a5
   12050:	000a3a83          	ld	s5,0(s4)
   12054:	943e                	c.add	s0,a5
   12056:	038e                	c.slli	t2,0x3
   12058:	300e8e93          	addi	t4,t4,768
   1205c:	028e                	c.slli	t0,0x3
   1205e:	30030313          	addi	t1,t1,768
   12062:	0f8e                	c.slli	t6,0x3
   12064:	30088893          	addi	a7,a7,768
   12068:	0f0e                	c.slli	t5,0x3
   1206a:	300c0c13          	addi	s8,s8,768
   1206e:	0009ba03          	ld	s4,0(s3)
   12072:	93be                	c.add	t2,a5
   12074:	00093983          	ld	s3,0(s2)
   12078:	92be                	c.add	t0,a5
   1207a:	0004b903          	ld	s2,0(s1)
   1207e:	9fbe                	c.add	t6,a5
   12080:	6004                	c.ld	s1,0(s0)
   12082:	9f3e                	c.add	t5,a5
   12084:	0e8e                	c.slli	t4,0x3
   12086:	030e                	c.slli	t1,0x3
   12088:	088e                	c.slli	a7,0x3
   1208a:	0c0e                	c.slli	s8,0x3
   1208c:	0003b403          	ld	s0,0(t2)
   12090:	9ebe                	c.add	t4,a5
   12092:	0002b383          	ld	t2,0(t0)
   12096:	933e                	c.add	t1,a5
   12098:	000fb283          	ld	t0,0(t6)
   1209c:	98be                	c.add	a7,a5
   1209e:	000f3f83          	ld	t6,0(t5)
   120a2:	9c3e                	c.add	s8,a5
   120a4:	000ebf03          	ld	t5,0(t4)
   120a8:	00ae4533          	xor	a0,t3,a0
   120ac:	00033e83          	ld	t4,0(t1)
   120b0:	01764633          	xor	a2,a2,s7
   120b4:	0008b303          	ld	t1,0(a7)
   120b8:	0166c6b3          	xor	a3,a3,s6
   120bc:	000c3883          	ld	a7,0(s8)
   120c0:	01574733          	xor	a4,a4,s5
   120c4:	01454533          	xor	a0,a0,s4
   120c8:	01364633          	xor	a2,a2,s3
   120cc:	0126c6b3          	xor	a3,a3,s2
   120d0:	8f25                	c.xor	a4,s1
   120d2:	8d21                	c.xor	a0,s0
   120d4:	00764633          	xor	a2,a2,t2
   120d8:	0056c6b3          	xor	a3,a3,t0
   120dc:	01f74733          	xor	a4,a4,t6
   120e0:	01e54533          	xor	a0,a0,t5
   120e4:	01d64633          	xor	a2,a2,t4
   120e8:	0066c6b3          	xor	a3,a3,t1
   120ec:	01174733          	xor	a4,a4,a7
   120f0:	00875a13          	srli	s4,a4,0x8
   120f4:	0106d493          	srli	s1,a3,0x10
   120f8:	0186529b          	srliw	t0,a2,0x18
   120fc:	00855993          	srli	s3,a0,0x8
   12100:	01075413          	srli	s0,a4,0x10
   12104:	0186df9b          	srliw	t6,a3,0x18
   12108:	00865913          	srli	s2,a2,0x8
   1210c:	01055393          	srli	t2,a0,0x10
   12110:	0086de13          	srli	t3,a3,0x8
   12114:	0ffa7a13          	andi	s4,s4,255
   12118:	0ff4f493          	andi	s1,s1,255
   1211c:	2281                	c.addiw	t0,0
   1211e:	0ff9f993          	andi	s3,s3,255
   12122:	0ff47413          	andi	s0,s0,255
   12126:	2f81                	c.addiw	t6,0
   12128:	0ff97913          	andi	s2,s2,255
   1212c:	0ff3f393          	andi	t2,t2,255
   12130:	0ff57b93          	andi	s7,a0,255
   12134:	0ff67b13          	andi	s6,a2,255
   12138:	0ff6f313          	andi	t1,a3,255
   1213c:	0ff77a93          	andi	s5,a4,255
   12140:	100a0a13          	addi	s4,s4,256
   12144:	20048493          	addi	s1,s1,512
   12148:	30028293          	addi	t0,t0,768
   1214c:	10098993          	addi	s3,s3,256
   12150:	20040413          	addi	s0,s0,512
   12154:	300f8f93          	addi	t6,t6,768
   12158:	10090913          	addi	s2,s2,256
   1215c:	20038393          	addi	t2,t2,512
   12160:	0ffe7e13          	andi	t3,t3,255
   12164:	8241                	c.srli	a2,0x10
   12166:	0187571b          	srliw	a4,a4,0x18
   1216a:	0ff67613          	andi	a2,a2,255
   1216e:	0185551b          	srliw	a0,a0,0x18
   12172:	0b8e                	c.slli	s7,0x3
   12174:	0a0e                	c.slli	s4,0x3
   12176:	048e                	c.slli	s1,0x3
   12178:	028e                	c.slli	t0,0x3
   1217a:	0b0e                	c.slli	s6,0x3
   1217c:	098e                	c.slli	s3,0x3
   1217e:	040e                	c.slli	s0,0x3
   12180:	0f8e                	c.slli	t6,0x3
   12182:	030e                	c.slli	t1,0x3
   12184:	090e                	c.slli	s2,0x3
   12186:	038e                	c.slli	t2,0x3
   12188:	0a8e                	c.slli	s5,0x3
   1218a:	100e0e13          	addi	t3,t3,256
   1218e:	0007089b          	addiw	a7,a4,0
   12192:	9abe                	c.add	s5,a5
   12194:	20060e93          	addi	t4,a2,512
   12198:	00050f1b          	addiw	t5,a0,0
   1219c:	9bbe                	c.add	s7,a5
   1219e:	9a3e                	c.add	s4,a5
   121a0:	94be                	c.add	s1,a5
   121a2:	92be                	c.add	t0,a5
   121a4:	9b3e                	c.add	s6,a5
   121a6:	99be                	c.add	s3,a5
   121a8:	943e                	c.add	s0,a5
   121aa:	9fbe                	c.add	t6,a5
   121ac:	933e                	c.add	t1,a5
   121ae:	993e                	c.add	s2,a5
   121b0:	93be                	c.add	t2,a5
   121b2:	0e0e                	c.slli	t3,0x3
   121b4:	02083703          	ld	a4,32(a6)
   121b8:	02883683          	ld	a3,40(a6)
   121bc:	03083603          	ld	a2,48(a6)
   121c0:	00033303          	ld	t1,0(t1)
   121c4:	000bbb83          	ld	s7,0(s7)
   121c8:	000a3a03          	ld	s4,0(s4)
   121cc:	6084                	c.ld	s1,0(s1)
   121ce:	0002b283          	ld	t0,0(t0)
   121d2:	000b3b03          	ld	s6,0(s6)
   121d6:	0009b983          	ld	s3,0(s3)
   121da:	6000                	c.ld	s0,0(s0)
   121dc:	000fbf83          	ld	t6,0(t6)
   121e0:	00093903          	ld	s2,0(s2)
   121e4:	9e3e                	c.add	t3,a5
   121e6:	0003b383          	ld	t2,0(t2)
   121ea:	30088893          	addi	a7,a7,768
   121ee:	03883503          	ld	a0,56(a6)
   121f2:	000abc03          	ld	s8,0(s5)
   121f6:	0e8e                	c.slli	t4,0x3
   121f8:	300f0f13          	addi	t5,t5,768
   121fc:	000e3a83          	ld	s5,0(t3)
   12200:	088e                	c.slli	a7,0x3
   12202:	9ebe                	c.add	t4,a5
   12204:	0f0e                	c.slli	t5,0x3
   12206:	98be                	c.add	a7,a5
   12208:	000ebe03          	ld	t3,0(t4)
   1220c:	9f3e                	c.add	t5,a5
   1220e:	00664633          	xor	a2,a2,t1
   12212:	01774733          	xor	a4,a4,s7
   12216:	0008b303          	ld	t1,0(a7)
   1221a:	0166c6b3          	xor	a3,a3,s6
   1221e:	01854533          	xor	a0,a0,s8
   12222:	000f3883          	ld	a7,0(t5)
   12226:	01474733          	xor	a4,a4,s4
   1222a:	0136c6b3          	xor	a3,a3,s3
   1222e:	01264633          	xor	a2,a2,s2
   12232:	01554533          	xor	a0,a0,s5
   12236:	8f25                	c.xor	a4,s1
   12238:	8ea1                	c.xor	a3,s0
   1223a:	00764633          	xor	a2,a2,t2
   1223e:	01c54533          	xor	a0,a0,t3
   12242:	00574733          	xor	a4,a4,t0
   12246:	01f6c6b3          	xor	a3,a3,t6
   1224a:	00664333          	xor	t1,a2,t1
   1224e:	01154533          	xor	a0,a0,a7
   12252:	04080813          	addi	a6,a6,64
   12256:	0xfc9a977          	0xfc9a977
   1225a:	00855f93          	srli	t6,a0,0x8
   1225e:	00875293          	srli	t0,a4,0x8
   12262:	0086d493          	srli	s1,a3,0x8
   12266:	00835413          	srli	s0,t1,0x8
   1226a:	01055c13          	srli	s8,a0,0x10
   1226e:	0ff37b93          	andi	s7,t1,255
   12272:	01075b13          	srli	s6,a4,0x10
   12276:	0ff77613          	andi	a2,a4,255
   1227a:	01035393          	srli	t2,t1,0x10
   1227e:	0ff6fa93          	andi	s5,a3,255
   12282:	0ff57a13          	andi	s4,a0,255
   12286:	0106df13          	srli	t5,a3,0x10
   1228a:	0fffff93          	andi	t6,t6,255
   1228e:	0ff2f293          	andi	t0,t0,255
   12292:	0ff4f493          	andi	s1,s1,255
   12296:	0ff47413          	andi	s0,s0,255
   1229a:	0186de9b          	srliw	t4,a3,0x18
   1229e:	01835e1b          	srliw	t3,t1,0x18
   122a2:	0187589b          	srliw	a7,a4,0x18
   122a6:	0185531b          	srliw	t1,a0,0x18
   122aa:	003b9713          	slli	a4,s7,0x3
   122ae:	100f8993          	addi	s3,t6,256
   122b2:	10028913          	addi	s2,t0,256
   122b6:	0ffb7f93          	andi	t6,s6,255
   122ba:	0ffc7293          	andi	t0,s8,255
   122be:	060e                	c.slli	a2,0x3
   122c0:	0ff3f393          	andi	t2,t2,255
   122c4:	0a8e                	c.slli	s5,0x3
   122c6:	10048493          	addi	s1,s1,256
   122ca:	0a0e                	c.slli	s4,0x3
   122cc:	10040413          	addi	s0,s0,256
   122d0:	0fff7f13          	andi	t5,t5,255
   122d4:	00e786b3          	add	a3,a5,a4
   122d8:	963e                	c.add	a2,a5
   122da:	9abe                	c.add	s5,a5
   122dc:	9a3e                	c.add	s4,a5
   122de:	098e                	c.slli	s3,0x3
   122e0:	20038393          	addi	t2,t2,512
   122e4:	2e81                	c.addiw	t4,0
   122e6:	090e                	c.slli	s2,0x3
   122e8:	20028293          	addi	t0,t0,512
   122ec:	2e01                	c.addiw	t3,0
   122ee:	048e                	c.slli	s1,0x3
   122f0:	200f8f93          	addi	t6,t6,512
   122f4:	2301                	c.addiw	t1,0
   122f6:	040e                	c.slli	s0,0x3
   122f8:	200f0f13          	addi	t5,t5,512
   122fc:	2881                	c.addiw	a7,0
   122fe:	00063c83          	ld	s9,0(a2)
   12302:	000abc03          	ld	s8,0(s5)
   12306:	0006bb83          	ld	s7,0(a3)
   1230a:	000a3b03          	ld	s6,0(s4)
   1230e:	00083503          	ld	a0,0(a6)
   12312:	00883603          	ld	a2,8(a6)
   12316:	01083703          	ld	a4,16(a6)
   1231a:	01883683          	ld	a3,24(a6)
   1231e:	99be                	c.add	s3,a5
   12320:	993e                	c.add	s2,a5
   12322:	94be                	c.add	s1,a5
   12324:	943e                	c.add	s0,a5
   12326:	038e                	c.slli	t2,0x3
   12328:	300e8e93          	addi	t4,t4,768
   1232c:	028e                	c.slli	t0,0x3
   1232e:	300e0e13          	addi	t3,t3,768
   12332:	0f8e                	c.slli	t6,0x3
   12334:	30030313          	addi	t1,t1,768
   12338:	0f0e                	c.slli	t5,0x3
   1233a:	30088893          	addi	a7,a7,768
   1233e:	0009ba83          	ld	s5,0(s3)
   12342:	00093a03          	ld	s4,0(s2)
   12346:	0004b983          	ld	s3,0(s1)
   1234a:	00043903          	ld	s2,0(s0)
   1234e:	93be                	c.add	t2,a5
   12350:	92be                	c.add	t0,a5
   12352:	9fbe                	c.add	t6,a5
   12354:	9f3e                	c.add	t5,a5
   12356:	0e8e                	c.slli	t4,0x3
   12358:	0e0e                	c.slli	t3,0x3
   1235a:	030e                	c.slli	t1,0x3
   1235c:	088e                	c.slli	a7,0x3
   1235e:	0003b483          	ld	s1,0(t2)
   12362:	0002b403          	ld	s0,0(t0)
   12366:	000fb383          	ld	t2,0(t6)
   1236a:	000f3283          	ld	t0,0(t5)
   1236e:	9ebe                	c.add	t4,a5
   12370:	9e3e                	c.add	t3,a5
   12372:	933e                	c.add	t1,a5
   12374:	98be                	c.add	a7,a5
   12376:	000ebf83          	ld	t6,0(t4)
   1237a:	000e3f03          	ld	t5,0(t3)
   1237e:	00033e83          	ld	t4,0(t1)
   12382:	0008be03          	ld	t3,0(a7)
   12386:	01954533          	xor	a0,a0,s9
   1238a:	01864633          	xor	a2,a2,s8
   1238e:	01774733          	xor	a4,a4,s7
   12392:	0166c6b3          	xor	a3,a3,s6
   12396:	01554533          	xor	a0,a0,s5
   1239a:	01464633          	xor	a2,a2,s4
   1239e:	01374733          	xor	a4,a4,s3
   123a2:	0126c6b3          	xor	a3,a3,s2
   123a6:	8d25                	c.xor	a0,s1
   123a8:	8e21                	c.xor	a2,s0
   123aa:	00774733          	xor	a4,a4,t2
   123ae:	0056c6b3          	xor	a3,a3,t0
   123b2:	01e64633          	xor	a2,a2,t5
   123b6:	01f54533          	xor	a0,a0,t6
   123ba:	01d74733          	xor	a4,a4,t4
   123be:	01c6c6b3          	xor	a3,a3,t3
   123c2:	0086d413          	srli	s0,a3,0x8
   123c6:	01075393          	srli	t2,a4,0x10
   123ca:	0186529b          	srliw	t0,a2,0x18
   123ce:	00855f93          	srli	t6,a0,0x8
   123d2:	0106df13          	srli	t5,a3,0x10
   123d6:	01875e1b          	srliw	t3,a4,0x18
   123da:	00865893          	srli	a7,a2,0x8
   123de:	0ff77913          	andi	s2,a4,255
   123e2:	01055313          	srli	t1,a0,0x10
   123e6:	0ff57a93          	andi	s5,a0,255
   123ea:	2281                	c.addiw	t0,0
   123ec:	0ff67493          	andi	s1,a2,255
   123f0:	0fffff93          	andi	t6,t6,255
   123f4:	2e01                	c.addiw	t3,0
   123f6:	0ff8f893          	andi	a7,a7,255
   123fa:	00875e93          	srli	t4,a4,0x8
   123fe:	0ff47413          	andi	s0,s0,255
   12402:	0ff3f393          	andi	t2,t2,255
   12406:	0fff7f13          	andi	t5,t5,255
   1240a:	30028c93          	addi	s9,t0,768
   1240e:	100f8a13          	addi	s4,t6,256
   12412:	300e0993          	addi	s3,t3,768
   12416:	00391f93          	slli	t6,s2,0x3
   1241a:	10088713          	addi	a4,a7,256
   1241e:	0ff37293          	andi	t0,t1,255
   12422:	0186de1b          	srliw	t3,a3,0x18
   12426:	01065893          	srli	a7,a2,0x10
   1242a:	0ff6f693          	andi	a3,a3,255
   1242e:	0a8e                	c.slli	s5,0x3
   12430:	10040413          	addi	s0,s0,256
   12434:	20038393          	addi	t2,t2,512
   12438:	048e                	c.slli	s1,0x3
   1243a:	200f0f13          	addi	t5,t5,512
   1243e:	0ffefe93          	andi	t4,t4,255
   12442:	9abe                	c.add	s5,a5
   12444:	94be                	c.add	s1,a5
   12446:	9fbe                	c.add	t6,a5
   12448:	00369913          	slli	s2,a3,0x3
   1244c:	0185531b          	srliw	t1,a0,0x18
   12450:	040e                	c.slli	s0,0x3
   12452:	038e                	c.slli	t2,0x3
   12454:	0c8e                	c.slli	s9,0x3
   12456:	0a0e                	c.slli	s4,0x3
   12458:	0f0e                	c.slli	t5,0x3
   1245a:	098e                	c.slli	s3,0x3
   1245c:	070e                	c.slli	a4,0x3
   1245e:	20028293          	addi	t0,t0,512
   12462:	2e01                	c.addiw	t3,0
   12464:	100e8e93          	addi	t4,t4,256
   12468:	0ff8f893          	andi	a7,a7,255
   1246c:	000abc03          	ld	s8,0(s5)
   12470:	0004bb83          	ld	s7,0(s1)
   12474:	000fbb03          	ld	s6,0(t6)
   12478:	02083503          	ld	a0,32(a6)
   1247c:	02883603          	ld	a2,40(a6)
   12480:	03083683          	ld	a3,48(a6)
   12484:	943e                	c.add	s0,a5
   12486:	93be                	c.add	t2,a5
   12488:	9cbe                	c.add	s9,a5
   1248a:	9f3e                	c.add	t5,a5
   1248c:	99be                	c.add	s3,a5
   1248e:	973e                	c.add	a4,a5
   12490:	9a3e                	c.add	s4,a5
   12492:	993e                	c.add	s2,a5
   12494:	028e                	c.slli	t0,0x3
   12496:	300e0e13          	addi	t3,t3,768
   1249a:	0e8e                	c.slli	t4,0x3
   1249c:	20088893          	addi	a7,a7,512
   124a0:	2301                	c.addiw	t1,0
   124a2:	00043a83          	ld	s5,0(s0)
   124a6:	0003b483          	ld	s1,0(t2)
   124aa:	000cbf83          	ld	t6,0(s9)
   124ae:	000f3403          	ld	s0,0(t5)
   124b2:	000a3a03          	ld	s4,0(s4)
   124b6:	0009bf03          	ld	t5,0(s3)
   124ba:	92be                	c.add	t0,a5
   124bc:	00073983          	ld	s3,0(a4)
   124c0:	9ebe                	c.add	t4,a5
   124c2:	03883703          	ld	a4,56(a6)
   124c6:	00093903          	ld	s2,0(s2)
   124ca:	0e0e                	c.slli	t3,0x3
   124cc:	088e                	c.slli	a7,0x3
   124ce:	30030313          	addi	t1,t1,768
   124d2:	0002b383          	ld	t2,0(t0)
   124d6:	9e3e                	c.add	t3,a5
   124d8:	000eb283          	ld	t0,0(t4)
   124dc:	98be                	c.add	a7,a5
   124de:	030e                	c.slli	t1,0x3
   124e0:	000e3e83          	ld	t4,0(t3)
   124e4:	01854533          	xor	a0,a0,s8
   124e8:	0008be03          	ld	t3,0(a7)
   124ec:	01764633          	xor	a2,a2,s7
   124f0:	006788b3          	add	a7,a5,t1
   124f4:	0166c6b3          	xor	a3,a3,s6
   124f8:	0008b883          	ld	a7,0(a7)
   124fc:	01554533          	xor	a0,a0,s5
   12500:	01464633          	xor	a2,a2,s4
   12504:	0136c6b3          	xor	a3,a3,s3
   12508:	01274733          	xor	a4,a4,s2
   1250c:	8d25                	c.xor	a0,s1
   1250e:	8e21                	c.xor	a2,s0
   12510:	0076c6b3          	xor	a3,a3,t2
   12514:	00574733          	xor	a4,a4,t0
   12518:	01e64633          	xor	a2,a2,t5
   1251c:	01f54533          	xor	a0,a0,t6
   12520:	01d6c6b3          	xor	a3,a3,t4
   12524:	01c74733          	xor	a4,a4,t3
   12528:	01174733          	xor	a4,a4,a7
   1252c:	00855313          	srli	t1,a0,0x8
   12530:	00865893          	srli	a7,a2,0x8
   12534:	0086d493          	srli	s1,a3,0x8
   12538:	0ff77293          	andi	t0,a4,255
   1253c:	00875413          	srli	s0,a4,0x8
   12540:	0ff67e13          	andi	t3,a2,255
   12544:	0ff37313          	andi	t1,t1,255
   12548:	01075393          	srli	t2,a4,0x10
   1254c:	0ff6fa93          	andi	s5,a3,255
   12550:	0ff8f893          	andi	a7,a7,255
   12554:	01055c13          	srli	s8,a0,0x10
   12558:	01065f93          	srli	t6,a2,0x10
   1255c:	0ff4f493          	andi	s1,s1,255
   12560:	0ff57a13          	andi	s4,a0,255
   12564:	0106df13          	srli	t5,a3,0x10
   12568:	0e0e                	c.slli	t3,0x3
   1256a:	10030993          	addi	s3,t1,256
   1256e:	0186de9b          	srliw	t4,a3,0x18
   12572:	10088913          	addi	s2,a7,256
   12576:	0187571b          	srliw	a4,a4,0x18
   1257a:	00329693          	slli	a3,t0,0x3
   1257e:	0185551b          	srliw	a0,a0,0x18
   12582:	0ff47413          	andi	s0,s0,255
   12586:	0ff3f393          	andi	t2,t2,255
   1258a:	0a8e                	c.slli	s5,0x3
   1258c:	0ffc7c13          	andi	s8,s8,255
   12590:	10048493          	addi	s1,s1,256
   12594:	0fffff93          	andi	t6,t6,255
   12598:	00d782b3          	add	t0,a5,a3
   1259c:	9abe                	c.add	s5,a5
   1259e:	0186589b          	srliw	a7,a2,0x18
   125a2:	200c0c13          	addi	s8,s8,512
   125a6:	01c78633          	add	a2,a5,t3
   125aa:	0005031b          	addiw	t1,a0,0
   125ae:	00070e1b          	addiw	t3,a4,0
   125b2:	0a0e                	c.slli	s4,0x3
   125b4:	10040413          	addi	s0,s0,256
   125b8:	0fff7f13          	andi	t5,t5,255
   125bc:	098e                	c.slli	s3,0x3
   125be:	20038393          	addi	t2,t2,512
   125c2:	2e81                	c.addiw	t4,0
   125c4:	090e                	c.slli	s2,0x3
   125c6:	048e                	c.slli	s1,0x3
   125c8:	200f8f93          	addi	t6,t6,512
   125cc:	00063b83          	ld	s7,0(a2)
   125d0:	000abb03          	ld	s6,0(s5)
   125d4:	04883503          	ld	a0,72(a6)
   125d8:	0002ba83          	ld	s5,0(t0)
   125dc:	05083603          	ld	a2,80(a6)
   125e0:	05883683          	ld	a3,88(a6)
   125e4:	9a3e                	c.add	s4,a5
   125e6:	99be                	c.add	s3,a5
   125e8:	993e                	c.add	s2,a5
   125ea:	003c1293          	slli	t0,s8,0x3
   125ee:	94be                	c.add	s1,a5
   125f0:	040e                	c.slli	s0,0x3
   125f2:	200f0f13          	addi	t5,t5,512
   125f6:	2881                	c.addiw	a7,0
   125f8:	038e                	c.slli	t2,0x3
   125fa:	300e8e93          	addi	t4,t4,768
   125fe:	300e0e13          	addi	t3,t3,768
   12602:	0f8e                	c.slli	t6,0x3
   12604:	30030313          	addi	t1,t1,768
   12608:	04083703          	ld	a4,64(a6)
   1260c:	000a3a03          	ld	s4,0(s4)
   12610:	0009b983          	ld	s3,0(s3)
   12614:	00093903          	ld	s2,0(s2)
   12618:	6084                	c.ld	s1,0(s1)
   1261a:	943e                	c.add	s0,a5
   1261c:	93be                	c.add	t2,a5
   1261e:	92be                	c.add	t0,a5
   12620:	9fbe                	c.add	t6,a5
   12622:	0f0e                	c.slli	t5,0x3
   12624:	30088893          	addi	a7,a7,768
   12628:	0e8e                	c.slli	t4,0x3
   1262a:	0e0e                	c.slli	t3,0x3
   1262c:	030e                	c.slli	t1,0x3
   1262e:	6000                	c.ld	s0,0(s0)
   12630:	0003b383          	ld	t2,0(t2)
   12634:	0002b283          	ld	t0,0(t0)
   12638:	000fbf83          	ld	t6,0(t6)
   1263c:	9f3e                	c.add	t5,a5
   1263e:	9ebe                	c.add	t4,a5
   12640:	9e3e                	c.add	t3,a5
   12642:	933e                	c.add	t1,a5
   12644:	088e                	c.slli	a7,0x3
   12646:	000f3f03          	ld	t5,0(t5)
   1264a:	000ebe83          	ld	t4,0(t4)
   1264e:	000e3e03          	ld	t3,0(t3)
   12652:	00033303          	ld	t1,0(t1)
   12656:	98be                	c.add	a7,a5
   12658:	01754533          	xor	a0,a0,s7
   1265c:	01664633          	xor	a2,a2,s6
   12660:	0156c6b3          	xor	a3,a3,s5
   12664:	0008b883          	ld	a7,0(a7)
   12668:	01474733          	xor	a4,a4,s4
   1266c:	01354533          	xor	a0,a0,s3
   12670:	01264633          	xor	a2,a2,s2
   12674:	8ea5                	c.xor	a3,s1
   12676:	8f21                	c.xor	a4,s0
   12678:	00754533          	xor	a0,a0,t2
   1267c:	00564633          	xor	a2,a2,t0
   12680:	01f6c6b3          	xor	a3,a3,t6
   12684:	01c64633          	xor	a2,a2,t3
   12688:	01d54533          	xor	a0,a0,t4
   1268c:	0066c6b3          	xor	a3,a3,t1
   12690:	01e74733          	xor	a4,a4,t5
   12694:	01174733          	xor	a4,a4,a7
   12698:	0086de13          	srli	t3,a3,0x8
   1269c:	01065313          	srli	t1,a2,0x10
   126a0:	0185589b          	srliw	a7,a0,0x18
   126a4:	00875f13          	srli	t5,a4,0x8
   126a8:	00855493          	srli	s1,a0,0x8
   126ac:	00865293          	srli	t0,a2,0x8
   126b0:	0ffe7e13          	andi	t3,t3,255
   126b4:	0ff37313          	andi	t1,t1,255
   126b8:	2881                	c.addiw	a7,0
   126ba:	0ff77b93          	andi	s7,a4,255
   126be:	100e0e13          	addi	t3,t3,256
   126c2:	20030313          	addi	t1,t1,512
   126c6:	0ff57b13          	andi	s6,a0,255
   126ca:	0fff7f13          	andi	t5,t5,255
   126ce:	0106dc13          	srli	s8,a3,0x10
   126d2:	0ff67a93          	andi	s5,a2,255
   126d6:	01075f93          	srli	t6,a4,0x10
   126da:	0ff6fc93          	andi	s9,a3,255
   126de:	8141                	c.srli	a0,0x10
   126e0:	30088893          	addi	a7,a7,768
   126e4:	0ff4f493          	andi	s1,s1,255
   126e8:	0ff2f293          	andi	t0,t0,255
   126ec:	003e1413          	slli	s0,t3,0x3
   126f0:	00331393          	slli	t2,t1,0x3
   126f4:	088e                	c.slli	a7,0x3
   126f6:	100f0913          	addi	s2,t5,256
   126fa:	01865e1b          	srliw	t3,a2,0x18
   126fe:	0186d69b          	srliw	a3,a3,0x18
   12702:	10028293          	addi	t0,t0,256
   12706:	0ff57e93          	andi	t4,a0,255
   1270a:	0187571b          	srliw	a4,a4,0x18
   1270e:	0b8e                	c.slli	s7,0x3
   12710:	0b0e                	c.slli	s6,0x3
   12712:	0ffc7c13          	andi	s8,s8,255
   12716:	0a8e                	c.slli	s5,0x3
   12718:	10048493          	addi	s1,s1,256
   1271c:	0fffff93          	andi	t6,t6,255
   12720:	0c8e                	c.slli	s9,0x3
   12722:	01178a33          	add	s4,a5,a7
   12726:	008789b3          	add	s3,a5,s0
   1272a:	9cbe                	c.add	s9,a5
   1272c:	0007041b          	addiw	s0,a4,0
   12730:	9bbe                	c.add	s7,a5
   12732:	93be                	c.add	t2,a5
   12734:	9b3e                	c.add	s6,a5
   12736:	9abe                	c.add	s5,a5
   12738:	0006831b          	addiw	t1,a3,0
   1273c:	00329513          	slli	a0,t0,0x3
   12740:	090e                	c.slli	s2,0x3
   12742:	200c0c13          	addi	s8,s8,512
   12746:	2e01                	c.addiw	t3,0
   12748:	048e                	c.slli	s1,0x3
   1274a:	200f8f93          	addi	t6,t6,512
   1274e:	200e8e93          	addi	t4,t4,512
   12752:	00a782b3          	add	t0,a5,a0
   12756:	06083883          	ld	a7,96(a6)
   1275a:	000bbb83          	ld	s7,0(s7)
   1275e:	0009b983          	ld	s3,0(s3)
   12762:	0003b383          	ld	t2,0(t2)
   12766:	993e                	c.add	s2,a5
   12768:	000a3f03          	ld	t5,0(s4)
   1276c:	0c0e                	c.slli	s8,0x3
   1276e:	000cba03          	ld	s4,0(s9)
   12772:	06883603          	ld	a2,104(a6)
   12776:	000b3b03          	ld	s6,0(s6)
   1277a:	07083683          	ld	a3,112(a6)
   1277e:	000aba83          	ld	s5,0(s5)
   12782:	07883703          	ld	a4,120(a6)
   12786:	94be                	c.add	s1,a5
   12788:	30040513          	addi	a0,s0,768
   1278c:	300e0e13          	addi	t3,t3,768
   12790:	0f8e                	c.slli	t6,0x3
   12792:	30030313          	addi	t1,t1,768
   12796:	0e8e                	c.slli	t4,0x3
   12798:	0002b403          	ld	s0,0(t0)
   1279c:	00093903          	ld	s2,0(s2)
   127a0:	6084                	c.ld	s1,0(s1)
   127a2:	018782b3          	add	t0,a5,s8
   127a6:	9fbe                	c.add	t6,a5
   127a8:	9ebe                	c.add	t4,a5
   127aa:	0e0e                	c.slli	t3,0x3
   127ac:	030e                	c.slli	t1,0x3
   127ae:	050e                	c.slli	a0,0x3
   127b0:	0002b283          	ld	t0,0(t0)
   127b4:	000fbf83          	ld	t6,0(t6)
   127b8:	000ebe83          	ld	t4,0(t4)
   127bc:	9e3e                	c.add	t3,a5
   127be:	933e                	c.add	t1,a5
   127c0:	953e                	c.add	a0,a5
   127c2:	000e3e03          	ld	t3,0(t3)
   127c6:	00033303          	ld	t1,0(t1)
   127ca:	6108                	c.ld	a0,0(a0)
   127cc:	0178c8b3          	xor	a7,a7,s7
   127d0:	01664633          	xor	a2,a2,s6
   127d4:	0156c6b3          	xor	a3,a3,s5
   127d8:	01474733          	xor	a4,a4,s4
   127dc:	0138c8b3          	xor	a7,a7,s3
   127e0:	01264633          	xor	a2,a2,s2
   127e4:	8ea5                	c.xor	a3,s1
   127e6:	8f21                	c.xor	a4,s0
   127e8:	0078c8b3          	xor	a7,a7,t2
   127ec:	00564633          	xor	a2,a2,t0
   127f0:	01f6c6b3          	xor	a3,a3,t6
   127f4:	01d74733          	xor	a4,a4,t4
   127f8:	01e8c8b3          	xor	a7,a7,t5
   127fc:	01c64633          	xor	a2,a2,t3
   12800:	0066c6b3          	xor	a3,a3,t1
   12804:	8f29                	c.xor	a4,a0
   12806:	00875393          	srli	t2,a4,0x8
   1280a:	0106df13          	srli	t5,a3,0x10
   1280e:	0186541b          	srliw	s0,a2,0x18
   12812:	0088d293          	srli	t0,a7,0x8
   12816:	01075e93          	srli	t4,a4,0x10
   1281a:	0186d51b          	srliw	a0,a3,0x18
   1281e:	00865493          	srli	s1,a2,0x8
   12822:	0108df93          	srli	t6,a7,0x10
   12826:	01875c1b          	srliw	s8,a4,0x18
   1282a:	0086da13          	srli	s4,a3,0x8
   1282e:	0ff3f393          	andi	t2,t2,255
   12832:	0fff7f13          	andi	t5,t5,255
   12836:	2401                	c.addiw	s0,0
   12838:	0ff2f293          	andi	t0,t0,255
   1283c:	0ffefe93          	andi	t4,t4,255
   12840:	2501                	c.addiw	a0,0
   12842:	0ff4f493          	andi	s1,s1,255
   12846:	0fffff93          	andi	t6,t6,255
   1284a:	2c01                	c.addiw	s8,0
   1284c:	0ff8f993          	andi	s3,a7,255
   12850:	0ff67913          	andi	s2,a2,255
   12854:	0ff6f693          	andi	a3,a3,255
   12858:	8241                	c.srli	a2,0x10
   1285a:	10038393          	addi	t2,t2,256
   1285e:	200f0f13          	addi	t5,t5,512
   12862:	30040413          	addi	s0,s0,768
   12866:	10028293          	addi	t0,t0,256
   1286a:	200e8e93          	addi	t4,t4,512
   1286e:	30050513          	addi	a0,a0,768
   12872:	10048493          	addi	s1,s1,256
   12876:	200f8f93          	addi	t6,t6,512
   1287a:	300c0c13          	addi	s8,s8,768
   1287e:	0ff77713          	andi	a4,a4,255
   12882:	0ffa7a13          	andi	s4,s4,255
   12886:	040e                	c.slli	s0,0x3
   12888:	050e                	c.slli	a0,0x3
   1288a:	00369e13          	slli	t3,a3,0x3
   1288e:	070e                	c.slli	a4,0x3
   12890:	0ff67313          	andi	t1,a2,255
   12894:	098e                	c.slli	s3,0x3
   12896:	038e                	c.slli	t2,0x3
   12898:	0f0e                	c.slli	t5,0x3
   1289a:	090e                	c.slli	s2,0x3
   1289c:	028e                	c.slli	t0,0x3
   1289e:	0e8e                	c.slli	t4,0x3
   128a0:	048e                	c.slli	s1,0x3
   128a2:	0f8e                	c.slli	t6,0x3
   128a4:	0c0e                	c.slli	s8,0x3
   128a6:	100a0a13          	addi	s4,s4,256
   128aa:	0188d89b          	srliw	a7,a7,0x18
   128ae:	00878633          	add	a2,a5,s0
   128b2:	00a786b3          	add	a3,a5,a0
   128b6:	00e78433          	add	s0,a5,a4
   128ba:	99be                	c.add	s3,a5
   128bc:	93be                	c.add	t2,a5
   128be:	9f3e                	c.add	t5,a5
   128c0:	993e                	c.add	s2,a5
   128c2:	92be                	c.add	t0,a5
   128c4:	9ebe                	c.add	t4,a5
   128c6:	9e3e                	c.add	t3,a5
   128c8:	9c3e                	c.add	s8,a5
   128ca:	94be                	c.add	s1,a5
   128cc:	9fbe                	c.add	t6,a5
   128ce:	0a0e                	c.slli	s4,0x3
   128d0:	20030313          	addi	t1,t1,512
   128d4:	2881                	c.addiw	a7,0
   128d6:	0009bb83          	ld	s7,0(s3)
   128da:	00093b03          	ld	s6,0(s2)
   128de:	0003b983          	ld	s3,0(t2)
   128e2:	0002b903          	ld	s2,0(t0)
   128e6:	000f3383          	ld	t2,0(t5)
   128ea:	000eb283          	ld	t0,0(t4)
   128ee:	00063f03          	ld	t5,0(a2)
   128f2:	0006be83          	ld	t4,0(a3)
   128f6:	000e3a83          	ld	s5,0(t3)
   128fa:	08083503          	ld	a0,128(a6)
   128fe:	000c3e03          	ld	t3,0(s8)
   12902:	08883603          	ld	a2,136(a6)
   12906:	01478c33          	add	s8,a5,s4
   1290a:	09083683          	ld	a3,144(a6)
   1290e:	6084                	c.ld	s1,0(s1)
   12910:	000fbf83          	ld	t6,0(t6)
   12914:	09883703          	ld	a4,152(a6)
   12918:	030e                	c.slli	t1,0x3
   1291a:	00043a03          	ld	s4,0(s0)
   1291e:	30088893          	addi	a7,a7,768
   12922:	000c3403          	ld	s0,0(s8)
   12926:	933e                	c.add	t1,a5
   12928:	088e                	c.slli	a7,0x3
   1292a:	00033303          	ld	t1,0(t1)
   1292e:	98be                	c.add	a7,a5
   12930:	0008b883          	ld	a7,0(a7)
   12934:	01754533          	xor	a0,a0,s7
   12938:	01664633          	xor	a2,a2,s6
   1293c:	0156c6b3          	xor	a3,a3,s5
   12940:	01474733          	xor	a4,a4,s4
   12944:	01354533          	xor	a0,a0,s3
   12948:	01264633          	xor	a2,a2,s2
   1294c:	8ea5                	c.xor	a3,s1
   1294e:	8f21                	c.xor	a4,s0
   12950:	00754533          	xor	a0,a0,t2
   12954:	00564633          	xor	a2,a2,t0
   12958:	01f6c6b3          	xor	a3,a3,t6
   1295c:	00674733          	xor	a4,a4,t1
   12960:	01e54533          	xor	a0,a0,t5
   12964:	01d64633          	xor	a2,a2,t4
   12968:	01c6c6b3          	xor	a3,a3,t3
   1296c:	01174733          	xor	a4,a4,a7
   12970:	00875293          	srli	t0,a4,0x8
   12974:	00855313          	srli	t1,a0,0x8
   12978:	00865493          	srli	s1,a2,0x8
   1297c:	0086d413          	srli	s0,a3,0x8
   12980:	01075893          	srli	a7,a4,0x10
   12984:	0ff57b93          	andi	s7,a0,255
   12988:	0ff2f293          	andi	t0,t0,255
   1298c:	0106d393          	srli	t2,a3,0x10
   12990:	0ff67b13          	andi	s6,a2,255
   12994:	0ff37313          	andi	t1,t1,255
   12998:	0ff6fa93          	andi	s5,a3,255
   1299c:	01055f13          	srli	t5,a0,0x10
   129a0:	0ff77a13          	andi	s4,a4,255
   129a4:	01065f93          	srli	t6,a2,0x10
   129a8:	0ff4f493          	andi	s1,s1,255
   129ac:	0ff47413          	andi	s0,s0,255
   129b0:	0b8e                	c.slli	s7,0x3
   129b2:	10028993          	addi	s3,t0,256
   129b6:	01865e9b          	srliw	t4,a2,0x18
   129ba:	0b0e                	c.slli	s6,0x3
   129bc:	10030913          	addi	s2,t1,256
   129c0:	0ff8f293          	andi	t0,a7,255
   129c4:	0186de1b          	srliw	t3,a3,0x18
   129c8:	0187571b          	srliw	a4,a4,0x18
   129cc:	0185589b          	srliw	a7,a0,0x18
   129d0:	0ff3f393          	andi	t2,t2,255
   129d4:	0a8e                	c.slli	s5,0x3
   129d6:	10048493          	addi	s1,s1,256
   129da:	0fff7f13          	andi	t5,t5,255
   129de:	0a0e                	c.slli	s4,0x3
   129e0:	10040413          	addi	s0,s0,256
   129e4:	0fffff93          	andi	t6,t6,255
   129e8:	01778633          	add	a2,a5,s7
   129ec:	016786b3          	add	a3,a5,s6
   129f0:	9abe                	c.add	s5,a5
   129f2:	9a3e                	c.add	s4,a5
   129f4:	0007031b          	addiw	t1,a4,0
   129f8:	098e                	c.slli	s3,0x3
   129fa:	20038393          	addi	t2,t2,512
   129fe:	2e81                	c.addiw	t4,0
   12a00:	090e                	c.slli	s2,0x3
   12a02:	20028293          	addi	t0,t0,512
   12a06:	2e01                	c.addiw	t3,0
   12a08:	048e                	c.slli	s1,0x3
   12a0a:	200f0f13          	addi	t5,t5,512
   12a0e:	040e                	c.slli	s0,0x3
   12a10:	200f8f93          	addi	t6,t6,512
   12a14:	2881                	c.addiw	a7,0
   12a16:	00063c03          	ld	s8,0(a2)
   12a1a:	0006bb83          	ld	s7,0(a3)
   12a1e:	000abb03          	ld	s6,0(s5)
   12a22:	0a083503          	ld	a0,160(a6)
   12a26:	000a3a83          	ld	s5,0(s4)
   12a2a:	0a883603          	ld	a2,168(a6)
   12a2e:	0b083683          	ld	a3,176(a6)
   12a32:	0b883703          	ld	a4,184(a6)
   12a36:	99be                	c.add	s3,a5
   12a38:	993e                	c.add	s2,a5
   12a3a:	94be                	c.add	s1,a5
   12a3c:	943e                	c.add	s0,a5
   12a3e:	038e                	c.slli	t2,0x3
   12a40:	300e8e93          	addi	t4,t4,768
   12a44:	028e                	c.slli	t0,0x3
   12a46:	300e0e13          	addi	t3,t3,768
   12a4a:	0f0e                	c.slli	t5,0x3
   12a4c:	30030313          	addi	t1,t1,768
   12a50:	0f8e                	c.slli	t6,0x3
   12a52:	30088893          	addi	a7,a7,768
   12a56:	0009ba03          	ld	s4,0(s3)
   12a5a:	93be                	c.add	t2,a5
   12a5c:	00093983          	ld	s3,0(s2)
   12a60:	92be                	c.add	t0,a5
   12a62:	0004b903          	ld	s2,0(s1)
   12a66:	9f3e                	c.add	t5,a5
   12a68:	6004                	c.ld	s1,0(s0)
   12a6a:	9fbe                	c.add	t6,a5
   12a6c:	0e8e                	c.slli	t4,0x3
   12a6e:	0e0e                	c.slli	t3,0x3
   12a70:	030e                	c.slli	t1,0x3
   12a72:	088e                	c.slli	a7,0x3
   12a74:	0003b403          	ld	s0,0(t2)
   12a78:	000fbf83          	ld	t6,0(t6)
   12a7c:	0002b383          	ld	t2,0(t0)
   12a80:	9ebe                	c.add	t4,a5
   12a82:	000f3283          	ld	t0,0(t5)
   12a86:	9e3e                	c.add	t3,a5
   12a88:	933e                	c.add	t1,a5
   12a8a:	98be                	c.add	a7,a5
   12a8c:	000ebf03          	ld	t5,0(t4)
   12a90:	01854533          	xor	a0,a0,s8
   12a94:	000e3e83          	ld	t4,0(t3)
   12a98:	01764633          	xor	a2,a2,s7
   12a9c:	00033e03          	ld	t3,0(t1)
   12aa0:	0166c6b3          	xor	a3,a3,s6
   12aa4:	0008b303          	ld	t1,0(a7)
   12aa8:	01574733          	xor	a4,a4,s5
   12aac:	01454533          	xor	a0,a0,s4
   12ab0:	01364633          	xor	a2,a2,s3
   12ab4:	0126c6b3          	xor	a3,a3,s2
   12ab8:	8f25                	c.xor	a4,s1
   12aba:	8d21                	c.xor	a0,s0
   12abc:	00764633          	xor	a2,a2,t2
   12ac0:	0056c6b3          	xor	a3,a3,t0
   12ac4:	01f74733          	xor	a4,a4,t6
   12ac8:	01e54533          	xor	a0,a0,t5
   12acc:	00674733          	xor	a4,a4,t1
   12ad0:	01d64633          	xor	a2,a2,t4
   12ad4:	01c6c6b3          	xor	a3,a3,t3
   12ad8:	00875e93          	srli	t4,a4,0x8
   12adc:	0106de13          	srli	t3,a3,0x10
   12ae0:	0186531b          	srliw	t1,a2,0x18
   12ae4:	00855f93          	srli	t6,a0,0x8
   12ae8:	01075f13          	srli	t5,a4,0x10
   12aec:	0fffff93          	andi	t6,t6,255
   12af0:	0fff7f13          	andi	t5,t5,255
   12af4:	00865c13          	srli	s8,a2,0x8
   12af8:	0086d413          	srli	s0,a3,0x8
   12afc:	0ffefe93          	andi	t4,t4,255
   12b00:	0ffe7e13          	andi	t3,t3,255
   12b04:	2301                	c.addiw	t1,0
   12b06:	0ff57993          	andi	s3,a0,255
   12b0a:	200e0e13          	addi	t3,t3,512
   12b0e:	30030313          	addi	t1,t1,768
   12b12:	0ff67b13          	andi	s6,a2,255
   12b16:	100f8913          	addi	s2,t6,256
   12b1a:	200f0293          	addi	t0,t5,512
   12b1e:	0ff6fa93          	andi	s5,a3,255
   12b22:	01055f93          	srli	t6,a0,0x10
   12b26:	0ff77c93          	andi	s9,a4,255
   12b2a:	100e8e93          	addi	t4,t4,256
   12b2e:	0ffc7c13          	andi	s8,s8,255
   12b32:	0ff47413          	andi	s0,s0,255
   12b36:	8241                	c.srli	a2,0x10
   12b38:	003e1393          	slli	t2,t3,0x3
   12b3c:	00331a13          	slli	s4,t1,0x3
   12b40:	0186de1b          	srliw	t3,a3,0x18
   12b44:	0187531b          	srliw	t1,a4,0x18
   12b48:	0ff67613          	andi	a2,a2,255
   12b4c:	0185589b          	srliw	a7,a0,0x18
   12b50:	098e                	c.slli	s3,0x3
   12b52:	0e8e                	c.slli	t4,0x3
   12b54:	0b0e                	c.slli	s6,0x3
   12b56:	090e                	c.slli	s2,0x3
   12b58:	028e                	c.slli	t0,0x3
   12b5a:	0a8e                	c.slli	s5,0x3
   12b5c:	100c0c13          	addi	s8,s8,256
   12b60:	0fffff93          	andi	t6,t6,255
   12b64:	0c8e                	c.slli	s9,0x3
   12b66:	10040413          	addi	s0,s0,256
   12b6a:	99be                	c.add	s3,a5
   12b6c:	9ebe                	c.add	t4,a5
   12b6e:	9a3e                	c.add	s4,a5
   12b70:	9cbe                	c.add	s9,a5
   12b72:	20060493          	addi	s1,a2,512
   12b76:	93be                	c.add	t2,a5
   12b78:	9b3e                	c.add	s6,a5
   12b7a:	993e                	c.add	s2,a5
   12b7c:	92be                	c.add	t0,a5
   12b7e:	9abe                	c.add	s5,a5
   12b80:	2e01                	c.addiw	t3,0
   12b82:	0c0e                	c.slli	s8,0x3
   12b84:	200f8f93          	addi	t6,t6,512
   12b88:	2301                	c.addiw	t1,0
   12b8a:	040e                	c.slli	s0,0x3
   12b8c:	2881                	c.addiw	a7,0
   12b8e:	0009bb83          	ld	s7,0(s3)
   12b92:	0c083503          	ld	a0,192(a6)
   12b96:	000eb983          	ld	s3,0(t4)
   12b9a:	0003b383          	ld	t2,0(t2)
   12b9e:	000a3e83          	ld	t4,0(s4)
   12ba2:	0c883603          	ld	a2,200(a6)
   12ba6:	000b3b03          	ld	s6,0(s6)
   12baa:	00093903          	ld	s2,0(s2)
   12bae:	9c3e                	c.add	s8,a5
   12bb0:	0002b283          	ld	t0,0(t0)
   12bb4:	943e                	c.add	s0,a5
   12bb6:	000cba03          	ld	s4,0(s9)
   12bba:	0d083683          	ld	a3,208(a6)
   12bbe:	000aba83          	ld	s5,0(s5)
   12bc2:	0d883703          	ld	a4,216(a6)
   12bc6:	00349f13          	slli	t5,s1,0x3
   12bca:	300e0e13          	addi	t3,t3,768
   12bce:	0f8e                	c.slli	t6,0x3
   12bd0:	30030313          	addi	t1,t1,768
   12bd4:	30088893          	addi	a7,a7,768
   12bd8:	000c3483          	ld	s1,0(s8)
   12bdc:	6000                	c.ld	s0,0(s0)
   12bde:	9fbe                	c.add	t6,a5
   12be0:	9f3e                	c.add	t5,a5
   12be2:	0e0e                	c.slli	t3,0x3
   12be4:	030e                	c.slli	t1,0x3
   12be6:	088e                	c.slli	a7,0x3
   12be8:	000fbf83          	ld	t6,0(t6)
   12bec:	000f3f03          	ld	t5,0(t5)
   12bf0:	9e3e                	c.add	t3,a5
   12bf2:	933e                	c.add	t1,a5
   12bf4:	98be                	c.add	a7,a5
   12bf6:	000e3e03          	ld	t3,0(t3)
   12bfa:	00033303          	ld	t1,0(t1)
   12bfe:	0008b883          	ld	a7,0(a7)
   12c02:	01754533          	xor	a0,a0,s7
   12c06:	01664633          	xor	a2,a2,s6
   12c0a:	0156c6b3          	xor	a3,a3,s5
   12c0e:	01474733          	xor	a4,a4,s4
   12c12:	01354533          	xor	a0,a0,s3
   12c16:	01264633          	xor	a2,a2,s2
   12c1a:	8ea5                	c.xor	a3,s1
   12c1c:	8f21                	c.xor	a4,s0
   12c1e:	00754533          	xor	a0,a0,t2
   12c22:	00564633          	xor	a2,a2,t0
   12c26:	01f6c6b3          	xor	a3,a3,t6
   12c2a:	01e74733          	xor	a4,a4,t5
   12c2e:	01c64633          	xor	a2,a2,t3
   12c32:	0066c6b3          	xor	a3,a3,t1
   12c36:	01174733          	xor	a4,a4,a7
   12c3a:	01d54533          	xor	a0,a0,t4
   12c3e:	00875313          	srli	t1,a4,0x8
   12c42:	00855893          	srli	a7,a0,0x8
   12c46:	00865493          	srli	s1,a2,0x8
   12c4a:	0086d413          	srli	s0,a3,0x8
   12c4e:	0ff57b93          	andi	s7,a0,255
   12c52:	0106d393          	srli	t2,a3,0x10
   12c56:	0ff67b13          	andi	s6,a2,255
   12c5a:	0ff8f893          	andi	a7,a7,255
   12c5e:	01075293          	srli	t0,a4,0x10
   12c62:	0ff6fa93          	andi	s5,a3,255
   12c66:	01055e93          	srli	t4,a0,0x10
   12c6a:	0ff77a13          	andi	s4,a4,255
   12c6e:	01065f13          	srli	t5,a2,0x10
   12c72:	0ff37313          	andi	t1,t1,255
   12c76:	0ff4f493          	andi	s1,s1,255
   12c7a:	0ff47413          	andi	s0,s0,255
   12c7e:	10030313          	addi	t1,t1,256
   12c82:	0186561b          	srliw	a2,a2,0x18
   12c86:	10088913          	addi	s2,a7,256
   12c8a:	0186d69b          	srliw	a3,a3,0x18
   12c8e:	0187571b          	srliw	a4,a4,0x18
   12c92:	0185551b          	srliw	a0,a0,0x18
   12c96:	0b8e                	c.slli	s7,0x3
   12c98:	0ff3f393          	andi	t2,t2,255
   12c9c:	0b0e                	c.slli	s6,0x3
   12c9e:	0ff2f293          	andi	t0,t0,255
   12ca2:	0a8e                	c.slli	s5,0x3
   12ca4:	10048493          	addi	s1,s1,256
   12ca8:	0ffefe93          	andi	t4,t4,255
   12cac:	0a0e                	c.slli	s4,0x3
   12cae:	10040413          	addi	s0,s0,256
   12cb2:	0fff7f13          	andi	t5,t5,255
   12cb6:	9bbe                	c.add	s7,a5
   12cb8:	00331993          	slli	s3,t1,0x3
   12cbc:	00060e1b          	addiw	t3,a2,0
   12cc0:	9b3e                	c.add	s6,a5
   12cc2:	0006831b          	addiw	t1,a3,0
   12cc6:	9abe                	c.add	s5,a5
   12cc8:	00070f9b          	addiw	t6,a4,0
   12ccc:	9a3e                	c.add	s4,a5
   12cce:	0005089b          	addiw	a7,a0,0
   12cd2:	20038393          	addi	t2,t2,512
   12cd6:	090e                	c.slli	s2,0x3
   12cd8:	20028293          	addi	t0,t0,512
   12cdc:	048e                	c.slli	s1,0x3
   12cde:	200e8e93          	addi	t4,t4,512
   12ce2:	040e                	c.slli	s0,0x3
   12ce4:	200f0f13          	addi	t5,t5,512
   12ce8:	0e083503          	ld	a0,224(a6)
   12cec:	000bbb83          	ld	s7,0(s7)
   12cf0:	0e883603          	ld	a2,232(a6)
   12cf4:	000b3b03          	ld	s6,0(s6)
   12cf8:	0f083683          	ld	a3,240(a6)
   12cfc:	000aba83          	ld	s5,0(s5)
   12d00:	0f883703          	ld	a4,248(a6)
   12d04:	000a3a03          	ld	s4,0(s4)
   12d08:	99be                	c.add	s3,a5
   12d0a:	993e                	c.add	s2,a5
   12d0c:	94be                	c.add	s1,a5
   12d0e:	300f8f93          	addi	t6,t6,768
   12d12:	943e                	c.add	s0,a5
   12d14:	038e                	c.slli	t2,0x3
   12d16:	300e0e13          	addi	t3,t3,768
   12d1a:	028e                	c.slli	t0,0x3
   12d1c:	30030313          	addi	t1,t1,768
   12d20:	0e8e                	c.slli	t4,0x3
   12d22:	0f0e                	c.slli	t5,0x3
   12d24:	30088893          	addi	a7,a7,768
   12d28:	0009b983          	ld	s3,0(s3)
   12d2c:	00093903          	ld	s2,0(s2)
   12d30:	6084                	c.ld	s1,0(s1)
   12d32:	6000                	c.ld	s0,0(s0)
   12d34:	9ebe                	c.add	t4,a5
   12d36:	003f9c13          	slli	s8,t6,0x3
   12d3a:	93be                	c.add	t2,a5
   12d3c:	0e0e                	c.slli	t3,0x3
   12d3e:	92be                	c.add	t0,a5
   12d40:	030e                	c.slli	t1,0x3
   12d42:	9f3e                	c.add	t5,a5
   12d44:	088e                	c.slli	a7,0x3
   12d46:	000ebf83          	ld	t6,0(t4)
   12d4a:	0003b383          	ld	t2,0(t2)
   12d4e:	0002b283          	ld	t0,0(t0)
   12d52:	000f3f03          	ld	t5,0(t5)
   12d56:	01c78eb3          	add	t4,a5,t3
   12d5a:	98be                	c.add	a7,a5
   12d5c:	00678e33          	add	t3,a5,t1
   12d60:	01878333          	add	t1,a5,s8
   12d64:	000ebe83          	ld	t4,0(t4)
   12d68:	000e3e03          	ld	t3,0(t3)
   12d6c:	00033303          	ld	t1,0(t1)
   12d70:	0008b883          	ld	a7,0(a7)
   12d74:	01754533          	xor	a0,a0,s7
   12d78:	01664633          	xor	a2,a2,s6
   12d7c:	0156c6b3          	xor	a3,a3,s5
   12d80:	01474733          	xor	a4,a4,s4
   12d84:	01354533          	xor	a0,a0,s3
   12d88:	01264633          	xor	a2,a2,s2
   12d8c:	8ea5                	c.xor	a3,s1
   12d8e:	8f21                	c.xor	a4,s0
   12d90:	00754533          	xor	a0,a0,t2
   12d94:	00564633          	xor	a2,a2,t0
   12d98:	01f6c6b3          	xor	a3,a3,t6
   12d9c:	01e74733          	xor	a4,a4,t5
   12da0:	01d54533          	xor	a0,a0,t4
   12da4:	0066c6b3          	xor	a3,a3,t1
   12da8:	01174733          	xor	a4,a4,a7
   12dac:	01c64633          	xor	a2,a2,t3
   12db0:	00875313          	srli	t1,a4,0x8
   12db4:	00855893          	srli	a7,a0,0x8
   12db8:	00865413          	srli	s0,a2,0x8
   12dbc:	0086d393          	srli	t2,a3,0x8
   12dc0:	0ff6ff13          	andi	t5,a3,255
   12dc4:	0ff77a93          	andi	s5,a4,255
   12dc8:	0ff57a13          	andi	s4,a0,255
   12dcc:	0ff37313          	andi	t1,t1,255
   12dd0:	0106d293          	srli	t0,a3,0x10
   12dd4:	0ff67e13          	andi	t3,a2,255
   12dd8:	0ff8f893          	andi	a7,a7,255
   12ddc:	01075c93          	srli	s9,a4,0x10
   12de0:	01055993          	srli	s3,a0,0x10
   12de4:	01065e93          	srli	t4,a2,0x10
   12de8:	0ff47413          	andi	s0,s0,255
   12dec:	0ff3f393          	andi	t2,t2,255
   12df0:	10030913          	addi	s2,t1,256
   12df4:	0186561b          	srliw	a2,a2,0x18
   12df8:	10088493          	addi	s1,a7,256
   12dfc:	0186d69b          	srliw	a3,a3,0x18
   12e00:	003f1313          	slli	t1,t5,0x3
   12e04:	0187571b          	srliw	a4,a4,0x18
   12e08:	003a9893          	slli	a7,s5,0x3
   12e0c:	01855c1b          	srliw	s8,a0,0x18
   12e10:	0a0e                	c.slli	s4,0x3
   12e12:	0ff2f293          	andi	t0,t0,255
   12e16:	0e0e                	c.slli	t3,0x3
   12e18:	0ffcfc93          	andi	s9,s9,255
   12e1c:	10040413          	addi	s0,s0,256
   12e20:	0ff9f993          	andi	s3,s3,255
   12e24:	10038393          	addi	t2,t2,256
   12e28:	0ffefe93          	andi	t4,t4,255
   12e2c:	9a3e                	c.add	s4,a5
   12e2e:	00060f9b          	addiw	t6,a2,0
   12e32:	9e3e                	c.add	t3,a5
   12e34:	00068f1b          	addiw	t5,a3,0
   12e38:	933e                	c.add	t1,a5
   12e3a:	98be                	c.add	a7,a5
   12e3c:	20098993          	addi	s3,s3,512
   12e40:	0007051b          	addiw	a0,a4,0
   12e44:	090e                	c.slli	s2,0x3
   12e46:	20028293          	addi	t0,t0,512
   12e4a:	048e                	c.slli	s1,0x3
   12e4c:	200c8c93          	addi	s9,s9,512
   12e50:	040e                	c.slli	s0,0x3
   12e52:	038e                	c.slli	t2,0x3
   12e54:	200e8e93          	addi	t4,t4,512
   12e58:	2c01                	c.addiw	s8,0
   12e5a:	10083603          	ld	a2,256(a6)
   12e5e:	993e                	c.add	s2,a5
   12e60:	000a3b83          	ld	s7,0(s4)
   12e64:	000e3b03          	ld	s6,0(t3)
   12e68:	00033a83          	ld	s5,0(t1)
   12e6c:	11883e03          	ld	t3,280(a6)
   12e70:	0008ba03          	ld	s4,0(a7)
   12e74:	10883683          	ld	a3,264(a6)
   12e78:	11083703          	ld	a4,272(a6)
   12e7c:	94be                	c.add	s1,a5
   12e7e:	943e                	c.add	s0,a5
   12e80:	93be                	c.add	t2,a5
   12e82:	300f8313          	addi	t1,t6,768
   12e86:	300f0893          	addi	a7,t5,768
   12e8a:	028e                	c.slli	t0,0x3
   12e8c:	00399f13          	slli	t5,s3,0x3
   12e90:	003c9f93          	slli	t6,s9,0x3
   12e94:	30050513          	addi	a0,a0,768
   12e98:	0e8e                	c.slli	t4,0x3
   12e9a:	300c0c13          	addi	s8,s8,768
   12e9e:	00093983          	ld	s3,0(s2)
   12ea2:	92be                	c.add	t0,a5
   12ea4:	0004b903          	ld	s2,0(s1)
   12ea8:	9fbe                	c.add	t6,a5
   12eaa:	6004                	c.ld	s1,0(s0)
   12eac:	9f3e                	c.add	t5,a5
   12eae:	0003b403          	ld	s0,0(t2)
   12eb2:	9ebe                	c.add	t4,a5
   12eb4:	0c0e                	c.slli	s8,0x3
   12eb6:	030e                	c.slli	t1,0x3
   12eb8:	088e                	c.slli	a7,0x3
   12eba:	050e                	c.slli	a0,0x3
   12ebc:	0002b383          	ld	t2,0(t0)
   12ec0:	98be                	c.add	a7,a5
   12ec2:	000fb283          	ld	t0,0(t6)
   12ec6:	953e                	c.add	a0,a5
   12ec8:	000f3f83          	ld	t6,0(t5)
   12ecc:	933e                	c.add	t1,a5
   12ece:	000ebf03          	ld	t5,0(t4)
   12ed2:	97e2                	c.add	a5,s8
   12ed4:	0008be83          	ld	t4,0(a7)
   12ed8:	00033303          	ld	t1,0(t1)
   12edc:	00053883          	ld	a7,0(a0)
   12ee0:	01764633          	xor	a2,a2,s7
   12ee4:	6388                	c.ld	a0,0(a5)
   12ee6:	0166c6b3          	xor	a3,a3,s6
   12eea:	014e47b3          	xor	a5,t3,s4
   12eee:	01574733          	xor	a4,a4,s5
   12ef2:	01364633          	xor	a2,a2,s3
   12ef6:	0126c6b3          	xor	a3,a3,s2
   12efa:	8f25                	c.xor	a4,s1
   12efc:	8fa1                	c.xor	a5,s0
   12efe:	00764633          	xor	a2,a2,t2
   12f02:	0056c6b3          	xor	a3,a3,t0
   12f06:	01f74733          	xor	a4,a4,t6
   12f0a:	01e7c7b3          	xor	a5,a5,t5
   12f0e:	00664333          	xor	t1,a2,t1
   12f12:	01d6c6b3          	xor	a3,a3,t4
   12f16:	01174733          	xor	a4,a4,a7
   12f1a:	8fa9                	c.xor	a5,a0
   12f1c:	0087df93          	srli	t6,a5,0x8
   12f20:	01075e13          	srli	t3,a4,0x10
   12f24:	0186da1b          	srliw	s4,a3,0x18
   12f28:	00835413          	srli	s0,t1,0x8
   12f2c:	0107df13          	srli	t5,a5,0x10
   12f30:	01875e9b          	srliw	t4,a4,0x18
   12f34:	0086d393          	srli	t2,a3,0x8
   12f38:	00875b93          	srli	s7,a4,0x8
   12f3c:	0fffff93          	andi	t6,t6,255
   12f40:	0ffe7e13          	andi	t3,t3,255
   12f44:	2a01                	c.addiw	s4,0
   12f46:	0ff47413          	andi	s0,s0,255
   12f4a:	0fff7f13          	andi	t5,t5,255
   12f4e:	2e81                	c.addiw	t4,0
   12f50:	0ff3f393          	andi	t2,t2,255
   12f54:	0ff37493          	andi	s1,t1,255
   12f58:	0ff6f993          	andi	s3,a3,255
   12f5c:	0ff77713          	andi	a4,a4,255
   12f60:	01035293          	srli	t0,t1,0x10
   12f64:	0ff7f913          	andi	s2,a5,255
   12f68:	82c1                	c.srli	a3,0x10
   12f6a:	00020637          	lui	a2,0x20
   12f6e:	100f8f93          	addi	t6,t6,256
   12f72:	200e0e13          	addi	t3,t3,512
   12f76:	300a0a13          	addi	s4,s4,768
   12f7a:	10040413          	addi	s0,s0,256
   12f7e:	200f0f13          	addi	t5,t5,512
   12f82:	300e8e93          	addi	t4,t4,768
   12f86:	10038393          	addi	t2,t2,256
   12f8a:	0ffbfb93          	andi	s7,s7,255
   12f8e:	2d860b13          	addi	s6,a2,728 # 202d8 <il_tab>
   12f92:	0a0e                	c.slli	s4,0x3
   12f94:	0e8e                	c.slli	t4,0x3
   12f96:	00371513          	slli	a0,a4,0x3
   12f9a:	0187d79b          	srliw	a5,a5,0x18
   12f9e:	0ff6f893          	andi	a7,a3,255
   12fa2:	0183561b          	srliw	a2,t1,0x18
   12fa6:	048e                	c.slli	s1,0x3
   12fa8:	0f8e                	c.slli	t6,0x3
   12faa:	0e0e                	c.slli	t3,0x3
   12fac:	098e                	c.slli	s3,0x3
   12fae:	040e                	c.slli	s0,0x3
   12fb0:	0f0e                	c.slli	t5,0x3
   12fb2:	038e                	c.slli	t2,0x3
   12fb4:	0ff2f293          	andi	t0,t0,255
   12fb8:	090e                	c.slli	s2,0x3
   12fba:	100b8b93          	addi	s7,s7,256
   12fbe:	016a06b3          	add	a3,s4,s6
   12fc2:	94da                	c.add	s1,s6
   12fc4:	9fda                	c.add	t6,s6
   12fc6:	9e5a                	c.add	t3,s6
   12fc8:	99da                	c.add	s3,s6
   12fca:	016e8333          	add	t1,t4,s6
   12fce:	955a                	c.add	a0,s6
   12fd0:	00078e9b          	addiw	t4,a5,0
   12fd4:	945a                	c.add	s0,s6
   12fd6:	9f5a                	c.add	t5,s6
   12fd8:	93da                	c.add	t2,s6
   12fda:	20028293          	addi	t0,t0,512
   12fde:	995a                	c.add	s2,s6
   12fe0:	0b8e                	c.slli	s7,0x3
   12fe2:	20088893          	addi	a7,a7,512
   12fe6:	2601                	c.addiw	a2,0
   12fe8:	12083703          	ld	a4,288(a6)
   12fec:	0004ba83          	ld	s5,0(s1)
   12ff0:	0009ba03          	ld	s4,0(s3)
   12ff4:	000fb483          	ld	s1,0(t6)
   12ff8:	00033303          	ld	t1,0(t1)
   12ffc:	000e3f83          	ld	t6,0(t3)
   13000:	13083783          	ld	a5,304(a6)
   13004:	0006be03          	ld	t3,0(a3)
   13008:	00053983          	ld	s3,0(a0)
   1300c:	12883683          	ld	a3,296(a6)
   13010:	6000                	c.ld	s0,0(s0)
   13012:	000f3f03          	ld	t5,0(t5)
   13016:	028e                	c.slli	t0,0x3
   13018:	0003b383          	ld	t2,0(t2)
   1301c:	300e8e93          	addi	t4,t4,768
   13020:	13883503          	ld	a0,312(a6)
   13024:	00093903          	ld	s2,0(s2)
   13028:	9bda                	c.add	s7,s6
   1302a:	088e                	c.slli	a7,0x3
   1302c:	30060613          	addi	a2,a2,768
   13030:	01628c33          	add	s8,t0,s6
   13034:	003e9813          	slli	a6,t4,0x3
   13038:	000bb283          	ld	t0,0(s7)
   1303c:	98da                	c.add	a7,s6
   1303e:	060e                	c.slli	a2,0x3
   13040:	000c3e83          	ld	t4,0(s8)
   13044:	985a                	c.add	a6,s6
   13046:	0008b883          	ld	a7,0(a7)
   1304a:	965a                	c.add	a2,s6
   1304c:	01254533          	xor	a0,a0,s2
   13050:	01574733          	xor	a4,a4,s5
   13054:	0146c6b3          	xor	a3,a3,s4
   13058:	0137c7b3          	xor	a5,a5,s3
   1305c:	00083803          	ld	a6,0(a6)
   13060:	00063903          	ld	s2,0(a2)
   13064:	8f25                	c.xor	a4,s1
   13066:	8ea1                	c.xor	a3,s0
   13068:	0077c7b3          	xor	a5,a5,t2
   1306c:	00554533          	xor	a0,a0,t0
   13070:	01f74733          	xor	a4,a4,t6
   13074:	01e6c6b3          	xor	a3,a3,t5
   13078:	01d7c7b3          	xor	a5,a5,t4
   1307c:	01154533          	xor	a0,a0,a7
   13080:	0066c6b3          	xor	a3,a3,t1
   13084:	01c74733          	xor	a4,a4,t3
   13088:	0107c333          	xor	t1,a5,a6
   1308c:	01254533          	xor	a0,a0,s2
   13090:	eaffe06f          	jal	zero,11f3e <decrypt+0x84>
   13094:	0xa1e1977          	0xa1e1977
   13098:	000247b7          	lui	a5,0x24
   1309c:	2d878793          	addi	a5,a5,728 # 242d8 <it_tab>
   130a0:	9b6ff06f          	jal	zero,12256 <decrypt+0x39c>
   130a4:	0xa8ea977          	0xa8ea977
   130a8:	00855413          	srli	s0,a0,0x8
   130ac:	00875393          	srli	t2,a4,0x8
   130b0:	0086d293          	srli	t0,a3,0x8
   130b4:	00835f93          	srli	t6,t1,0x8
   130b8:	0ff77f13          	andi	t5,a4,255
   130bc:	01035d93          	srli	s11,t1,0x10
   130c0:	0ff6fe93          	andi	t4,a3,255
   130c4:	01055d13          	srli	s10,a0,0x10
   130c8:	0ff37e13          	andi	t3,t1,255
   130cc:	01075c93          	srli	s9,a4,0x10
   130d0:	0ff57893          	andi	a7,a0,255
   130d4:	0106dc13          	srli	s8,a3,0x10
   130d8:	0ff47413          	andi	s0,s0,255
   130dc:	0ff3f393          	andi	t2,t2,255
   130e0:	0ff2f293          	andi	t0,t0,255
   130e4:	0fffff93          	andi	t6,t6,255
   130e8:	000247b7          	lui	a5,0x24
   130ec:	2d878793          	addi	a5,a5,728 # 242d8 <it_tab>
   130f0:	0186d69b          	srliw	a3,a3,0x18
   130f4:	0185551b          	srliw	a0,a0,0x18
   130f8:	0187571b          	srliw	a4,a4,0x18
   130fc:	0183531b          	srliw	t1,t1,0x18
   13100:	0f0e                	c.slli	t5,0x3
   13102:	10040413          	addi	s0,s0,256
   13106:	0ffdfd93          	andi	s11,s11,255
   1310a:	0e8e                	c.slli	t4,0x3
   1310c:	10038393          	addi	t2,t2,256
   13110:	0ffd7d13          	andi	s10,s10,255
   13114:	0e0e                	c.slli	t3,0x3
   13116:	10028293          	addi	t0,t0,256
   1311a:	0ffcfc93          	andi	s9,s9,255
   1311e:	088e                	c.slli	a7,0x3
   13120:	100f8f93          	addi	t6,t6,256
   13124:	0ffc7c13          	andi	s8,s8,255
   13128:	0006899b          	addiw	s3,a3,0
   1312c:	0005091b          	addiw	s2,a0,0
   13130:	0007049b          	addiw	s1,a4,0
   13134:	9f3e                	c.add	t5,a5
   13136:	9ebe                	c.add	t4,a5
   13138:	9e3e                	c.add	t3,a5
   1313a:	98be                	c.add	a7,a5
   1313c:	040e                	c.slli	s0,0x3
   1313e:	200d8d93          	addi	s11,s11,512
   13142:	038e                	c.slli	t2,0x3
   13144:	200d0d13          	addi	s10,s10,512
   13148:	2301                	c.addiw	t1,0
   1314a:	028e                	c.slli	t0,0x3
   1314c:	200c8c93          	addi	s9,s9,512
   13150:	0f8e                	c.slli	t6,0x3
   13152:	200c0c13          	addi	s8,s8,512
   13156:	000f3b83          	ld	s7,0(t5)
   1315a:	000ebb03          	ld	s6,0(t4)
   1315e:	000e3a83          	ld	s5,0(t3)
   13162:	0008ba03          	ld	s4,0(a7)
   13166:	23063803          	ld	a6,560(a2)
   1316a:	23863503          	ld	a0,568(a2)
   1316e:	24063703          	ld	a4,576(a2)
   13172:	24863683          	ld	a3,584(a2)
   13176:	943e                	c.add	s0,a5
   13178:	30098e93          	addi	t4,s3,768
   1317c:	93be                	c.add	t2,a5
   1317e:	92be                	c.add	t0,a5
   13180:	30090e13          	addi	t3,s2,768
   13184:	9fbe                	c.add	t6,a5
   13186:	30048893          	addi	a7,s1,768
   1318a:	0d8e                	c.slli	s11,0x3
   1318c:	0d0e                	c.slli	s10,0x3
   1318e:	30030313          	addi	t1,t1,768
   13192:	0c8e                	c.slli	s9,0x3
   13194:	0c0e                	c.slli	s8,0x3
   13196:	00043983          	ld	s3,0(s0)
   1319a:	0003b903          	ld	s2,0(t2)
   1319e:	0002b483          	ld	s1,0(t0)
   131a2:	000fb403          	ld	s0,0(t6)
   131a6:	0e0e                	c.slli	t3,0x3
   131a8:	9c3e                	c.add	s8,a5
   131aa:	9dbe                	c.add	s11,a5
   131ac:	0e8e                	c.slli	t4,0x3
   131ae:	9d3e                	c.add	s10,a5
   131b0:	030e                	c.slli	t1,0x3
   131b2:	9cbe                	c.add	s9,a5
   131b4:	088e                	c.slli	a7,0x3
   131b6:	000c3f03          	ld	t5,0(s8)
   131ba:	000db383          	ld	t2,0(s11)
   131be:	000d3283          	ld	t0,0(s10)
   131c2:	000cbf83          	ld	t6,0(s9)
   131c6:	01c78c33          	add	s8,a5,t3
   131ca:	933e                	c.add	t1,a5
   131cc:	9ebe                	c.add	t4,a5
   131ce:	98be                	c.add	a7,a5
   131d0:	00033e03          	ld	t3,0(t1)
   131d4:	000ebe83          	ld	t4,0(t4)
   131d8:	000c3303          	ld	t1,0(s8)
   131dc:	0008b883          	ld	a7,0(a7)
   131e0:	01784833          	xor	a6,a6,s7
   131e4:	01654533          	xor	a0,a0,s6
   131e8:	01574733          	xor	a4,a4,s5
   131ec:	0146c6b3          	xor	a3,a3,s4
   131f0:	01384833          	xor	a6,a6,s3
   131f4:	01254533          	xor	a0,a0,s2
   131f8:	8f25                	c.xor	a4,s1
   131fa:	8ea1                	c.xor	a3,s0
   131fc:	00784833          	xor	a6,a6,t2
   13200:	00554533          	xor	a0,a0,t0
   13204:	01f74733          	xor	a4,a4,t6
   13208:	01e6c6b3          	xor	a3,a3,t5
   1320c:	01d84833          	xor	a6,a6,t4
   13210:	01c54533          	xor	a0,a0,t3
   13214:	0116c6b3          	xor	a3,a3,a7
   13218:	00674733          	xor	a4,a4,t1
   1321c:	0086da13          	srli	s4,a3,0x8
   13220:	01075493          	srli	s1,a4,0x10
   13224:	0185539b          	srliw	t2,a0,0x18
   13228:	00885413          	srli	s0,a6,0x8
   1322c:	0106d293          	srli	t0,a3,0x10
   13230:	0187531b          	srliw	t1,a4,0x18
   13234:	00855913          	srli	s2,a0,0x8
   13238:	00875f93          	srli	t6,a4,0x8
   1323c:	0ffa7a13          	andi	s4,s4,255
   13240:	0ff4f493          	andi	s1,s1,255
   13244:	2381                	c.addiw	t2,0
   13246:	0ff47413          	andi	s0,s0,255
   1324a:	0ff2f293          	andi	t0,t0,255
   1324e:	2301                	c.addiw	t1,0
   13250:	0ff97913          	andi	s2,s2,255
   13254:	0ff87b13          	andi	s6,a6,255
   13258:	0ff57993          	andi	s3,a0,255
   1325c:	01085f13          	srli	t5,a6,0x10
   13260:	0ff6fa93          	andi	s5,a3,255
   13264:	100a0a13          	addi	s4,s4,256
   13268:	20048493          	addi	s1,s1,512
   1326c:	30038393          	addi	t2,t2,768
   13270:	10040413          	addi	s0,s0,256
   13274:	20028293          	addi	t0,t0,512
   13278:	30030313          	addi	t1,t1,768
   1327c:	0ff77713          	andi	a4,a4,255
   13280:	10090913          	addi	s2,s2,256
   13284:	0fffff93          	andi	t6,t6,255
   13288:	8141                	c.srli	a0,0x10
   1328a:	070e                	c.slli	a4,0x3
   1328c:	0186d69b          	srliw	a3,a3,0x18
   13290:	0ff57513          	andi	a0,a0,255
   13294:	0b0e                	c.slli	s6,0x3
   13296:	0a0e                	c.slli	s4,0x3
   13298:	048e                	c.slli	s1,0x3
   1329a:	038e                	c.slli	t2,0x3
   1329c:	098e                	c.slli	s3,0x3
   1329e:	040e                	c.slli	s0,0x3
   132a0:	028e                	c.slli	t0,0x3
   132a2:	030e                	c.slli	t1,0x3
   132a4:	090e                	c.slli	s2,0x3
   132a6:	0fff7f13          	andi	t5,t5,255
   132aa:	0a8e                	c.slli	s5,0x3
   132ac:	100f8f93          	addi	t6,t6,256
   132b0:	0188581b          	srliw	a6,a6,0x18
   132b4:	00e78eb3          	add	t4,a5,a4
   132b8:	9b3e                	c.add	s6,a5
   132ba:	99be                	c.add	s3,a5
   132bc:	943e                	c.add	s0,a5
   132be:	92be                	c.add	t0,a5
   132c0:	933e                	c.add	t1,a5
   132c2:	0006889b          	addiw	a7,a3,0
   132c6:	20050e13          	addi	t3,a0,512
   132ca:	9a3e                	c.add	s4,a5
   132cc:	94be                	c.add	s1,a5
   132ce:	93be                	c.add	t2,a5
   132d0:	993e                	c.add	s2,a5
   132d2:	200f0f13          	addi	t5,t5,512
   132d6:	9abe                	c.add	s5,a5
   132d8:	0f8e                	c.slli	t6,0x3
   132da:	2801                	c.addiw	a6,0
   132dc:	000b3c03          	ld	s8,0(s6)
   132e0:	0009bb83          	ld	s7,0(s3)
   132e4:	000ebb03          	ld	s6,0(t4)
   132e8:	00043983          	ld	s3,0(s0)
   132ec:	25063703          	ld	a4,592(a2)
   132f0:	0002b403          	ld	s0,0(t0)
   132f4:	000a3a03          	ld	s4,0(s4)
   132f8:	00033283          	ld	t0,0(t1)
   132fc:	6084                	c.ld	s1,0(s1)
   132fe:	0003b383          	ld	t2,0(t2)
   13302:	25863683          	ld	a3,600(a2)
   13306:	26063303          	ld	t1,608(a2)
   1330a:	0e0e                	c.slli	t3,0x3
   1330c:	00093903          	ld	s2,0(s2)
   13310:	30080813          	addi	a6,a6,768
   13314:	0f0e                	c.slli	t5,0x3
   13316:	30088893          	addi	a7,a7,768
   1331a:	26863503          	ld	a0,616(a2)
   1331e:	000aba83          	ld	s5,0(s5)
   13322:	9fbe                	c.add	t6,a5
   13324:	01c78eb3          	add	t4,a5,t3
   13328:	9f3e                	c.add	t5,a5
   1332a:	00381e13          	slli	t3,a6,0x3
   1332e:	088e                	c.slli	a7,0x3
   13330:	000fbf83          	ld	t6,0(t6)
   13334:	98be                	c.add	a7,a5
   13336:	9e3e                	c.add	t3,a5
   13338:	000f3f03          	ld	t5,0(t5)
   1333c:	000ebe83          	ld	t4,0(t4)
   13340:	0008b803          	ld	a6,0(a7)
   13344:	01874733          	xor	a4,a4,s8
   13348:	000e3883          	ld	a7,0(t3)
   1334c:	0176c6b3          	xor	a3,a3,s7
   13350:	01634333          	xor	t1,t1,s6
   13354:	01554533          	xor	a0,a0,s5
   13358:	01474733          	xor	a4,a4,s4
   1335c:	0136c6b3          	xor	a3,a3,s3
   13360:	01234333          	xor	t1,t1,s2
   13364:	01f54533          	xor	a0,a0,t6
   13368:	8f25                	c.xor	a4,s1
   1336a:	8ea1                	c.xor	a3,s0
   1336c:	01e34333          	xor	t1,t1,t5
   13370:	01d54533          	xor	a0,a0,t4
   13374:	01034333          	xor	t1,t1,a6
   13378:	27063e03          	ld	t3,624(a2)
   1337c:	00774733          	xor	a4,a4,t2
   13380:	0056c6b3          	xor	a3,a3,t0
   13384:	01154533          	xor	a0,a0,a7
   13388:	27060813          	addi	a6,a2,624
   1338c:	c03fe06f          	jal	zero,11f8e <decrypt+0xd4>

0000000000013390 <fillrand>:
   13390:	0x7c55977          	0x7c55977
   13394:	8301b783          	ld	a5,-2000(gp) # 2b4b0 <mt.3157>
   13398:	cf99                	c.beqz	a5,133b6 <fillrand+0x26>
   1339a:	0xeb60977          	0xeb60977
   1339e:	8201b823          	sd	zero,-2000(gp) # 2b4b0 <mt.3157>
   133a2:	673d                	c.lui	a4,0xf
   133a4:	8c018793          	addi	a5,gp,-1856 # 2b540 <a.3156>
   133a8:	af370713          	addi	a4,a4,-1293 # eaf3 <main-0x15bd>
   133ac:	e398                	c.sd	a4,0(a5)
   133ae:	670d                	c.lui	a4,0x3
   133b0:	5fe70713          	addi	a4,a4,1534 # 35fe <main-0xcab2>
   133b4:	e798                	c.sd	a4,8(a5)
   133b6:	0x93e8977          	0x93e8977
   133ba:	0cb05a63          	bge	zero,a1,1348e <fillrand+0xfe>
   133be:	0x7ef977          	0x7ef977
   133c2:	fff5861b          	addiw	a2,a1,-1
   133c6:	8c018293          	addi	t0,gp,-1856 # 2b540 <a.3156>
   133ca:	1602                	c.slli	a2,0x20
   133cc:	1101                	c.addi	sp,-32
   133ce:	00150593          	addi	a1,a0,1
   133d2:	9201                	c.srli	a2,0x20
   133d4:	0002b703          	ld	a4,0(t0)
   133d8:	0082b683          	ld	a3,8(t0)
   133dc:	8281b783          	ld	a5,-2008(gp) # 2b4a8 <count.3158>
   133e0:	ec22                	c.sdsp	s0,24(sp)
   133e2:	e826                	c.sdsp	s1,16(sp)
   133e4:	962e                	c.add	a2,a1
   133e6:	65c1                	c.lui	a1,0x10
   133e8:	6425                	c.lui	s0,0x9
   133ea:	6f91                	c.lui	t6,0x4
   133ec:	e44a                	c.sdsp	s2,8(sp)
   133ee:	4e91                	c.li	t4,4
   133f0:	4901                	c.li	s2,0
   133f2:	15fd                	c.addi	a1,-1
   133f4:	06940413          	addi	s0,s0,105 # 9069 <main-0x7047>
   133f8:	650f8f93          	addi	t6,t6,1616 # 4650 <main-0xba60>
   133fc:	85818f13          	addi	t5,gp,-1960 # 2b4d8 <_edata>
   13400:	0x93a8977          	0x93a8977
   13404:	00b778b3          	and	a7,a4,a1
   13408:	00b6f833          	and	a6,a3,a1
   1340c:	01075e13          	srli	t3,a4,0x10
   13410:	0106d313          	srli	t1,a3,0x10
   13414:	03d79663          	bne	a5,t4,13440 <fillrand+0xb0>
   13418:	0x5cf977          	0x5cf977
   1341c:	02888733          	mul	a4,a7,s0
   13420:	0505                	c.addi	a0,1
   13422:	4785                	c.li	a5,1
   13424:	4905                	c.li	s2,1
   13426:	03f806b3          	mul	a3,a6,t6
   1342a:	9772                	c.add	a4,t3
   1342c:	01071813          	slli	a6,a4,0x10
   13430:	969a                	c.add	a3,t1
   13432:	9836                	c.add	a6,a3
   13434:	8501bc23          	sd	a6,-1960(gp) # 2b4d8 <_edata>
   13438:	ff050fa3          	sb	a6,-1(a0)
   1343c:	02a60d63          	beq	a2,a0,13476 <fillrand+0xe6>
   13440:	0x5f9d977          	0x5f9d977
   13444:	01e78833          	add	a6,a5,t5
   13448:	00084803          	lbu	a6,0(a6)
   1344c:	0505                	c.addi	a0,1
   1344e:	0785                	c.addi	a5,1
   13450:	ff050fa3          	sb	a6,-1(a0)
   13454:	faa616e3          	bne	a2,a0,13400 <fillrand+0x70>
   13458:	0x5eff977          	0x5eff977
   1345c:	82f1b423          	sd	a5,-2008(gp) # 2b4a8 <count.3158>
   13460:	02091063          	bne	s2,zero,13480 <fillrand+0xf0>
   13464:	0xf5b977          	0xf5b977
   13468:	6462                	c.ldsp	s0,24(sp)
   1346a:	64c2                	c.ldsp	s1,16(sp)
   1346c:	6922                	c.ldsp	s2,8(sp)
   1346e:	6105                	c.addi16sp	sp,32
   13470:	0ff05073          	csrrwi	zero,0xff,0
   13474:	8082                	c.jr	ra
   13476:	0x86a1977          	0x86a1977
   1347a:	4785                	c.li	a5,1
   1347c:	82f1b423          	sd	a5,-2008(gp) # 2b4a8 <count.3158>
   13480:	0xfb52977          	0xfb52977
   13484:	00e2b023          	sd	a4,0(t0)
   13488:	00d2b423          	sd	a3,8(t0)
   1348c:	bfe1                	c.j	13464 <fillrand+0xd4>
   1348e:	0xbbe6977          	0xbbe6977
   13492:	0ff05073          	csrrwi	zero,0xff,0
   13496:	8082                	c.jr	ra

0000000000013498 <encfile>:
   13498:	0x53b3977          	0x53b3977
   1349c:	7171                	c.addi16sp	sp,-176
   1349e:	f4de                	c.sdsp	s7,104(sp)
   134a0:	8301b783          	ld	a5,-2000(gp) # 2b4b0 <mt.3157>
   134a4:	f122                	c.sdsp	s0,160(sp)
   134a6:	ed26                	c.sdsp	s1,152(sp)
   134a8:	fcd6                	c.sdsp	s5,120(sp)
   134aa:	f506                	c.sdsp	ra,168(sp)
   134ac:	e94a                	c.sdsp	s2,144(sp)
   134ae:	e54e                	c.sdsp	s3,136(sp)
   134b0:	e152                	c.sdsp	s4,128(sp)
   134b2:	f8da                	c.sdsp	s6,112(sp)
   134b4:	f0e2                	c.sdsp	s8,96(sp)
   134b6:	ece6                	c.sdsp	s9,88(sp)
   134b8:	e8ea                	c.sdsp	s10,80(sp)
   134ba:	e4ee                	c.sdsp	s11,72(sp)
   134bc:	e032                	c.sdsp	a2,0(sp)
   134be:	e436                	c.sdsp	a3,8(sp)
   134c0:	842a                	c.mv	s0,a0
   134c2:	84ae                	c.mv	s1,a1
   134c4:	8c018a93          	addi	s5,gp,-1856 # 2b540 <a.3156>
   134c8:	2e079563          	bne	a5,zero,137b2 <encfile+0x31a>
   134cc:	0x1750977          	0x1750977
   134d0:	8281b783          	ld	a5,-2008(gp) # 2b4a8 <count.3158>
   134d4:	4611                	c.li	a2,4
   134d6:	008ab703          	ld	a4,8(s5)
   134da:	000ab683          	ld	a3,0(s5)
   134de:	2ec78d63          	beq	a5,a2,137d8 <encfile+0x340>
   134e2:	0xdce9977          	0xdce9977
   134e6:	85818993          	addi	s3,gp,-1960 # 2b4d8 <_edata>
   134ea:	00f985b3          	add	a1,s3,a5
   134ee:	0005c583          	lbu	a1,0(a1) # 10000 <main-0xb0>
   134f2:	0785                	c.addi	a5,1
   134f4:	02b10823          	sb	a1,48(sp)
   134f8:	32c79363          	bne	a5,a2,1381e <encfile+0x386>
   134fc:	0x5fbe977          	0x5fbe977
   13500:	67c1                	c.lui	a5,0x10
   13502:	17fd                	c.addi	a5,-1
   13504:	00f6f533          	and	a0,a3,a5
   13508:	00f775b3          	and	a1,a4,a5
   1350c:	67a5                	c.lui	a5,0x9
   1350e:	06978793          	addi	a5,a5,105 # 9069 <main-0x7047>
   13512:	6811                	c.lui	a6,0x4
   13514:	02f50533          	mul	a0,a0,a5
   13518:	65080813          	addi	a6,a6,1616 # 4650 <main-0xba60>
   1351c:	82c1                	c.srli	a3,0x10
   1351e:	8341                	c.srli	a4,0x10
   13520:	4605                	c.li	a2,1
   13522:	4785                	c.li	a5,1
   13524:	030585b3          	mul	a1,a1,a6
   13528:	96aa                	c.add	a3,a0
   1352a:	01069513          	slli	a0,a3,0x10
   1352e:	972e                	c.add	a4,a1
   13530:	00e505b3          	add	a1,a0,a4
   13534:	84b1bc23          	sd	a1,-1960(gp) # 2b4d8 <_edata>
   13538:	02b108a3          	sb	a1,49(sp)
   1353c:	0x24b8977          	0x24b8977
   13540:	00f985b3          	add	a1,s3,a5
   13544:	0005c503          	lbu	a0,0(a1)
   13548:	0785                	c.addi	a5,1
   1354a:	4591                	c.li	a1,4
   1354c:	02a10923          	sb	a0,50(sp)
   13550:	32b79663          	bne	a5,a1,1387c <encfile+0x3e4>
   13554:	0x636c977          	0x636c977
   13558:	67c1                	c.lui	a5,0x10
   1355a:	17fd                	c.addi	a5,-1
   1355c:	00f6f533          	and	a0,a3,a5
   13560:	00f775b3          	and	a1,a4,a5
   13564:	67a5                	c.lui	a5,0x9
   13566:	06978793          	addi	a5,a5,105 # 9069 <main-0x7047>
   1356a:	6811                	c.lui	a6,0x4
   1356c:	02f50533          	mul	a0,a0,a5
   13570:	65080813          	addi	a6,a6,1616 # 4650 <main-0xba60>
   13574:	82c1                	c.srli	a3,0x10
   13576:	8341                	c.srli	a4,0x10
   13578:	4785                	c.li	a5,1
   1357a:	4605                	c.li	a2,1
   1357c:	030585b3          	mul	a1,a1,a6
   13580:	96aa                	c.add	a3,a0
   13582:	01069513          	slli	a0,a3,0x10
   13586:	972e                	c.add	a4,a1
   13588:	00e505b3          	add	a1,a0,a4
   1358c:	84b1bc23          	sd	a1,-1960(gp) # 2b4d8 <_edata>
   13590:	02b109a3          	sb	a1,51(sp)
   13594:	0x3891977          	0x3891977
   13598:	00f985b3          	add	a1,s3,a5
   1359c:	0005c503          	lbu	a0,0(a1)
   135a0:	0785                	c.addi	a5,1
   135a2:	4591                	c.li	a1,4
   135a4:	02a10a23          	sb	a0,52(sp)
   135a8:	32b79663          	bne	a5,a1,138d4 <encfile+0x43c>
   135ac:	0x5bec977          	0x5bec977
   135b0:	67c1                	c.lui	a5,0x10
   135b2:	17fd                	c.addi	a5,-1
   135b4:	00f6f533          	and	a0,a3,a5
   135b8:	00f775b3          	and	a1,a4,a5
   135bc:	67a5                	c.lui	a5,0x9
   135be:	06978793          	addi	a5,a5,105 # 9069 <main-0x7047>
   135c2:	6811                	c.lui	a6,0x4
   135c4:	02f50533          	mul	a0,a0,a5
   135c8:	65080813          	addi	a6,a6,1616 # 4650 <main-0xba60>
   135cc:	82c1                	c.srli	a3,0x10
   135ce:	8341                	c.srli	a4,0x10
   135d0:	4785                	c.li	a5,1
   135d2:	4605                	c.li	a2,1
   135d4:	030585b3          	mul	a1,a1,a6
   135d8:	96aa                	c.add	a3,a0
   135da:	01069513          	slli	a0,a3,0x10
   135de:	972e                	c.add	a4,a1
   135e0:	00e505b3          	add	a1,a0,a4
   135e4:	84b1bc23          	sd	a1,-1960(gp) # 2b4d8 <_edata>
   135e8:	02b10aa3          	sb	a1,53(sp)
   135ec:	0x4314977          	0x4314977
   135f0:	00f985b3          	add	a1,s3,a5
   135f4:	0005c503          	lbu	a0,0(a1)
   135f8:	0785                	c.addi	a5,1
   135fa:	4591                	c.li	a1,4
   135fc:	02a10b23          	sb	a0,54(sp)
   13600:	32b79663          	bne	a5,a1,1392c <encfile+0x494>
   13604:	0x91f5977          	0x91f5977
   13608:	67c1                	c.lui	a5,0x10
   1360a:	17fd                	c.addi	a5,-1
   1360c:	00f6f533          	and	a0,a3,a5
   13610:	00f775b3          	and	a1,a4,a5
   13614:	67a5                	c.lui	a5,0x9
   13616:	06978793          	addi	a5,a5,105 # 9069 <main-0x7047>
   1361a:	6811                	c.lui	a6,0x4
   1361c:	02f50533          	mul	a0,a0,a5
   13620:	65080813          	addi	a6,a6,1616 # 4650 <main-0xba60>
   13624:	82c1                	c.srli	a3,0x10
   13626:	8341                	c.srli	a4,0x10
   13628:	4785                	c.li	a5,1
   1362a:	4605                	c.li	a2,1
   1362c:	030585b3          	mul	a1,a1,a6
   13630:	96aa                	c.add	a3,a0
   13632:	01069513          	slli	a0,a3,0x10
   13636:	972e                	c.add	a4,a1
   13638:	00e505b3          	add	a1,a0,a4
   1363c:	84b1bc23          	sd	a1,-1960(gp) # 2b4d8 <_edata>
   13640:	02b10ba3          	sb	a1,55(sp)
   13644:	0x606c977          	0x606c977
   13648:	00f985b3          	add	a1,s3,a5
   1364c:	0005c503          	lbu	a0,0(a1)
   13650:	0785                	c.addi	a5,1
   13652:	4591                	c.li	a1,4
   13654:	02a10c23          	sb	a0,56(sp)
   13658:	32b79663          	bne	a5,a1,13984 <encfile+0x4ec>
   1365c:	0x82a2977          	0x82a2977
   13660:	67c1                	c.lui	a5,0x10
   13662:	17fd                	c.addi	a5,-1
   13664:	00f6f533          	and	a0,a3,a5
   13668:	00f775b3          	and	a1,a4,a5
   1366c:	67a5                	c.lui	a5,0x9
   1366e:	06978793          	addi	a5,a5,105 # 9069 <main-0x7047>
   13672:	6811                	c.lui	a6,0x4
   13674:	02f50533          	mul	a0,a0,a5
   13678:	65080813          	addi	a6,a6,1616 # 4650 <main-0xba60>
   1367c:	82c1                	c.srli	a3,0x10
   1367e:	8341                	c.srli	a4,0x10
   13680:	4785                	c.li	a5,1
   13682:	4605                	c.li	a2,1
   13684:	030585b3          	mul	a1,a1,a6
   13688:	96aa                	c.add	a3,a0
   1368a:	01069513          	slli	a0,a3,0x10
   1368e:	972e                	c.add	a4,a1
   13690:	00e505b3          	add	a1,a0,a4
   13694:	84b1bc23          	sd	a1,-1960(gp) # 2b4d8 <_edata>
   13698:	02b10ca3          	sb	a1,57(sp)
   1369c:	0x80a2977          	0x80a2977
   136a0:	00f985b3          	add	a1,s3,a5
   136a4:	0005c503          	lbu	a0,0(a1)
   136a8:	0785                	c.addi	a5,1
   136aa:	4591                	c.li	a1,4
   136ac:	02a10d23          	sb	a0,58(sp)
   136b0:	32b79663          	bne	a5,a1,139dc <encfile+0x544>
   136b4:	0x82a2977          	0x82a2977
   136b8:	67c1                	c.lui	a5,0x10
   136ba:	17fd                	c.addi	a5,-1
   136bc:	00f6f533          	and	a0,a3,a5
   136c0:	00f775b3          	and	a1,a4,a5
   136c4:	67a5                	c.lui	a5,0x9
   136c6:	06978793          	addi	a5,a5,105 # 9069 <main-0x7047>
   136ca:	6811                	c.lui	a6,0x4
   136cc:	02f50533          	mul	a0,a0,a5
   136d0:	65080813          	addi	a6,a6,1616 # 4650 <main-0xba60>
   136d4:	82c1                	c.srli	a3,0x10
   136d6:	8341                	c.srli	a4,0x10
   136d8:	4785                	c.li	a5,1
   136da:	4605                	c.li	a2,1
   136dc:	030585b3          	mul	a1,a1,a6
   136e0:	96aa                	c.add	a3,a0
   136e2:	01069513          	slli	a0,a3,0x10
   136e6:	972e                	c.add	a4,a1
   136e8:	00e505b3          	add	a1,a0,a4
   136ec:	84b1bc23          	sd	a1,-1960(gp) # 2b4d8 <_edata>
   136f0:	02b10da3          	sb	a1,59(sp)
   136f4:	0x84a2977          	0x84a2977
   136f8:	00f985b3          	add	a1,s3,a5
   136fc:	0005c503          	lbu	a0,0(a1)
   13700:	0785                	c.addi	a5,1
   13702:	4591                	c.li	a1,4
   13704:	02a10e23          	sb	a0,60(sp)
   13708:	32b79663          	bne	a5,a1,13a34 <encfile+0x59c>
   1370c:	0x82a2977          	0x82a2977
   13710:	67c1                	c.lui	a5,0x10
   13712:	17fd                	c.addi	a5,-1
   13714:	00f6f533          	and	a0,a3,a5
   13718:	00f775b3          	and	a1,a4,a5
   1371c:	67a5                	c.lui	a5,0x9
   1371e:	06978793          	addi	a5,a5,105 # 9069 <main-0x7047>
   13722:	6811                	c.lui	a6,0x4
   13724:	02f50533          	mul	a0,a0,a5
   13728:	65080813          	addi	a6,a6,1616 # 4650 <main-0xba60>
   1372c:	82c1                	c.srli	a3,0x10
   1372e:	8341                	c.srli	a4,0x10
   13730:	4785                	c.li	a5,1
   13732:	4605                	c.li	a2,1
   13734:	030585b3          	mul	a1,a1,a6
   13738:	96aa                	c.add	a3,a0
   1373a:	01069513          	slli	a0,a3,0x10
   1373e:	972e                	c.add	a4,a1
   13740:	00e505b3          	add	a1,a0,a4
   13744:	84b1bc23          	sd	a1,-1960(gp) # 2b4d8 <_edata>
   13748:	02b10ea3          	sb	a1,61(sp)
   1374c:	0x80a2977          	0x80a2977
   13750:	00f985b3          	add	a1,s3,a5
   13754:	0005c503          	lbu	a0,0(a1)
   13758:	0785                	c.addi	a5,1
   1375a:	4591                	c.li	a1,4
   1375c:	02a10f23          	sb	a0,62(sp)
   13760:	32b79663          	bne	a5,a1,13a8c <encfile+0x5f4>
   13764:	0x82a2977          	0x82a2977
   13768:	67c1                	c.lui	a5,0x10
   1376a:	17fd                	c.addi	a5,-1
   1376c:	65a5                	c.lui	a1,0x9
   1376e:	00f6f633          	and	a2,a3,a5
   13772:	06958593          	addi	a1,a1,105 # 9069 <main-0x7047>
   13776:	02b60633          	mul	a2,a2,a1
   1377a:	4585                	c.li	a1,1
   1377c:	82b1b423          	sd	a1,-2008(gp) # 2b4a8 <count.3158>
   13780:	6591                	c.lui	a1,0x4
   13782:	8ff9                	c.and	a5,a4
   13784:	65058593          	addi	a1,a1,1616 # 4650 <main-0xba60>
   13788:	82c1                	c.srli	a3,0x10
   1378a:	8341                	c.srli	a4,0x10
   1378c:	02b787b3          	mul	a5,a5,a1
   13790:	96b2                	c.add	a3,a2
   13792:	01069613          	slli	a2,a3,0x10
   13796:	973e                	c.add	a4,a5
   13798:	00e607b3          	add	a5,a2,a4
   1379c:	84f1bc23          	sd	a5,-1960(gp) # 2b4d8 <_edata>
   137a0:	02f10fa3          	sb	a5,63(sp)
   137a4:	0xf96d977          	0xf96d977
   137a8:	00dab023          	sd	a3,0(s5)
   137ac:	00eab423          	sd	a4,8(s5)
   137b0:	acdd                	c.j	13aa6 <encfile+0x60e>
   137b2:	0xfab6977          	0xfab6977
   137b6:	66bd                	c.lui	a3,0xf
   137b8:	670d                	c.lui	a4,0x3
   137ba:	8281b783          	ld	a5,-2008(gp) # 2b4a8 <count.3158>
   137be:	af368693          	addi	a3,a3,-1293 # eaf3 <main-0x15bd>
   137c2:	5fe70713          	addi	a4,a4,1534 # 35fe <main-0xcab2>
   137c6:	8201b823          	sd	zero,-2000(gp) # 2b4b0 <mt.3157>
   137ca:	00dab023          	sd	a3,0(s5)
   137ce:	00eab423          	sd	a4,8(s5)
   137d2:	4611                	c.li	a2,4
   137d4:	d0c797e3          	bne	a5,a2,134e2 <encfile+0x4a>
   137d8:	0xe392977          	0xe392977
   137dc:	67c1                	c.lui	a5,0x10
   137de:	17fd                	c.addi	a5,-1
   137e0:	00f6f533          	and	a0,a3,a5
   137e4:	00f775b3          	and	a1,a4,a5
   137e8:	67a5                	c.lui	a5,0x9
   137ea:	06978793          	addi	a5,a5,105 # 9069 <main-0x7047>
   137ee:	6811                	c.lui	a6,0x4
   137f0:	02f50533          	mul	a0,a0,a5
   137f4:	65080813          	addi	a6,a6,1616 # 4650 <main-0xba60>
   137f8:	82c1                	c.srli	a3,0x10
   137fa:	8341                	c.srli	a4,0x10
   137fc:	4605                	c.li	a2,1
   137fe:	4785                	c.li	a5,1
   13800:	85818993          	addi	s3,gp,-1960 # 2b4d8 <_edata>
   13804:	030585b3          	mul	a1,a1,a6
   13808:	96aa                	c.add	a3,a0
   1380a:	01069513          	slli	a0,a3,0x10
   1380e:	972e                	c.add	a4,a1
   13810:	00e505b3          	add	a1,a0,a4
   13814:	84b1bc23          	sd	a1,-1960(gp) # 2b4d8 <_edata>
   13818:	02b10823          	sb	a1,48(sp)
   1381c:	a021                	c.j	13824 <encfile+0x38c>
   1381e:	0x8c5e977          	0x8c5e977
   13822:	4601                	c.li	a2,0
   13824:	0x6522977          	0x6522977
   13828:	00f985b3          	add	a1,s3,a5
   1382c:	0005c503          	lbu	a0,0(a1)
   13830:	0785                	c.addi	a5,1
   13832:	4591                	c.li	a1,4
   13834:	02a108a3          	sb	a0,49(sp)
   13838:	d0b792e3          	bne	a5,a1,1353c <encfile+0xa4>
   1383c:	0x6522977          	0x6522977
   13840:	67c1                	c.lui	a5,0x10
   13842:	17fd                	c.addi	a5,-1
   13844:	00f6f533          	and	a0,a3,a5
   13848:	00f775b3          	and	a1,a4,a5
   1384c:	67a5                	c.lui	a5,0x9
   1384e:	06978793          	addi	a5,a5,105 # 9069 <main-0x7047>
   13852:	6811                	c.lui	a6,0x4
   13854:	02f50533          	mul	a0,a0,a5
   13858:	65080813          	addi	a6,a6,1616 # 4650 <main-0xba60>
   1385c:	82c1                	c.srli	a3,0x10
   1385e:	8341                	c.srli	a4,0x10
   13860:	4785                	c.li	a5,1
   13862:	4605                	c.li	a2,1
   13864:	030585b3          	mul	a1,a1,a6
   13868:	96aa                	c.add	a3,a0
   1386a:	01069513          	slli	a0,a3,0x10
   1386e:	972e                	c.add	a4,a1
   13870:	00e505b3          	add	a1,a0,a4
   13874:	84b1bc23          	sd	a1,-1960(gp) # 2b4d8 <_edata>
   13878:	02b10923          	sb	a1,50(sp)
   1387c:	0x6522977          	0x6522977
   13880:	00f985b3          	add	a1,s3,a5
   13884:	0005c503          	lbu	a0,0(a1)
   13888:	0785                	c.addi	a5,1
   1388a:	4591                	c.li	a1,4
   1388c:	02a109a3          	sb	a0,51(sp)
   13890:	d0b792e3          	bne	a5,a1,13594 <encfile+0xfc>
   13894:	0x6522977          	0x6522977
   13898:	67c1                	c.lui	a5,0x10
   1389a:	17fd                	c.addi	a5,-1
   1389c:	00f6f533          	and	a0,a3,a5
   138a0:	00f775b3          	and	a1,a4,a5
   138a4:	67a5                	c.lui	a5,0x9
   138a6:	06978793          	addi	a5,a5,105 # 9069 <main-0x7047>
   138aa:	6811                	c.lui	a6,0x4
   138ac:	02f50533          	mul	a0,a0,a5
   138b0:	65080813          	addi	a6,a6,1616 # 4650 <main-0xba60>
   138b4:	82c1                	c.srli	a3,0x10
   138b6:	8341                	c.srli	a4,0x10
   138b8:	4785                	c.li	a5,1
   138ba:	4605                	c.li	a2,1
   138bc:	030585b3          	mul	a1,a1,a6
   138c0:	96aa                	c.add	a3,a0
   138c2:	01069513          	slli	a0,a3,0x10
   138c6:	972e                	c.add	a4,a1
   138c8:	00e505b3          	add	a1,a0,a4
   138cc:	84b1bc23          	sd	a1,-1960(gp) # 2b4d8 <_edata>
   138d0:	02b10a23          	sb	a1,52(sp)
   138d4:	0x6522977          	0x6522977
   138d8:	00f985b3          	add	a1,s3,a5
   138dc:	0005c503          	lbu	a0,0(a1)
   138e0:	0785                	c.addi	a5,1
   138e2:	4591                	c.li	a1,4
   138e4:	02a10aa3          	sb	a0,53(sp)
   138e8:	d0b792e3          	bne	a5,a1,135ec <encfile+0x154>
   138ec:	0x6522977          	0x6522977
   138f0:	67c1                	c.lui	a5,0x10
   138f2:	17fd                	c.addi	a5,-1
   138f4:	00f6f533          	and	a0,a3,a5
   138f8:	00f775b3          	and	a1,a4,a5
   138fc:	67a5                	c.lui	a5,0x9
   138fe:	06978793          	addi	a5,a5,105 # 9069 <main-0x7047>
   13902:	6811                	c.lui	a6,0x4
   13904:	02f50533          	mul	a0,a0,a5
   13908:	65080813          	addi	a6,a6,1616 # 4650 <main-0xba60>
   1390c:	82c1                	c.srli	a3,0x10
   1390e:	8341                	c.srli	a4,0x10
   13910:	4785                	c.li	a5,1
   13912:	4605                	c.li	a2,1
   13914:	030585b3          	mul	a1,a1,a6
   13918:	96aa                	c.add	a3,a0
   1391a:	01069513          	slli	a0,a3,0x10
   1391e:	972e                	c.add	a4,a1
   13920:	00e505b3          	add	a1,a0,a4
   13924:	84b1bc23          	sd	a1,-1960(gp) # 2b4d8 <_edata>
   13928:	02b10b23          	sb	a1,54(sp)
   1392c:	0xd502977          	0xd502977
   13930:	00f985b3          	add	a1,s3,a5
   13934:	0005c503          	lbu	a0,0(a1)
   13938:	0785                	c.addi	a5,1
   1393a:	4591                	c.li	a1,4
   1393c:	02a10ba3          	sb	a0,55(sp)
   13940:	d0b792e3          	bne	a5,a1,13644 <encfile+0x1ac>
   13944:	0x63ec977          	0x63ec977
   13948:	67c1                	c.lui	a5,0x10
   1394a:	17fd                	c.addi	a5,-1
   1394c:	00f6f533          	and	a0,a3,a5
   13950:	00f775b3          	and	a1,a4,a5
   13954:	67a5                	c.lui	a5,0x9
   13956:	06978793          	addi	a5,a5,105 # 9069 <main-0x7047>
   1395a:	6811                	c.lui	a6,0x4
   1395c:	02f50533          	mul	a0,a0,a5
   13960:	65080813          	addi	a6,a6,1616 # 4650 <main-0xba60>
   13964:	82c1                	c.srli	a3,0x10
   13966:	8341                	c.srli	a4,0x10
   13968:	4785                	c.li	a5,1
   1396a:	4605                	c.li	a2,1
   1396c:	030585b3          	mul	a1,a1,a6
   13970:	96aa                	c.add	a3,a0
   13972:	01069513          	slli	a0,a3,0x10
   13976:	972e                	c.add	a4,a1
   13978:	00e505b3          	add	a1,a0,a4
   1397c:	84b1bc23          	sd	a1,-1960(gp) # 2b4d8 <_edata>
   13980:	02b10c23          	sb	a1,56(sp)
   13984:	0xc27977          	0xc27977
   13988:	00f985b3          	add	a1,s3,a5
   1398c:	0005c503          	lbu	a0,0(a1)
   13990:	0785                	c.addi	a5,1
   13992:	4591                	c.li	a1,4
   13994:	02a10ca3          	sb	a0,57(sp)
   13998:	d0b792e3          	bne	a5,a1,1369c <encfile+0x204>
   1399c:	0x65ac977          	0x65ac977
   139a0:	67c1                	c.lui	a5,0x10
   139a2:	17fd                	c.addi	a5,-1
   139a4:	00f6f533          	and	a0,a3,a5
   139a8:	00f775b3          	and	a1,a4,a5
   139ac:	67a5                	c.lui	a5,0x9
   139ae:	06978793          	addi	a5,a5,105 # 9069 <main-0x7047>
   139b2:	6811                	c.lui	a6,0x4
   139b4:	02f50533          	mul	a0,a0,a5
   139b8:	65080813          	addi	a6,a6,1616 # 4650 <main-0xba60>
   139bc:	82c1                	c.srli	a3,0x10
   139be:	8341                	c.srli	a4,0x10
   139c0:	4785                	c.li	a5,1
   139c2:	4605                	c.li	a2,1
   139c4:	030585b3          	mul	a1,a1,a6
   139c8:	96aa                	c.add	a3,a0
   139ca:	01069513          	slli	a0,a3,0x10
   139ce:	972e                	c.add	a4,a1
   139d0:	00e505b3          	add	a1,a0,a4
   139d4:	84b1bc23          	sd	a1,-1960(gp) # 2b4d8 <_edata>
   139d8:	02b10d23          	sb	a1,58(sp)
   139dc:	0xd367977          	0xd367977
   139e0:	00f985b3          	add	a1,s3,a5
   139e4:	0005c503          	lbu	a0,0(a1)
   139e8:	0785                	c.addi	a5,1
   139ea:	4591                	c.li	a1,4
   139ec:	02a10da3          	sb	a0,59(sp)
   139f0:	d0b792e3          	bne	a5,a1,136f4 <encfile+0x25c>
   139f4:	0xbbe6977          	0xbbe6977
   139f8:	67c1                	c.lui	a5,0x10
   139fa:	17fd                	c.addi	a5,-1
   139fc:	00f6f533          	and	a0,a3,a5
   13a00:	00f775b3          	and	a1,a4,a5
   13a04:	67a5                	c.lui	a5,0x9
   13a06:	06978793          	addi	a5,a5,105 # 9069 <main-0x7047>
   13a0a:	6811                	c.lui	a6,0x4
   13a0c:	02f50533          	mul	a0,a0,a5
   13a10:	65080813          	addi	a6,a6,1616 # 4650 <main-0xba60>
   13a14:	82c1                	c.srli	a3,0x10
   13a16:	8341                	c.srli	a4,0x10
   13a18:	4785                	c.li	a5,1
   13a1a:	4605                	c.li	a2,1
   13a1c:	030585b3          	mul	a1,a1,a6
   13a20:	96aa                	c.add	a3,a0
   13a22:	01069513          	slli	a0,a3,0x10
   13a26:	972e                	c.add	a4,a1
   13a28:	00e505b3          	add	a1,a0,a4
   13a2c:	84b1bc23          	sd	a1,-1960(gp) # 2b4d8 <_edata>
   13a30:	02b10e23          	sb	a1,60(sp)
   13a34:	0x2423977          	0x2423977
   13a38:	00f985b3          	add	a1,s3,a5
   13a3c:	0005c503          	lbu	a0,0(a1)
   13a40:	0785                	c.addi	a5,1
   13a42:	4591                	c.li	a1,4
   13a44:	02a10ea3          	sb	a0,61(sp)
   13a48:	d0b792e3          	bne	a5,a1,1374c <encfile+0x2b4>
   13a4c:	0xbd77977          	0xbd77977
   13a50:	67c1                	c.lui	a5,0x10
   13a52:	17fd                	c.addi	a5,-1
   13a54:	00f6f533          	and	a0,a3,a5
   13a58:	00f775b3          	and	a1,a4,a5
   13a5c:	67a5                	c.lui	a5,0x9
   13a5e:	06978793          	addi	a5,a5,105 # 9069 <main-0x7047>
   13a62:	6811                	c.lui	a6,0x4
   13a64:	02f50533          	mul	a0,a0,a5
   13a68:	65080813          	addi	a6,a6,1616 # 4650 <main-0xba60>
   13a6c:	82c1                	c.srli	a3,0x10
   13a6e:	8341                	c.srli	a4,0x10
   13a70:	4785                	c.li	a5,1
   13a72:	4605                	c.li	a2,1
   13a74:	030585b3          	mul	a1,a1,a6
   13a78:	96aa                	c.add	a3,a0
   13a7a:	01069513          	slli	a0,a3,0x10
   13a7e:	972e                	c.add	a4,a1
   13a80:	00e505b3          	add	a1,a0,a4
   13a84:	84b1bc23          	sd	a1,-1960(gp) # 2b4d8 <_edata>
   13a88:	02b10f23          	sb	a1,62(sp)
   13a8c:	0x2e3f977          	0x2e3f977
   13a90:	00f985b3          	add	a1,s3,a5
   13a94:	0005c583          	lbu	a1,0(a1)
   13a98:	0785                	c.addi	a5,1
   13a9a:	82f1b423          	sd	a5,-2008(gp) # 2b4a8 <count.3158>
   13a9e:	02b10fa3          	sb	a1,63(sp)
   13aa2:	d00611e3          	bne	a2,zero,137a4 <encfile+0x30c>
   13aa6:	0x48dd977          	0x48dd977
   13aaa:	4609                	c.li	a2,2
   13aac:	4581                	c.li	a1,0
   13aae:	8522                	c.mv	a0,s0
   13ab0:	651000ef          	jal	ra,14900 <fseek>
   13ab4:	0x9e97977          	0x9e97977
   13ab8:	082c                	c.addi4spn	a1,sp,24
   13aba:	8522                	c.mv	a0,s0
   13abc:	01d000ef          	jal	ra,142d8 <fgetpos>
   13ac0:	0xf107977          	0xf107977
   13ac4:	4601                	c.li	a2,0
   13ac6:	4581                	c.li	a1,0
   13ac8:	8522                	c.mv	a0,s0
   13aca:	637000ef          	jal	ra,14900 <fseek>
   13ace:	0x1f06977          	0x1f06977
   13ad2:	86a6                	c.mv	a3,s1
   13ad4:	4641                	c.li	a2,16
   13ad6:	4585                	c.li	a1,1
   13ad8:	1808                	c.addi4spn	a0,sp,48
   13ada:	310010ef          	jal	ra,14dea <fwrite>
   13ade:	0x836a977          	0x836a977
   13ae2:	8301b783          	ld	a5,-2000(gp) # 2b4b0 <mt.3157>
   13ae6:	cf99                	c.beqz	a5,13b04 <encfile+0x66c>
   13ae8:	0xc0ae977          	0xc0ae977
   13aec:	67bd                	c.lui	a5,0xf
   13aee:	af378793          	addi	a5,a5,-1293 # eaf3 <main-0x15bd>
   13af2:	00fab023          	sd	a5,0(s5)
   13af6:	678d                	c.lui	a5,0x3
   13af8:	5fe78793          	addi	a5,a5,1534 # 35fe <main-0xcab2>
   13afc:	8201b823          	sd	zero,-2000(gp) # 2b4b0 <mt.3157>
   13b00:	00fab423          	sd	a5,8(s5)
   13b04:	0x12f4977          	0x12f4977
   13b08:	8281b783          	ld	a5,-2008(gp) # 2b4a8 <count.3158>
   13b0c:	4711                	c.li	a4,4
   13b0e:	00178613          	addi	a2,a5,1
   13b12:	04e79a63          	bne	a5,a4,13b66 <encfile+0x6ce>
   13b16:	0x5435977          	0x5435977
   13b1a:	000ab583          	ld	a1,0(s5)
   13b1e:	008ab603          	ld	a2,8(s5)
   13b22:	67c1                	c.lui	a5,0x10
   13b24:	17fd                	c.addi	a5,-1
   13b26:	6725                	c.lui	a4,0x9
   13b28:	00f5f6b3          	and	a3,a1,a5
   13b2c:	06970713          	addi	a4,a4,105 # 9069 <main-0x7047>
   13b30:	6811                	c.lui	a6,0x4
   13b32:	02e686b3          	mul	a3,a3,a4
   13b36:	65080813          	addi	a6,a6,1616 # 4650 <main-0xba60>
   13b3a:	00f67733          	and	a4,a2,a5
   13b3e:	0105d513          	srli	a0,a1,0x10
   13b42:	01065593          	srli	a1,a2,0x10
   13b46:	4781                	c.li	a5,0
   13b48:	4605                	c.li	a2,1
   13b4a:	03070733          	mul	a4,a4,a6
   13b4e:	96aa                	c.add	a3,a0
   13b50:	01069513          	slli	a0,a3,0x10
   13b54:	00dab023          	sd	a3,0(s5)
   13b58:	972e                	c.add	a4,a1
   13b5a:	00e506b3          	add	a3,a0,a4
   13b5e:	00eab423          	sd	a4,8(s5)
   13b62:	84d1bc23          	sd	a3,-1960(gp) # 2b4d8 <_edata>
   13b66:	0xedd8977          	0xedd8977
   13b6a:	99be                	c.add	s3,a5
   13b6c:	0009c703          	lbu	a4,0(s3)
   13b70:	67e2                	c.ldsp	a5,24(sp)
   13b72:	82c1b423          	sd	a2,-2008(gp) # 2b4a8 <count.3158>
   13b76:	9b41                	c.andi	a4,-16
   13b78:	8bbd                	c.andi	a5,15
   13b7a:	8fd9                	c.or	a5,a4
   13b7c:	02f10023          	sb	a5,32(sp)
   13b80:	49bd                	c.li	s3,15
   13b82:	4701                	c.li	a4,0
   13b84:	4941                	c.li	s2,16
   13b86:	aa3d                	c.j	13cc4 <encfile+0x82c>
   13b88:	0xe887977          	0xe887977
   13b8c:	2ed000ef          	jal	ra,14678 <fread>
   13b90:	0x1705977          	0x1705977
   13b94:	872a                	c.mv	a4,a0
   13b96:	6602                	c.ldsp	a2,0(sp)
   13b98:	180c                	c.addi4spn	a1,sp,48
   13b9a:	1008                	c.addi4spn	a0,sp,32
   13b9c:	15376463          	bltu	a4,s3,13ce4 <encfile+0x84c>
   13ba0:	0x6b5f977          	0x6b5f977
   13ba4:	03914083          	lbu	ra,57(sp)
   13ba8:	02014283          	lbu	t0,32(sp)
   13bac:	02114d03          	lbu	s10,33(sp)
   13bb0:	02214c83          	lbu	s9,34(sp)
   13bb4:	02314c03          	lbu	s8,35(sp)
   13bb8:	02414b83          	lbu	s7,36(sp)
   13bbc:	02514303          	lbu	t1,37(sp)
   13bc0:	02614883          	lbu	a7,38(sp)
   13bc4:	02714803          	lbu	a6,39(sp)
   13bc8:	02814683          	lbu	a3,40(sp)
   13bcc:	02914703          	lbu	a4,41(sp)
   13bd0:	03814983          	lbu	s3,56(sp)
   13bd4:	03014d83          	lbu	s11,48(sp)
   13bd8:	03114f83          	lbu	t6,49(sp)
   13bdc:	03214f03          	lbu	t5,50(sp)
   13be0:	03314e83          	lbu	t4,51(sp)
   13be4:	03414e03          	lbu	t3,52(sp)
   13be8:	03514b03          	lbu	s6,53(sp)
   13bec:	03614a83          	lbu	s5,54(sp)
   13bf0:	03714a03          	lbu	s4,55(sp)
   13bf4:	03a14383          	lbu	t2,58(sp)
   13bf8:	02a14783          	lbu	a5,42(sp)
   13bfc:	00174733          	xor	a4,a4,ra
   13c00:	01b2c2b3          	xor	t0,t0,s11
   13c04:	0136c6b3          	xor	a3,a3,s3
   13c08:	01fd4fb3          	xor	t6,s10,t6
   13c0c:	01eccf33          	xor	t5,s9,t5
   13c10:	01dc4eb3          	xor	t4,s8,t4
   13c14:	01cbce33          	xor	t3,s7,t3
   13c18:	01634333          	xor	t1,t1,s6
   13c1c:	0158c8b3          	xor	a7,a7,s5
   13c20:	01484833          	xor	a6,a6,s4
   13c24:	0077c7b3          	xor	a5,a5,t2
   13c28:	02510023          	sb	t0,32(sp)
   13c2c:	03f100a3          	sb	t6,33(sp)
   13c30:	03e10123          	sb	t5,34(sp)
   13c34:	03d101a3          	sb	t4,35(sp)
   13c38:	03c10223          	sb	t3,36(sp)
   13c3c:	026102a3          	sb	t1,37(sp)
   13c40:	03110323          	sb	a7,38(sp)
   13c44:	030103a3          	sb	a6,39(sp)
   13c48:	02d10423          	sb	a3,40(sp)
   13c4c:	02e104a3          	sb	a4,41(sp)
   13c50:	02f10523          	sb	a5,42(sp)
   13c54:	02b14883          	lbu	a7,43(sp)
   13c58:	02c14803          	lbu	a6,44(sp)
   13c5c:	02d14683          	lbu	a3,45(sp)
   13c60:	02e14703          	lbu	a4,46(sp)
   13c64:	02f14783          	lbu	a5,47(sp)
   13c68:	03b14f83          	lbu	t6,59(sp)
   13c6c:	03c14f03          	lbu	t5,60(sp)
   13c70:	03d14e83          	lbu	t4,61(sp)
   13c74:	03e14e03          	lbu	t3,62(sp)
   13c78:	03f14303          	lbu	t1,63(sp)
   13c7c:	01d6c6b3          	xor	a3,a3,t4
   13c80:	01c74733          	xor	a4,a4,t3
   13c84:	01f8c8b3          	xor	a7,a7,t6
   13c88:	01e84833          	xor	a6,a6,t5
   13c8c:	0067c7b3          	xor	a5,a5,t1
   13c90:	02e10723          	sb	a4,46(sp)
   13c94:	031105a3          	sb	a7,43(sp)
   13c98:	03010623          	sb	a6,44(sp)
   13c9c:	02d106a3          	sb	a3,45(sp)
   13ca0:	02f107a3          	sb	a5,47(sp)
   13ca4:	d63fc0ef          	jal	ra,10a06 <encrypt>
   13ca8:	0xffbe977          	0xffbe977
   13cac:	86a6                	c.mv	a3,s1
   13cae:	4641                	c.li	a2,16
   13cb0:	4585                	c.li	a1,1
   13cb2:	1808                	c.addi4spn	a0,sp,48
   13cb4:	136010ef          	jal	ra,14dea <fwrite>
   13cb8:	0xf6d3977          	0xf6d3977
   13cbc:	4741                	c.li	a4,16
   13cbe:	49c1                	c.li	s3,16
   13cc0:	0ae51b63          	bne	a0,a4,13d76 <encfile+0x8de>
   13cc4:	0xfd1e977          	0xfd1e977
   13cc8:	01045783          	lhu	a5,16(s0)
   13ccc:	41390533          	sub	a0,s2,s3
   13cd0:	02010813          	addi	a6,sp,32
   13cd4:	0207f793          	andi	a5,a5,32
   13cd8:	864e                	c.mv	a2,s3
   13cda:	86a2                	c.mv	a3,s0
   13cdc:	4585                	c.li	a1,1
   13cde:	9542                	c.add	a0,a6
   13ce0:	ea0784e3          	beq	a5,zero,13b88 <encfile+0x6f0>
   13ce4:	0xf063977          	0xf063977
   13ce8:	ff198793          	addi	a5,s3,-15
   13cec:	0017b793          	sltiu	a5,a5,1
   13cf0:	973e                	c.add	a4,a5
   13cf2:	cf21                	c.beqz	a4,13d4a <encfile+0x8b2>
   13cf4:	0xf525977          	0xf525977
   13cf8:	47bd                	c.li	a5,15
   13cfa:	1000                	c.addi4spn	s0,sp,32
   13cfc:	00e7eb63          	bltu	a5,a4,13d12 <encfile+0x87a>
   13d00:	0x3d05977          	0x3d05977
   13d04:	4641                	c.li	a2,16
   13d06:	8e19                	c.sub	a2,a4
   13d08:	4581                	c.li	a1,0
   13d0a:	00e40533          	add	a0,s0,a4
   13d0e:	0dd010ef          	jal	ra,155ea <memset>
   13d12:	0xf3ef977          	0xf3ef977
   13d16:	7702                	c.ldsp	a4,32(sp)
   13d18:	77c2                	c.ldsp	a5,48(sp)
   13d1a:	76e2                	c.ldsp	a3,56(sp)
   13d1c:	6602                	c.ldsp	a2,0(sp)
   13d1e:	8f3d                	c.xor	a4,a5
   13d20:	77a2                	c.ldsp	a5,40(sp)
   13d22:	180c                	c.addi4spn	a1,sp,48
   13d24:	8522                	c.mv	a0,s0
   13d26:	8fb5                	c.xor	a5,a3
   13d28:	f43e                	c.sdsp	a5,40(sp)
   13d2a:	f03a                	c.sdsp	a4,32(sp)
   13d2c:	cdbfc0ef          	jal	ra,10a06 <encrypt>
   13d30:	0x411977          	0x411977
   13d34:	86a6                	c.mv	a3,s1
   13d36:	4641                	c.li	a2,16
   13d38:	4585                	c.li	a1,1
   13d3a:	1808                	c.addi4spn	a0,sp,48
   13d3c:	0ae010ef          	jal	ra,14dea <fwrite>
   13d40:	0xcf3c977          	0xcf3c977
   13d44:	47c1                	c.li	a5,16
   13d46:	04f51563          	bne	a0,a5,13d90 <encfile+0x8f8>
   13d4a:	0x9fdc977          	0x9fdc977
   13d4e:	4501                	c.li	a0,0
   13d50:	0x695b977          	0x695b977
   13d54:	70aa                	c.ldsp	ra,168(sp)
   13d56:	740a                	c.ldsp	s0,160(sp)
   13d58:	64ea                	c.ldsp	s1,152(sp)
   13d5a:	694a                	c.ldsp	s2,144(sp)
   13d5c:	69aa                	c.ldsp	s3,136(sp)
   13d5e:	6a0a                	c.ldsp	s4,128(sp)
   13d60:	7ae6                	c.ldsp	s5,120(sp)
   13d62:	7b46                	c.ldsp	s6,112(sp)
   13d64:	7ba6                	c.ldsp	s7,104(sp)
   13d66:	7c06                	c.ldsp	s8,96(sp)
   13d68:	6ce6                	c.ldsp	s9,88(sp)
   13d6a:	6d46                	c.ldsp	s10,80(sp)
   13d6c:	6da6                	c.ldsp	s11,72(sp)
   13d6e:	614d                	c.addi16sp	sp,176
   13d70:	0ff05073          	csrrwi	zero,0xff,0
   13d74:	8082                	c.jr	ra
   13d76:	0x671977          	0x671977
   13d7a:	65a2                	c.ldsp	a1,8(sp)
   13d7c:	00028537          	lui	a0,0x28
   13d80:	4d850513          	addi	a0,a0,1240 # 284d8 <s_box+0x100>
   13d84:	167010ef          	jal	ra,156ea <printf>
   13d88:	0x77ff977          	0x77ff977
   13d8c:	5565                	c.li	a0,-7
   13d8e:	b7c9                	c.j	13d50 <encfile+0x8b8>
   13d90:	0xfde0977          	0xfde0977
   13d94:	65a2                	c.ldsp	a1,8(sp)
   13d96:	00028537          	lui	a0,0x28
   13d9a:	4d850513          	addi	a0,a0,1240 # 284d8 <s_box+0x100>
   13d9e:	14d010ef          	jal	ra,156ea <printf>
   13da2:	0x67e3977          	0x67e3977
   13da6:	5561                	c.li	a0,-8
   13da8:	b765                	c.j	13d50 <encfile+0x8b8>

0000000000013daa <decfile>:
   13daa:	0xe0f2977          	0xe0f2977
   13dae:	7171                	c.addi16sp	sp,-176
   13db0:	f122                	c.sdsp	s0,160(sp)
   13db2:	e94a                	c.sdsp	s2,144(sp)
   13db4:	e54e                	c.sdsp	s3,136(sp)
   13db6:	e152                	c.sdsp	s4,128(sp)
   13db8:	892a                	c.mv	s2,a0
   13dba:	8a2e                	c.mv	s4,a1
   13dbc:	89b2                	c.mv	s3,a2
   13dbe:	8436                	c.mv	s0,a3
   13dc0:	4641                	c.li	a2,16
   13dc2:	86aa                	c.mv	a3,a0
   13dc4:	4585                	c.li	a1,1
   13dc6:	0808                	c.addi4spn	a0,sp,16
   13dc8:	f506                	c.sdsp	ra,168(sp)
   13dca:	ed26                	c.sdsp	s1,152(sp)
   13dcc:	fcd6                	c.sdsp	s5,120(sp)
   13dce:	f8da                	c.sdsp	s6,112(sp)
   13dd0:	f4de                	c.sdsp	s7,104(sp)
   13dd2:	f0e2                	c.sdsp	s8,96(sp)
   13dd4:	ece6                	c.sdsp	s9,88(sp)
   13dd6:	e8ea                	c.sdsp	s10,80(sp)
   13dd8:	e4ee                	c.sdsp	s11,72(sp)
   13dda:	e03a                	c.sdsp	a4,0(sp)
   13ddc:	09d000ef          	jal	ra,14678 <fread>
   13de0:	0x5e53977          	0x5e53977
   13de4:	47c1                	c.li	a5,16
   13de6:	22f51963          	bne	a0,a5,14018 <decfile+0x26e>
   13dea:	0xc315977          	0xc315977
   13dee:	86ca                	c.mv	a3,s2
   13df0:	4641                	c.li	a2,16
   13df2:	4585                	c.li	a1,1
   13df4:	1008                	c.addi4spn	a0,sp,32
   13df6:	083000ef          	jal	ra,14678 <fread>
   13dfa:	0x2e70977          	0x2e70977
   13dfe:	993d                	c.andi	a0,-17
   13e00:	00050a9b          	addiw	s5,a0,0
   13e04:	040a8163          	beq	s5,zero,13e46 <decfile+0x9c>
   13e08:	0xe047977          	0xe047977
   13e0c:	00028537          	lui	a0,0x28
   13e10:	52850513          	addi	a0,a0,1320 # 28528 <s_box+0x150>
   13e14:	0d7010ef          	jal	ra,156ea <printf>
   13e18:	0x852e977          	0x852e977
   13e1c:	5ad9                	c.li	s5,-10
   13e1e:	0xe523977          	0xe523977
   13e22:	70aa                	c.ldsp	ra,168(sp)
   13e24:	740a                	c.ldsp	s0,160(sp)
   13e26:	8556                	c.mv	a0,s5
   13e28:	64ea                	c.ldsp	s1,152(sp)
   13e2a:	694a                	c.ldsp	s2,144(sp)
   13e2c:	69aa                	c.ldsp	s3,136(sp)
   13e2e:	6a0a                	c.ldsp	s4,128(sp)
   13e30:	7ae6                	c.ldsp	s5,120(sp)
   13e32:	7b46                	c.ldsp	s6,112(sp)
   13e34:	7ba6                	c.ldsp	s7,104(sp)
   13e36:	7c06                	c.ldsp	s8,96(sp)
   13e38:	6ce6                	c.ldsp	s9,88(sp)
   13e3a:	6d46                	c.ldsp	s10,80(sp)
   13e3c:	6da6                	c.ldsp	s11,72(sp)
   13e3e:	614d                	c.addi16sp	sp,176
   13e40:	0ff05073          	csrrwi	zero,0xff,0
   13e44:	8082                	c.jr	ra
   13e46:	0xa9bf977          	0xa9bf977
   13e4a:	864e                	c.mv	a2,s3
   13e4c:	180c                	c.addi4spn	a1,sp,48
   13e4e:	1008                	c.addi4spn	a0,sp,32
   13e50:	86afe0ef          	jal	ra,11eba <decrypt>
   13e54:	0x2493977          	0x2493977
   13e58:	77c2                	c.ldsp	a5,48(sp)
   13e5a:	6742                	c.ldsp	a4,16(sp)
   13e5c:	76e2                	c.ldsp	a3,56(sp)
   13e5e:	4b3d                	c.li	s6,15
   13e60:	8fb9                	c.xor	a5,a4
   13e62:	6762                	c.ldsp	a4,24(sp)
   13e64:	f83e                	c.sdsp	a5,48(sp)
   13e66:	0ff7f793          	andi	a5,a5,255
   13e6a:	8f35                	c.xor	a4,a3
   13e6c:	fc3a                	c.sdsp	a4,56(sp)
   13e6e:	e43e                	c.sdsp	a5,8(sp)
   13e70:	1000                	c.addi4spn	s0,sp,32
   13e72:	0804                	c.addi4spn	s1,sp,16
   13e74:	a235                	c.j	13fa0 <decfile+0x1f6>
   13e76:	0x826e977          	0x826e977
   13e7a:	771000ef          	jal	ra,14dea <fwrite>
   13e7e:	0xd8f3977          	0xd8f3977
   13e82:	864e                	c.mv	a2,s3
   13e84:	180c                	c.addi4spn	a1,sp,48
   13e86:	1aab1663          	bne	s6,a0,14032 <decfile+0x288>
   13e8a:	0xef977          	0xef977
   13e8e:	8526                	c.mv	a0,s1
   13e90:	82afe0ef          	jal	ra,11eba <decrypt>
   13e94:	0xfe0d977          	0xfe0d977
   13e98:	03014e83          	lbu	t4,48(sp)
   13e9c:	00544b03          	lbu	s6,5(s0)
   13ea0:	00044d83          	lbu	s11,0(s0)
   13ea4:	03114d03          	lbu	s10,49(sp)
   13ea8:	00144e03          	lbu	t3,1(s0)
   13eac:	03214c83          	lbu	s9,50(sp)
   13eb0:	00244303          	lbu	t1,2(s0)
   13eb4:	03314c03          	lbu	s8,51(sp)
   13eb8:	00344883          	lbu	a7,3(s0)
   13ebc:	03414b83          	lbu	s7,52(sp)
   13ec0:	00444803          	lbu	a6,4(s0)
   13ec4:	03514503          	lbu	a0,53(sp)
   13ec8:	03614583          	lbu	a1,54(sp)
   13ecc:	00644083          	lbu	ra,6(s0)
   13ed0:	03714603          	lbu	a2,55(sp)
   13ed4:	00744383          	lbu	t2,7(s0)
   13ed8:	03814683          	lbu	a3,56(sp)
   13edc:	00844283          	lbu	t0,8(s0)
   13ee0:	03914703          	lbu	a4,57(sp)
   13ee4:	00944f83          	lbu	t6,9(s0)
   13ee8:	00a44f03          	lbu	t5,10(s0)
   13eec:	03a14783          	lbu	a5,58(sp)
   13ef0:	01654533          	xor	a0,a0,s6
   13ef4:	01beceb3          	xor	t4,t4,s11
   13ef8:	01cd4e33          	xor	t3,s10,t3
   13efc:	006cc333          	xor	t1,s9,t1
   13f00:	011c48b3          	xor	a7,s8,a7
   13f04:	010bc833          	xor	a6,s7,a6
   13f08:	0015c5b3          	xor	a1,a1,ra
   13f0c:	00764633          	xor	a2,a2,t2
   13f10:	0056c6b3          	xor	a3,a3,t0
   13f14:	01f74733          	xor	a4,a4,t6
   13f18:	03d10823          	sb	t4,48(sp)
   13f1c:	03c108a3          	sb	t3,49(sp)
   13f20:	02610923          	sb	t1,50(sp)
   13f24:	031109a3          	sb	a7,51(sp)
   13f28:	03010a23          	sb	a6,52(sp)
   13f2c:	02a10aa3          	sb	a0,53(sp)
   13f30:	02b10b23          	sb	a1,54(sp)
   13f34:	02c10ba3          	sb	a2,55(sp)
   13f38:	02d10c23          	sb	a3,56(sp)
   13f3c:	02e10ca3          	sb	a4,57(sp)
   13f40:	01e7c7b3          	xor	a5,a5,t5
   13f44:	02f10d23          	sb	a5,58(sp)
   13f48:	03b14583          	lbu	a1,59(sp)
   13f4c:	00b44e83          	lbu	t4,11(s0)
   13f50:	03c14603          	lbu	a2,60(sp)
   13f54:	00c44e03          	lbu	t3,12(s0)
   13f58:	03d14683          	lbu	a3,61(sp)
   13f5c:	00d44303          	lbu	t1,13(s0)
   13f60:	03e14703          	lbu	a4,62(sp)
   13f64:	00e44883          	lbu	a7,14(s0)
   13f68:	03f14783          	lbu	a5,63(sp)
   13f6c:	00f44803          	lbu	a6,15(s0)
   13f70:	8522                	c.mv	a0,s0
   13f72:	01d5c5b3          	xor	a1,a1,t4
   13f76:	01c64633          	xor	a2,a2,t3
   13f7a:	0066c6b3          	xor	a3,a3,t1
   13f7e:	01174733          	xor	a4,a4,a7
   13f82:	0107c7b3          	xor	a5,a5,a6
   13f86:	8426                	c.mv	s0,s1
   13f88:	02b10da3          	sb	a1,59(sp)
   13f8c:	02c10e23          	sb	a2,60(sp)
   13f90:	02d10ea3          	sb	a3,61(sp)
   13f94:	02e10f23          	sb	a4,62(sp)
   13f98:	02f10fa3          	sb	a5,63(sp)
   13f9c:	4b41                	c.li	s6,16
   13f9e:	84aa                	c.mv	s1,a0
   13fa0:	0x86e0977          	0x86e0977
   13fa4:	86ca                	c.mv	a3,s2
   13fa6:	4641                	c.li	a2,16
   13fa8:	4585                	c.li	a1,1
   13faa:	8526                	c.mv	a0,s1
   13fac:	6cc000ef          	jal	ra,14678 <fread>
   13fb0:	0x470977          	0x470977
   13fb4:	0005079b          	addiw	a5,a0,0
   13fb8:	1818                	c.addi4spn	a4,sp,48
   13fba:	41678533          	sub	a0,a5,s6
   13fbe:	953a                	c.add	a0,a4
   13fc0:	4741                	c.li	a4,16
   13fc2:	86d2                	c.mv	a3,s4
   13fc4:	865a                	c.mv	a2,s6
   13fc6:	4585                	c.li	a1,1
   13fc8:	eae787e3          	beq	a5,a4,13e76 <decfile+0xcc>
   13fcc:	0xa3ec977          	0xa3ec977
   13fd0:	47a2                	c.lwsp	a5,8(sp)
   13fd2:	1b45                	c.addi	s6,-15
   13fd4:	01603433          	sltu	s0,zero,s6
   13fd8:	8bbd                	c.andi	a5,15
   13fda:	943e                	c.add	s0,a5
   13fdc:	001b3b13          	sltiu	s6,s6,1
   13fe0:	e2040fe3          	beq	s0,zero,13e1e <decfile+0x74>
   13fe4:	0x6754977          	0x6754977
   13fe8:	181c                	c.addi4spn	a5,sp,48
   13fea:	8622                	c.mv	a2,s0
   13fec:	4585                	c.li	a1,1
   13fee:	01678533          	add	a0,a5,s6
   13ff2:	5f9000ef          	jal	ra,14dea <fwrite>
   13ff6:	0x16d977          	0x16d977
   13ffa:	e2a402e3          	beq	s0,a0,13e1e <decfile+0x74>
   13ffe:	0x5f6977          	0x5f6977
   14002:	6582                	c.ldsp	a1,0(sp)
   14004:	00028537          	lui	a0,0x28
   14008:	4d850513          	addi	a0,a0,1240 # 284d8 <s_box+0x100>
   1400c:	6de010ef          	jal	ra,156ea <printf>
   14010:	0xb1e2977          	0xb1e2977
   14014:	5ad1                	c.li	s5,-12
   14016:	b521                	c.j	13e1e <decfile+0x74>
   14018:	0x31cf977          	0x31cf977
   1401c:	00028537          	lui	a0,0x28
   14020:	85a2                	c.mv	a1,s0
   14022:	50050513          	addi	a0,a0,1280 # 28500 <s_box+0x128>
   14026:	6c4010ef          	jal	ra,156ea <printf>
   1402a:	0x6563977          	0x6563977
   1402e:	4aa5                	c.li	s5,9
   14030:	b3fd                	c.j	13e1e <decfile+0x74>
   14032:	0x63f977          	0x63f977
   14036:	6582                	c.ldsp	a1,0(sp)
   14038:	00028537          	lui	a0,0x28
   1403c:	4d850513          	addi	a0,a0,1240 # 284d8 <s_box+0x100>
   14040:	6aa010ef          	jal	ra,156ea <printf>
   14044:	0xbc70977          	0xbc70977
   14048:	5ad5                	c.li	s5,-11
   1404a:	bbd1                	c.j	13e1e <decfile+0x74>

000000000001404c <atexit>:
   1404c:	85aa                	c.mv	a1,a0
   1404e:	4681                	c.li	a3,0
   14050:	4601                	c.li	a2,0
   14052:	4501                	c.li	a0,0
   14054:	3000306f          	jal	zero,17354 <__register_exitproc>

0000000000014058 <exit>:
   14058:	1141                	c.addi	sp,-16
   1405a:	4581                	c.li	a1,0
   1405c:	e022                	c.sdsp	s0,0(sp)
   1405e:	e406                	c.sdsp	ra,8(sp)
   14060:	842a                	c.mv	s0,a0
   14062:	356030ef          	jal	ra,173b8 <__call_exitprocs>
   14066:	8381b503          	ld	a0,-1992(gp) # 2b4b8 <_global_impure_ptr>
   1406a:	6d3c                	c.ld	a5,88(a0)
   1406c:	c391                	c.beqz	a5,14070 <exit+0x18>
   1406e:	9782                	c.jalr	a5
   14070:	8522                	c.mv	a0,s0
   14072:	26b080ef          	jal	ra,1cadc <_exit>

0000000000014076 <_fclose_r>:
   14076:	1101                	c.addi	sp,-32
   14078:	ec06                	c.sdsp	ra,24(sp)
   1407a:	e822                	c.sdsp	s0,16(sp)
   1407c:	e426                	c.sdsp	s1,8(sp)
   1407e:	e04a                	c.sdsp	s2,0(sp)
   14080:	e989                	c.bnez	a1,14092 <_fclose_r+0x1c>
   14082:	4901                	c.li	s2,0
   14084:	60e2                	c.ldsp	ra,24(sp)
   14086:	6442                	c.ldsp	s0,16(sp)
   14088:	854a                	c.mv	a0,s2
   1408a:	64a2                	c.ldsp	s1,8(sp)
   1408c:	6902                	c.ldsp	s2,0(sp)
   1408e:	6105                	c.addi16sp	sp,32
   14090:	8082                	c.jr	ra
   14092:	84aa                	c.mv	s1,a0
   14094:	842e                	c.mv	s0,a1
   14096:	c509                	c.beqz	a0,140a0 <_fclose_r+0x2a>
   14098:	493c                	c.lw	a5,80(a0)
   1409a:	e399                	c.bnez	a5,140a0 <_fclose_r+0x2a>
   1409c:	312000ef          	jal	ra,143ae <__sinit>
   140a0:	01041783          	lh	a5,16(s0)
   140a4:	dff9                	c.beqz	a5,14082 <_fclose_r+0xc>
   140a6:	85a2                	c.mv	a1,s0
   140a8:	8526                	c.mv	a0,s1
   140aa:	064000ef          	jal	ra,1410e <__sflush_r>
   140ae:	683c                	c.ld	a5,80(s0)
   140b0:	892a                	c.mv	s2,a0
   140b2:	c799                	c.beqz	a5,140c0 <_fclose_r+0x4a>
   140b4:	780c                	c.ld	a1,48(s0)
   140b6:	8526                	c.mv	a0,s1
   140b8:	9782                	c.jalr	a5
   140ba:	00055363          	bge	a0,zero,140c0 <_fclose_r+0x4a>
   140be:	597d                	c.li	s2,-1
   140c0:	01045783          	lhu	a5,16(s0)
   140c4:	0807f793          	andi	a5,a5,128
   140c8:	c789                	c.beqz	a5,140d2 <_fclose_r+0x5c>
   140ca:	6c0c                	c.ld	a1,24(s0)
   140cc:	8526                	c.mv	a0,s1
   140ce:	676000ef          	jal	ra,14744 <_free_r>
   140d2:	6c2c                	c.ld	a1,88(s0)
   140d4:	c991                	c.beqz	a1,140e8 <_fclose_r+0x72>
   140d6:	07440793          	addi	a5,s0,116
   140da:	00f58563          	beq	a1,a5,140e4 <_fclose_r+0x6e>
   140de:	8526                	c.mv	a0,s1
   140e0:	664000ef          	jal	ra,14744 <_free_r>
   140e4:	04043c23          	sd	zero,88(s0)
   140e8:	7c2c                	c.ld	a1,120(s0)
   140ea:	c591                	c.beqz	a1,140f6 <_fclose_r+0x80>
   140ec:	8526                	c.mv	a0,s1
   140ee:	656000ef          	jal	ra,14744 <_free_r>
   140f2:	06043c23          	sd	zero,120(s0)
   140f6:	3a6000ef          	jal	ra,1449c <__sfp_lock_acquire>
   140fa:	00041823          	sh	zero,16(s0)
   140fe:	3a0000ef          	jal	ra,1449e <__sfp_lock_release>
   14102:	b749                	c.j	14084 <_fclose_r+0xe>

0000000000014104 <fclose>:
   14104:	85aa                	c.mv	a1,a0
   14106:	8401b503          	ld	a0,-1984(gp) # 2b4c0 <_impure_ptr>
   1410a:	f6dff06f          	jal	zero,14076 <_fclose_r>

000000000001410e <__sflush_r>:
   1410e:	01059783          	lh	a5,16(a1)
   14112:	7179                	c.addi16sp	sp,-48
   14114:	f022                	c.sdsp	s0,32(sp)
   14116:	03079713          	slli	a4,a5,0x30
   1411a:	9341                	c.srli	a4,0x30
   1411c:	ec26                	c.sdsp	s1,24(sp)
   1411e:	f406                	c.sdsp	ra,40(sp)
   14120:	e84a                	c.sdsp	s2,16(sp)
   14122:	e44e                	c.sdsp	s3,8(sp)
   14124:	00877693          	andi	a3,a4,8
   14128:	84aa                	c.mv	s1,a0
   1412a:	842e                	c.mv	s0,a1
   1412c:	10069063          	bne	a3,zero,1422c <__sflush_r+0x11e>
   14130:	6705                	c.lui	a4,0x1
   14132:	80070713          	addi	a4,a4,-2048 # 800 <main-0xf8b0>
   14136:	8fd9                	c.or	a5,a4
   14138:	4598                	c.lw	a4,8(a1)
   1413a:	00f59823          	sh	a5,16(a1)
   1413e:	00e04d63          	blt	zero,a4,14158 <__sflush_r+0x4a>
   14142:	59b8                	c.lw	a4,112(a1)
   14144:	00e04a63          	blt	zero,a4,14158 <__sflush_r+0x4a>
   14148:	4501                	c.li	a0,0
   1414a:	70a2                	c.ldsp	ra,40(sp)
   1414c:	7402                	c.ldsp	s0,32(sp)
   1414e:	64e2                	c.ldsp	s1,24(sp)
   14150:	6942                	c.ldsp	s2,16(sp)
   14152:	69a2                	c.ldsp	s3,8(sp)
   14154:	6145                	c.addi16sp	sp,48
   14156:	8082                	c.jr	ra
   14158:	6438                	c.ld	a4,72(s0)
   1415a:	d77d                	c.beqz	a4,14148 <__sflush_r+0x3a>
   1415c:	0004a903          	lw	s2,0(s1)
   14160:	03379693          	slli	a3,a5,0x33
   14164:	0004a023          	sw	zero,0(s1)
   14168:	780c                	c.ld	a1,48(s0)
   1416a:	0806d863          	bge	a3,zero,141fa <__sflush_r+0xec>
   1416e:	6850                	c.ld	a2,144(s0)
   14170:	01045783          	lhu	a5,16(s0)
   14174:	8b91                	c.andi	a5,4
   14176:	c799                	c.beqz	a5,14184 <__sflush_r+0x76>
   14178:	441c                	c.lw	a5,8(s0)
   1417a:	8e1d                	c.sub	a2,a5
   1417c:	6c3c                	c.ld	a5,88(s0)
   1417e:	c399                	c.beqz	a5,14184 <__sflush_r+0x76>
   14180:	583c                	c.lw	a5,112(s0)
   14182:	8e1d                	c.sub	a2,a5
   14184:	643c                	c.ld	a5,72(s0)
   14186:	780c                	c.ld	a1,48(s0)
   14188:	4681                	c.li	a3,0
   1418a:	8526                	c.mv	a0,s1
   1418c:	9782                	c.jalr	a5
   1418e:	57fd                	c.li	a5,-1
   14190:	01045683          	lhu	a3,16(s0)
   14194:	00f51d63          	bne	a0,a5,141ae <__sflush_r+0xa0>
   14198:	409c                	c.lw	a5,0(s1)
   1419a:	4775                	c.li	a4,29
   1419c:	08f76263          	bltu	a4,a5,14220 <__sflush_r+0x112>
   141a0:	20400737          	lui	a4,0x20400
   141a4:	0705                	c.addi	a4,1
   141a6:	00f75733          	srl	a4,a4,a5
   141aa:	8b05                	c.andi	a4,1
   141ac:	cb35                	c.beqz	a4,14220 <__sflush_r+0x112>
   141ae:	77fd                	c.lui	a5,0xfffff
   141b0:	7ff78793          	addi	a5,a5,2047 # fffffffffffff7ff <__global_pointer$+0xfffffffffffd3b7f>
   141b4:	6c18                	c.ld	a4,24(s0)
   141b6:	8ff5                	c.and	a5,a3
   141b8:	0107979b          	slliw	a5,a5,0x10
   141bc:	4107d79b          	sraiw	a5,a5,0x10
   141c0:	e018                	c.sd	a4,0(s0)
   141c2:	00f41823          	sh	a5,16(s0)
   141c6:	00042423          	sw	zero,8(s0)
   141ca:	03379713          	slli	a4,a5,0x33
   141ce:	00075863          	bge	a4,zero,141de <__sflush_r+0xd0>
   141d2:	57fd                	c.li	a5,-1
   141d4:	00f51463          	bne	a0,a5,141dc <__sflush_r+0xce>
   141d8:	409c                	c.lw	a5,0(s1)
   141da:	e391                	c.bnez	a5,141de <__sflush_r+0xd0>
   141dc:	e848                	c.sd	a0,144(s0)
   141de:	6c2c                	c.ld	a1,88(s0)
   141e0:	0124a023          	sw	s2,0(s1)
   141e4:	d1b5                	c.beqz	a1,14148 <__sflush_r+0x3a>
   141e6:	07440793          	addi	a5,s0,116
   141ea:	00f58563          	beq	a1,a5,141f4 <__sflush_r+0xe6>
   141ee:	8526                	c.mv	a0,s1
   141f0:	554000ef          	jal	ra,14744 <_free_r>
   141f4:	04043c23          	sd	zero,88(s0)
   141f8:	bf81                	c.j	14148 <__sflush_r+0x3a>
   141fa:	4601                	c.li	a2,0
   141fc:	4685                	c.li	a3,1
   141fe:	8526                	c.mv	a0,s1
   14200:	9702                	c.jalr	a4
   14202:	57fd                	c.li	a5,-1
   14204:	862a                	c.mv	a2,a0
   14206:	f6f515e3          	bne	a0,a5,14170 <__sflush_r+0x62>
   1420a:	409c                	c.lw	a5,0(s1)
   1420c:	d3b5                	c.beqz	a5,14170 <__sflush_r+0x62>
   1420e:	4775                	c.li	a4,29
   14210:	00e78563          	beq	a5,a4,1421a <__sflush_r+0x10c>
   14214:	4759                	c.li	a4,22
   14216:	04e79463          	bne	a5,a4,1425e <__sflush_r+0x150>
   1421a:	0124a023          	sw	s2,0(s1)
   1421e:	b72d                	c.j	14148 <__sflush_r+0x3a>
   14220:	0406e793          	ori	a5,a3,64
   14224:	00f41823          	sh	a5,16(s0)
   14228:	557d                	c.li	a0,-1
   1422a:	b705                	c.j	1414a <__sflush_r+0x3c>
   1422c:	0185b983          	ld	s3,24(a1)
   14230:	f0098ce3          	beq	s3,zero,14148 <__sflush_r+0x3a>
   14234:	0005b903          	ld	s2,0(a1)
   14238:	8b0d                	c.andi	a4,3
   1423a:	0135b023          	sd	s3,0(a1)
   1423e:	4139093b          	subw	s2,s2,s3
   14242:	4781                	c.li	a5,0
   14244:	e311                	c.bnez	a4,14248 <__sflush_r+0x13a>
   14246:	519c                	c.lw	a5,32(a1)
   14248:	c45c                	c.sw	a5,12(s0)
   1424a:	ef205fe3          	bge	zero,s2,14148 <__sflush_r+0x3a>
   1424e:	603c                	c.ld	a5,64(s0)
   14250:	780c                	c.ld	a1,48(s0)
   14252:	86ca                	c.mv	a3,s2
   14254:	864e                	c.mv	a2,s3
   14256:	8526                	c.mv	a0,s1
   14258:	9782                	c.jalr	a5
   1425a:	00a04763          	blt	zero,a0,14268 <__sflush_r+0x15a>
   1425e:	01045783          	lhu	a5,16(s0)
   14262:	0407e793          	ori	a5,a5,64
   14266:	bf7d                	c.j	14224 <__sflush_r+0x116>
   14268:	99aa                	c.add	s3,a0
   1426a:	40a9093b          	subw	s2,s2,a0
   1426e:	bff1                	c.j	1424a <__sflush_r+0x13c>

0000000000014270 <_fflush_r>:
   14270:	1101                	c.addi	sp,-32
   14272:	e822                	c.sdsp	s0,16(sp)
   14274:	ec06                	c.sdsp	ra,24(sp)
   14276:	842a                	c.mv	s0,a0
   14278:	c519                	c.beqz	a0,14286 <_fflush_r+0x16>
   1427a:	493c                	c.lw	a5,80(a0)
   1427c:	e789                	c.bnez	a5,14286 <_fflush_r+0x16>
   1427e:	e42e                	c.sdsp	a1,8(sp)
   14280:	12e000ef          	jal	ra,143ae <__sinit>
   14284:	65a2                	c.ldsp	a1,8(sp)
   14286:	01059783          	lh	a5,16(a1)
   1428a:	c799                	c.beqz	a5,14298 <_fflush_r+0x28>
   1428c:	8522                	c.mv	a0,s0
   1428e:	6442                	c.ldsp	s0,16(sp)
   14290:	60e2                	c.ldsp	ra,24(sp)
   14292:	6105                	c.addi16sp	sp,32
   14294:	e7bff06f          	jal	zero,1410e <__sflush_r>
   14298:	60e2                	c.ldsp	ra,24(sp)
   1429a:	6442                	c.ldsp	s0,16(sp)
   1429c:	4501                	c.li	a0,0
   1429e:	6105                	c.addi16sp	sp,32
   142a0:	8082                	c.jr	ra

00000000000142a2 <fflush>:
   142a2:	85aa                	c.mv	a1,a0
   142a4:	e909                	c.bnez	a0,142b6 <fflush+0x14>
   142a6:	8381b503          	ld	a0,-1992(gp) # 2b4b8 <_global_impure_ptr>
   142aa:	000145b7          	lui	a1,0x14
   142ae:	27058593          	addi	a1,a1,624 # 14270 <_fflush_r>
   142b2:	2530006f          	jal	zero,14d04 <_fwalk_reent>
   142b6:	8401b503          	ld	a0,-1984(gp) # 2b4c0 <_impure_ptr>
   142ba:	fb7ff06f          	jal	zero,14270 <_fflush_r>

00000000000142be <_fgetpos_r>:
   142be:	1101                	c.addi	sp,-32
   142c0:	ec06                	c.sdsp	ra,24(sp)
   142c2:	e432                	c.sdsp	a2,8(sp)
   142c4:	141000ef          	jal	ra,14c04 <_ftell_r>
   142c8:	6622                	c.ldsp	a2,8(sp)
   142ca:	60e2                	c.ldsp	ra,24(sp)
   142cc:	e208                	c.sd	a0,0(a2)
   142ce:	0505                	c.addi	a0,1
   142d0:	00153513          	sltiu	a0,a0,1
   142d4:	6105                	c.addi16sp	sp,32
   142d6:	8082                	c.jr	ra

00000000000142d8 <fgetpos>:
   142d8:	862e                	c.mv	a2,a1
   142da:	85aa                	c.mv	a1,a0
   142dc:	8401b503          	ld	a0,-1984(gp) # 2b4c0 <_impure_ptr>
   142e0:	fdfff06f          	jal	zero,142be <_fgetpos_r>

00000000000142e4 <__fp_lock>:
   142e4:	4501                	c.li	a0,0
   142e6:	8082                	c.jr	ra

00000000000142e8 <_cleanup_r>:
   142e8:	000145b7          	lui	a1,0x14
   142ec:	07658593          	addi	a1,a1,118 # 14076 <_fclose_r>
   142f0:	2150006f          	jal	zero,14d04 <_fwalk_reent>

00000000000142f4 <std.isra.0>:
   142f4:	1141                	c.addi	sp,-16
   142f6:	e022                	c.sdsp	s0,0(sp)
   142f8:	e406                	c.sdsp	ra,8(sp)
   142fa:	842a                	c.mv	s0,a0
   142fc:	00b51823          	sh	a1,16(a0)
   14300:	00c51923          	sh	a2,18(a0)
   14304:	00053023          	sd	zero,0(a0)
   14308:	00053423          	sd	zero,8(a0)
   1430c:	0a052623          	sw	zero,172(a0)
   14310:	00053c23          	sd	zero,24(a0)
   14314:	02052023          	sw	zero,32(a0)
   14318:	02052423          	sw	zero,40(a0)
   1431c:	4621                	c.li	a2,8
   1431e:	4581                	c.li	a1,0
   14320:	0a450513          	addi	a0,a0,164
   14324:	2c6010ef          	jal	ra,155ea <memset>
   14328:	000167b7          	lui	a5,0x16
   1432c:	9ea78793          	addi	a5,a5,-1558 # 159ea <__sread>
   14330:	fc1c                	c.sd	a5,56(s0)
   14332:	000167b7          	lui	a5,0x16
   14336:	a2078793          	addi	a5,a5,-1504 # 15a20 <__swrite>
   1433a:	e03c                	c.sd	a5,64(s0)
   1433c:	000167b7          	lui	a5,0x16
   14340:	a7278793          	addi	a5,a5,-1422 # 15a72 <__sseek>
   14344:	e43c                	c.sd	a5,72(s0)
   14346:	000167b7          	lui	a5,0x16
   1434a:	aaa78793          	addi	a5,a5,-1366 # 15aaa <__sclose>
   1434e:	f800                	c.sd	s0,48(s0)
   14350:	e83c                	c.sd	a5,80(s0)
   14352:	60a2                	c.ldsp	ra,8(sp)
   14354:	6402                	c.ldsp	s0,0(sp)
   14356:	0141                	c.addi	sp,16
   14358:	8082                	c.jr	ra

000000000001435a <__fp_unlock>:
   1435a:	4501                	c.li	a0,0
   1435c:	8082                	c.jr	ra

000000000001435e <__sfmoreglue>:
   1435e:	1101                	c.addi	sp,-32
   14360:	e426                	c.sdsp	s1,8(sp)
   14362:	0b000613          	addi	a2,zero,176
   14366:	fff5849b          	addiw	s1,a1,-1
   1436a:	02c484b3          	mul	s1,s1,a2
   1436e:	e04a                	c.sdsp	s2,0(sp)
   14370:	892e                	c.mv	s2,a1
   14372:	e822                	c.sdsp	s0,16(sp)
   14374:	ec06                	c.sdsp	ra,24(sp)
   14376:	0c848593          	addi	a1,s1,200
   1437a:	47b000ef          	jal	ra,14ff4 <_malloc_r>
   1437e:	842a                	c.mv	s0,a0
   14380:	cd01                	c.beqz	a0,14398 <__sfmoreglue+0x3a>
   14382:	00053023          	sd	zero,0(a0)
   14386:	01252423          	sw	s2,8(a0)
   1438a:	0561                	c.addi	a0,24
   1438c:	e808                	c.sd	a0,16(s0)
   1438e:	0b048613          	addi	a2,s1,176
   14392:	4581                	c.li	a1,0
   14394:	256010ef          	jal	ra,155ea <memset>
   14398:	8522                	c.mv	a0,s0
   1439a:	60e2                	c.ldsp	ra,24(sp)
   1439c:	6442                	c.ldsp	s0,16(sp)
   1439e:	64a2                	c.ldsp	s1,8(sp)
   143a0:	6902                	c.ldsp	s2,0(sp)
   143a2:	6105                	c.addi16sp	sp,32
   143a4:	8082                	c.jr	ra

00000000000143a6 <_cleanup>:
   143a6:	8381b503          	ld	a0,-1992(gp) # 2b4b8 <_global_impure_ptr>
   143aa:	f3fff06f          	jal	zero,142e8 <_cleanup_r>

00000000000143ae <__sinit>:
   143ae:	493c                	c.lw	a5,80(a0)
   143b0:	eba1                	c.bnez	a5,14400 <__sinit+0x52>
   143b2:	1141                	c.addi	sp,-16
   143b4:	000147b7          	lui	a5,0x14
   143b8:	e406                	c.sdsp	ra,8(sp)
   143ba:	e022                	c.sdsp	s0,0(sp)
   143bc:	2e878793          	addi	a5,a5,744 # 142e8 <_cleanup_r>
   143c0:	ed3c                	c.sd	a5,88(a0)
   143c2:	478d                	c.li	a5,3
   143c4:	52f52423          	sw	a5,1320(a0)
   143c8:	53850793          	addi	a5,a0,1336
   143cc:	842a                	c.mv	s0,a0
   143ce:	52f53823          	sd	a5,1328(a0)
   143d2:	52053023          	sd	zero,1312(a0)
   143d6:	6508                	c.ld	a0,8(a0)
   143d8:	4601                	c.li	a2,0
   143da:	4591                	c.li	a1,4
   143dc:	f19ff0ef          	jal	ra,142f4 <std.isra.0>
   143e0:	6808                	c.ld	a0,16(s0)
   143e2:	4605                	c.li	a2,1
   143e4:	45a5                	c.li	a1,9
   143e6:	f0fff0ef          	jal	ra,142f4 <std.isra.0>
   143ea:	6c08                	c.ld	a0,24(s0)
   143ec:	4609                	c.li	a2,2
   143ee:	45c9                	c.li	a1,18
   143f0:	f05ff0ef          	jal	ra,142f4 <std.isra.0>
   143f4:	4785                	c.li	a5,1
   143f6:	c83c                	c.sw	a5,80(s0)
   143f8:	60a2                	c.ldsp	ra,8(sp)
   143fa:	6402                	c.ldsp	s0,0(sp)
   143fc:	0141                	c.addi	sp,16
   143fe:	8082                	c.jr	ra
   14400:	8082                	c.jr	ra

0000000000014402 <__sfp>:
   14402:	1101                	c.addi	sp,-32
   14404:	e426                	c.sdsp	s1,8(sp)
   14406:	8381b483          	ld	s1,-1992(gp) # 2b4b8 <_global_impure_ptr>
   1440a:	e04a                	c.sdsp	s2,0(sp)
   1440c:	ec06                	c.sdsp	ra,24(sp)
   1440e:	48bc                	c.lw	a5,80(s1)
   14410:	e822                	c.sdsp	s0,16(sp)
   14412:	892a                	c.mv	s2,a0
   14414:	e781                	c.bnez	a5,1441c <__sfp+0x1a>
   14416:	8526                	c.mv	a0,s1
   14418:	f97ff0ef          	jal	ra,143ae <__sinit>
   1441c:	52048493          	addi	s1,s1,1312
   14420:	6880                	c.ld	s0,16(s1)
   14422:	449c                	c.lw	a5,8(s1)
   14424:	37fd                	c.addiw	a5,-1
   14426:	0007d663          	bge	a5,zero,14432 <__sfp+0x30>
   1442a:	609c                	c.ld	a5,0(s1)
   1442c:	cb89                	c.beqz	a5,1443e <__sfp+0x3c>
   1442e:	6084                	c.ld	s1,0(s1)
   14430:	bfc5                	c.j	14420 <__sfp+0x1e>
   14432:	01041703          	lh	a4,16(s0)
   14436:	c70d                	c.beqz	a4,14460 <__sfp+0x5e>
   14438:	0b040413          	addi	s0,s0,176
   1443c:	b7e5                	c.j	14424 <__sfp+0x22>
   1443e:	4591                	c.li	a1,4
   14440:	854a                	c.mv	a0,s2
   14442:	f1dff0ef          	jal	ra,1435e <__sfmoreglue>
   14446:	e088                	c.sd	a0,0(s1)
   14448:	f17d                	c.bnez	a0,1442e <__sfp+0x2c>
   1444a:	47b1                	c.li	a5,12
   1444c:	00f92023          	sw	a5,0(s2)
   14450:	4401                	c.li	s0,0
   14452:	8522                	c.mv	a0,s0
   14454:	60e2                	c.ldsp	ra,24(sp)
   14456:	6442                	c.ldsp	s0,16(sp)
   14458:	64a2                	c.ldsp	s1,8(sp)
   1445a:	6902                	c.ldsp	s2,0(sp)
   1445c:	6105                	c.addi16sp	sp,32
   1445e:	8082                	c.jr	ra
   14460:	77c1                	c.lui	a5,0xffff0
   14462:	2785                	c.addiw	a5,1
   14464:	0a042623          	sw	zero,172(s0)
   14468:	00043023          	sd	zero,0(s0)
   1446c:	00043423          	sd	zero,8(s0)
   14470:	c81c                	c.sw	a5,16(s0)
   14472:	00043c23          	sd	zero,24(s0)
   14476:	02042023          	sw	zero,32(s0)
   1447a:	02042423          	sw	zero,40(s0)
   1447e:	4621                	c.li	a2,8
   14480:	4581                	c.li	a1,0
   14482:	0a440513          	addi	a0,s0,164
   14486:	164010ef          	jal	ra,155ea <memset>
   1448a:	04043c23          	sd	zero,88(s0)
   1448e:	06042023          	sw	zero,96(s0)
   14492:	06043c23          	sd	zero,120(s0)
   14496:	08042023          	sw	zero,128(s0)
   1449a:	bf65                	c.j	14452 <__sfp+0x50>

000000000001449c <__sfp_lock_acquire>:
   1449c:	8082                	c.jr	ra

000000000001449e <__sfp_lock_release>:
   1449e:	8082                	c.jr	ra

00000000000144a0 <__sinit_lock_acquire>:
   144a0:	8082                	c.jr	ra

00000000000144a2 <__sinit_lock_release>:
   144a2:	8082                	c.jr	ra

00000000000144a4 <__fp_lock_all>:
   144a4:	8401b503          	ld	a0,-1984(gp) # 2b4c0 <_impure_ptr>
   144a8:	000145b7          	lui	a1,0x14
   144ac:	2e458593          	addi	a1,a1,740 # 142e4 <__fp_lock>
   144b0:	7f00006f          	jal	zero,14ca0 <_fwalk>

00000000000144b4 <__fp_unlock_all>:
   144b4:	8401b503          	ld	a0,-1984(gp) # 2b4c0 <_impure_ptr>
   144b8:	000145b7          	lui	a1,0x14
   144bc:	35a58593          	addi	a1,a1,858 # 1435a <__fp_unlock>
   144c0:	7e00006f          	jal	zero,14ca0 <_fwalk>

00000000000144c4 <__libc_fini_array>:
   144c4:	7179                	c.addi16sp	sp,-48
   144c6:	0002a7b7          	lui	a5,0x2a
   144ca:	0002a737          	lui	a4,0x2a
   144ce:	f022                	c.sdsp	s0,32(sp)
   144d0:	37870713          	addi	a4,a4,888 # 2a378 <__init_array_end>
   144d4:	38078413          	addi	s0,a5,896 # 2a380 <__fini_array_end>
   144d8:	8c19                	c.sub	s0,a4
   144da:	ec26                	c.sdsp	s1,24(sp)
   144dc:	e84a                	c.sdsp	s2,16(sp)
   144de:	e44e                	c.sdsp	s3,8(sp)
   144e0:	f406                	c.sdsp	ra,40(sp)
   144e2:	840d                	c.srai	s0,0x3
   144e4:	4481                	c.li	s1,0
   144e6:	38078913          	addi	s2,a5,896
   144ea:	59e1                	c.li	s3,-8
   144ec:	00941a63          	bne	s0,s1,14500 <__libc_fini_array+0x3c>
   144f0:	7402                	c.ldsp	s0,32(sp)
   144f2:	70a2                	c.ldsp	ra,40(sp)
   144f4:	64e2                	c.ldsp	s1,24(sp)
   144f6:	6942                	c.ldsp	s2,16(sp)
   144f8:	69a2                	c.ldsp	s3,8(sp)
   144fa:	6145                	c.addi16sp	sp,48
   144fc:	f27fb06f          	jal	zero,10422 <_fini>
   14500:	033487b3          	mul	a5,s1,s3
   14504:	0485                	c.addi	s1,1
   14506:	97ca                	c.add	a5,s2
   14508:	ff87b783          	ld	a5,-8(a5)
   1450c:	9782                	c.jalr	a5
   1450e:	bff9                	c.j	144ec <__libc_fini_array+0x28>

0000000000014510 <_fopen_r>:
   14510:	7139                	c.addi16sp	sp,-64
   14512:	ec4e                	c.sdsp	s3,24(sp)
   14514:	89ae                	c.mv	s3,a1
   14516:	85b2                	c.mv	a1,a2
   14518:	0070                	c.addi4spn	a2,sp,12
   1451a:	f04a                	c.sdsp	s2,32(sp)
   1451c:	fc06                	c.sdsp	ra,56(sp)
   1451e:	f822                	c.sdsp	s0,48(sp)
   14520:	f426                	c.sdsp	s1,40(sp)
   14522:	892a                	c.mv	s2,a0
   14524:	76f020ef          	jal	ra,17492 <__sflags>
   14528:	e911                	c.bnez	a0,1453c <_fopen_r+0x2c>
   1452a:	4401                	c.li	s0,0
   1452c:	8522                	c.mv	a0,s0
   1452e:	70e2                	c.ldsp	ra,56(sp)
   14530:	7442                	c.ldsp	s0,48(sp)
   14532:	74a2                	c.ldsp	s1,40(sp)
   14534:	7902                	c.ldsp	s2,32(sp)
   14536:	69e2                	c.ldsp	s3,24(sp)
   14538:	6121                	c.addi16sp	sp,64
   1453a:	8082                	c.jr	ra
   1453c:	84aa                	c.mv	s1,a0
   1453e:	854a                	c.mv	a0,s2
   14540:	ec3ff0ef          	jal	ra,14402 <__sfp>
   14544:	842a                	c.mv	s0,a0
   14546:	d175                	c.beqz	a0,1452a <_fopen_r+0x1a>
   14548:	4632                	c.lwsp	a2,12(sp)
   1454a:	1b600693          	addi	a3,zero,438
   1454e:	85ce                	c.mv	a1,s3
   14550:	854a                	c.mv	a0,s2
   14552:	146010ef          	jal	ra,15698 <_open_r>
   14556:	00055963          	bge	a0,zero,14568 <_fopen_r+0x58>
   1455a:	f43ff0ef          	jal	ra,1449c <__sfp_lock_acquire>
   1455e:	00041823          	sh	zero,16(s0)
   14562:	f3dff0ef          	jal	ra,1449e <__sfp_lock_release>
   14566:	b7d1                	c.j	1452a <_fopen_r+0x1a>
   14568:	000167b7          	lui	a5,0x16
   1456c:	9ea78793          	addi	a5,a5,-1558 # 159ea <__sread>
   14570:	fc1c                	c.sd	a5,56(s0)
   14572:	000167b7          	lui	a5,0x16
   14576:	a2078793          	addi	a5,a5,-1504 # 15a20 <__swrite>
   1457a:	e03c                	c.sd	a5,64(s0)
   1457c:	000167b7          	lui	a5,0x16
   14580:	a7278793          	addi	a5,a5,-1422 # 15a72 <__sseek>
   14584:	e43c                	c.sd	a5,72(s0)
   14586:	000167b7          	lui	a5,0x16
   1458a:	aaa78793          	addi	a5,a5,-1366 # 15aaa <__sclose>
   1458e:	00941823          	sh	s1,16(s0)
   14592:	00a41923          	sh	a0,18(s0)
   14596:	f800                	c.sd	s0,48(s0)
   14598:	e83c                	c.sd	a5,80(s0)
   1459a:	1004f493          	andi	s1,s1,256
   1459e:	d4d9                	c.beqz	s1,1452c <_fopen_r+0x1c>
   145a0:	4689                	c.li	a3,2
   145a2:	4601                	c.li	a2,0
   145a4:	85a2                	c.mv	a1,s0
   145a6:	854a                	c.mv	a0,s2
   145a8:	354000ef          	jal	ra,148fc <_fseek_r>
   145ac:	b741                	c.j	1452c <_fopen_r+0x1c>

00000000000145ae <fopen>:
   145ae:	862e                	c.mv	a2,a1
   145b0:	85aa                	c.mv	a1,a0
   145b2:	8401b503          	ld	a0,-1984(gp) # 2b4c0 <_impure_ptr>
   145b6:	f5bff06f          	jal	zero,14510 <_fopen_r>

00000000000145ba <_fread_r>:
   145ba:	715d                	c.addi16sp	sp,-80
   145bc:	fc26                	c.sdsp	s1,56(sp)
   145be:	02c684b3          	mul	s1,a3,a2
   145c2:	e486                	c.sdsp	ra,72(sp)
   145c4:	e0a2                	c.sdsp	s0,64(sp)
   145c6:	f84a                	c.sdsp	s2,48(sp)
   145c8:	f44e                	c.sdsp	s3,40(sp)
   145ca:	f052                	c.sdsp	s4,32(sp)
   145cc:	ec56                	c.sdsp	s5,24(sp)
   145ce:	e85a                	c.sdsp	s6,16(sp)
   145d0:	e45e                	c.sdsp	s7,8(sp)
   145d2:	c4d9                	c.beqz	s1,14660 <_fread_r+0xa6>
   145d4:	8b2a                	c.mv	s6,a0
   145d6:	8a2e                	c.mv	s4,a1
   145d8:	8bb2                	c.mv	s7,a2
   145da:	8ab6                	c.mv	s5,a3
   145dc:	843a                	c.mv	s0,a4
   145de:	c509                	c.beqz	a0,145e8 <_fread_r+0x2e>
   145e0:	493c                	c.lw	a5,80(a0)
   145e2:	e399                	c.bnez	a5,145e8 <_fread_r+0x2e>
   145e4:	dcbff0ef          	jal	ra,143ae <__sinit>
   145e8:	01041783          	lh	a5,16(s0)
   145ec:	03279713          	slli	a4,a5,0x32
   145f0:	00074d63          	blt	a4,zero,1460a <_fread_r+0x50>
   145f4:	6689                	c.lui	a3,0x2
   145f6:	0ac42703          	lw	a4,172(s0)
   145fa:	8fd5                	c.or	a5,a3
   145fc:	00f41823          	sh	a5,16(s0)
   14600:	77f9                	c.lui	a5,0xffffe
   14602:	17fd                	c.addi	a5,-1
   14604:	8ff9                	c.and	a5,a4
   14606:	0af42623          	sw	a5,172(s0)
   1460a:	441c                	c.lw	a5,8(s0)
   1460c:	0007d463          	bge	a5,zero,14614 <_fread_r+0x5a>
   14610:	00042423          	sw	zero,8(s0)
   14614:	8926                	c.mv	s2,s1
   14616:	00842983          	lw	s3,8(s0)
   1461a:	600c                	c.ld	a1,0(s0)
   1461c:	0129ef63          	bltu	s3,s2,1463a <_fread_r+0x80>
   14620:	864a                	c.mv	a2,s2
   14622:	8552                	c.mv	a0,s4
   14624:	709000ef          	jal	ra,1552c <memcpy>
   14628:	441c                	c.lw	a5,8(s0)
   1462a:	6004                	c.ld	s1,0(s0)
   1462c:	412787bb          	subw	a5,a5,s2
   14630:	94ca                	c.add	s1,s2
   14632:	e004                	c.sd	s1,0(s0)
   14634:	c41c                	c.sw	a5,8(s0)
   14636:	84d6                	c.mv	s1,s5
   14638:	a025                	c.j	14660 <_fread_r+0xa6>
   1463a:	8552                	c.mv	a0,s4
   1463c:	864e                	c.mv	a2,s3
   1463e:	6ef000ef          	jal	ra,1552c <memcpy>
   14642:	601c                	c.ld	a5,0(s0)
   14644:	85a2                	c.mv	a1,s0
   14646:	855a                	c.mv	a0,s6
   14648:	97ce                	c.add	a5,s3
   1464a:	e01c                	c.sd	a5,0(s0)
   1464c:	9a4e                	c.add	s4,s3
   1464e:	41390933          	sub	s2,s2,s3
   14652:	224010ef          	jal	ra,15876 <__srefill_r>
   14656:	d161                	c.beqz	a0,14616 <_fread_r+0x5c>
   14658:	412484b3          	sub	s1,s1,s2
   1465c:	0374d4b3          	divu	s1,s1,s7
   14660:	60a6                	c.ldsp	ra,72(sp)
   14662:	6406                	c.ldsp	s0,64(sp)
   14664:	8526                	c.mv	a0,s1
   14666:	7942                	c.ldsp	s2,48(sp)
   14668:	74e2                	c.ldsp	s1,56(sp)
   1466a:	79a2                	c.ldsp	s3,40(sp)
   1466c:	7a02                	c.ldsp	s4,32(sp)
   1466e:	6ae2                	c.ldsp	s5,24(sp)
   14670:	6b42                	c.ldsp	s6,16(sp)
   14672:	6ba2                	c.ldsp	s7,8(sp)
   14674:	6161                	c.addi16sp	sp,80
   14676:	8082                	c.jr	ra

0000000000014678 <fread>:
   14678:	8736                	c.mv	a4,a3
   1467a:	86b2                	c.mv	a3,a2
   1467c:	862e                	c.mv	a2,a1
   1467e:	85aa                	c.mv	a1,a0
   14680:	8401b503          	ld	a0,-1984(gp) # 2b4c0 <_impure_ptr>
   14684:	f37ff06f          	jal	zero,145ba <_fread_r>

0000000000014688 <_malloc_trim_r>:
   14688:	7139                	c.addi16sp	sp,-64
   1468a:	f04a                	c.sdsp	s2,32(sp)
   1468c:	0002b937          	lui	s2,0x2b
   14690:	f822                	c.sdsp	s0,48(sp)
   14692:	f426                	c.sdsp	s1,40(sp)
   14694:	ec4e                	c.sdsp	s3,24(sp)
   14696:	e42e                	c.sdsp	a1,8(sp)
   14698:	fc06                	c.sdsp	ra,56(sp)
   1469a:	89aa                	c.mv	s3,a0
   1469c:	c7090913          	addi	s2,s2,-912 # 2ac70 <__malloc_av_>
   146a0:	7f5000ef          	jal	ra,15694 <__malloc_lock>
   146a4:	01093783          	ld	a5,16(s2)
   146a8:	65a2                	c.ldsp	a1,8(sp)
   146aa:	6784                	c.ld	s1,8(a5)
   146ac:	6785                	c.lui	a5,0x1
   146ae:	fdf78413          	addi	s0,a5,-33 # fdf <main-0xf0d1>
   146b2:	98f1                	c.andi	s1,-4
   146b4:	8c0d                	c.sub	s0,a1
   146b6:	9426                	c.add	s0,s1
   146b8:	8031                	c.srli	s0,0xc
   146ba:	147d                	c.addi	s0,-1
   146bc:	0432                	c.slli	s0,0xc
   146be:	00f45d63          	bge	s0,a5,146d8 <_malloc_trim_r+0x50>
   146c2:	854e                	c.mv	a0,s3
   146c4:	7d3000ef          	jal	ra,15696 <__malloc_unlock>
   146c8:	4501                	c.li	a0,0
   146ca:	70e2                	c.ldsp	ra,56(sp)
   146cc:	7442                	c.ldsp	s0,48(sp)
   146ce:	74a2                	c.ldsp	s1,40(sp)
   146d0:	7902                	c.ldsp	s2,32(sp)
   146d2:	69e2                	c.ldsp	s3,24(sp)
   146d4:	6121                	c.addi16sp	sp,64
   146d6:	8082                	c.jr	ra
   146d8:	4581                	c.li	a1,0
   146da:	854e                	c.mv	a0,s3
   146dc:	2e2010ef          	jal	ra,159be <_sbrk_r>
   146e0:	01093783          	ld	a5,16(s2)
   146e4:	97a6                	c.add	a5,s1
   146e6:	fcf51ee3          	bne	a0,a5,146c2 <_malloc_trim_r+0x3a>
   146ea:	408005b3          	sub	a1,zero,s0
   146ee:	854e                	c.mv	a0,s3
   146f0:	2ce010ef          	jal	ra,159be <_sbrk_r>
   146f4:	57fd                	c.li	a5,-1
   146f6:	02f51663          	bne	a0,a5,14722 <_malloc_trim_r+0x9a>
   146fa:	4581                	c.li	a1,0
   146fc:	854e                	c.mv	a0,s3
   146fe:	2c0010ef          	jal	ra,159be <_sbrk_r>
   14702:	01093703          	ld	a4,16(s2)
   14706:	46fd                	c.li	a3,31
   14708:	40e507b3          	sub	a5,a0,a4
   1470c:	faf6dbe3          	bge	a3,a5,146c2 <_malloc_trim_r+0x3a>
   14710:	8481b683          	ld	a3,-1976(gp) # 2b4c8 <__malloc_sbrk_base>
   14714:	0017e793          	ori	a5,a5,1
   14718:	e71c                	c.sd	a5,8(a4)
   1471a:	8d15                	c.sub	a0,a3
   1471c:	8ca1a823          	sw	a0,-1840(gp) # 2b550 <__malloc_current_mallinfo>
   14720:	b74d                	c.j	146c2 <_malloc_trim_r+0x3a>
   14722:	01093783          	ld	a5,16(s2)
   14726:	8c81                	c.sub	s1,s0
   14728:	0014e493          	ori	s1,s1,1
   1472c:	e784                	c.sd	s1,8(a5)
   1472e:	8d01a783          	lw	a5,-1840(gp) # 2b550 <__malloc_current_mallinfo>
   14732:	854e                	c.mv	a0,s3
   14734:	4087843b          	subw	s0,a5,s0
   14738:	8c81a823          	sw	s0,-1840(gp) # 2b550 <__malloc_current_mallinfo>
   1473c:	75b000ef          	jal	ra,15696 <__malloc_unlock>
   14740:	4505                	c.li	a0,1
   14742:	b761                	c.j	146ca <_malloc_trim_r+0x42>

0000000000014744 <_free_r>:
   14744:	1a058b63          	beq	a1,zero,148fa <_free_r+0x1b6>
   14748:	1101                	c.addi	sp,-32
   1474a:	e822                	c.sdsp	s0,16(sp)
   1474c:	e426                	c.sdsp	s1,8(sp)
   1474e:	842a                	c.mv	s0,a0
   14750:	84ae                	c.mv	s1,a1
   14752:	ec06                	c.sdsp	ra,24(sp)
   14754:	741000ef          	jal	ra,15694 <__malloc_lock>
   14758:	ff84b503          	ld	a0,-8(s1)
   1475c:	0002b637          	lui	a2,0x2b
   14760:	ff048693          	addi	a3,s1,-16
   14764:	ffe57793          	andi	a5,a0,-2
   14768:	c7060813          	addi	a6,a2,-912 # 2ac70 <__malloc_av_>
   1476c:	00f685b3          	add	a1,a3,a5
   14770:	6598                	c.ld	a4,8(a1)
   14772:	01083803          	ld	a6,16(a6)
   14776:	c7060613          	addi	a2,a2,-912
   1477a:	9b71                	c.andi	a4,-4
   1477c:	8905                	c.andi	a0,1
   1477e:	04b81063          	bne	a6,a1,147be <_free_r+0x7a>
   14782:	97ba                	c.add	a5,a4
   14784:	e909                	c.bnez	a0,14796 <_free_r+0x52>
   14786:	ff04b703          	ld	a4,-16(s1)
   1478a:	8e99                	c.sub	a3,a4
   1478c:	6a8c                	c.ld	a1,16(a3)
   1478e:	97ba                	c.add	a5,a4
   14790:	6e98                	c.ld	a4,24(a3)
   14792:	ed98                	c.sd	a4,24(a1)
   14794:	eb0c                	c.sd	a1,16(a4)
   14796:	0017e713          	ori	a4,a5,1
   1479a:	e698                	c.sd	a4,8(a3)
   1479c:	8501b703          	ld	a4,-1968(gp) # 2b4d0 <__malloc_trim_threshold>
   147a0:	ea14                	c.sd	a3,16(a2)
   147a2:	00e7e763          	bltu	a5,a4,147b0 <_free_r+0x6c>
   147a6:	8781b583          	ld	a1,-1928(gp) # 2b4f8 <__malloc_top_pad>
   147aa:	8522                	c.mv	a0,s0
   147ac:	eddff0ef          	jal	ra,14688 <_malloc_trim_r>
   147b0:	8522                	c.mv	a0,s0
   147b2:	6442                	c.ldsp	s0,16(sp)
   147b4:	60e2                	c.ldsp	ra,24(sp)
   147b6:	64a2                	c.ldsp	s1,8(sp)
   147b8:	6105                	c.addi16sp	sp,32
   147ba:	6dd0006f          	jal	zero,15696 <__malloc_unlock>
   147be:	e598                	c.sd	a4,8(a1)
   147c0:	4801                	c.li	a6,0
   147c2:	e115                	c.bnez	a0,147e6 <_free_r+0xa2>
   147c4:	ff04b503          	ld	a0,-16(s1)
   147c8:	0002b8b7          	lui	a7,0x2b
   147cc:	c8088893          	addi	a7,a7,-896 # 2ac80 <__malloc_av_+0x10>
   147d0:	8e89                	c.sub	a3,a0
   147d2:	97aa                	c.add	a5,a0
   147d4:	6a88                	c.ld	a0,16(a3)
   147d6:	07150f63          	beq	a0,a7,14854 <_free_r+0x110>
   147da:	0186b883          	ld	a7,24(a3) # 2018 <main-0xe098>
   147de:	01153c23          	sd	a7,24(a0)
   147e2:	00a8b823          	sd	a0,16(a7)
   147e6:	00e58533          	add	a0,a1,a4
   147ea:	6508                	c.ld	a0,8(a0)
   147ec:	8905                	c.andi	a0,1
   147ee:	e105                	c.bnez	a0,1480e <_free_r+0xca>
   147f0:	97ba                	c.add	a5,a4
   147f2:	6998                	c.ld	a4,16(a1)
   147f4:	06081263          	bne	a6,zero,14858 <_free_r+0x114>
   147f8:	0002b537          	lui	a0,0x2b
   147fc:	c8050513          	addi	a0,a0,-896 # 2ac80 <__malloc_av_+0x10>
   14800:	04a71c63          	bne	a4,a0,14858 <_free_r+0x114>
   14804:	f614                	c.sd	a3,40(a2)
   14806:	f214                	c.sd	a3,32(a2)
   14808:	ee98                	c.sd	a4,24(a3)
   1480a:	ea98                	c.sd	a4,16(a3)
   1480c:	4805                	c.li	a6,1
   1480e:	0017e713          	ori	a4,a5,1
   14812:	e698                	c.sd	a4,8(a3)
   14814:	00f68733          	add	a4,a3,a5
   14818:	e31c                	c.sd	a5,0(a4)
   1481a:	f8081be3          	bne	a6,zero,147b0 <_free_r+0x6c>
   1481e:	1ff00713          	addi	a4,zero,511
   14822:	02f76f63          	bltu	a4,a5,14860 <_free_r+0x11c>
   14826:	838d                	c.srli	a5,0x3
   14828:	2781                	c.addiw	a5,0
   1482a:	4027d59b          	sraiw	a1,a5,0x2
   1482e:	4705                	c.li	a4,1
   14830:	00b71733          	sll	a4,a4,a1
   14834:	2785                	c.addiw	a5,1
   14836:	660c                	c.ld	a1,8(a2)
   14838:	0017979b          	slliw	a5,a5,0x1
   1483c:	078e                	c.slli	a5,0x3
   1483e:	97b2                	c.add	a5,a2
   14840:	8f4d                	c.or	a4,a1
   14842:	e618                	c.sd	a4,8(a2)
   14844:	6398                	c.ld	a4,0(a5)
   14846:	ff078613          	addi	a2,a5,-16
   1484a:	ee90                	c.sd	a2,24(a3)
   1484c:	ea98                	c.sd	a4,16(a3)
   1484e:	e394                	c.sd	a3,0(a5)
   14850:	ef14                	c.sd	a3,24(a4)
   14852:	bfb9                	c.j	147b0 <_free_r+0x6c>
   14854:	4805                	c.li	a6,1
   14856:	bf41                	c.j	147e6 <_free_r+0xa2>
   14858:	6d8c                	c.ld	a1,24(a1)
   1485a:	ef0c                	c.sd	a1,24(a4)
   1485c:	e998                	c.sd	a4,16(a1)
   1485e:	bf45                	c.j	1480e <_free_r+0xca>
   14860:	0097d593          	srli	a1,a5,0x9
   14864:	4711                	c.li	a4,4
   14866:	02b76e63          	bltu	a4,a1,148a2 <_free_r+0x15e>
   1486a:	0067d713          	srli	a4,a5,0x6
   1486e:	0387071b          	addiw	a4,a4,56
   14872:	0017059b          	addiw	a1,a4,1
   14876:	0015959b          	slliw	a1,a1,0x1
   1487a:	058e                	c.slli	a1,0x3
   1487c:	95b2                	c.add	a1,a2
   1487e:	ff058513          	addi	a0,a1,-16
   14882:	618c                	c.ld	a1,0(a1)
   14884:	06b51563          	bne	a0,a1,148ee <_free_r+0x1aa>
   14888:	4785                	c.li	a5,1
   1488a:	4027571b          	sraiw	a4,a4,0x2
   1488e:	00e79733          	sll	a4,a5,a4
   14892:	661c                	c.ld	a5,8(a2)
   14894:	8f5d                	c.or	a4,a5
   14896:	e618                	c.sd	a4,8(a2)
   14898:	ee88                	c.sd	a0,24(a3)
   1489a:	ea8c                	c.sd	a1,16(a3)
   1489c:	e914                	c.sd	a3,16(a0)
   1489e:	ed94                	c.sd	a3,24(a1)
   148a0:	bf01                	c.j	147b0 <_free_r+0x6c>
   148a2:	4751                	c.li	a4,20
   148a4:	00b76563          	bltu	a4,a1,148ae <_free_r+0x16a>
   148a8:	05b5871b          	addiw	a4,a1,91
   148ac:	b7d9                	c.j	14872 <_free_r+0x12e>
   148ae:	05400713          	addi	a4,zero,84
   148b2:	00b76763          	bltu	a4,a1,148c0 <_free_r+0x17c>
   148b6:	00c7d713          	srli	a4,a5,0xc
   148ba:	06e7071b          	addiw	a4,a4,110
   148be:	bf55                	c.j	14872 <_free_r+0x12e>
   148c0:	15400713          	addi	a4,zero,340
   148c4:	00b76763          	bltu	a4,a1,148d2 <_free_r+0x18e>
   148c8:	00f7d713          	srli	a4,a5,0xf
   148cc:	0777071b          	addiw	a4,a4,119
   148d0:	b74d                	c.j	14872 <_free_r+0x12e>
   148d2:	55400513          	addi	a0,zero,1364
   148d6:	07e00713          	addi	a4,zero,126
   148da:	f8b56ce3          	bltu	a0,a1,14872 <_free_r+0x12e>
   148de:	0127d713          	srli	a4,a5,0x12
   148e2:	07c7071b          	addiw	a4,a4,124
   148e6:	b771                	c.j	14872 <_free_r+0x12e>
   148e8:	698c                	c.ld	a1,16(a1)
   148ea:	00b50663          	beq	a0,a1,148f6 <_free_r+0x1b2>
   148ee:	6598                	c.ld	a4,8(a1)
   148f0:	9b71                	c.andi	a4,-4
   148f2:	fee7ebe3          	bltu	a5,a4,148e8 <_free_r+0x1a4>
   148f6:	6d88                	c.ld	a0,24(a1)
   148f8:	b745                	c.j	14898 <_free_r+0x154>
   148fa:	8082                	c.jr	ra

00000000000148fc <_fseek_r>:
   148fc:	0120006f          	jal	zero,1490e <_fseeko_r>

0000000000014900 <fseek>:
   14900:	86b2                	c.mv	a3,a2
   14902:	862e                	c.mv	a2,a1
   14904:	85aa                	c.mv	a1,a0
   14906:	8401b503          	ld	a0,-1984(gp) # 2b4c0 <_impure_ptr>
   1490a:	0040006f          	jal	zero,1490e <_fseeko_r>

000000000001490e <_fseeko_r>:
   1490e:	7131                	c.addi16sp	sp,-192
   14910:	f922                	c.sdsp	s0,176(sp)
   14912:	f14a                	c.sdsp	s2,160(sp)
   14914:	e952                	c.sdsp	s4,144(sp)
   14916:	e15a                	c.sdsp	s6,128(sp)
   14918:	fd06                	c.sdsp	ra,184(sp)
   1491a:	f526                	c.sdsp	s1,168(sp)
   1491c:	ed4e                	c.sdsp	s3,152(sp)
   1491e:	e556                	c.sdsp	s5,136(sp)
   14920:	fcde                	c.sdsp	s7,120(sp)
   14922:	892a                	c.mv	s2,a0
   14924:	842e                	c.mv	s0,a1
   14926:	8b32                	c.mv	s6,a2
   14928:	8a36                	c.mv	s4,a3
   1492a:	c509                	c.beqz	a0,14934 <_fseeko_r+0x26>
   1492c:	493c                	c.lw	a5,80(a0)
   1492e:	e399                	c.bnez	a5,14934 <_fseeko_r+0x26>
   14930:	a7fff0ef          	jal	ra,143ae <__sinit>
   14934:	01045783          	lhu	a5,16(s0)
   14938:	10800713          	addi	a4,zero,264
   1493c:	1087f793          	andi	a5,a5,264
   14940:	00e79663          	bne	a5,a4,1494c <_fseeko_r+0x3e>
   14944:	85a2                	c.mv	a1,s0
   14946:	854a                	c.mv	a0,s2
   14948:	929ff0ef          	jal	ra,14270 <_fflush_r>
   1494c:	04843a83          	ld	s5,72(s0)
   14950:	47f5                	c.li	a5,29
   14952:	100a8f63          	beq	s5,zero,14a70 <_fseeko_r+0x162>
   14956:	4785                	c.li	a5,1
   14958:	00fa0b63          	beq	s4,a5,1496e <_fseeko_r+0x60>
   1495c:	4789                	c.li	a5,2
   1495e:	00fa0563          	beq	s4,a5,14968 <_fseeko_r+0x5a>
   14962:	47d9                	c.li	a5,22
   14964:	100a1663          	bne	s4,zero,14a70 <_fseeko_r+0x162>
   14968:	4b81                	c.li	s7,0
   1496a:	4481                	c.li	s1,0
   1496c:	a815                	c.j	149a0 <_fseeko_r+0x92>
   1496e:	85a2                	c.mv	a1,s0
   14970:	854a                	c.mv	a0,s2
   14972:	8ffff0ef          	jal	ra,14270 <_fflush_r>
   14976:	01045783          	lhu	a5,16(s0)
   1497a:	03379713          	slli	a4,a5,0x33
   1497e:	0a075b63          	bge	a4,zero,14a34 <_fseeko_r+0x126>
   14982:	6844                	c.ld	s1,144(s0)
   14984:	01045783          	lhu	a5,16(s0)
   14988:	0047f713          	andi	a4,a5,4
   1498c:	cb71                	c.beqz	a4,14a60 <_fseeko_r+0x152>
   1498e:	441c                	c.lw	a5,8(s0)
   14990:	8c9d                	c.sub	s1,a5
   14992:	6c3c                	c.ld	a5,88(s0)
   14994:	c399                	c.beqz	a5,1499a <_fseeko_r+0x8c>
   14996:	583c                	c.lw	a5,112(s0)
   14998:	8c9d                	c.sub	s1,a5
   1499a:	8bd2                	c.mv	s7,s4
   1499c:	9b26                	c.add	s6,s1
   1499e:	4a01                	c.li	s4,0
   149a0:	6c1c                	c.ld	a5,24(s0)
   149a2:	e789                	c.bnez	a5,149ac <_fseeko_r+0x9e>
   149a4:	85a2                	c.mv	a1,s0
   149a6:	854a                	c.mv	a0,s2
   149a8:	5aa000ef          	jal	ra,14f52 <__smakebuf_r>
   149ac:	01045703          	lhu	a4,16(s0)
   149b0:	6785                	c.lui	a5,0x1
   149b2:	81a78793          	addi	a5,a5,-2022 # 81a <main-0xf896>
   149b6:	8ff9                	c.and	a5,a4
   149b8:	e395                	c.bnez	a5,149dc <_fseeko_r+0xce>
   149ba:	40077713          	andi	a4,a4,1024
   149be:	e76d                	c.bnez	a4,14aa8 <_fseeko_r+0x19a>
   149c0:	000167b7          	lui	a5,0x16
   149c4:	a7278793          	addi	a5,a5,-1422 # 15a72 <__sseek>
   149c8:	0afa8763          	beq	s5,a5,14a76 <_fseeko_r+0x168>
   149cc:	01045783          	lhu	a5,16(s0)
   149d0:	6705                	c.lui	a4,0x1
   149d2:	80070713          	addi	a4,a4,-2048 # 800 <main-0xf8b0>
   149d6:	8fd9                	c.or	a5,a4
   149d8:	00f41823          	sh	a5,16(s0)
   149dc:	85a2                	c.mv	a1,s0
   149de:	854a                	c.mv	a0,s2
   149e0:	891ff0ef          	jal	ra,14270 <_fflush_r>
   149e4:	84aa                	c.mv	s1,a0
   149e6:	e125                	c.bnez	a0,14a46 <_fseeko_r+0x138>
   149e8:	780c                	c.ld	a1,48(s0)
   149ea:	86d2                	c.mv	a3,s4
   149ec:	865a                	c.mv	a2,s6
   149ee:	854a                	c.mv	a0,s2
   149f0:	9a82                	c.jalr	s5
   149f2:	57fd                	c.li	a5,-1
   149f4:	04f50963          	beq	a0,a5,14a46 <_fseeko_r+0x138>
   149f8:	6c2c                	c.ld	a1,88(s0)
   149fa:	c991                	c.beqz	a1,14a0e <_fseeko_r+0x100>
   149fc:	07440793          	addi	a5,s0,116
   14a00:	00f58563          	beq	a1,a5,14a0a <_fseeko_r+0xfc>
   14a04:	854a                	c.mv	a0,s2
   14a06:	d3fff0ef          	jal	ra,14744 <_free_r>
   14a0a:	04043c23          	sd	zero,88(s0)
   14a0e:	6c1c                	c.ld	a5,24(s0)
   14a10:	777d                	c.lui	a4,0xfffff
   14a12:	7df70713          	addi	a4,a4,2015 # fffffffffffff7df <__global_pointer$+0xfffffffffffd3b5f>
   14a16:	e01c                	c.sd	a5,0(s0)
   14a18:	01045783          	lhu	a5,16(s0)
   14a1c:	00042423          	sw	zero,8(s0)
   14a20:	4621                	c.li	a2,8
   14a22:	8ff9                	c.and	a5,a4
   14a24:	00f41823          	sh	a5,16(s0)
   14a28:	4581                	c.li	a1,0
   14a2a:	0a440513          	addi	a0,s0,164
   14a2e:	3bd000ef          	jal	ra,155ea <memset>
   14a32:	a819                	c.j	14a48 <_fseeko_r+0x13a>
   14a34:	780c                	c.ld	a1,48(s0)
   14a36:	4685                	c.li	a3,1
   14a38:	4601                	c.li	a2,0
   14a3a:	854a                	c.mv	a0,s2
   14a3c:	9a82                	c.jalr	s5
   14a3e:	57fd                	c.li	a5,-1
   14a40:	84aa                	c.mv	s1,a0
   14a42:	f4f511e3          	bne	a0,a5,14984 <_fseeko_r+0x76>
   14a46:	54fd                	c.li	s1,-1
   14a48:	70ea                	c.ldsp	ra,184(sp)
   14a4a:	744a                	c.ldsp	s0,176(sp)
   14a4c:	8526                	c.mv	a0,s1
   14a4e:	790a                	c.ldsp	s2,160(sp)
   14a50:	74aa                	c.ldsp	s1,168(sp)
   14a52:	69ea                	c.ldsp	s3,152(sp)
   14a54:	6a4a                	c.ldsp	s4,144(sp)
   14a56:	6aaa                	c.ldsp	s5,136(sp)
   14a58:	6b0a                	c.ldsp	s6,128(sp)
   14a5a:	7be6                	c.ldsp	s7,120(sp)
   14a5c:	6129                	c.addi16sp	sp,192
   14a5e:	8082                	c.jr	ra
   14a60:	8ba1                	c.andi	a5,8
   14a62:	df85                	c.beqz	a5,1499a <_fseeko_r+0x8c>
   14a64:	601c                	c.ld	a5,0(s0)
   14a66:	6c18                	c.ld	a4,24(s0)
   14a68:	db8d                	c.beqz	a5,1499a <_fseeko_r+0x8c>
   14a6a:	8f99                	c.sub	a5,a4
   14a6c:	94be                	c.add	s1,a5
   14a6e:	b735                	c.j	1499a <_fseeko_r+0x8c>
   14a70:	00f92023          	sw	a5,0(s2)
   14a74:	bfc9                	c.j	14a46 <_fseeko_r+0x138>
   14a76:	01241583          	lh	a1,18(s0)
   14a7a:	f405c9e3          	blt	a1,zero,149cc <_fseeko_r+0xbe>
   14a7e:	0030                	c.addi4spn	a2,sp,8
   14a80:	854a                	c.mv	a0,s2
   14a82:	154000ef          	jal	ra,14bd6 <_fstat_r>
   14a86:	f139                	c.bnez	a0,149cc <_fseeko_r+0xbe>
   14a88:	47b2                	c.lwsp	a5,12(sp)
   14a8a:	673d                	c.lui	a4,0xf
   14a8c:	8ff9                	c.and	a5,a4
   14a8e:	6721                	c.lui	a4,0x8
   14a90:	f2e79ee3          	bne	a5,a4,149cc <_fseeko_r+0xbe>
   14a94:	01041783          	lh	a5,16(s0)
   14a98:	40000713          	addi	a4,zero,1024
   14a9c:	08e42423          	sw	a4,136(s0)
   14aa0:	4007e793          	ori	a5,a5,1024
   14aa4:	00f41823          	sh	a5,16(s0)
   14aa8:	89da                	c.mv	s3,s6
   14aaa:	000a0b63          	beq	s4,zero,14ac0 <_fseeko_r+0x1b2>
   14aae:	01241583          	lh	a1,18(s0)
   14ab2:	0030                	c.addi4spn	a2,sp,8
   14ab4:	854a                	c.mv	a0,s2
   14ab6:	120000ef          	jal	ra,14bd6 <_fstat_r>
   14aba:	f10d                	c.bnez	a0,149dc <_fseeko_r+0xce>
   14abc:	69e2                	c.ldsp	s3,24(sp)
   14abe:	99da                	c.add	s3,s6
   14ac0:	020b9063          	bne	s7,zero,14ae0 <_fseeko_r+0x1d2>
   14ac4:	01045783          	lhu	a5,16(s0)
   14ac8:	03379713          	slli	a4,a5,0x33
   14acc:	06075963          	bge	a4,zero,14b3e <_fseeko_r+0x230>
   14ad0:	6848                	c.ld	a0,144(s0)
   14ad2:	4404                	c.lw	s1,8(s0)
   14ad4:	6c3c                	c.ld	a5,88(s0)
   14ad6:	409504b3          	sub	s1,a0,s1
   14ada:	c399                	c.beqz	a5,14ae0 <_fseeko_r+0x1d2>
   14adc:	583c                	c.lw	a5,112(s0)
   14ade:	8c9d                	c.sub	s1,a5
   14ae0:	6c2c                	c.ld	a1,88(s0)
   14ae2:	6c1c                	c.ld	a5,24(s0)
   14ae4:	4408                	c.lw	a0,8(s0)
   14ae6:	c5ad                	c.beqz	a1,14b50 <_fseeko_r+0x242>
   14ae8:	7438                	c.ld	a4,104(s0)
   14aea:	94aa                	c.add	s1,a0
   14aec:	5828                	c.lw	a0,112(s0)
   14aee:	8f1d                	c.sub	a4,a5
   14af0:	8c99                	c.sub	s1,a4
   14af2:	953a                	c.add	a0,a4
   14af4:	0699c263          	blt	s3,s1,14b58 <_fseeko_r+0x24a>
   14af8:	00a48733          	add	a4,s1,a0
   14afc:	04e9fe63          	bgeu	s3,a4,14b58 <_fseeko_r+0x24a>
   14b00:	4099873b          	subw	a4,s3,s1
   14b04:	97ba                	c.add	a5,a4
   14b06:	40e504bb          	subw	s1,a0,a4
   14b0a:	e01c                	c.sd	a5,0(s0)
   14b0c:	c404                	c.sw	s1,8(s0)
   14b0e:	c991                	c.beqz	a1,14b22 <_fseeko_r+0x214>
   14b10:	07440793          	addi	a5,s0,116
   14b14:	00f58563          	beq	a1,a5,14b1e <_fseeko_r+0x210>
   14b18:	854a                	c.mv	a0,s2
   14b1a:	c2bff0ef          	jal	ra,14744 <_free_r>
   14b1e:	04043c23          	sd	zero,88(s0)
   14b22:	01045783          	lhu	a5,16(s0)
   14b26:	fdf7f793          	andi	a5,a5,-33
   14b2a:	00f41823          	sh	a5,16(s0)
   14b2e:	4621                	c.li	a2,8
   14b30:	4581                	c.li	a1,0
   14b32:	0a440513          	addi	a0,s0,164
   14b36:	2b5000ef          	jal	ra,155ea <memset>
   14b3a:	4481                	c.li	s1,0
   14b3c:	b731                	c.j	14a48 <_fseeko_r+0x13a>
   14b3e:	780c                	c.ld	a1,48(s0)
   14b40:	4685                	c.li	a3,1
   14b42:	4601                	c.li	a2,0
   14b44:	854a                	c.mv	a0,s2
   14b46:	9a82                	c.jalr	s5
   14b48:	57fd                	c.li	a5,-1
   14b4a:	f8f514e3          	bne	a0,a5,14ad2 <_fseeko_r+0x1c4>
   14b4e:	b579                	c.j	149dc <_fseeko_r+0xce>
   14b50:	6018                	c.ld	a4,0(s0)
   14b52:	8f1d                	c.sub	a4,a5
   14b54:	8c99                	c.sub	s1,a4
   14b56:	bf71                	c.j	14af2 <_fseeko_r+0x1e4>
   14b58:	08842483          	lw	s1,136(s0)
   14b5c:	780c                	c.ld	a1,48(s0)
   14b5e:	4681                	c.li	a3,0
   14b60:	409004bb          	subw	s1,zero,s1
   14b64:	0134f4b3          	and	s1,s1,s3
   14b68:	8626                	c.mv	a2,s1
   14b6a:	854a                	c.mv	a0,s2
   14b6c:	9a82                	c.jalr	s5
   14b6e:	57fd                	c.li	a5,-1
   14b70:	e6f506e3          	beq	a0,a5,149dc <_fseeko_r+0xce>
   14b74:	6c1c                	c.ld	a5,24(s0)
   14b76:	6c2c                	c.ld	a1,88(s0)
   14b78:	00042423          	sw	zero,8(s0)
   14b7c:	e01c                	c.sd	a5,0(s0)
   14b7e:	c991                	c.beqz	a1,14b92 <_fseeko_r+0x284>
   14b80:	07440793          	addi	a5,s0,116
   14b84:	00f58563          	beq	a1,a5,14b8e <_fseeko_r+0x280>
   14b88:	854a                	c.mv	a0,s2
   14b8a:	bbbff0ef          	jal	ra,14744 <_free_r>
   14b8e:	04043c23          	sd	zero,88(s0)
   14b92:	01045783          	lhu	a5,16(s0)
   14b96:	409984b3          	sub	s1,s3,s1
   14b9a:	fdf7f793          	andi	a5,a5,-33
   14b9e:	00f41823          	sh	a5,16(s0)
   14ba2:	d4d1                	c.beqz	s1,14b2e <_fseeko_r+0x220>
   14ba4:	85a2                	c.mv	a1,s0
   14ba6:	854a                	c.mv	a0,s2
   14ba8:	4cf000ef          	jal	ra,15876 <__srefill_r>
   14bac:	e20518e3          	bne	a0,zero,149dc <_fseeko_r+0xce>
   14bb0:	00842983          	lw	s3,8(s0)
   14bb4:	e299e4e3          	bltu	s3,s1,149dc <_fseeko_r+0xce>
   14bb8:	601c                	c.ld	a5,0(s0)
   14bba:	409989bb          	subw	s3,s3,s1
   14bbe:	01342423          	sw	s3,8(s0)
   14bc2:	97a6                	c.add	a5,s1
   14bc4:	e01c                	c.sd	a5,0(s0)
   14bc6:	b7a5                	c.j	14b2e <_fseeko_r+0x220>

0000000000014bc8 <fseeko>:
   14bc8:	86b2                	c.mv	a3,a2
   14bca:	862e                	c.mv	a2,a1
   14bcc:	85aa                	c.mv	a1,a0
   14bce:	8401b503          	ld	a0,-1984(gp) # 2b4c0 <_impure_ptr>
   14bd2:	d3dff06f          	jal	zero,1490e <_fseeko_r>

0000000000014bd6 <_fstat_r>:
   14bd6:	1101                	c.addi	sp,-32
   14bd8:	e822                	c.sdsp	s0,16(sp)
   14bda:	e426                	c.sdsp	s1,8(sp)
   14bdc:	84aa                	c.mv	s1,a0
   14bde:	852e                	c.mv	a0,a1
   14be0:	85b2                	c.mv	a1,a2
   14be2:	ec06                	c.sdsp	ra,24(sp)
   14be4:	8e01ac23          	sw	zero,-1800(gp) # 2b578 <errno>
   14be8:	721070ef          	jal	ra,1cb08 <_fstat>
   14bec:	57fd                	c.li	a5,-1
   14bee:	00f51663          	bne	a0,a5,14bfa <_fstat_r+0x24>
   14bf2:	8f81a783          	lw	a5,-1800(gp) # 2b578 <errno>
   14bf6:	c391                	c.beqz	a5,14bfa <_fstat_r+0x24>
   14bf8:	c09c                	c.sw	a5,0(s1)
   14bfa:	60e2                	c.ldsp	ra,24(sp)
   14bfc:	6442                	c.ldsp	s0,16(sp)
   14bfe:	64a2                	c.ldsp	s1,8(sp)
   14c00:	6105                	c.addi16sp	sp,32
   14c02:	8082                	c.jr	ra

0000000000014c04 <_ftell_r>:
   14c04:	00e0006f          	jal	zero,14c12 <_ftello_r>

0000000000014c08 <ftell>:
   14c08:	85aa                	c.mv	a1,a0
   14c0a:	8401b503          	ld	a0,-1984(gp) # 2b4c0 <_impure_ptr>
   14c0e:	0040006f          	jal	zero,14c12 <_ftello_r>

0000000000014c12 <_ftello_r>:
   14c12:	1101                	c.addi	sp,-32
   14c14:	e822                	c.sdsp	s0,16(sp)
   14c16:	e426                	c.sdsp	s1,8(sp)
   14c18:	ec06                	c.sdsp	ra,24(sp)
   14c1a:	84aa                	c.mv	s1,a0
   14c1c:	842e                	c.mv	s0,a1
   14c1e:	c509                	c.beqz	a0,14c28 <_ftello_r+0x16>
   14c20:	493c                	c.lw	a5,80(a0)
   14c22:	e399                	c.bnez	a5,14c28 <_ftello_r+0x16>
   14c24:	f8aff0ef          	jal	ra,143ae <__sinit>
   14c28:	643c                	c.ld	a5,72(s0)
   14c2a:	eb89                	c.bnez	a5,14c3c <_ftello_r+0x2a>
   14c2c:	47f5                	c.li	a5,29
   14c2e:	c09c                	c.sw	a5,0(s1)
   14c30:	557d                	c.li	a0,-1
   14c32:	60e2                	c.ldsp	ra,24(sp)
   14c34:	6442                	c.ldsp	s0,16(sp)
   14c36:	64a2                	c.ldsp	s1,8(sp)
   14c38:	6105                	c.addi16sp	sp,32
   14c3a:	8082                	c.jr	ra
   14c3c:	01045783          	lhu	a5,16(s0)
   14c40:	8ba1                	c.andi	a5,8
   14c42:	c789                	c.beqz	a5,14c4c <_ftello_r+0x3a>
   14c44:	85a2                	c.mv	a1,s0
   14c46:	8526                	c.mv	a0,s1
   14c48:	e28ff0ef          	jal	ra,14270 <_fflush_r>
   14c4c:	01045783          	lhu	a5,16(s0)
   14c50:	03379713          	slli	a4,a5,0x33
   14c54:	00075f63          	bge	a4,zero,14c72 <_ftello_r+0x60>
   14c58:	6848                	c.ld	a0,144(s0)
   14c5a:	01045783          	lhu	a5,16(s0)
   14c5e:	0047f713          	andi	a4,a5,4
   14c62:	c315                	c.beqz	a4,14c86 <_ftello_r+0x74>
   14c64:	441c                	c.lw	a5,8(s0)
   14c66:	8d1d                	c.sub	a0,a5
   14c68:	6c3c                	c.ld	a5,88(s0)
   14c6a:	d7e1                	c.beqz	a5,14c32 <_ftello_r+0x20>
   14c6c:	583c                	c.lw	a5,112(s0)
   14c6e:	8d1d                	c.sub	a0,a5
   14c70:	b7c9                	c.j	14c32 <_ftello_r+0x20>
   14c72:	643c                	c.ld	a5,72(s0)
   14c74:	780c                	c.ld	a1,48(s0)
   14c76:	4685                	c.li	a3,1
   14c78:	4601                	c.li	a2,0
   14c7a:	8526                	c.mv	a0,s1
   14c7c:	9782                	c.jalr	a5
   14c7e:	57fd                	c.li	a5,-1
   14c80:	fcf51de3          	bne	a0,a5,14c5a <_ftello_r+0x48>
   14c84:	b77d                	c.j	14c32 <_ftello_r+0x20>
   14c86:	8ba1                	c.andi	a5,8
   14c88:	d7cd                	c.beqz	a5,14c32 <_ftello_r+0x20>
   14c8a:	601c                	c.ld	a5,0(s0)
   14c8c:	d3dd                	c.beqz	a5,14c32 <_ftello_r+0x20>
   14c8e:	6c18                	c.ld	a4,24(s0)
   14c90:	8f99                	c.sub	a5,a4
   14c92:	953e                	c.add	a0,a5
   14c94:	bf79                	c.j	14c32 <_ftello_r+0x20>

0000000000014c96 <ftello>:
   14c96:	85aa                	c.mv	a1,a0
   14c98:	8401b503          	ld	a0,-1984(gp) # 2b4c0 <_impure_ptr>
   14c9c:	f77ff06f          	jal	zero,14c12 <_ftello_r>

0000000000014ca0 <_fwalk>:
   14ca0:	715d                	c.addi16sp	sp,-80
   14ca2:	e0a2                	c.sdsp	s0,64(sp)
   14ca4:	fc26                	c.sdsp	s1,56(sp)
   14ca6:	f052                	c.sdsp	s4,32(sp)
   14ca8:	ec56                	c.sdsp	s5,24(sp)
   14caa:	e486                	c.sdsp	ra,72(sp)
   14cac:	f84a                	c.sdsp	s2,48(sp)
   14cae:	f44e                	c.sdsp	s3,40(sp)
   14cb0:	52050493          	addi	s1,a0,1312
   14cb4:	4401                	c.li	s0,0
   14cb6:	4a05                	c.li	s4,1
   14cb8:	5afd                	c.li	s5,-1
   14cba:	e899                	c.bnez	s1,14cd0 <_fwalk+0x30>
   14cbc:	8522                	c.mv	a0,s0
   14cbe:	60a6                	c.ldsp	ra,72(sp)
   14cc0:	6406                	c.ldsp	s0,64(sp)
   14cc2:	74e2                	c.ldsp	s1,56(sp)
   14cc4:	7942                	c.ldsp	s2,48(sp)
   14cc6:	79a2                	c.ldsp	s3,40(sp)
   14cc8:	7a02                	c.ldsp	s4,32(sp)
   14cca:	6ae2                	c.ldsp	s5,24(sp)
   14ccc:	6161                	c.addi16sp	sp,80
   14cce:	8082                	c.jr	ra
   14cd0:	0104b903          	ld	s2,16(s1)
   14cd4:	0084a983          	lw	s3,8(s1)
   14cd8:	39fd                	c.addiw	s3,-1
   14cda:	0009d463          	bge	s3,zero,14ce2 <_fwalk+0x42>
   14cde:	6084                	c.ld	s1,0(s1)
   14ce0:	bfe9                	c.j	14cba <_fwalk+0x1a>
   14ce2:	01095783          	lhu	a5,16(s2)
   14ce6:	00fa7c63          	bgeu	s4,a5,14cfe <_fwalk+0x5e>
   14cea:	01291783          	lh	a5,18(s2)
   14cee:	01578863          	beq	a5,s5,14cfe <_fwalk+0x5e>
   14cf2:	854a                	c.mv	a0,s2
   14cf4:	e42e                	c.sdsp	a1,8(sp)
   14cf6:	9582                	c.jalr	a1
   14cf8:	65a2                	c.ldsp	a1,8(sp)
   14cfa:	8c49                	c.or	s0,a0
   14cfc:	2401                	c.addiw	s0,0
   14cfe:	0b090913          	addi	s2,s2,176
   14d02:	bfd9                	c.j	14cd8 <_fwalk+0x38>

0000000000014d04 <_fwalk_reent>:
   14d04:	715d                	c.addi16sp	sp,-80
   14d06:	e0a2                	c.sdsp	s0,64(sp)
   14d08:	fc26                	c.sdsp	s1,56(sp)
   14d0a:	f052                	c.sdsp	s4,32(sp)
   14d0c:	ec56                	c.sdsp	s5,24(sp)
   14d0e:	e85a                	c.sdsp	s6,16(sp)
   14d10:	e45e                	c.sdsp	s7,8(sp)
   14d12:	e486                	c.sdsp	ra,72(sp)
   14d14:	f84a                	c.sdsp	s2,48(sp)
   14d16:	f44e                	c.sdsp	s3,40(sp)
   14d18:	8a2a                	c.mv	s4,a0
   14d1a:	8aae                	c.mv	s5,a1
   14d1c:	52050493          	addi	s1,a0,1312
   14d20:	4401                	c.li	s0,0
   14d22:	4b05                	c.li	s6,1
   14d24:	5bfd                	c.li	s7,-1
   14d26:	ec89                	c.bnez	s1,14d40 <_fwalk_reent+0x3c>
   14d28:	8522                	c.mv	a0,s0
   14d2a:	60a6                	c.ldsp	ra,72(sp)
   14d2c:	6406                	c.ldsp	s0,64(sp)
   14d2e:	74e2                	c.ldsp	s1,56(sp)
   14d30:	7942                	c.ldsp	s2,48(sp)
   14d32:	79a2                	c.ldsp	s3,40(sp)
   14d34:	7a02                	c.ldsp	s4,32(sp)
   14d36:	6ae2                	c.ldsp	s5,24(sp)
   14d38:	6b42                	c.ldsp	s6,16(sp)
   14d3a:	6ba2                	c.ldsp	s7,8(sp)
   14d3c:	6161                	c.addi16sp	sp,80
   14d3e:	8082                	c.jr	ra
   14d40:	0104b903          	ld	s2,16(s1)
   14d44:	0084a983          	lw	s3,8(s1)
   14d48:	39fd                	c.addiw	s3,-1
   14d4a:	0009d463          	bge	s3,zero,14d52 <_fwalk_reent+0x4e>
   14d4e:	6084                	c.ld	s1,0(s1)
   14d50:	bfd9                	c.j	14d26 <_fwalk_reent+0x22>
   14d52:	01095783          	lhu	a5,16(s2)
   14d56:	00fb7b63          	bgeu	s6,a5,14d6c <_fwalk_reent+0x68>
   14d5a:	01291783          	lh	a5,18(s2)
   14d5e:	01778763          	beq	a5,s7,14d6c <_fwalk_reent+0x68>
   14d62:	85ca                	c.mv	a1,s2
   14d64:	8552                	c.mv	a0,s4
   14d66:	9a82                	c.jalr	s5
   14d68:	8c49                	c.or	s0,a0
   14d6a:	2401                	c.addiw	s0,0
   14d6c:	0b090913          	addi	s2,s2,176
   14d70:	bfe1                	c.j	14d48 <_fwalk_reent+0x44>

0000000000014d72 <_fwrite_r>:
   14d72:	7159                	c.addi16sp	sp,-112
   14d74:	f0a2                	c.sdsp	s0,96(sp)
   14d76:	02c68433          	mul	s0,a3,a2
   14d7a:	083c                	c.addi4spn	a5,sp,24
   14d7c:	f43e                	c.sdsp	a5,40(sp)
   14d7e:	4785                	c.li	a5,1
   14d80:	eca6                	c.sdsp	s1,88(sp)
   14d82:	e8ca                	c.sdsp	s2,80(sp)
   14d84:	e4ce                	c.sdsp	s3,72(sp)
   14d86:	f486                	c.sdsp	ra,104(sp)
   14d88:	ec2e                	c.sdsp	a1,24(sp)
   14d8a:	d83e                	c.swsp	a5,48(sp)
   14d8c:	f022                	c.sdsp	s0,32(sp)
   14d8e:	fc22                	c.sdsp	s0,56(sp)
   14d90:	892a                	c.mv	s2,a0
   14d92:	89b2                	c.mv	s3,a2
   14d94:	84b6                	c.mv	s1,a3
   14d96:	c519                	c.beqz	a0,14da4 <_fwrite_r+0x32>
   14d98:	493c                	c.lw	a5,80(a0)
   14d9a:	e789                	c.bnez	a5,14da4 <_fwrite_r+0x32>
   14d9c:	e43a                	c.sdsp	a4,8(sp)
   14d9e:	e10ff0ef          	jal	ra,143ae <__sinit>
   14da2:	6722                	c.ldsp	a4,8(sp)
   14da4:	01071783          	lh	a5,16(a4) # 8010 <main-0x80a0>
   14da8:	03279693          	slli	a3,a5,0x32
   14dac:	0006cd63          	blt	a3,zero,14dc6 <_fwrite_r+0x54>
   14db0:	6609                	c.lui	a2,0x2
   14db2:	0ac72683          	lw	a3,172(a4)
   14db6:	8fd1                	c.or	a5,a2
   14db8:	00f71823          	sh	a5,16(a4)
   14dbc:	77f9                	c.lui	a5,0xffffe
   14dbe:	17fd                	c.addi	a5,-1
   14dc0:	8ff5                	c.and	a5,a3
   14dc2:	0af72623          	sw	a5,172(a4)
   14dc6:	1030                	c.addi4spn	a2,sp,40
   14dc8:	85ba                	c.mv	a1,a4
   14dca:	854a                	c.mv	a0,s2
   14dcc:	740020ef          	jal	ra,1750c <__sfvwrite_r>
   14dd0:	c509                	c.beqz	a0,14dda <_fwrite_r+0x68>
   14dd2:	76e2                	c.ldsp	a3,56(sp)
   14dd4:	8c15                	c.sub	s0,a3
   14dd6:	033454b3          	divu	s1,s0,s3
   14dda:	70a6                	c.ldsp	ra,104(sp)
   14ddc:	7406                	c.ldsp	s0,96(sp)
   14dde:	8526                	c.mv	a0,s1
   14de0:	6946                	c.ldsp	s2,80(sp)
   14de2:	64e6                	c.ldsp	s1,88(sp)
   14de4:	69a6                	c.ldsp	s3,72(sp)
   14de6:	6165                	c.addi16sp	sp,112
   14de8:	8082                	c.jr	ra

0000000000014dea <fwrite>:
   14dea:	8736                	c.mv	a4,a3
   14dec:	86b2                	c.mv	a3,a2
   14dee:	862e                	c.mv	a2,a1
   14df0:	85aa                	c.mv	a1,a0
   14df2:	8401b503          	ld	a0,-1984(gp) # 2b4c0 <_impure_ptr>
   14df6:	f7dff06f          	jal	zero,14d72 <_fwrite_r>

0000000000014dfa <__libc_init_array>:
   14dfa:	1101                	c.addi	sp,-32
   14dfc:	e822                	c.sdsp	s0,16(sp)
   14dfe:	e426                	c.sdsp	s1,8(sp)
   14e00:	0002a437          	lui	s0,0x2a
   14e04:	0002a4b7          	lui	s1,0x2a
   14e08:	36c48793          	addi	a5,s1,876 # 2a36c <__preinit_array_end>
   14e0c:	36c40413          	addi	s0,s0,876 # 2a36c <__preinit_array_end>
   14e10:	8c1d                	c.sub	s0,a5
   14e12:	e04a                	c.sdsp	s2,0(sp)
   14e14:	ec06                	c.sdsp	ra,24(sp)
   14e16:	840d                	c.srai	s0,0x3
   14e18:	36c48493          	addi	s1,s1,876
   14e1c:	4901                	c.li	s2,0
   14e1e:	02891963          	bne	s2,s0,14e50 <__libc_init_array+0x56>
   14e22:	0002a4b7          	lui	s1,0x2a
   14e26:	dfcfb0ef          	jal	ra,10422 <_fini>
   14e2a:	0002a437          	lui	s0,0x2a
   14e2e:	37048793          	addi	a5,s1,880 # 2a370 <__frame_dummy_init_array_entry>
   14e32:	37840413          	addi	s0,s0,888 # 2a378 <__init_array_end>
   14e36:	8c1d                	c.sub	s0,a5
   14e38:	840d                	c.srai	s0,0x3
   14e3a:	37048493          	addi	s1,s1,880
   14e3e:	4901                	c.li	s2,0
   14e40:	00891d63          	bne	s2,s0,14e5a <__libc_init_array+0x60>
   14e44:	60e2                	c.ldsp	ra,24(sp)
   14e46:	6442                	c.ldsp	s0,16(sp)
   14e48:	64a2                	c.ldsp	s1,8(sp)
   14e4a:	6902                	c.ldsp	s2,0(sp)
   14e4c:	6105                	c.addi16sp	sp,32
   14e4e:	8082                	c.jr	ra
   14e50:	609c                	c.ld	a5,0(s1)
   14e52:	0905                	c.addi	s2,1
   14e54:	04a1                	c.addi	s1,8
   14e56:	9782                	c.jalr	a5
   14e58:	b7d9                	c.j	14e1e <__libc_init_array+0x24>
   14e5a:	609c                	c.ld	a5,0(s1)
   14e5c:	0905                	c.addi	s2,1
   14e5e:	04a1                	c.addi	s1,8
   14e60:	9782                	c.jalr	a5
   14e62:	bff9                	c.j	14e40 <__libc_init_array+0x46>

0000000000014e64 <_setlocale_r>:
   14e64:	1101                	c.addi	sp,-32
   14e66:	e426                	c.sdsp	s1,8(sp)
   14e68:	ec06                	c.sdsp	ra,24(sp)
   14e6a:	e822                	c.sdsp	s0,16(sp)
   14e6c:	000284b7          	lui	s1,0x28
   14e70:	ca0d                	c.beqz	a2,14ea2 <_setlocale_r+0x3e>
   14e72:	000285b7          	lui	a1,0x28
   14e76:	67858593          	addi	a1,a1,1656 # 28678 <s_box+0x2a0>
   14e7a:	8532                	c.mv	a0,a2
   14e7c:	8432                	c.mv	s0,a2
   14e7e:	435000ef          	jal	ra,15ab2 <strcmp>
   14e82:	c105                	c.beqz	a0,14ea2 <_setlocale_r+0x3e>
   14e84:	67048593          	addi	a1,s1,1648 # 28670 <s_box+0x298>
   14e88:	8522                	c.mv	a0,s0
   14e8a:	429000ef          	jal	ra,15ab2 <strcmp>
   14e8e:	c911                	c.beqz	a0,14ea2 <_setlocale_r+0x3e>
   14e90:	000285b7          	lui	a1,0x28
   14e94:	66858593          	addi	a1,a1,1640 # 28668 <s_box+0x290>
   14e98:	8522                	c.mv	a0,s0
   14e9a:	419000ef          	jal	ra,15ab2 <strcmp>
   14e9e:	4781                	c.li	a5,0
   14ea0:	e119                	c.bnez	a0,14ea6 <_setlocale_r+0x42>
   14ea2:	67048793          	addi	a5,s1,1648
   14ea6:	60e2                	c.ldsp	ra,24(sp)
   14ea8:	6442                	c.ldsp	s0,16(sp)
   14eaa:	64a2                	c.ldsp	s1,8(sp)
   14eac:	853e                	c.mv	a0,a5
   14eae:	6105                	c.addi16sp	sp,32
   14eb0:	8082                	c.jr	ra

0000000000014eb2 <__locale_mb_cur_max>:
   14eb2:	8401b783          	ld	a5,-1984(gp) # 2b4c0 <_impure_ptr>
   14eb6:	67bc                	c.ld	a5,72(a5)
   14eb8:	e789                	c.bnez	a5,14ec2 <__locale_mb_cur_max+0x10>
   14eba:	0002b7b7          	lui	a5,0x2b
   14ebe:	ac878793          	addi	a5,a5,-1336 # 2aac8 <__global_locale>
   14ec2:	1607c503          	lbu	a0,352(a5)
   14ec6:	8082                	c.jr	ra

0000000000014ec8 <__locale_ctype_ptr_l>:
   14ec8:	7d68                	c.ld	a0,248(a0)
   14eca:	8082                	c.jr	ra

0000000000014ecc <__locale_ctype_ptr>:
   14ecc:	8401b783          	ld	a5,-1984(gp) # 2b4c0 <_impure_ptr>
   14ed0:	67bc                	c.ld	a5,72(a5)
   14ed2:	e789                	c.bnez	a5,14edc <__locale_ctype_ptr+0x10>
   14ed4:	0002b7b7          	lui	a5,0x2b
   14ed8:	ac878793          	addi	a5,a5,-1336 # 2aac8 <__global_locale>
   14edc:	7fe8                	c.ld	a0,248(a5)
   14ede:	8082                	c.jr	ra

0000000000014ee0 <setlocale>:
   14ee0:	862e                	c.mv	a2,a1
   14ee2:	85aa                	c.mv	a1,a0
   14ee4:	8401b503          	ld	a0,-1984(gp) # 2b4c0 <_impure_ptr>
   14ee8:	f7dff06f          	jal	zero,14e64 <_setlocale_r>

0000000000014eec <__swhatbuf_r>:
   14eec:	7135                	c.addi16sp	sp,-160
   14eee:	e526                	c.sdsp	s1,136(sp)
   14ef0:	84ae                	c.mv	s1,a1
   14ef2:	01259583          	lh	a1,18(a1)
   14ef6:	e922                	c.sdsp	s0,144(sp)
   14ef8:	ed06                	c.sdsp	ra,152(sp)
   14efa:	8432                	c.mv	s0,a2
   14efc:	0005dc63          	bge	a1,zero,14f14 <__swhatbuf_r+0x28>
   14f00:	0104d783          	lhu	a5,16(s1)
   14f04:	0006a023          	sw	zero,0(a3)
   14f08:	0807f793          	andi	a5,a5,128
   14f0c:	eb95                	c.bnez	a5,14f40 <__swhatbuf_r+0x54>
   14f0e:	40000793          	addi	a5,zero,1024
   14f12:	a80d                	c.j	14f44 <__swhatbuf_r+0x58>
   14f14:	0830                	c.addi4spn	a2,sp,24
   14f16:	e436                	c.sdsp	a3,8(sp)
   14f18:	cbfff0ef          	jal	ra,14bd6 <_fstat_r>
   14f1c:	66a2                	c.ldsp	a3,8(sp)
   14f1e:	fe0541e3          	blt	a0,zero,14f00 <__swhatbuf_r+0x14>
   14f22:	47f2                	c.lwsp	a5,28(sp)
   14f24:	673d                	c.lui	a4,0xf
   14f26:	6505                	c.lui	a0,0x1
   14f28:	8ff9                	c.and	a5,a4
   14f2a:	6709                	c.lui	a4,0x2
   14f2c:	8f99                	c.sub	a5,a4
   14f2e:	0017b793          	sltiu	a5,a5,1
   14f32:	c29c                	c.sw	a5,0(a3)
   14f34:	40000793          	addi	a5,zero,1024
   14f38:	e01c                	c.sd	a5,0(s0)
   14f3a:	80050513          	addi	a0,a0,-2048 # 800 <main-0xf8b0>
   14f3e:	a029                	c.j	14f48 <__swhatbuf_r+0x5c>
   14f40:	04000793          	addi	a5,zero,64
   14f44:	e01c                	c.sd	a5,0(s0)
   14f46:	4501                	c.li	a0,0
   14f48:	60ea                	c.ldsp	ra,152(sp)
   14f4a:	644a                	c.ldsp	s0,144(sp)
   14f4c:	64aa                	c.ldsp	s1,136(sp)
   14f4e:	610d                	c.addi16sp	sp,160
   14f50:	8082                	c.jr	ra

0000000000014f52 <__smakebuf_r>:
   14f52:	0105d783          	lhu	a5,16(a1)
   14f56:	7179                	c.addi16sp	sp,-48
   14f58:	f022                	c.sdsp	s0,32(sp)
   14f5a:	f406                	c.sdsp	ra,40(sp)
   14f5c:	ec26                	c.sdsp	s1,24(sp)
   14f5e:	e84a                	c.sdsp	s2,16(sp)
   14f60:	8b89                	c.andi	a5,2
   14f62:	842e                	c.mv	s0,a1
   14f64:	cf89                	c.beqz	a5,14f7e <__smakebuf_r+0x2c>
   14f66:	07740793          	addi	a5,s0,119
   14f6a:	e01c                	c.sd	a5,0(s0)
   14f6c:	ec1c                	c.sd	a5,24(s0)
   14f6e:	4785                	c.li	a5,1
   14f70:	d01c                	c.sw	a5,32(s0)
   14f72:	70a2                	c.ldsp	ra,40(sp)
   14f74:	7402                	c.ldsp	s0,32(sp)
   14f76:	64e2                	c.ldsp	s1,24(sp)
   14f78:	6942                	c.ldsp	s2,16(sp)
   14f7a:	6145                	c.addi16sp	sp,48
   14f7c:	8082                	c.jr	ra
   14f7e:	0054                	c.addi4spn	a3,sp,4
   14f80:	0030                	c.addi4spn	a2,sp,8
   14f82:	84aa                	c.mv	s1,a0
   14f84:	f69ff0ef          	jal	ra,14eec <__swhatbuf_r>
   14f88:	65a2                	c.ldsp	a1,8(sp)
   14f8a:	892a                	c.mv	s2,a0
   14f8c:	8526                	c.mv	a0,s1
   14f8e:	066000ef          	jal	ra,14ff4 <_malloc_r>
   14f92:	ed01                	c.bnez	a0,14faa <__smakebuf_r+0x58>
   14f94:	01041783          	lh	a5,16(s0)
   14f98:	2007f713          	andi	a4,a5,512
   14f9c:	fb79                	c.bnez	a4,14f72 <__smakebuf_r+0x20>
   14f9e:	9bf1                	c.andi	a5,-4
   14fa0:	0027e793          	ori	a5,a5,2
   14fa4:	00f41823          	sh	a5,16(s0)
   14fa8:	bf7d                	c.j	14f66 <__smakebuf_r+0x14>
   14faa:	000147b7          	lui	a5,0x14
   14fae:	2e878793          	addi	a5,a5,744 # 142e8 <_cleanup_r>
   14fb2:	ecbc                	c.sd	a5,88(s1)
   14fb4:	01045783          	lhu	a5,16(s0)
   14fb8:	e008                	c.sd	a0,0(s0)
   14fba:	ec08                	c.sd	a0,24(s0)
   14fbc:	0807e793          	ori	a5,a5,128
   14fc0:	00f41823          	sh	a5,16(s0)
   14fc4:	67a2                	c.ldsp	a5,8(sp)
   14fc6:	d01c                	c.sw	a5,32(s0)
   14fc8:	4792                	c.lwsp	a5,4(sp)
   14fca:	cf91                	c.beqz	a5,14fe6 <__smakebuf_r+0x94>
   14fcc:	01241583          	lh	a1,18(s0)
   14fd0:	8526                	c.mv	a0,s1
   14fd2:	025020ef          	jal	ra,177f6 <_isatty_r>
   14fd6:	c901                	c.beqz	a0,14fe6 <__smakebuf_r+0x94>
   14fd8:	01045783          	lhu	a5,16(s0)
   14fdc:	9bf1                	c.andi	a5,-4
   14fde:	0017e793          	ori	a5,a5,1
   14fe2:	00f41823          	sh	a5,16(s0)
   14fe6:	01045783          	lhu	a5,16(s0)
   14fea:	00f96933          	or	s2,s2,a5
   14fee:	01241823          	sh	s2,16(s0)
   14ff2:	b741                	c.j	14f72 <__smakebuf_r+0x20>

0000000000014ff4 <_malloc_r>:
   14ff4:	715d                	c.addi16sp	sp,-80
   14ff6:	fc26                	c.sdsp	s1,56(sp)
   14ff8:	f84a                	c.sdsp	s2,48(sp)
   14ffa:	e486                	c.sdsp	ra,72(sp)
   14ffc:	e0a2                	c.sdsp	s0,64(sp)
   14ffe:	f44e                	c.sdsp	s3,40(sp)
   15000:	f052                	c.sdsp	s4,32(sp)
   15002:	ec56                	c.sdsp	s5,24(sp)
   15004:	e85a                	c.sdsp	s6,16(sp)
   15006:	e45e                	c.sdsp	s7,8(sp)
   15008:	e062                	c.sdsp	s8,0(sp)
   1500a:	01758493          	addi	s1,a1,23
   1500e:	02e00793          	addi	a5,zero,46
   15012:	892a                	c.mv	s2,a0
   15014:	4a97fb63          	bgeu	a5,s1,154ca <_malloc_r+0x4d6>
   15018:	800007b7          	lui	a5,0x80000
   1501c:	98c1                	c.andi	s1,-16
   1501e:	fff7c793          	xori	a5,a5,-1
   15022:	0097e463          	bltu	a5,s1,1502a <_malloc_r+0x36>
   15026:	02b4f263          	bgeu	s1,a1,1504a <_malloc_r+0x56>
   1502a:	47b1                	c.li	a5,12
   1502c:	00f92023          	sw	a5,0(s2)
   15030:	4501                	c.li	a0,0
   15032:	60a6                	c.ldsp	ra,72(sp)
   15034:	6406                	c.ldsp	s0,64(sp)
   15036:	74e2                	c.ldsp	s1,56(sp)
   15038:	7942                	c.ldsp	s2,48(sp)
   1503a:	79a2                	c.ldsp	s3,40(sp)
   1503c:	7a02                	c.ldsp	s4,32(sp)
   1503e:	6ae2                	c.ldsp	s5,24(sp)
   15040:	6b42                	c.ldsp	s6,16(sp)
   15042:	6ba2                	c.ldsp	s7,8(sp)
   15044:	6c02                	c.ldsp	s8,0(sp)
   15046:	6161                	c.addi16sp	sp,80
   15048:	8082                	c.jr	ra
   1504a:	64a000ef          	jal	ra,15694 <__malloc_lock>
   1504e:	1f700793          	addi	a5,zero,503
   15052:	0497e963          	bltu	a5,s1,150a4 <_malloc_r+0xb0>
   15056:	0034d793          	srli	a5,s1,0x3
   1505a:	2781                	c.addiw	a5,0
   1505c:	0017871b          	addiw	a4,a5,1
   15060:	0017171b          	slliw	a4,a4,0x1
   15064:	0002b6b7          	lui	a3,0x2b
   15068:	c7068693          	addi	a3,a3,-912 # 2ac70 <__malloc_av_>
   1506c:	070e                	c.slli	a4,0x3
   1506e:	9736                	c.add	a4,a3
   15070:	6700                	c.ld	s0,8(a4)
   15072:	ff070693          	addi	a3,a4,-16 # 1ff0 <main-0xe0c0>
   15076:	00d41663          	bne	s0,a3,15082 <_malloc_r+0x8e>
   1507a:	6f00                	c.ld	s0,24(a4)
   1507c:	2789                	c.addiw	a5,2
   1507e:	06870763          	beq	a4,s0,150ec <_malloc_r+0xf8>
   15082:	641c                	c.ld	a5,8(s0)
   15084:	6c18                	c.ld	a4,24(s0)
   15086:	6814                	c.ld	a3,16(s0)
   15088:	9bf1                	c.andi	a5,-4
   1508a:	97a2                	c.add	a5,s0
   1508c:	ee98                	c.sd	a4,24(a3)
   1508e:	eb14                	c.sd	a3,16(a4)
   15090:	6798                	c.ld	a4,8(a5)
   15092:	00176713          	ori	a4,a4,1
   15096:	e798                	c.sd	a4,8(a5)
   15098:	854a                	c.mv	a0,s2
   1509a:	5fc000ef          	jal	ra,15696 <__malloc_unlock>
   1509e:	01040513          	addi	a0,s0,16
   150a2:	bf41                	c.j	15032 <_malloc_r+0x3e>
   150a4:	0094d713          	srli	a4,s1,0x9
   150a8:	03f00793          	addi	a5,zero,63
   150ac:	cb01                	c.beqz	a4,150bc <_malloc_r+0xc8>
   150ae:	4791                	c.li	a5,4
   150b0:	08e7e363          	bltu	a5,a4,15136 <_malloc_r+0x142>
   150b4:	0064d793          	srli	a5,s1,0x6
   150b8:	0387879b          	addiw	a5,a5,56
   150bc:	0017871b          	addiw	a4,a5,1
   150c0:	0017171b          	slliw	a4,a4,0x1
   150c4:	0002b6b7          	lui	a3,0x2b
   150c8:	070e                	c.slli	a4,0x3
   150ca:	c7068693          	addi	a3,a3,-912 # 2ac70 <__malloc_av_>
   150ce:	9736                	c.add	a4,a3
   150d0:	6700                	c.ld	s0,8(a4)
   150d2:	ff070593          	addi	a1,a4,-16
   150d6:	457d                	c.li	a0,31
   150d8:	00b40963          	beq	s0,a1,150ea <_malloc_r+0xf6>
   150dc:	6418                	c.ld	a4,8(s0)
   150de:	9b71                	c.andi	a4,-4
   150e0:	40970633          	sub	a2,a4,s1
   150e4:	08c55c63          	bge	a0,a2,1517c <_malloc_r+0x188>
   150e8:	37fd                	c.addiw	a5,-1
   150ea:	2785                	c.addiw	a5,1
   150ec:	0002b9b7          	lui	s3,0x2b
   150f0:	c7098693          	addi	a3,s3,-912 # 2ac70 <__malloc_av_>
   150f4:	7280                	c.ld	s0,32(a3)
   150f6:	0002b5b7          	lui	a1,0x2b
   150fa:	c8058613          	addi	a2,a1,-896 # 2ac80 <__malloc_av_+0x10>
   150fe:	c7098993          	addi	s3,s3,-912
   15102:	c8058593          	addi	a1,a1,-896
   15106:	0cc40c63          	beq	s0,a2,151de <_malloc_r+0x1ea>
   1510a:	6418                	c.ld	a4,8(s0)
   1510c:	487d                	c.li	a6,31
   1510e:	9b71                	c.andi	a4,-4
   15110:	40970533          	sub	a0,a4,s1
   15114:	06a85f63          	bge	a6,a0,15192 <_malloc_r+0x19e>
   15118:	009407b3          	add	a5,s0,s1
   1511c:	0014e493          	ori	s1,s1,1
   15120:	e404                	c.sd	s1,8(s0)
   15122:	f69c                	c.sd	a5,40(a3)
   15124:	f29c                	c.sd	a5,32(a3)
   15126:	00156693          	ori	a3,a0,1
   1512a:	ef90                	c.sd	a2,24(a5)
   1512c:	eb90                	c.sd	a2,16(a5)
   1512e:	e794                	c.sd	a3,8(a5)
   15130:	9722                	c.add	a4,s0
   15132:	e308                	c.sd	a0,0(a4)
   15134:	b795                	c.j	15098 <_malloc_r+0xa4>
   15136:	47d1                	c.li	a5,20
   15138:	00e7e563          	bltu	a5,a4,15142 <_malloc_r+0x14e>
   1513c:	05b7079b          	addiw	a5,a4,91
   15140:	bfb5                	c.j	150bc <_malloc_r+0xc8>
   15142:	05400793          	addi	a5,zero,84
   15146:	00e7e763          	bltu	a5,a4,15154 <_malloc_r+0x160>
   1514a:	00c4d793          	srli	a5,s1,0xc
   1514e:	06e7879b          	addiw	a5,a5,110
   15152:	b7ad                	c.j	150bc <_malloc_r+0xc8>
   15154:	15400793          	addi	a5,zero,340
   15158:	00e7e763          	bltu	a5,a4,15166 <_malloc_r+0x172>
   1515c:	00f4d793          	srli	a5,s1,0xf
   15160:	0777879b          	addiw	a5,a5,119
   15164:	bfa1                	c.j	150bc <_malloc_r+0xc8>
   15166:	55400693          	addi	a3,zero,1364
   1516a:	07e00793          	addi	a5,zero,126
   1516e:	f4e6e7e3          	bltu	a3,a4,150bc <_malloc_r+0xc8>
   15172:	0124d793          	srli	a5,s1,0x12
   15176:	07c7879b          	addiw	a5,a5,124
   1517a:	b789                	c.j	150bc <_malloc_r+0xc8>
   1517c:	6c14                	c.ld	a3,24(s0)
   1517e:	00064863          	blt	a2,zero,1518e <_malloc_r+0x19a>
   15182:	681c                	c.ld	a5,16(s0)
   15184:	ef94                	c.sd	a3,24(a5)
   15186:	ea9c                	c.sd	a5,16(a3)
   15188:	00e407b3          	add	a5,s0,a4
   1518c:	b711                	c.j	15090 <_malloc_r+0x9c>
   1518e:	8436                	c.mv	s0,a3
   15190:	b7a1                	c.j	150d8 <_malloc_r+0xe4>
   15192:	f690                	c.sd	a2,40(a3)
   15194:	f290                	c.sd	a2,32(a3)
   15196:	00054863          	blt	a0,zero,151a6 <_malloc_r+0x1b2>
   1519a:	9722                	c.add	a4,s0
   1519c:	671c                	c.ld	a5,8(a4)
   1519e:	0017e793          	ori	a5,a5,1
   151a2:	e71c                	c.sd	a5,8(a4)
   151a4:	bdd5                	c.j	15098 <_malloc_r+0xa4>
   151a6:	1ff00693          	addi	a3,zero,511
   151aa:	12e6e863          	bltu	a3,a4,152da <_malloc_r+0x2e6>
   151ae:	830d                	c.srli	a4,0x3
   151b0:	2701                	c.addiw	a4,0
   151b2:	4027561b          	sraiw	a2,a4,0x2
   151b6:	4685                	c.li	a3,1
   151b8:	00c696b3          	sll	a3,a3,a2
   151bc:	2705                	c.addiw	a4,1
   151be:	0089b603          	ld	a2,8(s3)
   151c2:	0017171b          	slliw	a4,a4,0x1
   151c6:	070e                	c.slli	a4,0x3
   151c8:	8ed1                	c.or	a3,a2
   151ca:	974e                	c.add	a4,s3
   151cc:	00d9b423          	sd	a3,8(s3)
   151d0:	6314                	c.ld	a3,0(a4)
   151d2:	ff070613          	addi	a2,a4,-16
   151d6:	ec10                	c.sd	a2,24(s0)
   151d8:	e814                	c.sd	a3,16(s0)
   151da:	e300                	c.sd	s0,0(a4)
   151dc:	ee80                	c.sd	s0,24(a3)
   151de:	4027d71b          	sraiw	a4,a5,0x2
   151e2:	4305                	c.li	t1,1
   151e4:	00e31333          	sll	t1,t1,a4
   151e8:	0089b703          	ld	a4,8(s3)
   151ec:	06676063          	bltu	a4,t1,1524c <_malloc_r+0x258>
   151f0:	006776b3          	and	a3,a4,t1
   151f4:	e699                	c.bnez	a3,15202 <_malloc_r+0x20e>
   151f6:	9bf1                	c.andi	a5,-4
   151f8:	0306                	c.slli	t1,0x1
   151fa:	006776b3          	and	a3,a4,t1
   151fe:	2791                	c.addiw	a5,4
   15200:	dee5                	c.beqz	a3,151f8 <_malloc_r+0x204>
   15202:	4e7d                	c.li	t3,31
   15204:	0017871b          	addiw	a4,a5,1
   15208:	0017171b          	slliw	a4,a4,0x1
   1520c:	070e                	c.slli	a4,0x3
   1520e:	1741                	c.addi	a4,-16
   15210:	974e                	c.add	a4,s3
   15212:	883a                	c.mv	a6,a4
   15214:	853e                	c.mv	a0,a5
   15216:	01883403          	ld	s0,24(a6)
   1521a:	15041f63          	bne	s0,a6,15378 <_malloc_r+0x384>
   1521e:	2505                	c.addiw	a0,1
   15220:	00357693          	andi	a3,a0,3
   15224:	0841                	c.addi	a6,16
   15226:	fae5                	c.bnez	a3,15216 <_malloc_r+0x222>
   15228:	0037f693          	andi	a3,a5,3
   1522c:	18069f63          	bne	a3,zero,153ca <_malloc_r+0x3d6>
   15230:	0089b703          	ld	a4,8(s3)
   15234:	fff34793          	xori	a5,t1,-1
   15238:	8ff9                	c.and	a5,a4
   1523a:	00f9b423          	sd	a5,8(s3)
   1523e:	0089b683          	ld	a3,8(s3)
   15242:	0306                	c.slli	t1,0x1
   15244:	0066e463          	bltu	a3,t1,1524c <_malloc_r+0x258>
   15248:	18031e63          	bne	t1,zero,153e4 <_malloc_r+0x3f0>
   1524c:	0109bb03          	ld	s6,16(s3)
   15250:	008b3403          	ld	s0,8(s6)
   15254:	ffc47a13          	andi	s4,s0,-4
   15258:	009a6763          	bltu	s4,s1,15266 <_malloc_r+0x272>
   1525c:	409a07b3          	sub	a5,s4,s1
   15260:	477d                	c.li	a4,31
   15262:	24f74863          	blt	a4,a5,154b2 <_malloc_r+0x4be>
   15266:	8781b403          	ld	s0,-1928(gp) # 2b4f8 <__malloc_top_pad>
   1526a:	8481b703          	ld	a4,-1976(gp) # 2b4c8 <__malloc_sbrk_base>
   1526e:	57fd                	c.li	a5,-1
   15270:	9426                	c.add	s0,s1
   15272:	16f71b63          	bne	a4,a5,153e8 <_malloc_r+0x3f4>
   15276:	02040413          	addi	s0,s0,32
   1527a:	85a2                	c.mv	a1,s0
   1527c:	854a                	c.mv	a0,s2
   1527e:	740000ef          	jal	ra,159be <_sbrk_r>
   15282:	57fd                	c.li	a5,-1
   15284:	8aaa                	c.mv	s5,a0
   15286:	1cf50b63          	beq	a0,a5,1545c <_malloc_r+0x468>
   1528a:	014b07b3          	add	a5,s6,s4
   1528e:	00f57463          	bgeu	a0,a5,15296 <_malloc_r+0x2a2>
   15292:	1d3b1563          	bne	s6,s3,1545c <_malloc_r+0x468>
   15296:	8d018693          	addi	a3,gp,-1840 # 2b550 <__malloc_current_mallinfo>
   1529a:	4298                	c.lw	a4,0(a3)
   1529c:	8d018b93          	addi	s7,gp,-1840 # 2b550 <__malloc_current_mallinfo>
   152a0:	9f21                	c.addw	a4,s0
   152a2:	c298                	c.sw	a4,0(a3)
   152a4:	15579863          	bne	a5,s5,153f4 <_malloc_r+0x400>
   152a8:	03479693          	slli	a3,a5,0x34
   152ac:	14069463          	bne	a3,zero,153f4 <_malloc_r+0x400>
   152b0:	0109b783          	ld	a5,16(s3)
   152b4:	9452                	c.add	s0,s4
   152b6:	00146413          	ori	s0,s0,1
   152ba:	e780                	c.sd	s0,8(a5)
   152bc:	000ba783          	lw	a5,0(s7)
   152c0:	8701b683          	ld	a3,-1936(gp) # 2b4f0 <__malloc_max_sbrked_mem>
   152c4:	00f6f463          	bgeu	a3,a5,152cc <_malloc_r+0x2d8>
   152c8:	86f1b823          	sd	a5,-1936(gp) # 2b4f0 <__malloc_max_sbrked_mem>
   152cc:	8681b683          	ld	a3,-1944(gp) # 2b4e8 <__malloc_max_total_mem>
   152d0:	18f6f663          	bgeu	a3,a5,1545c <_malloc_r+0x468>
   152d4:	86f1b423          	sd	a5,-1944(gp) # 2b4e8 <__malloc_max_total_mem>
   152d8:	a251                	c.j	1545c <_malloc_r+0x468>
   152da:	00975613          	srli	a2,a4,0x9
   152de:	4691                	c.li	a3,4
   152e0:	04c6e063          	bltu	a3,a2,15320 <_malloc_r+0x32c>
   152e4:	00675693          	srli	a3,a4,0x6
   152e8:	0386869b          	addiw	a3,a3,56
   152ec:	0016861b          	addiw	a2,a3,1
   152f0:	0016161b          	slliw	a2,a2,0x1
   152f4:	060e                	c.slli	a2,0x3
   152f6:	964e                	c.add	a2,s3
   152f8:	ff060513          	addi	a0,a2,-16 # 1ff0 <main-0xe0c0>
   152fc:	6210                	c.ld	a2,0(a2)
   152fe:	06c51763          	bne	a0,a2,1536c <_malloc_r+0x378>
   15302:	4705                	c.li	a4,1
   15304:	4026d69b          	sraiw	a3,a3,0x2
   15308:	00d716b3          	sll	a3,a4,a3
   1530c:	0089b703          	ld	a4,8(s3)
   15310:	8ed9                	c.or	a3,a4
   15312:	00d9b423          	sd	a3,8(s3)
   15316:	ec08                	c.sd	a0,24(s0)
   15318:	e810                	c.sd	a2,16(s0)
   1531a:	e900                	c.sd	s0,16(a0)
   1531c:	ee00                	c.sd	s0,24(a2)
   1531e:	b5c1                	c.j	151de <_malloc_r+0x1ea>
   15320:	46d1                	c.li	a3,20
   15322:	00c6e563          	bltu	a3,a2,1532c <_malloc_r+0x338>
   15326:	05b6069b          	addiw	a3,a2,91
   1532a:	b7c9                	c.j	152ec <_malloc_r+0x2f8>
   1532c:	05400693          	addi	a3,zero,84
   15330:	00c6e763          	bltu	a3,a2,1533e <_malloc_r+0x34a>
   15334:	00c75693          	srli	a3,a4,0xc
   15338:	06e6869b          	addiw	a3,a3,110
   1533c:	bf45                	c.j	152ec <_malloc_r+0x2f8>
   1533e:	15400693          	addi	a3,zero,340
   15342:	00c6e763          	bltu	a3,a2,15350 <_malloc_r+0x35c>
   15346:	00f75693          	srli	a3,a4,0xf
   1534a:	0776869b          	addiw	a3,a3,119
   1534e:	bf79                	c.j	152ec <_malloc_r+0x2f8>
   15350:	55400513          	addi	a0,zero,1364
   15354:	07e00693          	addi	a3,zero,126
   15358:	f8c56ae3          	bltu	a0,a2,152ec <_malloc_r+0x2f8>
   1535c:	01275693          	srli	a3,a4,0x12
   15360:	07c6869b          	addiw	a3,a3,124
   15364:	b761                	c.j	152ec <_malloc_r+0x2f8>
   15366:	6a10                	c.ld	a2,16(a2)
   15368:	00c50663          	beq	a0,a2,15374 <_malloc_r+0x380>
   1536c:	6614                	c.ld	a3,8(a2)
   1536e:	9af1                	c.andi	a3,-4
   15370:	fed76be3          	bltu	a4,a3,15366 <_malloc_r+0x372>
   15374:	6e08                	c.ld	a0,24(a2)
   15376:	b745                	c.j	15316 <_malloc_r+0x322>
   15378:	6414                	c.ld	a3,8(s0)
   1537a:	6c10                	c.ld	a2,24(s0)
   1537c:	9af1                	c.andi	a3,-4
   1537e:	409688b3          	sub	a7,a3,s1
   15382:	031e5763          	bge	t3,a7,153b0 <_malloc_r+0x3bc>
   15386:	6818                	c.ld	a4,16(s0)
   15388:	009407b3          	add	a5,s0,s1
   1538c:	0014e493          	ori	s1,s1,1
   15390:	e404                	c.sd	s1,8(s0)
   15392:	ef10                	c.sd	a2,24(a4)
   15394:	ea18                	c.sd	a4,16(a2)
   15396:	02f9b423          	sd	a5,40(s3)
   1539a:	02f9b023          	sd	a5,32(s3)
   1539e:	0018e713          	ori	a4,a7,1
   153a2:	ef8c                	c.sd	a1,24(a5)
   153a4:	eb8c                	c.sd	a1,16(a5)
   153a6:	e798                	c.sd	a4,8(a5)
   153a8:	96a2                	c.add	a3,s0
   153aa:	0116b023          	sd	a7,0(a3)
   153ae:	b1ed                	c.j	15098 <_malloc_r+0xa4>
   153b0:	0008cb63          	blt	a7,zero,153c6 <_malloc_r+0x3d2>
   153b4:	96a2                	c.add	a3,s0
   153b6:	669c                	c.ld	a5,8(a3)
   153b8:	0017e793          	ori	a5,a5,1
   153bc:	e69c                	c.sd	a5,8(a3)
   153be:	681c                	c.ld	a5,16(s0)
   153c0:	ef90                	c.sd	a2,24(a5)
   153c2:	ea1c                	c.sd	a5,16(a2)
   153c4:	b9d1                	c.j	15098 <_malloc_r+0xa4>
   153c6:	8432                	c.mv	s0,a2
   153c8:	bd89                	c.j	1521a <_malloc_r+0x226>
   153ca:	ff070693          	addi	a3,a4,-16
   153ce:	6318                	c.ld	a4,0(a4)
   153d0:	37fd                	c.addiw	a5,-1
   153d2:	e4d70be3          	beq	a4,a3,15228 <_malloc_r+0x234>
   153d6:	b5a5                	c.j	1523e <_malloc_r+0x24a>
   153d8:	2791                	c.addiw	a5,4
   153da:	0306                	c.slli	t1,0x1
   153dc:	0066f733          	and	a4,a3,t1
   153e0:	df65                	c.beqz	a4,153d8 <_malloc_r+0x3e4>
   153e2:	b50d                	c.j	15204 <_malloc_r+0x210>
   153e4:	87aa                	c.mv	a5,a0
   153e6:	bfdd                	c.j	153dc <_malloc_r+0x3e8>
   153e8:	6785                	c.lui	a5,0x1
   153ea:	07fd                	c.addi	a5,31
   153ec:	943e                	c.add	s0,a5
   153ee:	77fd                	c.lui	a5,0xfffff
   153f0:	8c7d                	c.and	s0,a5
   153f2:	b561                	c.j	1527a <_malloc_r+0x286>
   153f4:	8481b603          	ld	a2,-1976(gp) # 2b4c8 <__malloc_sbrk_base>
   153f8:	56fd                	c.li	a3,-1
   153fa:	08d61063          	bne	a2,a3,1547a <_malloc_r+0x486>
   153fe:	8551b423          	sd	s5,-1976(gp) # 2b4c8 <__malloc_sbrk_base>
   15402:	00faf593          	andi	a1,s5,15
   15406:	c589                	c.beqz	a1,15410 <_malloc_r+0x41c>
   15408:	47c1                	c.li	a5,16
   1540a:	40b785b3          	sub	a1,a5,a1
   1540e:	9aae                	c.add	s5,a1
   15410:	6785                	c.lui	a5,0x1
   15412:	95be                	c.add	a1,a5
   15414:	9456                	c.add	s0,s5
   15416:	17fd                	c.addi	a5,-1
   15418:	8c7d                	c.and	s0,a5
   1541a:	40858433          	sub	s0,a1,s0
   1541e:	85a2                	c.mv	a1,s0
   15420:	854a                	c.mv	a0,s2
   15422:	59c000ef          	jal	ra,159be <_sbrk_r>
   15426:	57fd                	c.li	a5,-1
   15428:	00f51463          	bne	a0,a5,15430 <_malloc_r+0x43c>
   1542c:	8556                	c.mv	a0,s5
   1542e:	4401                	c.li	s0,0
   15430:	000ba783          	lw	a5,0(s7)
   15434:	41550533          	sub	a0,a0,s5
   15438:	0159b823          	sd	s5,16(s3)
   1543c:	9fa1                	c.addw	a5,s0
   1543e:	942a                	c.add	s0,a0
   15440:	00146413          	ori	s0,s0,1
   15444:	00fba023          	sw	a5,0(s7)
   15448:	008ab423          	sd	s0,8(s5)
   1544c:	e73b08e3          	beq	s6,s3,152bc <_malloc_r+0x2c8>
   15450:	477d                	c.li	a4,31
   15452:	03476a63          	bltu	a4,s4,15486 <_malloc_r+0x492>
   15456:	4785                	c.li	a5,1
   15458:	00fab423          	sd	a5,8(s5)
   1545c:	0109b783          	ld	a5,16(s3)
   15460:	6798                	c.ld	a4,8(a5)
   15462:	9b71                	c.andi	a4,-4
   15464:	409707b3          	sub	a5,a4,s1
   15468:	00976563          	bltu	a4,s1,15472 <_malloc_r+0x47e>
   1546c:	477d                	c.li	a4,31
   1546e:	04f74263          	blt	a4,a5,154b2 <_malloc_r+0x4be>
   15472:	854a                	c.mv	a0,s2
   15474:	222000ef          	jal	ra,15696 <__malloc_unlock>
   15478:	be65                	c.j	15030 <_malloc_r+0x3c>
   1547a:	40fa87b3          	sub	a5,s5,a5
   1547e:	9fb9                	c.addw	a5,a4
   15480:	00fba023          	sw	a5,0(s7)
   15484:	bfbd                	c.j	15402 <_malloc_r+0x40e>
   15486:	008b3783          	ld	a5,8(s6)
   1548a:	fe8a0413          	addi	s0,s4,-24
   1548e:	9841                	c.andi	s0,-16
   15490:	8b85                	c.andi	a5,1
   15492:	8fc1                	c.or	a5,s0
   15494:	00fb3423          	sd	a5,8(s6)
   15498:	46a5                	c.li	a3,9
   1549a:	008b07b3          	add	a5,s6,s0
   1549e:	e794                	c.sd	a3,8(a5)
   154a0:	eb94                	c.sd	a3,16(a5)
   154a2:	e0877de3          	bgeu	a4,s0,152bc <_malloc_r+0x2c8>
   154a6:	010b0593          	addi	a1,s6,16
   154aa:	854a                	c.mv	a0,s2
   154ac:	a98ff0ef          	jal	ra,14744 <_free_r>
   154b0:	b531                	c.j	152bc <_malloc_r+0x2c8>
   154b2:	0109b403          	ld	s0,16(s3)
   154b6:	0014e713          	ori	a4,s1,1
   154ba:	0017e793          	ori	a5,a5,1
   154be:	e418                	c.sd	a4,8(s0)
   154c0:	94a2                	c.add	s1,s0
   154c2:	0099b823          	sd	s1,16(s3)
   154c6:	e49c                	c.sd	a5,8(s1)
   154c8:	bec1                	c.j	15098 <_malloc_r+0xa4>
   154ca:	02000793          	addi	a5,zero,32
   154ce:	b4b7eee3          	bltu	a5,a1,1502a <_malloc_r+0x36>
   154d2:	1c2000ef          	jal	ra,15694 <__malloc_lock>
   154d6:	02000493          	addi	s1,zero,32
   154da:	beb5                	c.j	15056 <_malloc_r+0x62>

00000000000154dc <_mbtowc_r>:
   154dc:	8401b783          	ld	a5,-1984(gp) # 2b4c0 <_impure_ptr>
   154e0:	67bc                	c.ld	a5,72(a5)
   154e2:	e789                	c.bnez	a5,154ec <_mbtowc_r+0x10>
   154e4:	0002b7b7          	lui	a5,0x2b
   154e8:	ac878793          	addi	a5,a5,-1336 # 2aac8 <__global_locale>
   154ec:	0e87b303          	ld	t1,232(a5)
   154f0:	8302                	c.jr	t1

00000000000154f2 <__ascii_mbtowc>:
   154f2:	e185                	c.bnez	a1,15512 <__ascii_mbtowc+0x20>
   154f4:	1141                	c.addi	sp,-16
   154f6:	006c                	c.addi4spn	a1,sp,12
   154f8:	4501                	c.li	a0,0
   154fa:	ca11                	c.beqz	a2,1550e <__ascii_mbtowc+0x1c>
   154fc:	5579                	c.li	a0,-2
   154fe:	ca81                	c.beqz	a3,1550e <__ascii_mbtowc+0x1c>
   15500:	00064783          	lbu	a5,0(a2)
   15504:	c19c                	c.sw	a5,0(a1)
   15506:	00064503          	lbu	a0,0(a2)
   1550a:	00a03533          	sltu	a0,zero,a0
   1550e:	0141                	c.addi	sp,16
   15510:	8082                	c.jr	ra
   15512:	4501                	c.li	a0,0
   15514:	ca19                	c.beqz	a2,1552a <__ascii_mbtowc+0x38>
   15516:	5579                	c.li	a0,-2
   15518:	ca89                	c.beqz	a3,1552a <__ascii_mbtowc+0x38>
   1551a:	00064783          	lbu	a5,0(a2)
   1551e:	c19c                	c.sw	a5,0(a1)
   15520:	00064503          	lbu	a0,0(a2)
   15524:	00a03533          	sltu	a0,zero,a0
   15528:	8082                	c.jr	ra
   1552a:	8082                	c.jr	ra

000000000001552c <memcpy>:
   1552c:	00a5c7b3          	xor	a5,a1,a0
   15530:	8b9d                	c.andi	a5,7
   15532:	00c50733          	add	a4,a0,a2
   15536:	e781                	c.bnez	a5,1553e <memcpy+0x12>
   15538:	479d                	c.li	a5,7
   1553a:	00c7ef63          	bltu	a5,a2,15558 <memcpy+0x2c>
   1553e:	87aa                	c.mv	a5,a0
   15540:	00e56963          	bltu	a0,a4,15552 <memcpy+0x26>
   15544:	8082                	c.jr	ra
   15546:	0005c683          	lbu	a3,0(a1)
   1554a:	0785                	c.addi	a5,1
   1554c:	0585                	c.addi	a1,1
   1554e:	fed78fa3          	sb	a3,-1(a5)
   15552:	fee7eae3          	bltu	a5,a4,15546 <memcpy+0x1a>
   15556:	8082                	c.jr	ra
   15558:	00757793          	andi	a5,a0,7
   1555c:	ebbd                	c.bnez	a5,155d2 <memcpy+0xa6>
   1555e:	87aa                	c.mv	a5,a0
   15560:	ff877693          	andi	a3,a4,-8
   15564:	fc068613          	addi	a2,a3,-64
   15568:	06c7fc63          	bgeu	a5,a2,155e0 <memcpy+0xb4>
   1556c:	0005b383          	ld	t2,0(a1)
   15570:	0085b283          	ld	t0,8(a1)
   15574:	0105bf83          	ld	t6,16(a1)
   15578:	0185bf03          	ld	t5,24(a1)
   1557c:	0205be83          	ld	t4,32(a1)
   15580:	0285be03          	ld	t3,40(a1)
   15584:	0305b303          	ld	t1,48(a1)
   15588:	0385b883          	ld	a7,56(a1)
   1558c:	04858593          	addi	a1,a1,72
   15590:	04878793          	addi	a5,a5,72
   15594:	ff85b803          	ld	a6,-8(a1)
   15598:	fa77bc23          	sd	t2,-72(a5)
   1559c:	fc57b023          	sd	t0,-64(a5)
   155a0:	fdf7b423          	sd	t6,-56(a5)
   155a4:	fde7b823          	sd	t5,-48(a5)
   155a8:	fdd7bc23          	sd	t4,-40(a5)
   155ac:	ffc7b023          	sd	t3,-32(a5)
   155b0:	fe67b423          	sd	t1,-24(a5)
   155b4:	ff17b823          	sd	a7,-16(a5)
   155b8:	ff07bc23          	sd	a6,-8(a5)
   155bc:	b775                	c.j	15568 <memcpy+0x3c>
   155be:	0005c683          	lbu	a3,0(a1)
   155c2:	0785                	c.addi	a5,1
   155c4:	0585                	c.addi	a1,1
   155c6:	fed78fa3          	sb	a3,-1(a5)
   155ca:	0077f693          	andi	a3,a5,7
   155ce:	fae5                	c.bnez	a3,155be <memcpy+0x92>
   155d0:	bf41                	c.j	15560 <memcpy+0x34>
   155d2:	87aa                	c.mv	a5,a0
   155d4:	bfdd                	c.j	155ca <memcpy+0x9e>
   155d6:	6190                	c.ld	a2,0(a1)
   155d8:	07a1                	c.addi	a5,8
   155da:	05a1                	c.addi	a1,8
   155dc:	fec7bc23          	sd	a2,-8(a5)
   155e0:	fed7ebe3          	bltu	a5,a3,155d6 <memcpy+0xaa>
   155e4:	f6e7e7e3          	bltu	a5,a4,15552 <memcpy+0x26>
   155e8:	8082                	c.jr	ra

00000000000155ea <memset>:
   155ea:	433d                	c.li	t1,15
   155ec:	872a                	c.mv	a4,a0
   155ee:	02c37163          	bgeu	t1,a2,15610 <memset+0x26>
   155f2:	00f77793          	andi	a5,a4,15
   155f6:	e3c1                	c.bnez	a5,15676 <memset+0x8c>
   155f8:	e1bd                	c.bnez	a1,1565e <memset+0x74>
   155fa:	ff067693          	andi	a3,a2,-16
   155fe:	8a3d                	c.andi	a2,15
   15600:	96ba                	c.add	a3,a4
   15602:	e30c                	c.sd	a1,0(a4)
   15604:	e70c                	c.sd	a1,8(a4)
   15606:	0741                	c.addi	a4,16
   15608:	fed76de3          	bltu	a4,a3,15602 <memset+0x18>
   1560c:	e211                	c.bnez	a2,15610 <memset+0x26>
   1560e:	8082                	c.jr	ra
   15610:	40c306b3          	sub	a3,t1,a2
   15614:	068a                	c.slli	a3,0x2
   15616:	00000297          	auipc	t0,0x0
   1561a:	9696                	c.add	a3,t0
   1561c:	00a68067          	jalr	zero,10(a3)
   15620:	00b70723          	sb	a1,14(a4)
   15624:	00b706a3          	sb	a1,13(a4)
   15628:	00b70623          	sb	a1,12(a4)
   1562c:	00b705a3          	sb	a1,11(a4)
   15630:	00b70523          	sb	a1,10(a4)
   15634:	00b704a3          	sb	a1,9(a4)
   15638:	00b70423          	sb	a1,8(a4)
   1563c:	00b703a3          	sb	a1,7(a4)
   15640:	00b70323          	sb	a1,6(a4)
   15644:	00b702a3          	sb	a1,5(a4)
   15648:	00b70223          	sb	a1,4(a4)
   1564c:	00b701a3          	sb	a1,3(a4)
   15650:	00b70123          	sb	a1,2(a4)
   15654:	00b700a3          	sb	a1,1(a4)
   15658:	00b70023          	sb	a1,0(a4)
   1565c:	8082                	c.jr	ra
   1565e:	0ff5f593          	andi	a1,a1,255
   15662:	00859693          	slli	a3,a1,0x8
   15666:	8dd5                	c.or	a1,a3
   15668:	01059693          	slli	a3,a1,0x10
   1566c:	8dd5                	c.or	a1,a3
   1566e:	02059693          	slli	a3,a1,0x20
   15672:	8dd5                	c.or	a1,a3
   15674:	b759                	c.j	155fa <memset+0x10>
   15676:	00279693          	slli	a3,a5,0x2
   1567a:	00000297          	auipc	t0,0x0
   1567e:	9696                	c.add	a3,t0
   15680:	8286                	c.mv	t0,ra
   15682:	fa2680e7          	jalr	ra,-94(a3)
   15686:	8096                	c.mv	ra,t0
   15688:	17c1                	c.addi	a5,-16
   1568a:	8f1d                	c.sub	a4,a5
   1568c:	963e                	c.add	a2,a5
   1568e:	f8c371e3          	bgeu	t1,a2,15610 <memset+0x26>
   15692:	b79d                	c.j	155f8 <memset+0xe>

0000000000015694 <__malloc_lock>:
   15694:	8082                	c.jr	ra

0000000000015696 <__malloc_unlock>:
   15696:	8082                	c.jr	ra

0000000000015698 <_open_r>:
   15698:	1101                	c.addi	sp,-32
   1569a:	e822                	c.sdsp	s0,16(sp)
   1569c:	e426                	c.sdsp	s1,8(sp)
   1569e:	84aa                	c.mv	s1,a0
   156a0:	852e                	c.mv	a0,a1
   156a2:	85b2                	c.mv	a1,a2
   156a4:	8636                	c.mv	a2,a3
   156a6:	ec06                	c.sdsp	ra,24(sp)
   156a8:	8e01ac23          	sw	zero,-1800(gp) # 2b578 <errno>
   156ac:	4ee070ef          	jal	ra,1cb9a <_open>
   156b0:	57fd                	c.li	a5,-1
   156b2:	00f51663          	bne	a0,a5,156be <_open_r+0x26>
   156b6:	8f81a783          	lw	a5,-1800(gp) # 2b578 <errno>
   156ba:	c391                	c.beqz	a5,156be <_open_r+0x26>
   156bc:	c09c                	c.sw	a5,0(s1)
   156be:	60e2                	c.ldsp	ra,24(sp)
   156c0:	6442                	c.ldsp	s0,16(sp)
   156c2:	64a2                	c.ldsp	s1,8(sp)
   156c4:	6105                	c.addi16sp	sp,32
   156c6:	8082                	c.jr	ra

00000000000156c8 <_printf_r>:
   156c8:	715d                	c.addi16sp	sp,-80
   156ca:	f032                	c.sdsp	a2,32(sp)
   156cc:	f436                	c.sdsp	a3,40(sp)
   156ce:	f83a                	c.sdsp	a4,48(sp)
   156d0:	fc3e                	c.sdsp	a5,56(sp)
   156d2:	e0c2                	c.sdsp	a6,64(sp)
   156d4:	e4c6                	c.sdsp	a7,72(sp)
   156d6:	862e                	c.mv	a2,a1
   156d8:	690c                	c.ld	a1,16(a0)
   156da:	1014                	c.addi4spn	a3,sp,32
   156dc:	ec06                	c.sdsp	ra,24(sp)
   156de:	e436                	c.sdsp	a3,8(sp)
   156e0:	4ce000ef          	jal	ra,15bae <_vfprintf_r>
   156e4:	60e2                	c.ldsp	ra,24(sp)
   156e6:	6161                	c.addi16sp	sp,80
   156e8:	8082                	c.jr	ra

00000000000156ea <printf>:
   156ea:	711d                	c.addi16sp	sp,-96
   156ec:	e4be                	c.sdsp	a5,72(sp)
   156ee:	8401b783          	ld	a5,-1984(gp) # 2b4c0 <_impure_ptr>
   156f2:	f832                	c.sdsp	a2,48(sp)
   156f4:	fc36                	c.sdsp	a3,56(sp)
   156f6:	f42e                	c.sdsp	a1,40(sp)
   156f8:	e0ba                	c.sdsp	a4,64(sp)
   156fa:	e8c2                	c.sdsp	a6,80(sp)
   156fc:	ecc6                	c.sdsp	a7,88(sp)
   156fe:	6b8c                	c.ld	a1,16(a5)
   15700:	1034                	c.addi4spn	a3,sp,40
   15702:	862a                	c.mv	a2,a0
   15704:	853e                	c.mv	a0,a5
   15706:	ec06                	c.sdsp	ra,24(sp)
   15708:	e436                	c.sdsp	a3,8(sp)
   1570a:	4a4000ef          	jal	ra,15bae <_vfprintf_r>
   1570e:	60e2                	c.ldsp	ra,24(sp)
   15710:	6125                	c.addi16sp	sp,96
   15712:	8082                	c.jr	ra

0000000000015714 <_puts_r>:
   15714:	711d                	c.addi16sp	sp,-96
   15716:	e8a2                	c.sdsp	s0,80(sp)
   15718:	842a                	c.mv	s0,a0
   1571a:	852e                	c.mv	a0,a1
   1571c:	e42e                	c.sdsp	a1,8(sp)
   1571e:	ec86                	c.sdsp	ra,88(sp)
   15720:	47c000ef          	jal	ra,15b9c <strlen>
   15724:	000287b7          	lui	a5,0x28
   15728:	4f878793          	addi	a5,a5,1272 # 284f8 <s_box+0x120>
   1572c:	e0be                	c.sdsp	a5,64(sp)
   1572e:	4785                	c.li	a5,1
   15730:	e4be                	c.sdsp	a5,72(sp)
   15732:	181c                	c.addi4spn	a5,sp,48
   15734:	65a2                	c.ldsp	a1,8(sp)
   15736:	ec3e                	c.sdsp	a5,24(sp)
   15738:	4789                	c.li	a5,2
   1573a:	d03e                	c.swsp	a5,32(sp)
   1573c:	483c                	c.lw	a5,80(s0)
   1573e:	fc2a                	c.sdsp	a0,56(sp)
   15740:	0505                	c.addi	a0,1
   15742:	f82e                	c.sdsp	a1,48(sp)
   15744:	f42a                	c.sdsp	a0,40(sp)
   15746:	680c                	c.ld	a1,16(s0)
   15748:	e791                	c.bnez	a5,15754 <_puts_r+0x40>
   1574a:	8522                	c.mv	a0,s0
   1574c:	e42e                	c.sdsp	a1,8(sp)
   1574e:	c61fe0ef          	jal	ra,143ae <__sinit>
   15752:	65a2                	c.ldsp	a1,8(sp)
   15754:	01059783          	lh	a5,16(a1)
   15758:	03279713          	slli	a4,a5,0x32
   1575c:	00074d63          	blt	a4,zero,15776 <_puts_r+0x62>
   15760:	6689                	c.lui	a3,0x2
   15762:	0ac5a703          	lw	a4,172(a1)
   15766:	8fd5                	c.or	a5,a3
   15768:	00f59823          	sh	a5,16(a1)
   1576c:	77f9                	c.lui	a5,0xffffe
   1576e:	17fd                	c.addi	a5,-1
   15770:	8ff9                	c.and	a5,a4
   15772:	0af5a623          	sw	a5,172(a1)
   15776:	0830                	c.addi4spn	a2,sp,24
   15778:	8522                	c.mv	a0,s0
   1577a:	593010ef          	jal	ra,1750c <__sfvwrite_r>
   1577e:	57fd                	c.li	a5,-1
   15780:	e111                	c.bnez	a0,15784 <_puts_r+0x70>
   15782:	47a9                	c.li	a5,10
   15784:	60e6                	c.ldsp	ra,88(sp)
   15786:	6446                	c.ldsp	s0,80(sp)
   15788:	853e                	c.mv	a0,a5
   1578a:	6125                	c.addi16sp	sp,96
   1578c:	8082                	c.jr	ra

000000000001578e <puts>:
   1578e:	85aa                	c.mv	a1,a0
   15790:	8401b503          	ld	a0,-1984(gp) # 2b4c0 <_impure_ptr>
   15794:	f81ff06f          	jal	zero,15714 <_puts_r>

0000000000015798 <cleanup_glue>:
   15798:	1101                	c.addi	sp,-32
   1579a:	e822                	c.sdsp	s0,16(sp)
   1579c:	842e                	c.mv	s0,a1
   1579e:	618c                	c.ld	a1,0(a1)
   157a0:	e426                	c.sdsp	s1,8(sp)
   157a2:	ec06                	c.sdsp	ra,24(sp)
   157a4:	84aa                	c.mv	s1,a0
   157a6:	c199                	c.beqz	a1,157ac <cleanup_glue+0x14>
   157a8:	ff1ff0ef          	jal	ra,15798 <cleanup_glue>
   157ac:	85a2                	c.mv	a1,s0
   157ae:	6442                	c.ldsp	s0,16(sp)
   157b0:	60e2                	c.ldsp	ra,24(sp)
   157b2:	8526                	c.mv	a0,s1
   157b4:	64a2                	c.ldsp	s1,8(sp)
   157b6:	6105                	c.addi16sp	sp,32
   157b8:	f8dfe06f          	jal	zero,14744 <_free_r>

00000000000157bc <_reclaim_reent>:
   157bc:	8401b783          	ld	a5,-1984(gp) # 2b4c0 <_impure_ptr>
   157c0:	0aa78063          	beq	a5,a0,15860 <_reclaim_reent+0xa4>
   157c4:	7d3c                	c.ld	a5,120(a0)
   157c6:	7179                	c.addi16sp	sp,-48
   157c8:	f022                	c.sdsp	s0,32(sp)
   157ca:	ec26                	c.sdsp	s1,24(sp)
   157cc:	e84a                	c.sdsp	s2,16(sp)
   157ce:	f406                	c.sdsp	ra,40(sp)
   157d0:	e44e                	c.sdsp	s3,8(sp)
   157d2:	842a                	c.mv	s0,a0
   157d4:	4481                	c.li	s1,0
   157d6:	20000913          	addi	s2,zero,512
   157da:	eb85                	c.bnez	a5,1580a <_reclaim_reent+0x4e>
   157dc:	702c                	c.ld	a1,96(s0)
   157de:	c581                	c.beqz	a1,157e6 <_reclaim_reent+0x2a>
   157e0:	8522                	c.mv	a0,s0
   157e2:	f63fe0ef          	jal	ra,14744 <_free_r>
   157e6:	1f843583          	ld	a1,504(s0)
   157ea:	cd95                	c.beqz	a1,15826 <_reclaim_reent+0x6a>
   157ec:	20040493          	addi	s1,s0,512
   157f0:	02958b63          	beq	a1,s1,15826 <_reclaim_reent+0x6a>
   157f4:	0005b903          	ld	s2,0(a1)
   157f8:	8522                	c.mv	a0,s0
   157fa:	f4bfe0ef          	jal	ra,14744 <_free_r>
   157fe:	85ca                	c.mv	a1,s2
   15800:	bfc5                	c.j	157f0 <_reclaim_reent+0x34>
   15802:	95a6                	c.add	a1,s1
   15804:	618c                	c.ld	a1,0(a1)
   15806:	e989                	c.bnez	a1,15818 <_reclaim_reent+0x5c>
   15808:	04a1                	c.addi	s1,8
   1580a:	7c2c                	c.ld	a1,120(s0)
   1580c:	ff249be3          	bne	s1,s2,15802 <_reclaim_reent+0x46>
   15810:	8522                	c.mv	a0,s0
   15812:	f33fe0ef          	jal	ra,14744 <_free_r>
   15816:	b7d9                	c.j	157dc <_reclaim_reent+0x20>
   15818:	0005b983          	ld	s3,0(a1)
   1581c:	8522                	c.mv	a0,s0
   1581e:	f27fe0ef          	jal	ra,14744 <_free_r>
   15822:	85ce                	c.mv	a1,s3
   15824:	b7cd                	c.j	15806 <_reclaim_reent+0x4a>
   15826:	644c                	c.ld	a1,136(s0)
   15828:	c581                	c.beqz	a1,15830 <_reclaim_reent+0x74>
   1582a:	8522                	c.mv	a0,s0
   1582c:	f19fe0ef          	jal	ra,14744 <_free_r>
   15830:	483c                	c.lw	a5,80(s0)
   15832:	c385                	c.beqz	a5,15852 <_reclaim_reent+0x96>
   15834:	6c3c                	c.ld	a5,88(s0)
   15836:	8522                	c.mv	a0,s0
   15838:	9782                	c.jalr	a5
   1583a:	52043583          	ld	a1,1312(s0)
   1583e:	c991                	c.beqz	a1,15852 <_reclaim_reent+0x96>
   15840:	8522                	c.mv	a0,s0
   15842:	7402                	c.ldsp	s0,32(sp)
   15844:	70a2                	c.ldsp	ra,40(sp)
   15846:	64e2                	c.ldsp	s1,24(sp)
   15848:	6942                	c.ldsp	s2,16(sp)
   1584a:	69a2                	c.ldsp	s3,8(sp)
   1584c:	6145                	c.addi16sp	sp,48
   1584e:	f4bff06f          	jal	zero,15798 <cleanup_glue>
   15852:	70a2                	c.ldsp	ra,40(sp)
   15854:	7402                	c.ldsp	s0,32(sp)
   15856:	64e2                	c.ldsp	s1,24(sp)
   15858:	6942                	c.ldsp	s2,16(sp)
   1585a:	69a2                	c.ldsp	s3,8(sp)
   1585c:	6145                	c.addi16sp	sp,48
   1585e:	8082                	c.jr	ra
   15860:	8082                	c.jr	ra

0000000000015862 <lflush>:
   15862:	01055783          	lhu	a5,16(a0)
   15866:	4725                	c.li	a4,9
   15868:	8ba5                	c.andi	a5,9
   1586a:	00e79463          	bne	a5,a4,15872 <lflush+0x10>
   1586e:	a35fe06f          	jal	zero,142a2 <fflush>
   15872:	4501                	c.li	a0,0
   15874:	8082                	c.jr	ra

0000000000015876 <__srefill_r>:
   15876:	7179                	c.addi16sp	sp,-48
   15878:	f022                	c.sdsp	s0,32(sp)
   1587a:	ec26                	c.sdsp	s1,24(sp)
   1587c:	f406                	c.sdsp	ra,40(sp)
   1587e:	e84a                	c.sdsp	s2,16(sp)
   15880:	e44e                	c.sdsp	s3,8(sp)
   15882:	84aa                	c.mv	s1,a0
   15884:	842e                	c.mv	s0,a1
   15886:	c509                	c.beqz	a0,15890 <__srefill_r+0x1a>
   15888:	493c                	c.lw	a5,80(a0)
   1588a:	e399                	c.bnez	a5,15890 <__srefill_r+0x1a>
   1588c:	b23fe0ef          	jal	ra,143ae <__sinit>
   15890:	01041783          	lh	a5,16(s0)
   15894:	03279713          	slli	a4,a5,0x32
   15898:	00074d63          	blt	a4,zero,158b2 <__srefill_r+0x3c>
   1589c:	6709                	c.lui	a4,0x2
   1589e:	8fd9                	c.or	a5,a4
   158a0:	00f41823          	sh	a5,16(s0)
   158a4:	0ac42783          	lw	a5,172(s0)
   158a8:	7779                	c.lui	a4,0xffffe
   158aa:	177d                	c.addi	a4,-1
   158ac:	8ff9                	c.and	a5,a4
   158ae:	0af42623          	sw	a5,172(s0)
   158b2:	01041703          	lh	a4,16(s0)
   158b6:	00042423          	sw	zero,8(s0)
   158ba:	03071793          	slli	a5,a4,0x30
   158be:	93c1                	c.srli	a5,0x30
   158c0:	0207f693          	andi	a3,a5,32
   158c4:	c299                	c.beqz	a3,158ca <__srefill_r+0x54>
   158c6:	557d                	c.li	a0,-1
   158c8:	a8f9                	c.j	159a6 <__srefill_r+0x130>
   158ca:	0047f693          	andi	a3,a5,4
   158ce:	eadd                	c.bnez	a3,15984 <__srefill_r+0x10e>
   158d0:	0107f693          	andi	a3,a5,16
   158d4:	ea81                	c.bnez	a3,158e4 <__srefill_r+0x6e>
   158d6:	47a5                	c.li	a5,9
   158d8:	c09c                	c.sw	a5,0(s1)
   158da:	04076713          	ori	a4,a4,64
   158de:	00e41823          	sh	a4,16(s0)
   158e2:	b7d5                	c.j	158c6 <__srefill_r+0x50>
   158e4:	8ba1                	c.andi	a5,8
   158e6:	cf99                	c.beqz	a5,15904 <__srefill_r+0x8e>
   158e8:	85a2                	c.mv	a1,s0
   158ea:	8526                	c.mv	a0,s1
   158ec:	985fe0ef          	jal	ra,14270 <_fflush_r>
   158f0:	f979                	c.bnez	a0,158c6 <__srefill_r+0x50>
   158f2:	01045783          	lhu	a5,16(s0)
   158f6:	00042623          	sw	zero,12(s0)
   158fa:	02042423          	sw	zero,40(s0)
   158fe:	9bdd                	c.andi	a5,-9
   15900:	00f41823          	sh	a5,16(s0)
   15904:	01045783          	lhu	a5,16(s0)
   15908:	0047e793          	ori	a5,a5,4
   1590c:	00f41823          	sh	a5,16(s0)
   15910:	6c1c                	c.ld	a5,24(s0)
   15912:	e789                	c.bnez	a5,1591c <__srefill_r+0xa6>
   15914:	85a2                	c.mv	a1,s0
   15916:	8526                	c.mv	a0,s1
   15918:	e3aff0ef          	jal	ra,14f52 <__smakebuf_r>
   1591c:	01041983          	lh	s3,16(s0)
   15920:	03099913          	slli	s2,s3,0x30
   15924:	03095913          	srli	s2,s2,0x30
   15928:	00397793          	andi	a5,s2,3
   1592c:	c79d                	c.beqz	a5,1595a <__srefill_r+0xe4>
   1592e:	4785                	c.li	a5,1
   15930:	00f41823          	sh	a5,16(s0)
   15934:	8381b503          	ld	a0,-1992(gp) # 2b4b8 <_global_impure_ptr>
   15938:	000165b7          	lui	a1,0x16
   1593c:	86258593          	addi	a1,a1,-1950 # 15862 <lflush>
   15940:	b60ff0ef          	jal	ra,14ca0 <_fwalk>
   15944:	00997913          	andi	s2,s2,9
   15948:	01341823          	sh	s3,16(s0)
   1594c:	47a5                	c.li	a5,9
   1594e:	00f91663          	bne	s2,a5,1595a <__srefill_r+0xe4>
   15952:	85a2                	c.mv	a1,s0
   15954:	8526                	c.mv	a0,s1
   15956:	fb8fe0ef          	jal	ra,1410e <__sflush_r>
   1595a:	6c10                	c.ld	a2,24(s0)
   1595c:	7c1c                	c.ld	a5,56(s0)
   1595e:	5014                	c.lw	a3,32(s0)
   15960:	780c                	c.ld	a1,48(s0)
   15962:	e010                	c.sd	a2,0(s0)
   15964:	8526                	c.mv	a0,s1
   15966:	9782                	c.jalr	a5
   15968:	0005071b          	addiw	a4,a0,0
   1596c:	c418                	c.sw	a4,8(s0)
   1596e:	4501                	c.li	a0,0
   15970:	02e04b63          	blt	zero,a4,159a6 <__srefill_r+0x130>
   15974:	01041783          	lh	a5,16(s0)
   15978:	ef15                	c.bnez	a4,159b4 <__srefill_r+0x13e>
   1597a:	0207e793          	ori	a5,a5,32
   1597e:	00f41823          	sh	a5,16(s0)
   15982:	b791                	c.j	158c6 <__srefill_r+0x50>
   15984:	6c2c                	c.ld	a1,88(s0)
   15986:	d5c9                	c.beqz	a1,15910 <__srefill_r+0x9a>
   15988:	07440793          	addi	a5,s0,116
   1598c:	00f58563          	beq	a1,a5,15996 <__srefill_r+0x120>
   15990:	8526                	c.mv	a0,s1
   15992:	db3fe0ef          	jal	ra,14744 <_free_r>
   15996:	583c                	c.lw	a5,112(s0)
   15998:	04043c23          	sd	zero,88(s0)
   1599c:	c41c                	c.sw	a5,8(s0)
   1599e:	dbad                	c.beqz	a5,15910 <__srefill_r+0x9a>
   159a0:	743c                	c.ld	a5,104(s0)
   159a2:	4501                	c.li	a0,0
   159a4:	e01c                	c.sd	a5,0(s0)
   159a6:	70a2                	c.ldsp	ra,40(sp)
   159a8:	7402                	c.ldsp	s0,32(sp)
   159aa:	64e2                	c.ldsp	s1,24(sp)
   159ac:	6942                	c.ldsp	s2,16(sp)
   159ae:	69a2                	c.ldsp	s3,8(sp)
   159b0:	6145                	c.addi16sp	sp,48
   159b2:	8082                	c.jr	ra
   159b4:	00042423          	sw	zero,8(s0)
   159b8:	0407e793          	ori	a5,a5,64
   159bc:	b7c9                	c.j	1597e <__srefill_r+0x108>

00000000000159be <_sbrk_r>:
   159be:	1101                	c.addi	sp,-32
   159c0:	e822                	c.sdsp	s0,16(sp)
   159c2:	e426                	c.sdsp	s1,8(sp)
   159c4:	84aa                	c.mv	s1,a0
   159c6:	852e                	c.mv	a0,a1
   159c8:	ec06                	c.sdsp	ra,24(sp)
   159ca:	8e01ac23          	sw	zero,-1800(gp) # 2b578 <errno>
   159ce:	22e070ef          	jal	ra,1cbfc <_sbrk>
   159d2:	57fd                	c.li	a5,-1
   159d4:	00f51663          	bne	a0,a5,159e0 <_sbrk_r+0x22>
   159d8:	8f81a783          	lw	a5,-1800(gp) # 2b578 <errno>
   159dc:	c391                	c.beqz	a5,159e0 <_sbrk_r+0x22>
   159de:	c09c                	c.sw	a5,0(s1)
   159e0:	60e2                	c.ldsp	ra,24(sp)
   159e2:	6442                	c.ldsp	s0,16(sp)
   159e4:	64a2                	c.ldsp	s1,8(sp)
   159e6:	6105                	c.addi16sp	sp,32
   159e8:	8082                	c.jr	ra

00000000000159ea <__sread>:
   159ea:	1141                	c.addi	sp,-16
   159ec:	e022                	c.sdsp	s0,0(sp)
   159ee:	842e                	c.mv	s0,a1
   159f0:	01259583          	lh	a1,18(a1)
   159f4:	e406                	c.sdsp	ra,8(sp)
   159f6:	018040ef          	jal	ra,19a0e <_read_r>
   159fa:	00054963          	blt	a0,zero,15a0c <__sread+0x22>
   159fe:	685c                	c.ld	a5,144(s0)
   15a00:	97aa                	c.add	a5,a0
   15a02:	e85c                	c.sd	a5,144(s0)
   15a04:	60a2                	c.ldsp	ra,8(sp)
   15a06:	6402                	c.ldsp	s0,0(sp)
   15a08:	0141                	c.addi	sp,16
   15a0a:	8082                	c.jr	ra
   15a0c:	01045783          	lhu	a5,16(s0)
   15a10:	777d                	c.lui	a4,0xfffff
   15a12:	177d                	c.addi	a4,-1
   15a14:	8ff9                	c.and	a5,a4
   15a16:	00f41823          	sh	a5,16(s0)
   15a1a:	b7ed                	c.j	15a04 <__sread+0x1a>

0000000000015a1c <__seofread>:
   15a1c:	4501                	c.li	a0,0
   15a1e:	8082                	c.jr	ra

0000000000015a20 <__swrite>:
   15a20:	0105d783          	lhu	a5,16(a1)
   15a24:	7179                	c.addi16sp	sp,-48
   15a26:	f022                	c.sdsp	s0,32(sp)
   15a28:	ec26                	c.sdsp	s1,24(sp)
   15a2a:	e84a                	c.sdsp	s2,16(sp)
   15a2c:	e44e                	c.sdsp	s3,8(sp)
   15a2e:	f406                	c.sdsp	ra,40(sp)
   15a30:	1007f793          	andi	a5,a5,256
   15a34:	84aa                	c.mv	s1,a0
   15a36:	842e                	c.mv	s0,a1
   15a38:	8932                	c.mv	s2,a2
   15a3a:	89b6                	c.mv	s3,a3
   15a3c:	c799                	c.beqz	a5,15a4a <__swrite+0x2a>
   15a3e:	01259583          	lh	a1,18(a1)
   15a42:	4689                	c.li	a3,2
   15a44:	4601                	c.li	a2,0
   15a46:	524030ef          	jal	ra,18f6a <_lseek_r>
   15a4a:	01045783          	lhu	a5,16(s0)
   15a4e:	777d                	c.lui	a4,0xfffff
   15a50:	177d                	c.addi	a4,-1
   15a52:	8ff9                	c.and	a5,a4
   15a54:	00f41823          	sh	a5,16(s0)
   15a58:	01241583          	lh	a1,18(s0)
   15a5c:	7402                	c.ldsp	s0,32(sp)
   15a5e:	70a2                	c.ldsp	ra,40(sp)
   15a60:	86ce                	c.mv	a3,s3
   15a62:	864a                	c.mv	a2,s2
   15a64:	69a2                	c.ldsp	s3,8(sp)
   15a66:	6942                	c.ldsp	s2,16(sp)
   15a68:	8526                	c.mv	a0,s1
   15a6a:	64e2                	c.ldsp	s1,24(sp)
   15a6c:	6145                	c.addi16sp	sp,48
   15a6e:	7dc0106f          	jal	zero,1724a <_write_r>

0000000000015a72 <__sseek>:
   15a72:	1141                	c.addi	sp,-16
   15a74:	e022                	c.sdsp	s0,0(sp)
   15a76:	842e                	c.mv	s0,a1
   15a78:	01259583          	lh	a1,18(a1)
   15a7c:	e406                	c.sdsp	ra,8(sp)
   15a7e:	4ec030ef          	jal	ra,18f6a <_lseek_r>
   15a82:	57fd                	c.li	a5,-1
   15a84:	01045703          	lhu	a4,16(s0)
   15a88:	00f51b63          	bne	a0,a5,15a9e <__sseek+0x2c>
   15a8c:	77fd                	c.lui	a5,0xfffff
   15a8e:	17fd                	c.addi	a5,-1
   15a90:	8ff9                	c.and	a5,a4
   15a92:	00f41823          	sh	a5,16(s0)
   15a96:	60a2                	c.ldsp	ra,8(sp)
   15a98:	6402                	c.ldsp	s0,0(sp)
   15a9a:	0141                	c.addi	sp,16
   15a9c:	8082                	c.jr	ra
   15a9e:	6785                	c.lui	a5,0x1
   15aa0:	8fd9                	c.or	a5,a4
   15aa2:	00f41823          	sh	a5,16(s0)
   15aa6:	e848                	c.sd	a0,144(s0)
   15aa8:	b7fd                	c.j	15a96 <__sseek+0x24>

0000000000015aaa <__sclose>:
   15aaa:	01259583          	lh	a1,18(a1)
   15aae:	1b90106f          	jal	zero,17466 <_close_r>

0000000000015ab2 <strcmp>:
   15ab2:	00b56733          	or	a4,a0,a1
   15ab6:	53fd                	c.li	t2,-1
   15ab8:	8b1d                	c.andi	a4,7
   15aba:	eb4d                	c.bnez	a4,15b6c <strcmp+0xba>
   15abc:	00016797          	auipc	a5,0x16
   15ac0:	9c47b783          	ld	a5,-1596(a5) # 2b480 <__TMC_END__>
   15ac4:	6110                	c.ld	a2,0(a0)
   15ac6:	6194                	c.ld	a3,0(a1)
   15ac8:	00f672b3          	and	t0,a2,a5
   15acc:	00f66333          	or	t1,a2,a5
   15ad0:	92be                	c.add	t0,a5
   15ad2:	0062e2b3          	or	t0,t0,t1
   15ad6:	0a729963          	bne	t0,t2,15b88 <strcmp+0xd6>
   15ada:	02d61e63          	bne	a2,a3,15b16 <strcmp+0x64>
   15ade:	6510                	c.ld	a2,8(a0)
   15ae0:	6594                	c.ld	a3,8(a1)
   15ae2:	00f672b3          	and	t0,a2,a5
   15ae6:	00f66333          	or	t1,a2,a5
   15aea:	92be                	c.add	t0,a5
   15aec:	0062e2b3          	or	t0,t0,t1
   15af0:	08729a63          	bne	t0,t2,15b84 <strcmp+0xd2>
   15af4:	02d61163          	bne	a2,a3,15b16 <strcmp+0x64>
   15af8:	6910                	c.ld	a2,16(a0)
   15afa:	6994                	c.ld	a3,16(a1)
   15afc:	00f672b3          	and	t0,a2,a5
   15b00:	00f66333          	or	t1,a2,a5
   15b04:	92be                	c.add	t0,a5
   15b06:	0062e2b3          	or	t0,t0,t1
   15b0a:	08729363          	bne	t0,t2,15b90 <strcmp+0xde>
   15b0e:	0561                	c.addi	a0,24
   15b10:	05e1                	c.addi	a1,24
   15b12:	fad609e3          	beq	a2,a3,15ac4 <strcmp+0x12>
   15b16:	03061713          	slli	a4,a2,0x30
   15b1a:	03069793          	slli	a5,a3,0x30
   15b1e:	02f71863          	bne	a4,a5,15b4e <strcmp+0x9c>
   15b22:	02061713          	slli	a4,a2,0x20
   15b26:	02069793          	slli	a5,a3,0x20
   15b2a:	02f71263          	bne	a4,a5,15b4e <strcmp+0x9c>
   15b2e:	01061713          	slli	a4,a2,0x10
   15b32:	01069793          	slli	a5,a3,0x10
   15b36:	00f71c63          	bne	a4,a5,15b4e <strcmp+0x9c>
   15b3a:	03065713          	srli	a4,a2,0x30
   15b3e:	0306d793          	srli	a5,a3,0x30
   15b42:	40f70533          	sub	a0,a4,a5
   15b46:	0ff57593          	andi	a1,a0,255
   15b4a:	e991                	c.bnez	a1,15b5e <strcmp+0xac>
   15b4c:	8082                	c.jr	ra
   15b4e:	9341                	c.srli	a4,0x30
   15b50:	93c1                	c.srli	a5,0x30
   15b52:	40f70533          	sub	a0,a4,a5
   15b56:	0ff57593          	andi	a1,a0,255
   15b5a:	e191                	c.bnez	a1,15b5e <strcmp+0xac>
   15b5c:	8082                	c.jr	ra
   15b5e:	0ff77713          	andi	a4,a4,255
   15b62:	0ff7f793          	andi	a5,a5,255
   15b66:	40f70533          	sub	a0,a4,a5
   15b6a:	8082                	c.jr	ra
   15b6c:	00054603          	lbu	a2,0(a0)
   15b70:	0005c683          	lbu	a3,0(a1)
   15b74:	0505                	c.addi	a0,1
   15b76:	0585                	c.addi	a1,1
   15b78:	00d61363          	bne	a2,a3,15b7e <strcmp+0xcc>
   15b7c:	fa65                	c.bnez	a2,15b6c <strcmp+0xba>
   15b7e:	40d60533          	sub	a0,a2,a3
   15b82:	8082                	c.jr	ra
   15b84:	0521                	c.addi	a0,8
   15b86:	05a1                	c.addi	a1,8
   15b88:	fed612e3          	bne	a2,a3,15b6c <strcmp+0xba>
   15b8c:	4501                	c.li	a0,0
   15b8e:	8082                	c.jr	ra
   15b90:	0541                	c.addi	a0,16
   15b92:	05c1                	c.addi	a1,16
   15b94:	fcd61ce3          	bne	a2,a3,15b6c <strcmp+0xba>
   15b98:	4501                	c.li	a0,0
   15b9a:	8082                	c.jr	ra

0000000000015b9c <strlen>:
   15b9c:	87aa                	c.mv	a5,a0
   15b9e:	0785                	c.addi	a5,1
   15ba0:	fff7c703          	lbu	a4,-1(a5)
   15ba4:	ff6d                	c.bnez	a4,15b9e <strlen+0x2>
   15ba6:	40a78533          	sub	a0,a5,a0
   15baa:	157d                	c.addi	a0,-1
   15bac:	8082                	c.jr	ra

0000000000015bae <_vfprintf_r>:
   15bae:	d9010113          	addi	sp,sp,-624
   15bb2:	26113423          	sd	ra,616(sp)
   15bb6:	24913c23          	sd	s1,600(sp)
   15bba:	25213823          	sd	s2,592(sp)
   15bbe:	25313423          	sd	s3,584(sp)
   15bc2:	23713423          	sd	s7,552(sp)
   15bc6:	892e                	c.mv	s2,a1
   15bc8:	84b2                	c.mv	s1,a2
   15bca:	8bb6                	c.mv	s7,a3
   15bcc:	26813023          	sd	s0,608(sp)
   15bd0:	25413023          	sd	s4,576(sp)
   15bd4:	23513c23          	sd	s5,568(sp)
   15bd8:	23613823          	sd	s6,560(sp)
   15bdc:	23813023          	sd	s8,544(sp)
   15be0:	21913c23          	sd	s9,536(sp)
   15be4:	21a13823          	sd	s10,528(sp)
   15be8:	21b13423          	sd	s11,520(sp)
   15bec:	89aa                	c.mv	s3,a0
   15bee:	350030ef          	jal	ra,18f3e <_localeconv_r>
   15bf2:	611c                	c.ld	a5,0(a0)
   15bf4:	853e                	c.mv	a0,a5
   15bf6:	e4be                	c.sdsp	a5,72(sp)
   15bf8:	fa5ff0ef          	jal	ra,15b9c <strlen>
   15bfc:	ec2a                	c.sdsp	a0,24(sp)
   15bfe:	f982                	c.sdsp	zero,240(sp)
   15c00:	fd82                	c.sdsp	zero,248(sp)
   15c02:	00098863          	beq	s3,zero,15c12 <_vfprintf_r+0x64>
   15c06:	0509a783          	lw	a5,80(s3)
   15c0a:	e781                	c.bnez	a5,15c12 <_vfprintf_r+0x64>
   15c0c:	854e                	c.mv	a0,s3
   15c0e:	fa0fe0ef          	jal	ra,143ae <__sinit>
   15c12:	01091783          	lh	a5,16(s2)
   15c16:	03279713          	slli	a4,a5,0x32
   15c1a:	00074d63          	blt	a4,zero,15c34 <_vfprintf_r+0x86>
   15c1e:	6689                	c.lui	a3,0x2
   15c20:	0ac92703          	lw	a4,172(s2)
   15c24:	8fd5                	c.or	a5,a3
   15c26:	00f91823          	sh	a5,16(s2)
   15c2a:	77f9                	c.lui	a5,0xffffe
   15c2c:	17fd                	c.addi	a5,-1
   15c2e:	8ff9                	c.and	a5,a4
   15c30:	0af92623          	sw	a5,172(s2)
   15c34:	01095783          	lhu	a5,16(s2)
   15c38:	8ba1                	c.andi	a5,8
   15c3a:	c3bd                	c.beqz	a5,15ca0 <_vfprintf_r+0xf2>
   15c3c:	01893783          	ld	a5,24(s2)
   15c40:	c3a5                	c.beqz	a5,15ca0 <_vfprintf_r+0xf2>
   15c42:	01095783          	lhu	a5,16(s2)
   15c46:	4729                	c.li	a4,10
   15c48:	8be9                	c.andi	a5,26
   15c4a:	06e79363          	bne	a5,a4,15cb0 <_vfprintf_r+0x102>
   15c4e:	01291783          	lh	a5,18(s2)
   15c52:	0407cf63          	blt	a5,zero,15cb0 <_vfprintf_r+0x102>
   15c56:	86de                	c.mv	a3,s7
   15c58:	8626                	c.mv	a2,s1
   15c5a:	85ca                	c.mv	a1,s2
   15c5c:	854e                	c.mv	a0,s3
   15c5e:	528010ef          	jal	ra,17186 <__sbprintf>
   15c62:	f42a                	c.sdsp	a0,40(sp)
   15c64:	26813083          	ld	ra,616(sp)
   15c68:	26013403          	ld	s0,608(sp)
   15c6c:	7522                	c.ldsp	a0,40(sp)
   15c6e:	25813483          	ld	s1,600(sp)
   15c72:	25013903          	ld	s2,592(sp)
   15c76:	24813983          	ld	s3,584(sp)
   15c7a:	24013a03          	ld	s4,576(sp)
   15c7e:	23813a83          	ld	s5,568(sp)
   15c82:	23013b03          	ld	s6,560(sp)
   15c86:	22813b83          	ld	s7,552(sp)
   15c8a:	22013c03          	ld	s8,544(sp)
   15c8e:	21813c83          	ld	s9,536(sp)
   15c92:	21013d03          	ld	s10,528(sp)
   15c96:	20813d83          	ld	s11,520(sp)
   15c9a:	27010113          	addi	sp,sp,624
   15c9e:	8082                	c.jr	ra
   15ca0:	85ca                	c.mv	a1,s2
   15ca2:	854e                	c.mv	a0,s3
   15ca4:	5d6010ef          	jal	ra,1727a <__swsetup_r>
   15ca8:	dd49                	c.beqz	a0,15c42 <_vfprintf_r+0x94>
   15caa:	57fd                	c.li	a5,-1
   15cac:	f43e                	c.sdsp	a5,40(sp)
   15cae:	bf5d                	c.j	15c64 <_vfprintf_r+0xb6>
   15cb0:	000287b7          	lui	a5,0x28
   15cb4:	68878793          	addi	a5,a5,1672 # 28688 <s_box+0x2b0>
   15cb8:	ed3e                	c.sdsp	a5,152(sp)
   15cba:	000297b7          	lui	a5,0x29
   15cbe:	8287b783          	ld	a5,-2008(a5) # 28828 <zeroes.4441+0x20>
   15cc2:	18010a93          	addi	s5,sp,384
   15cc6:	e256                	c.sdsp	s5,256(sp)
   15cc8:	f13e                	c.sdsp	a5,160(sp)
   15cca:	000297b7          	lui	a5,0x29
   15cce:	8387b783          	ld	a5,-1992(a5) # 28838 <zeroes.4441+0x30>
   15cd2:	ea02                	c.sdsp	zero,272(sp)
   15cd4:	10012423          	sw	zero,264(sp)
   15cd8:	f53e                	c.sdsp	a5,168(sp)
   15cda:	000297b7          	lui	a5,0x29
   15cde:	8487b783          	ld	a5,-1976(a5) # 28848 <zeroes.4441+0x40>
   15ce2:	4a01                	c.li	s4,0
   15ce4:	8cd6                	c.mv	s9,s5
   15ce6:	f082                	c.sdsp	zero,96(sp)
   15ce8:	ec82                	c.sdsp	zero,88(sp)
   15cea:	e002                	c.sdsp	zero,0(sp)
   15cec:	e082                	c.sdsp	zero,64(sp)
   15cee:	e882                	c.sdsp	zero,80(sp)
   15cf0:	f402                	c.sdsp	zero,40(sp)
   15cf2:	e93e                	c.sdsp	a5,144(sp)
   15cf4:	8426                	c.mv	s0,s1
   15cf6:	02500713          	addi	a4,zero,37
   15cfa:	00044783          	lbu	a5,0(s0)
   15cfe:	c399                	c.beqz	a5,15d04 <_vfprintf_r+0x156>
   15d00:	08e79663          	bne	a5,a4,15d8c <_vfprintf_r+0x1de>
   15d04:	40940b3b          	subw	s6,s0,s1
   15d08:	020b0f63          	beq	s6,zero,15d46 <_vfprintf_r+0x198>
   15d0c:	67d2                	c.ldsp	a5,272(sp)
   15d0e:	009cb023          	sd	s1,0(s9)
   15d12:	016cb423          	sd	s6,8(s9)
   15d16:	97da                	c.add	a5,s6
   15d18:	ea3e                	c.sdsp	a5,272(sp)
   15d1a:	10812783          	lw	a5,264(sp)
   15d1e:	0cc1                	c.addi	s9,16
   15d20:	0017871b          	addiw	a4,a5,1
   15d24:	10e12423          	sw	a4,264(sp)
   15d28:	479d                	c.li	a5,7
   15d2a:	00e7da63          	bge	a5,a4,15d3e <_vfprintf_r+0x190>
   15d2e:	0210                	c.addi4spn	a2,sp,256
   15d30:	85ca                	c.mv	a1,s2
   15d32:	854e                	c.mv	a0,s3
   15d34:	7a0050ef          	jal	ra,1b4d4 <__sprint_r>
   15d38:	54051663          	bne	a0,zero,16284 <_vfprintf_r+0x6d6>
   15d3c:	8cd6                	c.mv	s9,s5
   15d3e:	57a2                	c.lwsp	a5,40(sp)
   15d40:	016787bb          	addw	a5,a5,s6
   15d44:	f43e                	c.sdsp	a5,40(sp)
   15d46:	00044783          	lbu	a5,0(s0)
   15d4a:	e399                	c.bnez	a5,15d50 <_vfprintf_r+0x1a2>
   15d4c:	4180106f          	jal	zero,17164 <_vfprintf_r+0x15b6>
   15d50:	00140793          	addi	a5,s0,1
   15d54:	0c0107a3          	sb	zero,207(sp)
   15d58:	5dfd                	c.li	s11,-1
   15d5a:	f002                	c.sdsp	zero,32(sp)
   15d5c:	4401                	c.li	s0,0
   15d5e:	05a00d13          	addi	s10,zero,90
   15d62:	4c29                	c.li	s8,10
   15d64:	0007cb03          	lbu	s6,0(a5)
   15d68:	00178713          	addi	a4,a5,1
   15d6c:	e83a                	c.sdsp	a4,16(sp)
   15d6e:	46a5                	c.li	a3,9
   15d70:	02a00613          	addi	a2,zero,42
   15d74:	fe0b079b          	addiw	a5,s6,-32
   15d78:	0007871b          	addiw	a4,a5,0
   15d7c:	3aed6be3          	bltu	s10,a4,16932 <_vfprintf_r+0xd84>
   15d80:	676a                	c.ldsp	a4,152(sp)
   15d82:	1782                	c.slli	a5,0x20
   15d84:	83f9                	c.srli	a5,0x1e
   15d86:	97ba                	c.add	a5,a4
   15d88:	439c                	c.lw	a5,0(a5)
   15d8a:	8782                	c.jr	a5
   15d8c:	0405                	c.addi	s0,1
   15d8e:	b7b5                	c.j	15cfa <_vfprintf_r+0x14c>
   15d90:	000297b7          	lui	a5,0x29
   15d94:	88878793          	addi	a5,a5,-1912 # 28888 <zeroes.4441+0x80>
   15d98:	f0be                	c.sdsp	a5,96(sp)
   15d9a:	008b8793          	addi	a5,s7,8
   15d9e:	f83e                	c.sdsp	a5,48(sp)
   15da0:	02047793          	andi	a5,s0,32
   15da4:	260780e3          	beq	a5,zero,16804 <_vfprintf_r+0xc56>
   15da8:	000bbb83          	ld	s7,0(s7)
   15dac:	00147793          	andi	a5,s0,1
   15db0:	cf81                	c.beqz	a5,15dc8 <_vfprintf_r+0x21a>
   15db2:	000b8b63          	beq	s7,zero,15dc8 <_vfprintf_r+0x21a>
   15db6:	03000793          	addi	a5,zero,48
   15dba:	00246413          	ori	s0,s0,2
   15dbe:	0cf10823          	sb	a5,208(sp)
   15dc2:	0d6108a3          	sb	s6,209(sp)
   15dc6:	2401                	c.addiw	s0,0
   15dc8:	bff47413          	andi	s0,s0,-1025
   15dcc:	2401                	c.addiw	s0,0
   15dce:	4789                	c.li	a5,2
   15dd0:	1310006f          	jal	zero,16700 <_vfprintf_r+0xb52>
   15dd4:	854e                	c.mv	a0,s3
   15dd6:	168030ef          	jal	ra,18f3e <_localeconv_r>
   15dda:	651c                	c.ld	a5,8(a0)
   15ddc:	853e                	c.mv	a0,a5
   15dde:	e8be                	c.sdsp	a5,80(sp)
   15de0:	dbdff0ef          	jal	ra,15b9c <strlen>
   15de4:	e0aa                	c.sdsp	a0,64(sp)
   15de6:	854e                	c.mv	a0,s3
   15de8:	156030ef          	jal	ra,18f3e <_localeconv_r>
   15dec:	691c                	c.ld	a5,16(a0)
   15dee:	e03e                	c.sdsp	a5,0(sp)
   15df0:	6786                	c.ldsp	a5,64(sp)
   15df2:	c38d                	c.beqz	a5,15e14 <_vfprintf_r+0x266>
   15df4:	6782                	c.ldsp	a5,0(sp)
   15df6:	cf99                	c.beqz	a5,15e14 <_vfprintf_r+0x266>
   15df8:	0007c783          	lbu	a5,0(a5)
   15dfc:	cf81                	c.beqz	a5,15e14 <_vfprintf_r+0x266>
   15dfe:	40046413          	ori	s0,s0,1024
   15e02:	2401                	c.addiw	s0,0
   15e04:	a801                	c.j	15e14 <_vfprintf_r+0x266>
   15e06:	0cf14783          	lbu	a5,207(sp)
   15e0a:	e789                	c.bnez	a5,15e14 <_vfprintf_r+0x266>
   15e0c:	02000793          	addi	a5,zero,32
   15e10:	0cf107a3          	sb	a5,207(sp)
   15e14:	67c2                	c.ldsp	a5,16(sp)
   15e16:	b7b9                	c.j	15d64 <_vfprintf_r+0x1b6>
   15e18:	00146413          	ori	s0,s0,1
   15e1c:	b7dd                	c.j	15e02 <_vfprintf_r+0x254>
   15e1e:	000ba783          	lw	a5,0(s7)
   15e22:	0ba1                	c.addi	s7,8
   15e24:	f03e                	c.sdsp	a5,32(sp)
   15e26:	fe07d7e3          	bge	a5,zero,15e14 <_vfprintf_r+0x266>
   15e2a:	5782                	c.lwsp	a5,32(sp)
   15e2c:	40f007bb          	subw	a5,zero,a5
   15e30:	f03e                	c.sdsp	a5,32(sp)
   15e32:	00446413          	ori	s0,s0,4
   15e36:	b7f1                	c.j	15e02 <_vfprintf_r+0x254>
   15e38:	02b00793          	addi	a5,zero,43
   15e3c:	bfd1                	c.j	15e10 <_vfprintf_r+0x262>
   15e3e:	6742                	c.ldsp	a4,16(sp)
   15e40:	67c2                	c.ldsp	a5,16(sp)
   15e42:	00074b03          	lbu	s6,0(a4) # fffffffffffff000 <__global_pointer$+0xfffffffffffd3380>
   15e46:	0785                	c.addi	a5,1
   15e48:	02cb1c63          	bne	s6,a2,15e80 <_vfprintf_r+0x2d2>
   15e4c:	000bae03          	lw	t3,0(s7)
   15e50:	008b8713          	addi	a4,s7,8
   15e54:	000e5363          	bge	t3,zero,15e5a <_vfprintf_r+0x2ac>
   15e58:	5e7d                	c.li	t3,-1
   15e5a:	000e0d9b          	addiw	s11,t3,0
   15e5e:	8bba                	c.mv	s7,a4
   15e60:	e83e                	c.sdsp	a5,16(sp)
   15e62:	bf4d                	c.j	15e14 <_vfprintf_r+0x266>
   15e64:	03bc0e3b          	mulw	t3,s8,s11
   15e68:	0785                	c.addi	a5,1
   15e6a:	fff7cb03          	lbu	s6,-1(a5)
   15e6e:	00ee0dbb          	addw	s11,t3,a4
   15e72:	fd0b059b          	addiw	a1,s6,-48
   15e76:	872e                	c.mv	a4,a1
   15e78:	feb6f6e3          	bgeu	a3,a1,15e64 <_vfprintf_r+0x2b6>
   15e7c:	e83e                	c.sdsp	a5,16(sp)
   15e7e:	bddd                	c.j	15d74 <_vfprintf_r+0x1c6>
   15e80:	4d81                	c.li	s11,0
   15e82:	bfc5                	c.j	15e72 <_vfprintf_r+0x2c4>
   15e84:	08046413          	ori	s0,s0,128
   15e88:	bfad                	c.j	15e02 <_vfprintf_r+0x254>
   15e8a:	67c2                	c.ldsp	a5,16(sp)
   15e8c:	f002                	c.sdsp	zero,32(sp)
   15e8e:	5702                	c.lwsp	a4,32(sp)
   15e90:	fd0b0b1b          	addiw	s6,s6,-48
   15e94:	0785                	c.addi	a5,1
   15e96:	02ec073b          	mulw	a4,s8,a4
   15e9a:	00eb073b          	addw	a4,s6,a4
   15e9e:	fff7cb03          	lbu	s6,-1(a5)
   15ea2:	f03a                	c.sdsp	a4,32(sp)
   15ea4:	fd0b071b          	addiw	a4,s6,-48
   15ea8:	fee6f3e3          	bgeu	a3,a4,15e8e <_vfprintf_r+0x2e0>
   15eac:	bfc1                	c.j	15e7c <_vfprintf_r+0x2ce>
   15eae:	00846413          	ori	s0,s0,8
   15eb2:	bf81                	c.j	15e02 <_vfprintf_r+0x254>
   15eb4:	67c2                	c.ldsp	a5,16(sp)
   15eb6:	0007c703          	lbu	a4,0(a5)
   15eba:	06800793          	addi	a5,zero,104
   15ebe:	00f71863          	bne	a4,a5,15ece <_vfprintf_r+0x320>
   15ec2:	67c2                	c.ldsp	a5,16(sp)
   15ec4:	20046413          	ori	s0,s0,512
   15ec8:	0785                	c.addi	a5,1
   15eca:	e83e                	c.sdsp	a5,16(sp)
   15ecc:	bf1d                	c.j	15e02 <_vfprintf_r+0x254>
   15ece:	04046413          	ori	s0,s0,64
   15ed2:	bf05                	c.j	15e02 <_vfprintf_r+0x254>
   15ed4:	67c2                	c.ldsp	a5,16(sp)
   15ed6:	0007c703          	lbu	a4,0(a5)
   15eda:	06c00793          	addi	a5,zero,108
   15ede:	00f71863          	bne	a4,a5,15eee <_vfprintf_r+0x340>
   15ee2:	67c2                	c.ldsp	a5,16(sp)
   15ee4:	0785                	c.addi	a5,1
   15ee6:	e83e                	c.sdsp	a5,16(sp)
   15ee8:	02046413          	ori	s0,s0,32
   15eec:	bf19                	c.j	15e02 <_vfprintf_r+0x254>
   15eee:	01046413          	ori	s0,s0,16
   15ef2:	bf01                	c.j	15e02 <_vfprintf_r+0x254>
   15ef4:	008b8793          	addi	a5,s7,8
   15ef8:	f83e                	c.sdsp	a5,48(sp)
   15efa:	000ba783          	lw	a5,0(s7)
   15efe:	0c0107a3          	sb	zero,207(sp)
   15f02:	10f10c23          	sb	a5,280(sp)
   15f06:	4b81                	c.li	s7,0
   15f08:	4d85                	c.li	s11,1
   15f0a:	4701                	c.li	a4,0
   15f0c:	e402                	c.sdsp	zero,8(sp)
   15f0e:	4c01                	c.li	s8,0
   15f10:	4d01                	c.li	s10,0
   15f12:	0a24                	c.addi4spn	s1,sp,280
   15f14:	86ba                	c.mv	a3,a4
   15f16:	01b75363          	bge	a4,s11,15f1c <_vfprintf_r+0x36e>
   15f1a:	86ee                	c.mv	a3,s11
   15f1c:	0cf14603          	lbu	a2,207(sp)
   15f20:	0006879b          	addiw	a5,a3,0
   15f24:	fc3e                	c.sdsp	a5,56(sp)
   15f26:	c601                	c.beqz	a2,15f2e <_vfprintf_r+0x380>
   15f28:	0016879b          	addiw	a5,a3,1
   15f2c:	fc3e                	c.sdsp	a5,56(sp)
   15f2e:	00247693          	andi	a3,s0,2
   15f32:	0006879b          	addiw	a5,a3,0
   15f36:	f4be                	c.sdsp	a5,104(sp)
   15f38:	c781                	c.beqz	a5,15f40 <_vfprintf_r+0x392>
   15f3a:	57e2                	c.lwsp	a5,56(sp)
   15f3c:	2789                	c.addiw	a5,2
   15f3e:	fc3e                	c.sdsp	a5,56(sp)
   15f40:	08447793          	andi	a5,s0,132
   15f44:	f8be                	c.sdsp	a5,112(sp)
   15f46:	efb1                	c.bnez	a5,15fa2 <_vfprintf_r+0x3f4>
   15f48:	5782                	c.lwsp	a5,32(sp)
   15f4a:	56e2                	c.lwsp	a3,56(sp)
   15f4c:	40d786bb          	subw	a3,a5,a3
   15f50:	04d05963          	bge	zero,a3,15fa2 <_vfprintf_r+0x3f4>
   15f54:	00028837          	lui	a6,0x28
   15f58:	48c1                	c.li	a7,16
   15f5a:	7f880813          	addi	a6,a6,2040 # 287f8 <blanks.4440>
   15f5e:	4e9d                	c.li	t4,7
   15f60:	10812583          	lw	a1,264(sp)
   15f64:	010cb023          	sd	a6,0(s9)
   15f68:	6652                	c.ldsp	a2,272(sp)
   15f6a:	0015851b          	addiw	a0,a1,1
   15f6e:	85aa                	c.mv	a1,a0
   15f70:	010c8f13          	addi	t5,s9,16
   15f74:	1cd8c8e3          	blt	a7,a3,16944 <_vfprintf_r+0xd96>
   15f78:	00dcb423          	sd	a3,8(s9)
   15f7c:	96b2                	c.add	a3,a2
   15f7e:	ea36                	c.sdsp	a3,272(sp)
   15f80:	10a12423          	sw	a0,264(sp)
   15f84:	469d                	c.li	a3,7
   15f86:	8cfa                	c.mv	s9,t5
   15f88:	00a6dd63          	bge	a3,a0,15fa2 <_vfprintf_r+0x3f4>
   15f8c:	0210                	c.addi4spn	a2,sp,256
   15f8e:	85ca                	c.mv	a1,s2
   15f90:	854e                	c.mv	a0,s3
   15f92:	fcba                	c.sdsp	a4,120(sp)
   15f94:	540050ef          	jal	ra,1b4d4 <__sprint_r>
   15f98:	c119                	c.beqz	a0,15f9e <_vfprintf_r+0x3f0>
   15f9a:	18c0106f          	jal	zero,17126 <_vfprintf_r+0x1578>
   15f9e:	7766                	c.ldsp	a4,120(sp)
   15fa0:	8cd6                	c.mv	s9,s5
   15fa2:	0cf14683          	lbu	a3,207(sp)
   15fa6:	c2a1                	c.beqz	a3,15fe6 <_vfprintf_r+0x438>
   15fa8:	0cf10693          	addi	a3,sp,207
   15fac:	00dcb023          	sd	a3,0(s9)
   15fb0:	4685                	c.li	a3,1
   15fb2:	00dcb423          	sd	a3,8(s9)
   15fb6:	66d2                	c.ldsp	a3,272(sp)
   15fb8:	0cc1                	c.addi	s9,16
   15fba:	0685                	c.addi	a3,1
   15fbc:	ea36                	c.sdsp	a3,272(sp)
   15fbe:	10812683          	lw	a3,264(sp)
   15fc2:	0016861b          	addiw	a2,a3,1
   15fc6:	10c12423          	sw	a2,264(sp)
   15fca:	469d                	c.li	a3,7
   15fcc:	00c6dd63          	bge	a3,a2,15fe6 <_vfprintf_r+0x438>
   15fd0:	0210                	c.addi4spn	a2,sp,256
   15fd2:	85ca                	c.mv	a1,s2
   15fd4:	854e                	c.mv	a0,s3
   15fd6:	fcba                	c.sdsp	a4,120(sp)
   15fd8:	4fc050ef          	jal	ra,1b4d4 <__sprint_r>
   15fdc:	c119                	c.beqz	a0,15fe2 <_vfprintf_r+0x434>
   15fde:	1480106f          	jal	zero,17126 <_vfprintf_r+0x1578>
   15fe2:	7766                	c.ldsp	a4,120(sp)
   15fe4:	8cd6                	c.mv	s9,s5
   15fe6:	77a6                	c.ldsp	a5,104(sp)
   15fe8:	cf9d                	c.beqz	a5,16026 <_vfprintf_r+0x478>
   15fea:	0994                	c.addi4spn	a3,sp,208
   15fec:	00dcb023          	sd	a3,0(s9)
   15ff0:	4689                	c.li	a3,2
   15ff2:	00dcb423          	sd	a3,8(s9)
   15ff6:	66d2                	c.ldsp	a3,272(sp)
   15ff8:	0cc1                	c.addi	s9,16
   15ffa:	0689                	c.addi	a3,2
   15ffc:	ea36                	c.sdsp	a3,272(sp)
   15ffe:	10812683          	lw	a3,264(sp)
   16002:	0016861b          	addiw	a2,a3,1
   16006:	10c12423          	sw	a2,264(sp)
   1600a:	469d                	c.li	a3,7
   1600c:	00c6dd63          	bge	a3,a2,16026 <_vfprintf_r+0x478>
   16010:	0210                	c.addi4spn	a2,sp,256
   16012:	85ca                	c.mv	a1,s2
   16014:	854e                	c.mv	a0,s3
   16016:	f4ba                	c.sdsp	a4,104(sp)
   16018:	4bc050ef          	jal	ra,1b4d4 <__sprint_r>
   1601c:	c119                	c.beqz	a0,16022 <_vfprintf_r+0x474>
   1601e:	1080106f          	jal	zero,17126 <_vfprintf_r+0x1578>
   16022:	7726                	c.ldsp	a4,104(sp)
   16024:	8cd6                	c.mv	s9,s5
   16026:	77c6                	c.ldsp	a5,112(sp)
   16028:	08000693          	addi	a3,zero,128
   1602c:	04d79f63          	bne	a5,a3,1608a <_vfprintf_r+0x4dc>
   16030:	5782                	c.lwsp	a5,32(sp)
   16032:	56e2                	c.lwsp	a3,56(sp)
   16034:	40d786bb          	subw	a3,a5,a3
   16038:	04d05963          	bge	zero,a3,1608a <_vfprintf_r+0x4dc>
   1603c:	00029837          	lui	a6,0x29
   16040:	48c1                	c.li	a7,16
   16042:	80880813          	addi	a6,a6,-2040 # 28808 <zeroes.4441>
   16046:	4e9d                	c.li	t4,7
   16048:	10812583          	lw	a1,264(sp)
   1604c:	010cb023          	sd	a6,0(s9)
   16050:	6652                	c.ldsp	a2,272(sp)
   16052:	0015851b          	addiw	a0,a1,1
   16056:	85aa                	c.mv	a1,a0
   16058:	010c8f13          	addi	t5,s9,16
   1605c:	12d8c2e3          	blt	a7,a3,16980 <_vfprintf_r+0xdd2>
   16060:	00dcb423          	sd	a3,8(s9)
   16064:	96b2                	c.add	a3,a2
   16066:	ea36                	c.sdsp	a3,272(sp)
   16068:	10a12423          	sw	a0,264(sp)
   1606c:	469d                	c.li	a3,7
   1606e:	8cfa                	c.mv	s9,t5
   16070:	00a6dd63          	bge	a3,a0,1608a <_vfprintf_r+0x4dc>
   16074:	0210                	c.addi4spn	a2,sp,256
   16076:	85ca                	c.mv	a1,s2
   16078:	854e                	c.mv	a0,s3
   1607a:	f4ba                	c.sdsp	a4,104(sp)
   1607c:	458050ef          	jal	ra,1b4d4 <__sprint_r>
   16080:	c119                	c.beqz	a0,16086 <_vfprintf_r+0x4d8>
   16082:	0a40106f          	jal	zero,17126 <_vfprintf_r+0x1578>
   16086:	7726                	c.ldsp	a4,104(sp)
   16088:	8cd6                	c.mv	s9,s5
   1608a:	41b7073b          	subw	a4,a4,s11
   1608e:	04e05763          	bge	zero,a4,160dc <_vfprintf_r+0x52e>
   16092:	00029837          	lui	a6,0x29
   16096:	48c1                	c.li	a7,16
   16098:	80880813          	addi	a6,a6,-2040 # 28808 <zeroes.4441>
   1609c:	4e9d                	c.li	t4,7
   1609e:	10812603          	lw	a2,264(sp)
   160a2:	010cb023          	sd	a6,0(s9)
   160a6:	66d2                	c.ldsp	a3,272(sp)
   160a8:	0016059b          	addiw	a1,a2,1
   160ac:	862e                	c.mv	a2,a1
   160ae:	010c8513          	addi	a0,s9,16
   160b2:	10e8c5e3          	blt	a7,a4,169bc <_vfprintf_r+0xe0e>
   160b6:	00ecb423          	sd	a4,8(s9)
   160ba:	9736                	c.add	a4,a3
   160bc:	ea3a                	c.sdsp	a4,272(sp)
   160be:	10b12423          	sw	a1,264(sp)
   160c2:	471d                	c.li	a4,7
   160c4:	8caa                	c.mv	s9,a0
   160c6:	00b75b63          	bge	a4,a1,160dc <_vfprintf_r+0x52e>
   160ca:	0210                	c.addi4spn	a2,sp,256
   160cc:	85ca                	c.mv	a1,s2
   160ce:	854e                	c.mv	a0,s3
   160d0:	404050ef          	jal	ra,1b4d4 <__sprint_r>
   160d4:	c119                	c.beqz	a0,160da <_vfprintf_r+0x52c>
   160d6:	0500106f          	jal	zero,17126 <_vfprintf_r+0x1578>
   160da:	8cd6                	c.mv	s9,s5
   160dc:	10047693          	andi	a3,s0,256
   160e0:	6752                	c.ldsp	a4,272(sp)
   160e2:	100699e3          	bne	a3,zero,169f4 <_vfprintf_r+0xe46>
   160e6:	10812783          	lw	a5,264(sp)
   160ea:	00ed8e33          	add	t3,s11,a4
   160ee:	009cb023          	sd	s1,0(s9)
   160f2:	0017871b          	addiw	a4,a5,1
   160f6:	01bcb423          	sd	s11,8(s9)
   160fa:	ea72                	c.sdsp	t3,272(sp)
   160fc:	10e12423          	sw	a4,264(sp)
   16100:	479d                	c.li	a5,7
   16102:	0cc1                	c.addi	s9,16
   16104:	1ce7d5e3          	bge	a5,a4,16ace <_vfprintf_r+0xf20>
   16108:	0210                	c.addi4spn	a2,sp,256
   1610a:	85ca                	c.mv	a1,s2
   1610c:	854e                	c.mv	a0,s3
   1610e:	3c6050ef          	jal	ra,1b4d4 <__sprint_r>
   16112:	c119                	c.beqz	a0,16118 <_vfprintf_r+0x56a>
   16114:	0120106f          	jal	zero,17126 <_vfprintf_r+0x1578>
   16118:	8cd6                	c.mv	s9,s5
   1611a:	1b50006f          	jal	zero,16ace <_vfprintf_r+0xf20>
   1611e:	01046413          	ori	s0,s0,16
   16122:	2401                	c.addiw	s0,0
   16124:	008b8793          	addi	a5,s7,8
   16128:	f83e                	c.sdsp	a5,48(sp)
   1612a:	02047793          	andi	a5,s0,32
   1612e:	cb85                	c.beqz	a5,1615e <_vfprintf_r+0x5b0>
   16130:	000bbb83          	ld	s7,0(s7)
   16134:	000bd863          	bge	s7,zero,16144 <_vfprintf_r+0x596>
   16138:	02d00793          	addi	a5,zero,45
   1613c:	41700bb3          	sub	s7,zero,s7
   16140:	0cf107a3          	sb	a5,207(sp)
   16144:	57fd                	c.li	a5,-1
   16146:	6efd9963          	bne	s11,a5,16838 <_vfprintf_r+0xc8a>
   1614a:	47a5                	c.li	a5,9
   1614c:	7577e463          	bltu	a5,s7,16894 <_vfprintf_r+0xce6>
   16150:	030b8b9b          	addiw	s7,s7,48
   16154:	17710da3          	sb	s7,379(sp)
   16158:	17b10493          	addi	s1,sp,379
   1615c:	af39                	c.j	1687a <_vfprintf_r+0xccc>
   1615e:	01047793          	andi	a5,s0,16
   16162:	f7f9                	c.bnez	a5,16130 <_vfprintf_r+0x582>
   16164:	04047793          	andi	a5,s0,64
   16168:	c781                	c.beqz	a5,16170 <_vfprintf_r+0x5c2>
   1616a:	000b9b83          	lh	s7,0(s7)
   1616e:	b7d9                	c.j	16134 <_vfprintf_r+0x586>
   16170:	20047793          	andi	a5,s0,512
   16174:	c781                	c.beqz	a5,1617c <_vfprintf_r+0x5ce>
   16176:	000b8b83          	lb	s7,0(s7)
   1617a:	bf6d                	c.j	16134 <_vfprintf_r+0x586>
   1617c:	000bab83          	lw	s7,0(s7)
   16180:	bf55                	c.j	16134 <_vfprintf_r+0x586>
   16182:	00847793          	andi	a5,s0,8
   16186:	cfb9                	c.beqz	a5,161e4 <_vfprintf_r+0x636>
   16188:	0bbd                	c.addi	s7,15
   1618a:	ff0bfb93          	andi	s7,s7,-16
   1618e:	010b8793          	addi	a5,s7,16
   16192:	f83e                	c.sdsp	a5,48(sp)
   16194:	000bb783          	ld	a5,0(s7)
   16198:	f9be                	c.sdsp	a5,240(sp)
   1619a:	008bb783          	ld	a5,8(s7)
   1619e:	fdbe                	c.sdsp	a5,248(sp)
   161a0:	1988                	c.addi4spn	a0,sp,240
   161a2:	561020ef          	jal	ra,18f02 <_ldcheck>
   161a6:	cdaa                	c.swsp	a0,216(sp)
   161a8:	4789                	c.li	a5,2
   161aa:	04f51c63          	bne	a0,a5,16202 <_vfprintf_r+0x654>
   161ae:	754e                	c.ldsp	a0,240(sp)
   161b0:	75ee                	c.ldsp	a1,248(sp)
   161b2:	4601                	c.li	a2,0
   161b4:	4681                	c.li	a3,0
   161b6:	4ab060ef          	jal	ra,1ce60 <__letf2>
   161ba:	00055663          	bge	a0,zero,161c6 <_vfprintf_r+0x618>
   161be:	02d00793          	addi	a5,zero,45
   161c2:	0cf107a3          	sb	a5,207(sp)
   161c6:	04700793          	addi	a5,zero,71
   161ca:	0367c763          	blt	a5,s6,161f8 <_vfprintf_r+0x64a>
   161ce:	000294b7          	lui	s1,0x29
   161d2:	85048493          	addi	s1,s1,-1968 # 28850 <zeroes.4441+0x48>
   161d6:	f7f47413          	andi	s0,s0,-129
   161da:	2401                	c.addiw	s0,0
   161dc:	4b81                	c.li	s7,0
   161de:	4d8d                	c.li	s11,3
   161e0:	4701                	c.li	a4,0
   161e2:	a555                	c.j	16886 <_vfprintf_r+0xcd8>
   161e4:	000bb507          	fld	fa0,0(s7)
   161e8:	008b8793          	addi	a5,s7,8
   161ec:	f83e                	c.sdsp	a5,48(sp)
   161ee:	49f070ef          	jal	ra,1de8c <__extenddftf2>
   161f2:	f9aa                	c.sdsp	a0,240(sp)
   161f4:	fdae                	c.sdsp	a1,248(sp)
   161f6:	b76d                	c.j	161a0 <_vfprintf_r+0x5f2>
   161f8:	000294b7          	lui	s1,0x29
   161fc:	85848493          	addi	s1,s1,-1960 # 28858 <zeroes.4441+0x50>
   16200:	bfd9                	c.j	161d6 <_vfprintf_r+0x628>
   16202:	4785                	c.li	a5,1
   16204:	02f51763          	bne	a0,a5,16232 <_vfprintf_r+0x684>
   16208:	77ee                	c.ldsp	a5,248(sp)
   1620a:	0007d663          	bge	a5,zero,16216 <_vfprintf_r+0x668>
   1620e:	02d00793          	addi	a5,zero,45
   16212:	0cf107a3          	sb	a5,207(sp)
   16216:	04700793          	addi	a5,zero,71
   1621a:	0167c763          	blt	a5,s6,16228 <_vfprintf_r+0x67a>
   1621e:	000294b7          	lui	s1,0x29
   16222:	86048493          	addi	s1,s1,-1952 # 28860 <zeroes.4441+0x58>
   16226:	bf45                	c.j	161d6 <_vfprintf_r+0x628>
   16228:	000294b7          	lui	s1,0x29
   1622c:	86848493          	addi	s1,s1,-1944 # 28868 <zeroes.4441+0x60>
   16230:	b75d                	c.j	161d6 <_vfprintf_r+0x628>
   16232:	fdfb7c13          	andi	s8,s6,-33
   16236:	04100793          	addi	a5,zero,65
   1623a:	04fc1c63          	bne	s8,a5,16292 <_vfprintf_r+0x6e4>
   1623e:	03000793          	addi	a5,zero,48
   16242:	0cf10823          	sb	a5,208(sp)
   16246:	06100713          	addi	a4,zero,97
   1624a:	05800793          	addi	a5,zero,88
   1624e:	00eb1463          	bne	s6,a4,16256 <_vfprintf_r+0x6a8>
   16252:	07800793          	addi	a5,zero,120
   16256:	0cf108a3          	sb	a5,209(sp)
   1625a:	00246413          	ori	s0,s0,2
   1625e:	06300793          	addi	a5,zero,99
   16262:	2401                	c.addiw	s0,0
   16264:	15b7db63          	bge	a5,s11,163ba <_vfprintf_r+0x80c>
   16268:	001d859b          	addiw	a1,s11,1
   1626c:	854e                	c.mv	a0,s3
   1626e:	d87fe0ef          	jal	ra,14ff4 <_malloc_r>
   16272:	84aa                	c.mv	s1,a0
   16274:	14051663          	bne	a0,zero,163c0 <_vfprintf_r+0x812>
   16278:	01095783          	lhu	a5,16(s2)
   1627c:	0407e793          	ori	a5,a5,64
   16280:	00f91823          	sh	a5,16(s2)
   16284:	01095783          	lhu	a5,16(s2)
   16288:	0407f793          	andi	a5,a5,64
   1628c:	9c078ce3          	beq	a5,zero,15c64 <_vfprintf_r+0xb6>
   16290:	bc29                	c.j	15caa <_vfprintf_r+0xfc>
   16292:	57fd                	c.li	a5,-1
   16294:	12fd8863          	beq	s11,a5,163c4 <_vfprintf_r+0x816>
   16298:	04700793          	addi	a5,zero,71
   1629c:	4b81                	c.li	s7,0
   1629e:	00fc1463          	bne	s8,a5,162a6 <_vfprintf_r+0x6f8>
   162a2:	120d8463          	beq	s11,zero,163ca <_vfprintf_r+0x81c>
   162a6:	10046793          	ori	a5,s0,256
   162aa:	7a6e                	c.ldsp	s4,248(sp)
   162ac:	2781                	c.addiw	a5,0
   162ae:	fc3e                	c.sdsp	a5,56(sp)
   162b0:	fc82                	c.sdsp	zero,120(sp)
   162b2:	7ece                	c.ldsp	t4,240(sp)
   162b4:	000a5963          	bge	s4,zero,162c6 <_vfprintf_r+0x718>
   162b8:	57fd                	c.li	a5,-1
   162ba:	17fe                	c.slli	a5,0x3f
   162bc:	00fa4a33          	xor	s4,s4,a5
   162c0:	02d00793          	addi	a5,zero,45
   162c4:	fcbe                	c.sdsp	a5,120(sp)
   162c6:	04100793          	addi	a5,zero,65
   162ca:	22fc1363          	bne	s8,a5,164f0 <_vfprintf_r+0x942>
   162ce:	8576                	c.mv	a0,t4
   162d0:	85d2                	c.mv	a1,s4
   162d2:	49f070ef          	jal	ra,1df70 <__trunctfdf2>
   162d6:	09a8                	c.addi4spn	a0,sp,216
   162d8:	333030ef          	jal	ra,19e0a <frexp>
   162dc:	3b1070ef          	jal	ra,1de8c <__extenddftf2>
   162e0:	768a                	c.ldsp	a3,160(sp)
   162e2:	4601                	c.li	a2,0
   162e4:	441060ef          	jal	ra,1cf24 <__multf3>
   162e8:	4601                	c.li	a2,0
   162ea:	4681                	c.li	a3,0
   162ec:	e12a                	c.sdsp	a0,128(sp)
   162ee:	e52e                	c.sdsp	a1,136(sp)
   162f0:	209060ef          	jal	ra,1ccf8 <__eqtf2>
   162f4:	e119                	c.bnez	a0,162fa <_vfprintf_r+0x74c>
   162f6:	4785                	c.li	a5,1
   162f8:	cdbe                	c.swsp	a5,216(sp)
   162fa:	06100793          	addi	a5,zero,97
   162fe:	0cfb1963          	bne	s6,a5,163d0 <_vfprintf_r+0x822>
   16302:	000297b7          	lui	a5,0x29
   16306:	87078793          	addi	a5,a5,-1936 # 28870 <zeroes.4441+0x68>
   1630a:	e43e                	c.sdsp	a5,8(sp)
   1630c:	fffd871b          	addiw	a4,s11,-1
   16310:	8a26                	c.mv	s4,s1
   16312:	76aa                	c.ldsp	a3,168(sp)
   16314:	650a                	c.ldsp	a0,128(sp)
   16316:	65aa                	c.ldsp	a1,136(sp)
   16318:	4601                	c.li	a2,0
   1631a:	f93a                	c.sdsp	a4,176(sp)
   1631c:	409060ef          	jal	ra,1cf24 <__multf3>
   16320:	8d2a                	c.mv	s10,a0
   16322:	f4ae                	c.sdsp	a1,104(sp)
   16324:	259070ef          	jal	ra,1dd7c <__fixtfsi>
   16328:	0005079b          	addiw	a5,a0,0
   1632c:	f8be                	c.sdsp	a5,112(sp)
   1632e:	2e1070ef          	jal	ra,1de0e <__floatsitf>
   16332:	77a6                	c.ldsp	a5,104(sp)
   16334:	86ae                	c.mv	a3,a1
   16336:	862a                	c.mv	a2,a0
   16338:	85be                	c.mv	a1,a5
   1633a:	856a                	c.mv	a0,s10
   1633c:	230070ef          	jal	ra,1d56c <__subtf3>
   16340:	67a2                	c.ldsp	a5,8(sp)
   16342:	7746                	c.ldsp	a4,112(sp)
   16344:	0a05                	c.addi	s4,1
   16346:	e12a                	c.sdsp	a0,128(sp)
   16348:	00e786b3          	add	a3,a5,a4
   1634c:	774a                	c.ldsp	a4,176(sp)
   1634e:	0006c683          	lbu	a3,0(a3) # 2000 <main-0xe0b0>
   16352:	e52e                	c.sdsp	a1,136(sp)
   16354:	0007079b          	addiw	a5,a4,0
   16358:	f4be                	c.sdsp	a5,104(sp)
   1635a:	feda0fa3          	sb	a3,-1(s4)
   1635e:	57fd                	c.li	a5,-1
   16360:	88aa                	c.mv	a7,a0
   16362:	8d2e                	c.mv	s10,a1
   16364:	06f70b63          	beq	a4,a5,163da <_vfprintf_r+0x82c>
   16368:	377d                	c.addiw	a4,-1
   1636a:	4601                	c.li	a2,0
   1636c:	4681                	c.li	a3,0
   1636e:	f93a                	c.sdsp	a4,176(sp)
   16370:	fd2a                	c.sdsp	a0,184(sp)
   16372:	187060ef          	jal	ra,1ccf8 <__eqtf2>
   16376:	774a                	c.ldsp	a4,176(sp)
   16378:	78ea                	c.ldsp	a7,184(sp)
   1637a:	fd41                	c.bnez	a0,16312 <_vfprintf_r+0x764>
   1637c:	66ca                	c.ldsp	a3,144(sp)
   1637e:	4601                	c.li	a2,0
   16380:	8546                	c.mv	a0,a7
   16382:	85ea                	c.mv	a1,s10
   16384:	e146                	c.sdsp	a7,128(sp)
   16386:	217060ef          	jal	ra,1cd9c <__getf2>
   1638a:	04a04b63          	blt	zero,a0,163e0 <_vfprintf_r+0x832>
   1638e:	688a                	c.ldsp	a7,128(sp)
   16390:	66ca                	c.ldsp	a3,144(sp)
   16392:	4601                	c.li	a2,0
   16394:	8546                	c.mv	a0,a7
   16396:	85ea                	c.mv	a1,s10
   16398:	161060ef          	jal	ra,1ccf8 <__eqtf2>
   1639c:	e509                	c.bnez	a0,163a6 <_vfprintf_r+0x7f8>
   1639e:	77c6                	c.ldsp	a5,112(sp)
   163a0:	0017f713          	andi	a4,a5,1
   163a4:	ef15                	c.bnez	a4,163e0 <_vfprintf_r+0x832>
   163a6:	5726                	c.lwsp	a4,104(sp)
   163a8:	03000693          	addi	a3,zero,48
   163ac:	06074163          	blt	a4,zero,1640e <_vfprintf_r+0x860>
   163b0:	0a05                	c.addi	s4,1
   163b2:	feda0fa3          	sb	a3,-1(s4)
   163b6:	377d                	c.addiw	a4,-1
   163b8:	bfd5                	c.j	163ac <_vfprintf_r+0x7fe>
   163ba:	4b81                	c.li	s7,0
   163bc:	0a24                	c.addi4spn	s1,sp,280
   163be:	b5e5                	c.j	162a6 <_vfprintf_r+0x6f8>
   163c0:	8baa                	c.mv	s7,a0
   163c2:	b5d5                	c.j	162a6 <_vfprintf_r+0x6f8>
   163c4:	4b81                	c.li	s7,0
   163c6:	4d99                	c.li	s11,6
   163c8:	bdf9                	c.j	162a6 <_vfprintf_r+0x6f8>
   163ca:	8bee                	c.mv	s7,s11
   163cc:	4d85                	c.li	s11,1
   163ce:	bde1                	c.j	162a6 <_vfprintf_r+0x6f8>
   163d0:	000297b7          	lui	a5,0x29
   163d4:	88878793          	addi	a5,a5,-1912 # 28888 <zeroes.4441+0x80>
   163d8:	bf0d                	c.j	1630a <_vfprintf_r+0x75c>
   163da:	57fd                	c.li	a5,-1
   163dc:	f4be                	c.sdsp	a5,104(sp)
   163de:	bf79                	c.j	1637c <_vfprintf_r+0x7ce>
   163e0:	67a2                	c.ldsp	a5,8(sp)
   163e2:	f5d2                	c.sdsp	s4,232(sp)
   163e4:	03000593          	addi	a1,zero,48
   163e8:	00f7c603          	lbu	a2,15(a5)
   163ec:	76ae                	c.ldsp	a3,232(sp)
   163ee:	fff68713          	addi	a4,a3,-1
   163f2:	f5ba                	c.sdsp	a4,232(sp)
   163f4:	fff6c703          	lbu	a4,-1(a3)
   163f8:	0ec70563          	beq	a4,a2,164e2 <_vfprintf_r+0x934>
   163fc:	03900613          	addi	a2,zero,57
   16400:	0ec71463          	bne	a4,a2,164e8 <_vfprintf_r+0x93a>
   16404:	67a2                	c.ldsp	a5,8(sp)
   16406:	00a7c703          	lbu	a4,10(a5)
   1640a:	fee68fa3          	sb	a4,-1(a3)
   1640e:	04700713          	addi	a4,zero,71
   16412:	409a0a3b          	subw	s4,s4,s1
   16416:	4d6e                	c.lwsp	s10,216(sp)
   16418:	18ec1463          	bne	s8,a4,165a0 <_vfprintf_r+0x9f2>
   1641c:	5775                	c.li	a4,-3
   1641e:	00ed4463          	blt	s10,a4,16426 <_vfprintf_r+0x878>
   16422:	1fadd463          	bge	s11,s10,1660a <_vfprintf_r+0xa5c>
   16426:	3b79                	c.addiw	s6,-2
   16428:	fffd069b          	addiw	a3,s10,-1
   1642c:	cdb6                	c.swsp	a3,216(sp)
   1642e:	fdfb7613          	andi	a2,s6,-33
   16432:	04100513          	addi	a0,zero,65
   16436:	0ffb7713          	andi	a4,s6,255
   1643a:	4581                	c.li	a1,0
   1643c:	00a61663          	bne	a2,a0,16448 <_vfprintf_r+0x89a>
   16440:	273d                	c.addiw	a4,15
   16442:	0ff77713          	andi	a4,a4,255
   16446:	4585                	c.li	a1,1
   16448:	0ee10023          	sb	a4,224(sp)
   1644c:	02b00793          	addi	a5,zero,43
   16450:	0006d763          	bge	a3,zero,1645e <_vfprintf_r+0x8b0>
   16454:	4685                	c.li	a3,1
   16456:	41a686bb          	subw	a3,a3,s10
   1645a:	02d00793          	addi	a5,zero,45
   1645e:	0ef100a3          	sb	a5,225(sp)
   16462:	47a5                	c.li	a5,9
   16464:	16d7da63          	bge	a5,a3,165d8 <_vfprintf_r+0xa2a>
   16468:	0ef10713          	addi	a4,sp,239
   1646c:	853a                	c.mv	a0,a4
   1646e:	45a9                	c.li	a1,10
   16470:	4825                	c.li	a6,9
   16472:	02b6e7bb          	remw	a5,a3,a1
   16476:	fff70613          	addi	a2,a4,-1
   1647a:	02b6c6bb          	divw	a3,a3,a1
   1647e:	0307879b          	addiw	a5,a5,48
   16482:	fef70fa3          	sb	a5,-1(a4)
   16486:	14d84063          	blt	a6,a3,165c6 <_vfprintf_r+0xa18>
   1648a:	0306879b          	addiw	a5,a3,48
   1648e:	fef60fa3          	sb	a5,-1(a2)
   16492:	1779                	c.addi	a4,-2
   16494:	0e210613          	addi	a2,sp,226
   16498:	12a76963          	bltu	a4,a0,165ca <_vfprintf_r+0xa1c>
   1649c:	119c                	c.addi4spn	a5,sp,224
   1649e:	40f607bb          	subw	a5,a2,a5
   164a2:	ecbe                	c.sdsp	a5,88(sp)
   164a4:	47e6                	c.lwsp	a5,88(sp)
   164a6:	4705                	c.li	a4,1
   164a8:	01478dbb          	addw	s11,a5,s4
   164ac:	87ee                	c.mv	a5,s11
   164ae:	01474563          	blt	a4,s4,164b8 <_vfprintf_r+0x90a>
   164b2:	00147713          	andi	a4,s0,1
   164b6:	c701                	c.beqz	a4,164be <_vfprintf_r+0x910>
   164b8:	4762                	c.lwsp	a4,24(sp)
   164ba:	00e78dbb          	addw	s11,a5,a4
   164be:	bff47413          	andi	s0,s0,-1025
   164c2:	2401                	c.addiw	s0,0
   164c4:	10046793          	ori	a5,s0,256
   164c8:	fc3e                	c.sdsp	a5,56(sp)
   164ca:	e402                	c.sdsp	zero,8(sp)
   164cc:	4c01                	c.li	s8,0
   164ce:	4d01                	c.li	s10,0
   164d0:	77e6                	c.ldsp	a5,120(sp)
   164d2:	c789                	c.beqz	a5,164dc <_vfprintf_r+0x92e>
   164d4:	02d00713          	addi	a4,zero,45
   164d8:	0ce107a3          	sb	a4,207(sp)
   164dc:	7462                	c.ldsp	s0,56(sp)
   164de:	4701                	c.li	a4,0
   164e0:	bc15                	c.j	15f14 <_vfprintf_r+0x366>
   164e2:	feb68fa3          	sb	a1,-1(a3)
   164e6:	b719                	c.j	163ec <_vfprintf_r+0x83e>
   164e8:	2705                	c.addiw	a4,1
   164ea:	0ff77713          	andi	a4,a4,255
   164ee:	bf31                	c.j	1640a <_vfprintf_r+0x85c>
   164f0:	04600793          	addi	a5,zero,70
   164f4:	00fc0b63          	beq	s8,a5,1650a <_vfprintf_r+0x95c>
   164f8:	04500793          	addi	a5,zero,69
   164fc:	8d6e                	c.mv	s10,s11
   164fe:	00fc1463          	bne	s8,a5,16506 <_vfprintf_r+0x958>
   16502:	001d8d1b          	addiw	s10,s11,1
   16506:	4689                	c.li	a3,2
   16508:	a019                	c.j	1650e <_vfprintf_r+0x960>
   1650a:	8d6e                	c.mv	s10,s11
   1650c:	468d                	c.li	a3,3
   1650e:	09bc                	c.addi4spn	a5,sp,216
   16510:	85f6                	c.mv	a1,t4
   16512:	0e810893          	addi	a7,sp,232
   16516:	0dc10813          	addi	a6,sp,220
   1651a:	876a                	c.mv	a4,s10
   1651c:	8652                	c.mv	a2,s4
   1651e:	854e                	c.mv	a0,s3
   16520:	e476                	c.sdsp	t4,8(sp)
   16522:	0c0020ef          	jal	ra,185e2 <_ldtoa_r>
   16526:	04700793          	addi	a5,zero,71
   1652a:	84aa                	c.mv	s1,a0
   1652c:	6ea2                	c.ldsp	t4,8(sp)
   1652e:	00fc1563          	bne	s8,a5,16538 <_vfprintf_r+0x98a>
   16532:	00147793          	andi	a5,s0,1
   16536:	cbb1                	c.beqz	a5,1658a <_vfprintf_r+0x9dc>
   16538:	04600713          	addi	a4,zero,70
   1653c:	01a487b3          	add	a5,s1,s10
   16540:	02ec1963          	bne	s8,a4,16572 <_vfprintf_r+0x9c4>
   16544:	0004c683          	lbu	a3,0(s1)
   16548:	03000713          	addi	a4,zero,48
   1654c:	02e69163          	bne	a3,a4,1656e <_vfprintf_r+0x9c0>
   16550:	8576                	c.mv	a0,t4
   16552:	4601                	c.li	a2,0
   16554:	4681                	c.li	a3,0
   16556:	85d2                	c.mv	a1,s4
   16558:	f4be                	c.sdsp	a5,104(sp)
   1655a:	e476                	c.sdsp	t4,8(sp)
   1655c:	79c060ef          	jal	ra,1ccf8 <__eqtf2>
   16560:	6ea2                	c.ldsp	t4,8(sp)
   16562:	77a6                	c.ldsp	a5,104(sp)
   16564:	c509                	c.beqz	a0,1656e <_vfprintf_r+0x9c0>
   16566:	4705                	c.li	a4,1
   16568:	41a70d3b          	subw	s10,a4,s10
   1656c:	cdea                	c.swsp	s10,216(sp)
   1656e:	476e                	c.lwsp	a4,216(sp)
   16570:	97ba                	c.add	a5,a4
   16572:	4681                	c.li	a3,0
   16574:	4601                	c.li	a2,0
   16576:	8576                	c.mv	a0,t4
   16578:	85d2                	c.mv	a1,s4
   1657a:	e43e                	c.sdsp	a5,8(sp)
   1657c:	77c060ef          	jal	ra,1ccf8 <__eqtf2>
   16580:	67a2                	c.ldsp	a5,8(sp)
   16582:	03000693          	addi	a3,zero,48
   16586:	e909                	c.bnez	a0,16598 <_vfprintf_r+0x9ea>
   16588:	f5be                	c.sdsp	a5,232(sp)
   1658a:	7a2e                	c.ldsp	s4,232(sp)
   1658c:	b549                	c.j	1640e <_vfprintf_r+0x860>
   1658e:	00170613          	addi	a2,a4,1
   16592:	f5b2                	c.sdsp	a2,232(sp)
   16594:	00d70023          	sb	a3,0(a4)
   16598:	772e                	c.ldsp	a4,232(sp)
   1659a:	fef76ae3          	bltu	a4,a5,1658e <_vfprintf_r+0x9e0>
   1659e:	b7f5                	c.j	1658a <_vfprintf_r+0x9dc>
   165a0:	04600713          	addi	a4,zero,70
   165a4:	e8ec12e3          	bne	s8,a4,16428 <_vfprintf_r+0x87a>
   165a8:	05a05863          	bge	zero,s10,165f8 <_vfprintf_r+0xa4a>
   165ac:	000d9563          	bne	s11,zero,165b6 <_vfprintf_r+0xa08>
   165b0:	00147713          	andi	a4,s0,1
   165b4:	cf59                	c.beqz	a4,16652 <_vfprintf_r+0xaa4>
   165b6:	47e2                	c.lwsp	a5,24(sp)
   165b8:	01a7873b          	addw	a4,a5,s10
   165bc:	01b70dbb          	addw	s11,a4,s11
   165c0:	06600b13          	addi	s6,zero,102
   165c4:	a895                	c.j	16638 <_vfprintf_r+0xa8a>
   165c6:	8732                	c.mv	a4,a2
   165c8:	b56d                	c.j	16472 <_vfprintf_r+0x8c4>
   165ca:	0705                	c.addi	a4,1
   165cc:	fff74783          	lbu	a5,-1(a4)
   165d0:	0605                	c.addi	a2,1
   165d2:	fef60fa3          	sb	a5,-1(a2)
   165d6:	b5c9                	c.j	16498 <_vfprintf_r+0x8ea>
   165d8:	0e210713          	addi	a4,sp,226
   165dc:	e599                	c.bnez	a1,165ea <_vfprintf_r+0xa3c>
   165de:	03000793          	addi	a5,zero,48
   165e2:	0ef10123          	sb	a5,226(sp)
   165e6:	0e310713          	addi	a4,sp,227
   165ea:	0306879b          	addiw	a5,a3,48
   165ee:	00170613          	addi	a2,a4,1
   165f2:	00f70023          	sb	a5,0(a4)
   165f6:	b55d                	c.j	1649c <_vfprintf_r+0x8ee>
   165f8:	000d9563          	bne	s11,zero,16602 <_vfprintf_r+0xa54>
   165fc:	00147713          	andi	a4,s0,1
   16600:	cb39                	c.beqz	a4,16656 <_vfprintf_r+0xaa8>
   16602:	47e2                	c.lwsp	a5,24(sp)
   16604:	0017871b          	addiw	a4,a5,1
   16608:	bf55                	c.j	165bc <_vfprintf_r+0xa0e>
   1660a:	014d4c63          	blt	s10,s4,16622 <_vfprintf_r+0xa74>
   1660e:	00147713          	andi	a4,s0,1
   16612:	8dea                	c.mv	s11,s10
   16614:	c701                	c.beqz	a4,1661c <_vfprintf_r+0xa6e>
   16616:	47e2                	c.lwsp	a5,24(sp)
   16618:	01a78dbb          	addw	s11,a5,s10
   1661c:	06700b13          	addi	s6,zero,103
   16620:	a821                	c.j	16638 <_vfprintf_r+0xa8a>
   16622:	47e2                	c.lwsp	a5,24(sp)
   16624:	06700b13          	addi	s6,zero,103
   16628:	01478dbb          	addw	s11,a5,s4
   1662c:	01a04663          	blt	zero,s10,16638 <_vfprintf_r+0xa8a>
   16630:	41ad8e3b          	subw	t3,s11,s10
   16634:	001e0d9b          	addiw	s11,t3,1
   16638:	40047413          	andi	s0,s0,1024
   1663c:	00040c1b          	addiw	s8,s0,0
   16640:	e402                	c.sdsp	zero,8(sp)
   16642:	e80c07e3          	beq	s8,zero,164d0 <_vfprintf_r+0x922>
   16646:	4c01                	c.li	s8,0
   16648:	e9a054e3          	bge	zero,s10,164d0 <_vfprintf_r+0x922>
   1664c:	0ff00693          	addi	a3,zero,255
   16650:	a01d                	c.j	16676 <_vfprintf_r+0xac8>
   16652:	8dea                	c.mv	s11,s10
   16654:	b7b5                	c.j	165c0 <_vfprintf_r+0xa12>
   16656:	06600b13          	addi	s6,zero,102
   1665a:	4d85                	c.li	s11,1
   1665c:	bff1                	c.j	16638 <_vfprintf_r+0xa8a>
   1665e:	2701                	c.addiw	a4,0
   16660:	03a75063          	bge	a4,s10,16680 <_vfprintf_r+0xad2>
   16664:	6782                	c.ldsp	a5,0(sp)
   16666:	40ed0d3b          	subw	s10,s10,a4
   1666a:	0017c703          	lbu	a4,1(a5)
   1666e:	c315                	c.beqz	a4,16692 <_vfprintf_r+0xae4>
   16670:	0785                	c.addi	a5,1
   16672:	2c05                	c.addiw	s8,1
   16674:	e03e                	c.sdsp	a5,0(sp)
   16676:	6782                	c.ldsp	a5,0(sp)
   16678:	0007c703          	lbu	a4,0(a5)
   1667c:	fed711e3          	bne	a4,a3,1665e <_vfprintf_r+0xab0>
   16680:	47a2                	c.lwsp	a5,8(sp)
   16682:	00fc073b          	addw	a4,s8,a5
   16686:	4786                	c.lwsp	a5,64(sp)
   16688:	02f7073b          	mulw	a4,a4,a5
   1668c:	01b70dbb          	addw	s11,a4,s11
   16690:	b581                	c.j	164d0 <_vfprintf_r+0x922>
   16692:	47a2                	c.lwsp	a5,8(sp)
   16694:	2785                	c.addiw	a5,1
   16696:	e43e                	c.sdsp	a5,8(sp)
   16698:	bff9                	c.j	16676 <_vfprintf_r+0xac8>
   1669a:	008b8713          	addi	a4,s7,8
   1669e:	f83a                	c.sdsp	a4,48(sp)
   166a0:	02047713          	andi	a4,s0,32
   166a4:	000bb783          	ld	a5,0(s7)
   166a8:	c719                	c.beqz	a4,166b6 <_vfprintf_r+0xb08>
   166aa:	7722                	c.ldsp	a4,40(sp)
   166ac:	e398                	c.sd	a4,0(a5)
   166ae:	7bc2                	c.ldsp	s7,48(sp)
   166b0:	64c2                	c.ldsp	s1,16(sp)
   166b2:	e42ff06f          	jal	zero,15cf4 <_vfprintf_r+0x146>
   166b6:	01047713          	andi	a4,s0,16
   166ba:	fb65                	c.bnez	a4,166aa <_vfprintf_r+0xafc>
   166bc:	04047713          	andi	a4,s0,64
   166c0:	c711                	c.beqz	a4,166cc <_vfprintf_r+0xb1e>
   166c2:	02815703          	lhu	a4,40(sp)
   166c6:	00e79023          	sh	a4,0(a5)
   166ca:	b7d5                	c.j	166ae <_vfprintf_r+0xb00>
   166cc:	20047413          	andi	s0,s0,512
   166d0:	c411                	c.beqz	s0,166dc <_vfprintf_r+0xb2e>
   166d2:	02814703          	lbu	a4,40(sp)
   166d6:	00e78023          	sb	a4,0(a5)
   166da:	bfd1                	c.j	166ae <_vfprintf_r+0xb00>
   166dc:	5722                	c.lwsp	a4,40(sp)
   166de:	c398                	c.sw	a4,0(a5)
   166e0:	b7f9                	c.j	166ae <_vfprintf_r+0xb00>
   166e2:	01046413          	ori	s0,s0,16
   166e6:	2401                	c.addiw	s0,0
   166e8:	008b8793          	addi	a5,s7,8
   166ec:	f83e                	c.sdsp	a5,48(sp)
   166ee:	02047793          	andi	a5,s0,32
   166f2:	cb85                	c.beqz	a5,16722 <_vfprintf_r+0xb74>
   166f4:	000bbb83          	ld	s7,0(s7)
   166f8:	bff47413          	andi	s0,s0,-1025
   166fc:	2401                	c.addiw	s0,0
   166fe:	4781                	c.li	a5,0
   16700:	0c0107a3          	sb	zero,207(sp)
   16704:	577d                	c.li	a4,-1
   16706:	12ed8c63          	beq	s11,a4,1683e <_vfprintf_r+0xc90>
   1670a:	8722                	c.mv	a4,s0
   1670c:	f7f47413          	andi	s0,s0,-129
   16710:	2401                	c.addiw	s0,0
   16712:	120b9663          	bne	s7,zero,1683e <_vfprintf_r+0xc90>
   16716:	200d8463          	beq	s11,zero,1691e <_vfprintf_r+0xd70>
   1671a:	4705                	c.li	a4,1
   1671c:	12e79463          	bne	a5,a4,16844 <_vfprintf_r+0xc96>
   16720:	bc05                	c.j	16150 <_vfprintf_r+0x5a2>
   16722:	01047793          	andi	a5,s0,16
   16726:	f7f9                	c.bnez	a5,166f4 <_vfprintf_r+0xb46>
   16728:	04047793          	andi	a5,s0,64
   1672c:	000bab83          	lw	s7,0(s7)
   16730:	c789                	c.beqz	a5,1673a <_vfprintf_r+0xb8c>
   16732:	1bc2                	c.slli	s7,0x30
   16734:	030bdb93          	srli	s7,s7,0x30
   16738:	b7c1                	c.j	166f8 <_vfprintf_r+0xb4a>
   1673a:	20047793          	andi	a5,s0,512
   1673e:	c781                	c.beqz	a5,16746 <_vfprintf_r+0xb98>
   16740:	0ffbfb93          	andi	s7,s7,255
   16744:	bf55                	c.j	166f8 <_vfprintf_r+0xb4a>
   16746:	1b82                	c.slli	s7,0x20
   16748:	020bdb93          	srli	s7,s7,0x20
   1674c:	b775                	c.j	166f8 <_vfprintf_r+0xb4a>
   1674e:	008b8793          	addi	a5,s7,8
   16752:	f83e                	c.sdsp	a5,48(sp)
   16754:	77e1                	c.lui	a5,0xffff8
   16756:	8307c793          	xori	a5,a5,-2000
   1675a:	0cf11823          	sh	a5,208(sp)
   1675e:	000297b7          	lui	a5,0x29
   16762:	87078793          	addi	a5,a5,-1936 # 28870 <zeroes.4441+0x68>
   16766:	00246413          	ori	s0,s0,2
   1676a:	f0be                	c.sdsp	a5,96(sp)
   1676c:	000bbb83          	ld	s7,0(s7)
   16770:	2401                	c.addiw	s0,0
   16772:	4789                	c.li	a5,2
   16774:	07800b13          	addi	s6,zero,120
   16778:	b761                	c.j	16700 <_vfprintf_r+0xb52>
   1677a:	008b8793          	addi	a5,s7,8
   1677e:	f83e                	c.sdsp	a5,48(sp)
   16780:	0c0107a3          	sb	zero,207(sp)
   16784:	57fd                	c.li	a5,-1
   16786:	000bb483          	ld	s1,0(s7)
   1678a:	00fd8e63          	beq	s11,a5,167a6 <_vfprintf_r+0xbf8>
   1678e:	866e                	c.mv	a2,s11
   16790:	4581                	c.li	a1,0
   16792:	8526                	c.mv	a0,s1
   16794:	007020ef          	jal	ra,18f9a <memchr>
   16798:	8baa                	c.mv	s7,a0
   1679a:	a40503e3          	beq	a0,zero,161e0 <_vfprintf_r+0x632>
   1679e:	40950dbb          	subw	s11,a0,s1
   167a2:	4b81                	c.li	s7,0
   167a4:	bc35                	c.j	161e0 <_vfprintf_r+0x632>
   167a6:	8526                	c.mv	a0,s1
   167a8:	bf4ff0ef          	jal	ra,15b9c <strlen>
   167ac:	00050d9b          	addiw	s11,a0,0
   167b0:	bfcd                	c.j	167a2 <_vfprintf_r+0xbf4>
   167b2:	01046413          	ori	s0,s0,16
   167b6:	2401                	c.addiw	s0,0
   167b8:	008b8793          	addi	a5,s7,8
   167bc:	f83e                	c.sdsp	a5,48(sp)
   167be:	02047793          	andi	a5,s0,32
   167c2:	c789                	c.beqz	a5,167cc <_vfprintf_r+0xc1e>
   167c4:	000bbb83          	ld	s7,0(s7)
   167c8:	4785                	c.li	a5,1
   167ca:	bf1d                	c.j	16700 <_vfprintf_r+0xb52>
   167cc:	01047793          	andi	a5,s0,16
   167d0:	fbf5                	c.bnez	a5,167c4 <_vfprintf_r+0xc16>
   167d2:	04047793          	andi	a5,s0,64
   167d6:	000bab83          	lw	s7,0(s7)
   167da:	c789                	c.beqz	a5,167e4 <_vfprintf_r+0xc36>
   167dc:	1bc2                	c.slli	s7,0x30
   167de:	030bdb93          	srli	s7,s7,0x30
   167e2:	b7dd                	c.j	167c8 <_vfprintf_r+0xc1a>
   167e4:	20047793          	andi	a5,s0,512
   167e8:	c781                	c.beqz	a5,167f0 <_vfprintf_r+0xc42>
   167ea:	0ffbfb93          	andi	s7,s7,255
   167ee:	bfe9                	c.j	167c8 <_vfprintf_r+0xc1a>
   167f0:	1b82                	c.slli	s7,0x20
   167f2:	020bdb93          	srli	s7,s7,0x20
   167f6:	bfc9                	c.j	167c8 <_vfprintf_r+0xc1a>
   167f8:	000297b7          	lui	a5,0x29
   167fc:	87078793          	addi	a5,a5,-1936 # 28870 <zeroes.4441+0x68>
   16800:	d98ff06f          	jal	zero,15d98 <_vfprintf_r+0x1ea>
   16804:	01047793          	andi	a5,s0,16
   16808:	da079063          	bne	a5,zero,15da8 <_vfprintf_r+0x1fa>
   1680c:	04047793          	andi	a5,s0,64
   16810:	000bab83          	lw	s7,0(s7)
   16814:	c791                	c.beqz	a5,16820 <_vfprintf_r+0xc72>
   16816:	1bc2                	c.slli	s7,0x30
   16818:	030bdb93          	srli	s7,s7,0x30
   1681c:	d90ff06f          	jal	zero,15dac <_vfprintf_r+0x1fe>
   16820:	20047793          	andi	a5,s0,512
   16824:	c789                	c.beqz	a5,1682e <_vfprintf_r+0xc80>
   16826:	0ffbfb93          	andi	s7,s7,255
   1682a:	d82ff06f          	jal	zero,15dac <_vfprintf_r+0x1fe>
   1682e:	1b82                	c.slli	s7,0x20
   16830:	020bdb93          	srli	s7,s7,0x20
   16834:	d78ff06f          	jal	zero,15dac <_vfprintf_r+0x1fe>
   16838:	8722                	c.mv	a4,s0
   1683a:	4785                	c.li	a5,1
   1683c:	bdc1                	c.j	1670c <_vfprintf_r+0xb5e>
   1683e:	4705                	c.li	a4,1
   16840:	90e785e3          	beq	a5,a4,1614a <_vfprintf_r+0x59c>
   16844:	4709                	c.li	a4,2
   16846:	0ae78d63          	beq	a5,a4,16900 <_vfprintf_r+0xd52>
   1684a:	1afc                	c.addi4spn	a5,sp,380
   1684c:	007bf713          	andi	a4,s7,7
   16850:	03070713          	addi	a4,a4,48
   16854:	fee78fa3          	sb	a4,-1(a5)
   16858:	003bdb93          	srli	s7,s7,0x3
   1685c:	fff78493          	addi	s1,a5,-1
   16860:	020b9863          	bne	s7,zero,16890 <_vfprintf_r+0xce2>
   16864:	00147693          	andi	a3,s0,1
   16868:	ca89                	c.beqz	a3,1687a <_vfprintf_r+0xccc>
   1686a:	03000693          	addi	a3,zero,48
   1686e:	00d70663          	beq	a4,a3,1687a <_vfprintf_r+0xccc>
   16872:	fed48fa3          	sb	a3,-1(s1)
   16876:	ffe78493          	addi	s1,a5,-2
   1687a:	17c10e13          	addi	t3,sp,380
   1687e:	876e                	c.mv	a4,s11
   16880:	4b81                	c.li	s7,0
   16882:	409e0dbb          	subw	s11,t3,s1
   16886:	e402                	c.sdsp	zero,8(sp)
   16888:	4c01                	c.li	s8,0
   1688a:	4d01                	c.li	s10,0
   1688c:	e88ff06f          	jal	zero,15f14 <_vfprintf_r+0x366>
   16890:	87a6                	c.mv	a5,s1
   16892:	bf6d                	c.j	1684c <_vfprintf_r+0xc9e>
   16894:	40047c13          	andi	s8,s0,1024
   16898:	4a01                	c.li	s4,0
   1689a:	1afc                	c.addi4spn	a5,sp,380
   1689c:	4d29                	c.li	s10,10
   1689e:	2c01                	c.addiw	s8,0
   168a0:	0ff00693          	addi	a3,zero,255
   168a4:	4825                	c.li	a6,9
   168a6:	03abf733          	remu	a4,s7,s10
   168aa:	fff78493          	addi	s1,a5,-1
   168ae:	2a05                	c.addiw	s4,1
   168b0:	0307071b          	addiw	a4,a4,48
   168b4:	fee78fa3          	sb	a4,-1(a5)
   168b8:	020c0e63          	beq	s8,zero,168f4 <_vfprintf_r+0xd46>
   168bc:	6782                	c.ldsp	a5,0(sp)
   168be:	0007c783          	lbu	a5,0(a5)
   168c2:	02fa1963          	bne	s4,a5,168f4 <_vfprintf_r+0xd46>
   168c6:	02d78763          	beq	a5,a3,168f4 <_vfprintf_r+0xd46>
   168ca:	03787563          	bgeu	a6,s7,168f4 <_vfprintf_r+0xd46>
   168ce:	6786                	c.ldsp	a5,64(sp)
   168d0:	65c6                	c.ldsp	a1,80(sp)
   168d2:	fc42                	c.sdsp	a6,56(sp)
   168d4:	8c9d                	c.sub	s1,a5
   168d6:	863e                	c.mv	a2,a5
   168d8:	8526                	c.mv	a0,s1
   168da:	e436                	c.sdsp	a3,8(sp)
   168dc:	63a030ef          	jal	ra,19f16 <strncpy>
   168e0:	6782                	c.ldsp	a5,0(sp)
   168e2:	4a01                	c.li	s4,0
   168e4:	66a2                	c.ldsp	a3,8(sp)
   168e6:	0017c783          	lbu	a5,1(a5)
   168ea:	7862                	c.ldsp	a6,56(sp)
   168ec:	c781                	c.beqz	a5,168f4 <_vfprintf_r+0xd46>
   168ee:	6782                	c.ldsp	a5,0(sp)
   168f0:	0785                	c.addi	a5,1
   168f2:	e03e                	c.sdsp	a5,0(sp)
   168f4:	03abdbb3          	divu	s7,s7,s10
   168f8:	f80b81e3          	beq	s7,zero,1687a <_vfprintf_r+0xccc>
   168fc:	87a6                	c.mv	a5,s1
   168fe:	b765                	c.j	168a6 <_vfprintf_r+0xcf8>
   16900:	1ae4                	c.addi4spn	s1,sp,380
   16902:	7706                	c.ldsp	a4,96(sp)
   16904:	00fbf793          	andi	a5,s7,15
   16908:	14fd                	c.addi	s1,-1
   1690a:	97ba                	c.add	a5,a4
   1690c:	0007c783          	lbu	a5,0(a5)
   16910:	004bdb93          	srli	s7,s7,0x4
   16914:	00f48023          	sb	a5,0(s1)
   16918:	fe0b95e3          	bne	s7,zero,16902 <_vfprintf_r+0xd54>
   1691c:	bfb9                	c.j	1687a <_vfprintf_r+0xccc>
   1691e:	1ae4                	c.addi4spn	s1,sp,380
   16920:	ffa9                	c.bnez	a5,1687a <_vfprintf_r+0xccc>
   16922:	8b05                	c.andi	a4,1
   16924:	db39                	c.beqz	a4,1687a <_vfprintf_r+0xccc>
   16926:	03000793          	addi	a5,zero,48
   1692a:	16f10da3          	sb	a5,379(sp)
   1692e:	82bff06f          	jal	zero,16158 <_vfprintf_r+0x5aa>
   16932:	020b09e3          	beq	s6,zero,17164 <_vfprintf_r+0x15b6>
   16936:	11610c23          	sb	s6,280(sp)
   1693a:	0c0107a3          	sb	zero,207(sp)
   1693e:	f85e                	c.sdsp	s7,48(sp)
   16940:	dc6ff06f          	jal	zero,15f06 <_vfprintf_r+0x358>
   16944:	0641                	c.addi	a2,16
   16946:	011cb423          	sd	a7,8(s9)
   1694a:	ea32                	c.sdsp	a2,272(sp)
   1694c:	10b12423          	sw	a1,264(sp)
   16950:	02aed463          	bge	t4,a0,16978 <_vfprintf_r+0xdca>
   16954:	0210                	c.addi4spn	a2,sp,256
   16956:	85ca                	c.mv	a1,s2
   16958:	854e                	c.mv	a0,s3
   1695a:	fd76                	c.sdsp	t4,184(sp)
   1695c:	f942                	c.sdsp	a6,176(sp)
   1695e:	e546                	c.sdsp	a7,136(sp)
   16960:	e13a                	c.sdsp	a4,128(sp)
   16962:	fcb6                	c.sdsp	a3,120(sp)
   16964:	371040ef          	jal	ra,1b4d4 <__sprint_r>
   16968:	7a051f63          	bne	a0,zero,17126 <_vfprintf_r+0x1578>
   1696c:	7eea                	c.ldsp	t4,184(sp)
   1696e:	784a                	c.ldsp	a6,176(sp)
   16970:	68aa                	c.ldsp	a7,136(sp)
   16972:	670a                	c.ldsp	a4,128(sp)
   16974:	76e6                	c.ldsp	a3,120(sp)
   16976:	8f56                	c.mv	t5,s5
   16978:	36c1                	c.addiw	a3,-16
   1697a:	8cfa                	c.mv	s9,t5
   1697c:	de4ff06f          	jal	zero,15f60 <_vfprintf_r+0x3b2>
   16980:	0641                	c.addi	a2,16
   16982:	011cb423          	sd	a7,8(s9)
   16986:	ea32                	c.sdsp	a2,272(sp)
   16988:	10b12423          	sw	a1,264(sp)
   1698c:	02aed463          	bge	t4,a0,169b4 <_vfprintf_r+0xe06>
   16990:	0210                	c.addi4spn	a2,sp,256
   16992:	85ca                	c.mv	a1,s2
   16994:	854e                	c.mv	a0,s3
   16996:	e576                	c.sdsp	t4,136(sp)
   16998:	e142                	c.sdsp	a6,128(sp)
   1699a:	fcc6                	c.sdsp	a7,120(sp)
   1699c:	f8ba                	c.sdsp	a4,112(sp)
   1699e:	f4b6                	c.sdsp	a3,104(sp)
   169a0:	335040ef          	jal	ra,1b4d4 <__sprint_r>
   169a4:	78051163          	bne	a0,zero,17126 <_vfprintf_r+0x1578>
   169a8:	6eaa                	c.ldsp	t4,136(sp)
   169aa:	680a                	c.ldsp	a6,128(sp)
   169ac:	78e6                	c.ldsp	a7,120(sp)
   169ae:	7746                	c.ldsp	a4,112(sp)
   169b0:	76a6                	c.ldsp	a3,104(sp)
   169b2:	8f56                	c.mv	t5,s5
   169b4:	36c1                	c.addiw	a3,-16
   169b6:	8cfa                	c.mv	s9,t5
   169b8:	e90ff06f          	jal	zero,16048 <_vfprintf_r+0x49a>
   169bc:	06c1                	c.addi	a3,16
   169be:	011cb423          	sd	a7,8(s9)
   169c2:	ea36                	c.sdsp	a3,272(sp)
   169c4:	10c12423          	sw	a2,264(sp)
   169c8:	02bed263          	bge	t4,a1,169ec <_vfprintf_r+0xe3e>
   169cc:	0210                	c.addi4spn	a2,sp,256
   169ce:	85ca                	c.mv	a1,s2
   169d0:	854e                	c.mv	a0,s3
   169d2:	e176                	c.sdsp	t4,128(sp)
   169d4:	fcc2                	c.sdsp	a6,120(sp)
   169d6:	f8c6                	c.sdsp	a7,112(sp)
   169d8:	f4ba                	c.sdsp	a4,104(sp)
   169da:	2fb040ef          	jal	ra,1b4d4 <__sprint_r>
   169de:	74051463          	bne	a0,zero,17126 <_vfprintf_r+0x1578>
   169e2:	6e8a                	c.ldsp	t4,128(sp)
   169e4:	7866                	c.ldsp	a6,120(sp)
   169e6:	78c6                	c.ldsp	a7,112(sp)
   169e8:	7726                	c.ldsp	a4,104(sp)
   169ea:	8556                	c.mv	a0,s5
   169ec:	3741                	c.addiw	a4,-16
   169ee:	8caa                	c.mv	s9,a0
   169f0:	eaeff06f          	jal	zero,1609e <_vfprintf_r+0x4f0>
   169f4:	06500693          	addi	a3,zero,101
   169f8:	5966d463          	bge	a3,s6,16f80 <_vfprintf_r+0x13d2>
   169fc:	754e                	c.ldsp	a0,240(sp)
   169fe:	75ee                	c.ldsp	a1,248(sp)
   16a00:	4601                	c.li	a2,0
   16a02:	4681                	c.li	a3,0
   16a04:	f4ba                	c.sdsp	a4,104(sp)
   16a06:	2f2060ef          	jal	ra,1ccf8 <__eqtf2>
   16a0a:	7726                	c.ldsp	a4,104(sp)
   16a0c:	10051f63          	bne	a0,zero,16b2a <_vfprintf_r+0xf7c>
   16a10:	000297b7          	lui	a5,0x29
   16a14:	8a078793          	addi	a5,a5,-1888 # 288a0 <zeroes.4441+0x98>
   16a18:	00fcb023          	sd	a5,0(s9)
   16a1c:	4785                	c.li	a5,1
   16a1e:	00fcb423          	sd	a5,8(s9)
   16a22:	10812783          	lw	a5,264(sp)
   16a26:	0705                	c.addi	a4,1
   16a28:	ea3a                	c.sdsp	a4,272(sp)
   16a2a:	0017871b          	addiw	a4,a5,1
   16a2e:	10e12423          	sw	a4,264(sp)
   16a32:	479d                	c.li	a5,7
   16a34:	0cc1                	c.addi	s9,16
   16a36:	00e7da63          	bge	a5,a4,16a4a <_vfprintf_r+0xe9c>
   16a3a:	0210                	c.addi4spn	a2,sp,256
   16a3c:	85ca                	c.mv	a1,s2
   16a3e:	854e                	c.mv	a0,s3
   16a40:	295040ef          	jal	ra,1b4d4 <__sprint_r>
   16a44:	6e051163          	bne	a0,zero,17126 <_vfprintf_r+0x1578>
   16a48:	8cd6                	c.mv	s9,s5
   16a4a:	47ee                	c.lwsp	a5,216(sp)
   16a4c:	0147c563          	blt	a5,s4,16a56 <_vfprintf_r+0xea8>
   16a50:	00147793          	andi	a5,s0,1
   16a54:	cfad                	c.beqz	a5,16ace <_vfprintf_r+0xf20>
   16a56:	67a6                	c.ldsp	a5,72(sp)
   16a58:	6762                	c.ldsp	a4,24(sp)
   16a5a:	0cc1                	c.addi	s9,16
   16a5c:	fefcb823          	sd	a5,-16(s9)
   16a60:	67e2                	c.ldsp	a5,24(sp)
   16a62:	fefcbc23          	sd	a5,-8(s9)
   16a66:	67d2                	c.ldsp	a5,272(sp)
   16a68:	97ba                	c.add	a5,a4
   16a6a:	ea3e                	c.sdsp	a5,272(sp)
   16a6c:	10812783          	lw	a5,264(sp)
   16a70:	0017871b          	addiw	a4,a5,1
   16a74:	10e12423          	sw	a4,264(sp)
   16a78:	479d                	c.li	a5,7
   16a7a:	00e7da63          	bge	a5,a4,16a8e <_vfprintf_r+0xee0>
   16a7e:	0210                	c.addi4spn	a2,sp,256
   16a80:	85ca                	c.mv	a1,s2
   16a82:	854e                	c.mv	a0,s3
   16a84:	251040ef          	jal	ra,1b4d4 <__sprint_r>
   16a88:	68051f63          	bne	a0,zero,17126 <_vfprintf_r+0x1578>
   16a8c:	8cd6                	c.mv	s9,s5
   16a8e:	fffa049b          	addiw	s1,s4,-1
   16a92:	02905e63          	bge	zero,s1,16ace <_vfprintf_r+0xf20>
   16a96:	00029b37          	lui	s6,0x29
   16a9a:	4c41                	c.li	s8,16
   16a9c:	808b0b13          	addi	s6,s6,-2040 # 28808 <zeroes.4441>
   16aa0:	4d1d                	c.li	s10,7
   16aa2:	10812703          	lw	a4,264(sp)
   16aa6:	016cb023          	sd	s6,0(s9)
   16aaa:	67d2                	c.ldsp	a5,272(sp)
   16aac:	0017069b          	addiw	a3,a4,1
   16ab0:	8736                	c.mv	a4,a3
   16ab2:	010c8613          	addi	a2,s9,16
   16ab6:	049c4763          	blt	s8,s1,16b04 <_vfprintf_r+0xf56>
   16aba:	009cb423          	sd	s1,8(s9)
   16abe:	94be                	c.add	s1,a5
   16ac0:	ea26                	c.sdsp	s1,272(sp)
   16ac2:	10d12423          	sw	a3,264(sp)
   16ac6:	479d                	c.li	a5,7
   16ac8:	8cb2                	c.mv	s9,a2
   16aca:	e2d7cf63          	blt	a5,a3,16108 <_vfprintf_r+0x55a>
   16ace:	8811                	c.andi	s0,4
   16ad0:	60041563          	bne	s0,zero,170da <_vfprintf_r+0x152c>
   16ad4:	7702                	c.ldsp	a4,32(sp)
   16ad6:	76e2                	c.ldsp	a3,56(sp)
   16ad8:	5782                	c.lwsp	a5,32(sp)
   16ada:	00d75363          	bge	a4,a3,16ae0 <_vfprintf_r+0xf32>
   16ade:	57e2                	c.lwsp	a5,56(sp)
   16ae0:	5722                	c.lwsp	a4,40(sp)
   16ae2:	9fb9                	c.addw	a5,a4
   16ae4:	f43e                	c.sdsp	a5,40(sp)
   16ae6:	67d2                	c.ldsp	a5,272(sp)
   16ae8:	cb81                	c.beqz	a5,16af8 <_vfprintf_r+0xf4a>
   16aea:	0210                	c.addi4spn	a2,sp,256
   16aec:	85ca                	c.mv	a1,s2
   16aee:	854e                	c.mv	a0,s3
   16af0:	1e5040ef          	jal	ra,1b4d4 <__sprint_r>
   16af4:	62051963          	bne	a0,zero,17126 <_vfprintf_r+0x1578>
   16af8:	10012423          	sw	zero,264(sp)
   16afc:	640b9f63          	bne	s7,zero,1715a <_vfprintf_r+0x15ac>
   16b00:	8cd6                	c.mv	s9,s5
   16b02:	b675                	c.j	166ae <_vfprintf_r+0xb00>
   16b04:	07c1                	c.addi	a5,16
   16b06:	018cb423          	sd	s8,8(s9)
   16b0a:	ea3e                	c.sdsp	a5,272(sp)
   16b0c:	10e12423          	sw	a4,264(sp)
   16b10:	00dd5a63          	bge	s10,a3,16b24 <_vfprintf_r+0xf76>
   16b14:	0210                	c.addi4spn	a2,sp,256
   16b16:	85ca                	c.mv	a1,s2
   16b18:	854e                	c.mv	a0,s3
   16b1a:	1bb040ef          	jal	ra,1b4d4 <__sprint_r>
   16b1e:	60051463          	bne	a0,zero,17126 <_vfprintf_r+0x1578>
   16b22:	8656                	c.mv	a2,s5
   16b24:	34c1                	c.addiw	s1,-16
   16b26:	8cb2                	c.mv	s9,a2
   16b28:	bfad                	c.j	16aa2 <_vfprintf_r+0xef4>
   16b2a:	46ee                	c.lwsp	a3,216(sp)
   16b2c:	12d04263          	blt	zero,a3,16c50 <_vfprintf_r+0x10a2>
   16b30:	000297b7          	lui	a5,0x29
   16b34:	8a078793          	addi	a5,a5,-1888 # 288a0 <zeroes.4441+0x98>
   16b38:	00fcb023          	sd	a5,0(s9)
   16b3c:	4785                	c.li	a5,1
   16b3e:	00fcb423          	sd	a5,8(s9)
   16b42:	10812783          	lw	a5,264(sp)
   16b46:	0705                	c.addi	a4,1
   16b48:	ea3a                	c.sdsp	a4,272(sp)
   16b4a:	0017871b          	addiw	a4,a5,1
   16b4e:	10e12423          	sw	a4,264(sp)
   16b52:	479d                	c.li	a5,7
   16b54:	0cc1                	c.addi	s9,16
   16b56:	00e7da63          	bge	a5,a4,16b6a <_vfprintf_r+0xfbc>
   16b5a:	0210                	c.addi4spn	a2,sp,256
   16b5c:	85ca                	c.mv	a1,s2
   16b5e:	854e                	c.mv	a0,s3
   16b60:	175040ef          	jal	ra,1b4d4 <__sprint_r>
   16b64:	5c051163          	bne	a0,zero,17126 <_vfprintf_r+0x1578>
   16b68:	8cd6                	c.mv	s9,s5
   16b6a:	47ee                	c.lwsp	a5,216(sp)
   16b6c:	e791                	c.bnez	a5,16b78 <_vfprintf_r+0xfca>
   16b6e:	000a1563          	bne	s4,zero,16b78 <_vfprintf_r+0xfca>
   16b72:	00147793          	andi	a5,s0,1
   16b76:	dfa1                	c.beqz	a5,16ace <_vfprintf_r+0xf20>
   16b78:	67a6                	c.ldsp	a5,72(sp)
   16b7a:	6762                	c.ldsp	a4,24(sp)
   16b7c:	010c8313          	addi	t1,s9,16
   16b80:	00fcb023          	sd	a5,0(s9)
   16b84:	67e2                	c.ldsp	a5,24(sp)
   16b86:	00fcb423          	sd	a5,8(s9)
   16b8a:	67d2                	c.ldsp	a5,272(sp)
   16b8c:	97ba                	c.add	a5,a4
   16b8e:	ea3e                	c.sdsp	a5,272(sp)
   16b90:	10812783          	lw	a5,264(sp)
   16b94:	0017871b          	addiw	a4,a5,1
   16b98:	10e12423          	sw	a4,264(sp)
   16b9c:	479d                	c.li	a5,7
   16b9e:	00e7da63          	bge	a5,a4,16bb2 <_vfprintf_r+0x1004>
   16ba2:	0210                	c.addi4spn	a2,sp,256
   16ba4:	85ca                	c.mv	a1,s2
   16ba6:	854e                	c.mv	a0,s3
   16ba8:	12d040ef          	jal	ra,1b4d4 <__sprint_r>
   16bac:	56051d63          	bne	a0,zero,17126 <_vfprintf_r+0x1578>
   16bb0:	8356                	c.mv	t1,s5
   16bb2:	4b6e                	c.lwsp	s6,216(sp)
   16bb4:	040b5763          	bge	s6,zero,16c02 <_vfprintf_r+0x1054>
   16bb8:	00029c37          	lui	s8,0x29
   16bbc:	41600b3b          	subw	s6,zero,s6
   16bc0:	879a                	c.mv	a5,t1
   16bc2:	4d41                	c.li	s10,16
   16bc4:	808c0c13          	addi	s8,s8,-2040 # 28808 <zeroes.4441>
   16bc8:	4c9d                	c.li	s9,7
   16bca:	10812683          	lw	a3,264(sp)
   16bce:	0187b023          	sd	s8,0(a5)
   16bd2:	6752                	c.ldsp	a4,272(sp)
   16bd4:	0016861b          	addiw	a2,a3,1
   16bd8:	86b2                	c.mv	a3,a2
   16bda:	0341                	c.addi	t1,16
   16bdc:	056d4763          	blt	s10,s6,16c2a <_vfprintf_r+0x107c>
   16be0:	0167b423          	sd	s6,8(a5)
   16be4:	9b3a                	c.add	s6,a4
   16be6:	ea5a                	c.sdsp	s6,272(sp)
   16be8:	10c12423          	sw	a2,264(sp)
   16bec:	479d                	c.li	a5,7
   16bee:	00c7da63          	bge	a5,a2,16c02 <_vfprintf_r+0x1054>
   16bf2:	0210                	c.addi4spn	a2,sp,256
   16bf4:	85ca                	c.mv	a1,s2
   16bf6:	854e                	c.mv	a0,s3
   16bf8:	0dd040ef          	jal	ra,1b4d4 <__sprint_r>
   16bfc:	52051563          	bne	a0,zero,17126 <_vfprintf_r+0x1578>
   16c00:	8356                	c.mv	t1,s5
   16c02:	67d2                	c.ldsp	a5,272(sp)
   16c04:	00933023          	sd	s1,0(t1)
   16c08:	01433423          	sd	s4,8(t1)
   16c0c:	97d2                	c.add	a5,s4
   16c0e:	ea3e                	c.sdsp	a5,272(sp)
   16c10:	10812783          	lw	a5,264(sp)
   16c14:	01030c93          	addi	s9,t1,16
   16c18:	0017871b          	addiw	a4,a5,1
   16c1c:	10e12423          	sw	a4,264(sp)
   16c20:	479d                	c.li	a5,7
   16c22:	eae7d6e3          	bge	a5,a4,16ace <_vfprintf_r+0xf20>
   16c26:	ce2ff06f          	jal	zero,16108 <_vfprintf_r+0x55a>
   16c2a:	0741                	c.addi	a4,16
   16c2c:	01a7b423          	sd	s10,8(a5)
   16c30:	ea3a                	c.sdsp	a4,272(sp)
   16c32:	10d12423          	sw	a3,264(sp)
   16c36:	00ccda63          	bge	s9,a2,16c4a <_vfprintf_r+0x109c>
   16c3a:	0210                	c.addi4spn	a2,sp,256
   16c3c:	85ca                	c.mv	a1,s2
   16c3e:	854e                	c.mv	a0,s3
   16c40:	095040ef          	jal	ra,1b4d4 <__sprint_r>
   16c44:	4e051163          	bne	a0,zero,17126 <_vfprintf_r+0x1578>
   16c48:	8356                	c.mv	t1,s5
   16c4a:	3b41                	c.addiw	s6,-16
   16c4c:	879a                	c.mv	a5,t1
   16c4e:	bfb5                	c.j	16bca <_vfprintf_r+0x101c>
   16c50:	000d0b1b          	addiw	s6,s10,0
   16c54:	01aa5463          	bge	s4,s10,16c5c <_vfprintf_r+0x10ae>
   16c58:	000a0b1b          	addiw	s6,s4,0
   16c5c:	03605a63          	bge	zero,s6,16c90 <_vfprintf_r+0x10e2>
   16c60:	975a                	c.add	a4,s6
   16c62:	ea3a                	c.sdsp	a4,272(sp)
   16c64:	10812703          	lw	a4,264(sp)
   16c68:	009cb023          	sd	s1,0(s9)
   16c6c:	016cb423          	sd	s6,8(s9)
   16c70:	0017069b          	addiw	a3,a4,1
   16c74:	10d12423          	sw	a3,264(sp)
   16c78:	471d                	c.li	a4,7
   16c7a:	0cc1                	c.addi	s9,16
   16c7c:	00d75a63          	bge	a4,a3,16c90 <_vfprintf_r+0x10e2>
   16c80:	0210                	c.addi4spn	a2,sp,256
   16c82:	85ca                	c.mv	a1,s2
   16c84:	854e                	c.mv	a0,s3
   16c86:	04f040ef          	jal	ra,1b4d4 <__sprint_r>
   16c8a:	48051e63          	bne	a0,zero,17126 <_vfprintf_r+0x1578>
   16c8e:	8cd6                	c.mv	s9,s5
   16c90:	875a                	c.mv	a4,s6
   16c92:	000b5363          	bge	s6,zero,16c98 <_vfprintf_r+0x10ea>
   16c96:	4701                	c.li	a4,0
   16c98:	40ed0b3b          	subw	s6,s10,a4
   16c9c:	05605663          	bge	zero,s6,16ce8 <_vfprintf_r+0x113a>
   16ca0:	000296b7          	lui	a3,0x29
   16ca4:	4841                	c.li	a6,16
   16ca6:	80868d93          	addi	s11,a3,-2040 # 28808 <zeroes.4441>
   16caa:	489d                	c.li	a7,7
   16cac:	10812603          	lw	a2,264(sp)
   16cb0:	01bcb023          	sd	s11,0(s9)
   16cb4:	6752                	c.ldsp	a4,272(sp)
   16cb6:	0016059b          	addiw	a1,a2,1
   16cba:	862e                	c.mv	a2,a1
   16cbc:	010c8513          	addi	a0,s9,16
   16cc0:	15684463          	blt	a6,s6,16e08 <_vfprintf_r+0x125a>
   16cc4:	016cb423          	sd	s6,8(s9)
   16cc8:	9b3a                	c.add	s6,a4
   16cca:	ea5a                	c.sdsp	s6,272(sp)
   16ccc:	10b12423          	sw	a1,264(sp)
   16cd0:	471d                	c.li	a4,7
   16cd2:	8caa                	c.mv	s9,a0
   16cd4:	00b75a63          	bge	a4,a1,16ce8 <_vfprintf_r+0x113a>
   16cd8:	0210                	c.addi4spn	a2,sp,256
   16cda:	85ca                	c.mv	a1,s2
   16cdc:	854e                	c.mv	a0,s3
   16cde:	7f6040ef          	jal	ra,1b4d4 <__sprint_r>
   16ce2:	44051263          	bne	a0,zero,17126 <_vfprintf_r+0x1578>
   16ce6:	8cd6                	c.mv	s9,s5
   16ce8:	40047793          	andi	a5,s0,1024
   16cec:	01a48b33          	add	s6,s1,s10
   16cf0:	c785                	c.beqz	a5,16d18 <_vfprintf_r+0x116a>
   16cf2:	014487b3          	add	a5,s1,s4
   16cf6:	f4be                	c.sdsp	a5,104(sp)
   16cf8:	000297b7          	lui	a5,0x29
   16cfc:	80878793          	addi	a5,a5,-2040 # 28808 <zeroes.4441>
   16d00:	4d9d                	c.li	s11,7
   16d02:	8d3e                	c.mv	s10,a5
   16d04:	67a2                	c.ldsp	a5,8(sp)
   16d06:	120c1863          	bne	s8,zero,16e36 <_vfprintf_r+0x1288>
   16d0a:	12079763          	bne	a5,zero,16e38 <_vfprintf_r+0x128a>
   16d0e:	014487b3          	add	a5,s1,s4
   16d12:	0167f363          	bgeu	a5,s6,16d18 <_vfprintf_r+0x116a>
   16d16:	8b3e                	c.mv	s6,a5
   16d18:	47ee                	c.lwsp	a5,216(sp)
   16d1a:	0147c563          	blt	a5,s4,16d24 <_vfprintf_r+0x1176>
   16d1e:	00147793          	andi	a5,s0,1
   16d22:	cf8d                	c.beqz	a5,16d5c <_vfprintf_r+0x11ae>
   16d24:	67a6                	c.ldsp	a5,72(sp)
   16d26:	6762                	c.ldsp	a4,24(sp)
   16d28:	0cc1                	c.addi	s9,16
   16d2a:	fefcb823          	sd	a5,-16(s9)
   16d2e:	67e2                	c.ldsp	a5,24(sp)
   16d30:	fefcbc23          	sd	a5,-8(s9)
   16d34:	67d2                	c.ldsp	a5,272(sp)
   16d36:	97ba                	c.add	a5,a4
   16d38:	ea3e                	c.sdsp	a5,272(sp)
   16d3a:	10812783          	lw	a5,264(sp)
   16d3e:	0017871b          	addiw	a4,a5,1
   16d42:	10e12423          	sw	a4,264(sp)
   16d46:	479d                	c.li	a5,7
   16d48:	00e7da63          	bge	a5,a4,16d5c <_vfprintf_r+0x11ae>
   16d4c:	0210                	c.addi4spn	a2,sp,256
   16d4e:	85ca                	c.mv	a1,s2
   16d50:	854e                	c.mv	a0,s3
   16d52:	782040ef          	jal	ra,1b4d4 <__sprint_r>
   16d56:	3c051863          	bne	a0,zero,17126 <_vfprintf_r+0x1578>
   16d5a:	8cd6                	c.mv	s9,s5
   16d5c:	4c6e                	c.lwsp	s8,216(sp)
   16d5e:	94d2                	c.add	s1,s4
   16d60:	416484bb          	subw	s1,s1,s6
   16d64:	418a07bb          	subw	a5,s4,s8
   16d68:	8c3e                	c.mv	s8,a5
   16d6a:	00f4d463          	bge	s1,a5,16d72 <_vfprintf_r+0x11c4>
   16d6e:	00048c1b          	addiw	s8,s1,0
   16d72:	03805b63          	bge	zero,s8,16da8 <_vfprintf_r+0x11fa>
   16d76:	67d2                	c.ldsp	a5,272(sp)
   16d78:	016cb023          	sd	s6,0(s9)
   16d7c:	018cb423          	sd	s8,8(s9)
   16d80:	97e2                	c.add	a5,s8
   16d82:	ea3e                	c.sdsp	a5,272(sp)
   16d84:	10812783          	lw	a5,264(sp)
   16d88:	0cc1                	c.addi	s9,16
   16d8a:	0017871b          	addiw	a4,a5,1
   16d8e:	10e12423          	sw	a4,264(sp)
   16d92:	479d                	c.li	a5,7
   16d94:	00e7da63          	bge	a5,a4,16da8 <_vfprintf_r+0x11fa>
   16d98:	0210                	c.addi4spn	a2,sp,256
   16d9a:	85ca                	c.mv	a1,s2
   16d9c:	854e                	c.mv	a0,s3
   16d9e:	736040ef          	jal	ra,1b4d4 <__sprint_r>
   16da2:	38051263          	bne	a0,zero,17126 <_vfprintf_r+0x1578>
   16da6:	8cd6                	c.mv	s9,s5
   16da8:	87e2                	c.mv	a5,s8
   16daa:	000c5363          	bge	s8,zero,16db0 <_vfprintf_r+0x1202>
   16dae:	4781                	c.li	a5,0
   16db0:	44ee                	c.lwsp	s1,216(sp)
   16db2:	409a04bb          	subw	s1,s4,s1
   16db6:	9c9d                	c.subw	s1,a5
   16db8:	d0905be3          	bge	zero,s1,16ace <_vfprintf_r+0xf20>
   16dbc:	00029b37          	lui	s6,0x29
   16dc0:	4c41                	c.li	s8,16
   16dc2:	808b0b13          	addi	s6,s6,-2040 # 28808 <zeroes.4441>
   16dc6:	4d1d                	c.li	s10,7
   16dc8:	10812703          	lw	a4,264(sp)
   16dcc:	016cb023          	sd	s6,0(s9)
   16dd0:	67d2                	c.ldsp	a5,272(sp)
   16dd2:	0017069b          	addiw	a3,a4,1
   16dd6:	8736                	c.mv	a4,a3
   16dd8:	010c8613          	addi	a2,s9,16
   16ddc:	169c4f63          	blt	s8,s1,16f5a <_vfprintf_r+0x13ac>
   16de0:	009cb423          	sd	s1,8(s9)
   16de4:	94be                	c.add	s1,a5
   16de6:	ea26                	c.sdsp	s1,272(sp)
   16de8:	10d12423          	sw	a3,264(sp)
   16dec:	479d                	c.li	a5,7
   16dee:	8cb2                	c.mv	s9,a2
   16df0:	ccd7dfe3          	bge	a5,a3,16ace <_vfprintf_r+0xf20>
   16df4:	0210                	c.addi4spn	a2,sp,256
   16df6:	85ca                	c.mv	a1,s2
   16df8:	854e                	c.mv	a0,s3
   16dfa:	6da040ef          	jal	ra,1b4d4 <__sprint_r>
   16dfe:	32051463          	bne	a0,zero,17126 <_vfprintf_r+0x1578>
   16e02:	18010c93          	addi	s9,sp,384
   16e06:	b1e1                	c.j	16ace <_vfprintf_r+0xf20>
   16e08:	0741                	c.addi	a4,16
   16e0a:	010cb423          	sd	a6,8(s9)
   16e0e:	ea3a                	c.sdsp	a4,272(sp)
   16e10:	10c12423          	sw	a2,264(sp)
   16e14:	00b8de63          	bge	a7,a1,16e30 <_vfprintf_r+0x1282>
   16e18:	0210                	c.addi4spn	a2,sp,256
   16e1a:	85ca                	c.mv	a1,s2
   16e1c:	854e                	c.mv	a0,s3
   16e1e:	f8c6                	c.sdsp	a7,112(sp)
   16e20:	f4c2                	c.sdsp	a6,104(sp)
   16e22:	6b2040ef          	jal	ra,1b4d4 <__sprint_r>
   16e26:	30051063          	bne	a0,zero,17126 <_vfprintf_r+0x1578>
   16e2a:	78c6                	c.ldsp	a7,112(sp)
   16e2c:	7826                	c.ldsp	a6,104(sp)
   16e2e:	8556                	c.mv	a0,s5
   16e30:	3b41                	c.addiw	s6,-16
   16e32:	8caa                	c.mv	s9,a0
   16e34:	bda5                	c.j	16cac <_vfprintf_r+0x10fe>
   16e36:	c7d5                	c.beqz	a5,16ee2 <_vfprintf_r+0x1334>
   16e38:	47a2                	c.lwsp	a5,8(sp)
   16e3a:	37fd                	c.addiw	a5,-1
   16e3c:	e43e                	c.sdsp	a5,8(sp)
   16e3e:	67c6                	c.ldsp	a5,80(sp)
   16e40:	6706                	c.ldsp	a4,64(sp)
   16e42:	0cc1                	c.addi	s9,16
   16e44:	fefcb823          	sd	a5,-16(s9)
   16e48:	6786                	c.ldsp	a5,64(sp)
   16e4a:	fefcbc23          	sd	a5,-8(s9)
   16e4e:	67d2                	c.ldsp	a5,272(sp)
   16e50:	97ba                	c.add	a5,a4
   16e52:	ea3e                	c.sdsp	a5,272(sp)
   16e54:	10812783          	lw	a5,264(sp)
   16e58:	0017871b          	addiw	a4,a5,1
   16e5c:	10e12423          	sw	a4,264(sp)
   16e60:	00edda63          	bge	s11,a4,16e74 <_vfprintf_r+0x12c6>
   16e64:	0210                	c.addi4spn	a2,sp,256
   16e66:	85ca                	c.mv	a1,s2
   16e68:	854e                	c.mv	a0,s3
   16e6a:	66a040ef          	jal	ra,1b4d4 <__sprint_r>
   16e6e:	2a051c63          	bne	a0,zero,17126 <_vfprintf_r+0x1578>
   16e72:	8cd6                	c.mv	s9,s5
   16e74:	6702                	c.ldsp	a4,0(sp)
   16e76:	57a6                	c.lwsp	a5,104(sp)
   16e78:	00074703          	lbu	a4,0(a4)
   16e7c:	416787bb          	subw	a5,a5,s6
   16e80:	00e7d463          	bge	a5,a4,16e88 <_vfprintf_r+0x12da>
   16e84:	0007871b          	addiw	a4,a5,0
   16e88:	02e05d63          	bge	zero,a4,16ec2 <_vfprintf_r+0x1314>
   16e8c:	67d2                	c.ldsp	a5,272(sp)
   16e8e:	016cb023          	sd	s6,0(s9)
   16e92:	00ecb423          	sd	a4,8(s9)
   16e96:	97ba                	c.add	a5,a4
   16e98:	ea3e                	c.sdsp	a5,272(sp)
   16e9a:	10812783          	lw	a5,264(sp)
   16e9e:	0cc1                	c.addi	s9,16
   16ea0:	0017869b          	addiw	a3,a5,1
   16ea4:	10d12423          	sw	a3,264(sp)
   16ea8:	00dddd63          	bge	s11,a3,16ec2 <_vfprintf_r+0x1314>
   16eac:	0210                	c.addi4spn	a2,sp,256
   16eae:	85ca                	c.mv	a1,s2
   16eb0:	854e                	c.mv	a0,s3
   16eb2:	f8ba                	c.sdsp	a4,112(sp)
   16eb4:	620040ef          	jal	ra,1b4d4 <__sprint_r>
   16eb8:	26051763          	bne	a0,zero,17126 <_vfprintf_r+0x1578>
   16ebc:	7746                	c.ldsp	a4,112(sp)
   16ebe:	18010c93          	addi	s9,sp,384
   16ec2:	86ba                	c.mv	a3,a4
   16ec4:	00075363          	bge	a4,zero,16eca <_vfprintf_r+0x131c>
   16ec8:	4681                	c.li	a3,0
   16eca:	6782                	c.ldsp	a5,0(sp)
   16ecc:	4841                	c.li	a6,16
   16ece:	0007c783          	lbu	a5,0(a5)
   16ed2:	9f95                	c.subw	a5,a3
   16ed4:	04f04463          	blt	zero,a5,16f1c <_vfprintf_r+0x136e>
   16ed8:	6782                	c.ldsp	a5,0(sp)
   16eda:	0007c783          	lbu	a5,0(a5)
   16ede:	9b3e                	c.add	s6,a5
   16ee0:	b515                	c.j	16d04 <_vfprintf_r+0x1156>
   16ee2:	6782                	c.ldsp	a5,0(sp)
   16ee4:	3c7d                	c.addiw	s8,-1
   16ee6:	17fd                	c.addi	a5,-1
   16ee8:	e03e                	c.sdsp	a5,0(sp)
   16eea:	bf91                	c.j	16e3e <_vfprintf_r+0x1290>
   16eec:	0741                	c.addi	a4,16
   16eee:	01acb023          	sd	s10,0(s9)
   16ef2:	010cb423          	sd	a6,8(s9)
   16ef6:	ea3a                	c.sdsp	a4,272(sp)
   16ef8:	10d12423          	sw	a3,264(sp)
   16efc:	00cdde63          	bge	s11,a2,16f18 <_vfprintf_r+0x136a>
   16f00:	0210                	c.addi4spn	a2,sp,256
   16f02:	85ca                	c.mv	a1,s2
   16f04:	854e                	c.mv	a0,s3
   16f06:	fcc2                	c.sdsp	a6,120(sp)
   16f08:	f8be                	c.sdsp	a5,112(sp)
   16f0a:	5ca040ef          	jal	ra,1b4d4 <__sprint_r>
   16f0e:	20051c63          	bne	a0,zero,17126 <_vfprintf_r+0x1578>
   16f12:	7866                	c.ldsp	a6,120(sp)
   16f14:	77c6                	c.ldsp	a5,112(sp)
   16f16:	030c                	c.addi4spn	a1,sp,384
   16f18:	37c1                	c.addiw	a5,-16
   16f1a:	8cae                	c.mv	s9,a1
   16f1c:	10812683          	lw	a3,264(sp)
   16f20:	6752                	c.ldsp	a4,272(sp)
   16f22:	010c8593          	addi	a1,s9,16
   16f26:	0016861b          	addiw	a2,a3,1
   16f2a:	86b2                	c.mv	a3,a2
   16f2c:	fcf840e3          	blt	a6,a5,16eec <_vfprintf_r+0x133e>
   16f30:	00fcb423          	sd	a5,8(s9)
   16f34:	97ba                	c.add	a5,a4
   16f36:	01acb023          	sd	s10,0(s9)
   16f3a:	ea3e                	c.sdsp	a5,272(sp)
   16f3c:	10c12423          	sw	a2,264(sp)
   16f40:	8cae                	c.mv	s9,a1
   16f42:	f8cddbe3          	bge	s11,a2,16ed8 <_vfprintf_r+0x132a>
   16f46:	0210                	c.addi4spn	a2,sp,256
   16f48:	85ca                	c.mv	a1,s2
   16f4a:	854e                	c.mv	a0,s3
   16f4c:	588040ef          	jal	ra,1b4d4 <__sprint_r>
   16f50:	1c051b63          	bne	a0,zero,17126 <_vfprintf_r+0x1578>
   16f54:	18010c93          	addi	s9,sp,384
   16f58:	b741                	c.j	16ed8 <_vfprintf_r+0x132a>
   16f5a:	07c1                	c.addi	a5,16
   16f5c:	018cb423          	sd	s8,8(s9)
   16f60:	ea3e                	c.sdsp	a5,272(sp)
   16f62:	10e12423          	sw	a4,264(sp)
   16f66:	00dd5a63          	bge	s10,a3,16f7a <_vfprintf_r+0x13cc>
   16f6a:	0210                	c.addi4spn	a2,sp,256
   16f6c:	85ca                	c.mv	a1,s2
   16f6e:	854e                	c.mv	a0,s3
   16f70:	564040ef          	jal	ra,1b4d4 <__sprint_r>
   16f74:	1a051963          	bne	a0,zero,17126 <_vfprintf_r+0x1578>
   16f78:	0310                	c.addi4spn	a2,sp,384
   16f7a:	34c1                	c.addiw	s1,-16
   16f7c:	8cb2                	c.mv	s9,a2
   16f7e:	b5a9                	c.j	16dc8 <_vfprintf_r+0x121a>
   16f80:	10812783          	lw	a5,264(sp)
   16f84:	4605                	c.li	a2,1
   16f86:	009cb023          	sd	s1,0(s9)
   16f8a:	0017869b          	addiw	a3,a5,1
   16f8e:	0705                	c.addi	a4,1
   16f90:	87b6                	c.mv	a5,a3
   16f92:	010c8c13          	addi	s8,s9,16
   16f96:	01464663          	blt	a2,s4,16fa2 <_vfprintf_r+0x13f4>
   16f9a:	00147593          	andi	a1,s0,1
   16f9e:	12058763          	beq	a1,zero,170cc <_vfprintf_r+0x151e>
   16fa2:	4605                	c.li	a2,1
   16fa4:	10f12423          	sw	a5,264(sp)
   16fa8:	00ccb423          	sd	a2,8(s9)
   16fac:	ea3a                	c.sdsp	a4,272(sp)
   16fae:	479d                	c.li	a5,7
   16fb0:	00d7da63          	bge	a5,a3,16fc4 <_vfprintf_r+0x1416>
   16fb4:	0210                	c.addi4spn	a2,sp,256
   16fb6:	85ca                	c.mv	a1,s2
   16fb8:	854e                	c.mv	a0,s3
   16fba:	51a040ef          	jal	ra,1b4d4 <__sprint_r>
   16fbe:	16051463          	bne	a0,zero,17126 <_vfprintf_r+0x1578>
   16fc2:	8c56                	c.mv	s8,s5
   16fc4:	67a6                	c.ldsp	a5,72(sp)
   16fc6:	6762                	c.ldsp	a4,24(sp)
   16fc8:	0c41                	c.addi	s8,16
   16fca:	fefc3823          	sd	a5,-16(s8)
   16fce:	67e2                	c.ldsp	a5,24(sp)
   16fd0:	fefc3c23          	sd	a5,-8(s8)
   16fd4:	67d2                	c.ldsp	a5,272(sp)
   16fd6:	97ba                	c.add	a5,a4
   16fd8:	ea3e                	c.sdsp	a5,272(sp)
   16fda:	10812783          	lw	a5,264(sp)
   16fde:	0017871b          	addiw	a4,a5,1
   16fe2:	10e12423          	sw	a4,264(sp)
   16fe6:	479d                	c.li	a5,7
   16fe8:	00e7da63          	bge	a5,a4,16ffc <_vfprintf_r+0x144e>
   16fec:	0210                	c.addi4spn	a2,sp,256
   16fee:	85ca                	c.mv	a1,s2
   16ff0:	854e                	c.mv	a0,s3
   16ff2:	4e2040ef          	jal	ra,1b4d4 <__sprint_r>
   16ff6:	12051863          	bne	a0,zero,17126 <_vfprintf_r+0x1578>
   16ffa:	8c56                	c.mv	s8,s5
   16ffc:	754e                	c.ldsp	a0,240(sp)
   16ffe:	75ee                	c.ldsp	a1,248(sp)
   17000:	4601                	c.li	a2,0
   17002:	4681                	c.li	a3,0
   17004:	fffa0b1b          	addiw	s6,s4,-1
   17008:	4f1050ef          	jal	ra,1ccf8 <__eqtf2>
   1700c:	c12d                	c.beqz	a0,1706e <_vfprintf_r+0x14c0>
   1700e:	10812703          	lw	a4,264(sp)
   17012:	67d2                	c.ldsp	a5,272(sp)
   17014:	0485                	c.addi	s1,1
   17016:	0017069b          	addiw	a3,a4,1
   1701a:	97da                	c.add	a5,s6
   1701c:	009c3023          	sd	s1,0(s8)
   17020:	016c3423          	sd	s6,8(s8)
   17024:	ea3e                	c.sdsp	a5,272(sp)
   17026:	10d12423          	sw	a3,264(sp)
   1702a:	479d                	c.li	a5,7
   1702c:	0c41                	c.addi	s8,16
   1702e:	00d7d963          	bge	a5,a3,17040 <_vfprintf_r+0x1492>
   17032:	0210                	c.addi4spn	a2,sp,256
   17034:	85ca                	c.mv	a1,s2
   17036:	854e                	c.mv	a0,s3
   17038:	49c040ef          	jal	ra,1b4d4 <__sprint_r>
   1703c:	e56d                	c.bnez	a0,17126 <_vfprintf_r+0x1578>
   1703e:	8c56                	c.mv	s8,s5
   17040:	119c                	c.addi4spn	a5,sp,224
   17042:	00fc3023          	sd	a5,0(s8)
   17046:	67e6                	c.ldsp	a5,88(sp)
   17048:	6766                	c.ldsp	a4,88(sp)
   1704a:	010c0c93          	addi	s9,s8,16
   1704e:	00fc3423          	sd	a5,8(s8)
   17052:	67d2                	c.ldsp	a5,272(sp)
   17054:	97ba                	c.add	a5,a4
   17056:	ea3e                	c.sdsp	a5,272(sp)
   17058:	10812783          	lw	a5,264(sp)
   1705c:	0017871b          	addiw	a4,a5,1
   17060:	10e12423          	sw	a4,264(sp)
   17064:	479d                	c.li	a5,7
   17066:	a6e7d4e3          	bge	a5,a4,16ace <_vfprintf_r+0xf20>
   1706a:	89eff06f          	jal	zero,16108 <_vfprintf_r+0x55a>
   1706e:	fd6059e3          	bge	zero,s6,17040 <_vfprintf_r+0x1492>
   17072:	000294b7          	lui	s1,0x29
   17076:	4d41                	c.li	s10,16
   17078:	80848493          	addi	s1,s1,-2040 # 28808 <zeroes.4441>
   1707c:	4c9d                	c.li	s9,7
   1707e:	10812703          	lw	a4,264(sp)
   17082:	009c3023          	sd	s1,0(s8)
   17086:	67d2                	c.ldsp	a5,272(sp)
   17088:	0017069b          	addiw	a3,a4,1
   1708c:	8736                	c.mv	a4,a3
   1708e:	010c0613          	addi	a2,s8,16
   17092:	016d4b63          	blt	s10,s6,170a8 <_vfprintf_r+0x14fa>
   17096:	97da                	c.add	a5,s6
   17098:	016c3423          	sd	s6,8(s8)
   1709c:	ea3e                	c.sdsp	a5,272(sp)
   1709e:	10d12423          	sw	a3,264(sp)
   170a2:	479d                	c.li	a5,7
   170a4:	8c32                	c.mv	s8,a2
   170a6:	b761                	c.j	1702e <_vfprintf_r+0x1480>
   170a8:	07c1                	c.addi	a5,16
   170aa:	01ac3423          	sd	s10,8(s8)
   170ae:	ea3e                	c.sdsp	a5,272(sp)
   170b0:	10e12423          	sw	a4,264(sp)
   170b4:	00dcd963          	bge	s9,a3,170c6 <_vfprintf_r+0x1518>
   170b8:	0210                	c.addi4spn	a2,sp,256
   170ba:	85ca                	c.mv	a1,s2
   170bc:	854e                	c.mv	a0,s3
   170be:	416040ef          	jal	ra,1b4d4 <__sprint_r>
   170c2:	e135                	c.bnez	a0,17126 <_vfprintf_r+0x1578>
   170c4:	8656                	c.mv	a2,s5
   170c6:	3b41                	c.addiw	s6,-16
   170c8:	8c32                	c.mv	s8,a2
   170ca:	bf55                	c.j	1707e <_vfprintf_r+0x14d0>
   170cc:	00ccb423          	sd	a2,8(s9)
   170d0:	ea3a                	c.sdsp	a4,272(sp)
   170d2:	10d12423          	sw	a3,264(sp)
   170d6:	479d                	c.li	a5,7
   170d8:	bf99                	c.j	1702e <_vfprintf_r+0x1480>
   170da:	5782                	c.lwsp	a5,32(sp)
   170dc:	5762                	c.lwsp	a4,56(sp)
   170de:	40e7843b          	subw	s0,a5,a4
   170e2:	9e8059e3          	bge	zero,s0,16ad4 <_vfprintf_r+0xf26>
   170e6:	000284b7          	lui	s1,0x28
   170ea:	4b41                	c.li	s6,16
   170ec:	7f848493          	addi	s1,s1,2040 # 287f8 <blanks.4440>
   170f0:	4c1d                	c.li	s8,7
   170f2:	10812703          	lw	a4,264(sp)
   170f6:	009cb023          	sd	s1,0(s9)
   170fa:	67d2                	c.ldsp	a5,272(sp)
   170fc:	0017069b          	addiw	a3,a4,1
   17100:	8736                	c.mv	a4,a3
   17102:	028b4a63          	blt	s6,s0,17136 <_vfprintf_r+0x1588>
   17106:	008cb423          	sd	s0,8(s9)
   1710a:	943e                	c.add	s0,a5
   1710c:	ea22                	c.sdsp	s0,272(sp)
   1710e:	10d12423          	sw	a3,264(sp)
   17112:	479d                	c.li	a5,7
   17114:	9cd7d0e3          	bge	a5,a3,16ad4 <_vfprintf_r+0xf26>
   17118:	0210                	c.addi4spn	a2,sp,256
   1711a:	85ca                	c.mv	a1,s2
   1711c:	854e                	c.mv	a0,s3
   1711e:	3b6040ef          	jal	ra,1b4d4 <__sprint_r>
   17122:	9a0509e3          	beq	a0,zero,16ad4 <_vfprintf_r+0xf26>
   17126:	940b8f63          	beq	s7,zero,16284 <_vfprintf_r+0x6d6>
   1712a:	85de                	c.mv	a1,s7
   1712c:	854e                	c.mv	a0,s3
   1712e:	e16fd0ef          	jal	ra,14744 <_free_r>
   17132:	952ff06f          	jal	zero,16284 <_vfprintf_r+0x6d6>
   17136:	07c1                	c.addi	a5,16
   17138:	016cb423          	sd	s6,8(s9)
   1713c:	ea3e                	c.sdsp	a5,272(sp)
   1713e:	10e12423          	sw	a4,264(sp)
   17142:	0cc1                	c.addi	s9,16
   17144:	00dc5963          	bge	s8,a3,17156 <_vfprintf_r+0x15a8>
   17148:	0210                	c.addi4spn	a2,sp,256
   1714a:	85ca                	c.mv	a1,s2
   1714c:	854e                	c.mv	a0,s3
   1714e:	386040ef          	jal	ra,1b4d4 <__sprint_r>
   17152:	f971                	c.bnez	a0,17126 <_vfprintf_r+0x1578>
   17154:	8cd6                	c.mv	s9,s5
   17156:	3441                	c.addiw	s0,-16
   17158:	bf69                	c.j	170f2 <_vfprintf_r+0x1544>
   1715a:	85de                	c.mv	a1,s7
   1715c:	854e                	c.mv	a0,s3
   1715e:	de6fd0ef          	jal	ra,14744 <_free_r>
   17162:	ba79                	c.j	16b00 <_vfprintf_r+0xf52>
   17164:	67d2                	c.ldsp	a5,272(sp)
   17166:	90078f63          	beq	a5,zero,16284 <_vfprintf_r+0x6d6>
   1716a:	0210                	c.addi4spn	a2,sp,256
   1716c:	85ca                	c.mv	a1,s2
   1716e:	854e                	c.mv	a0,s3
   17170:	364040ef          	jal	ra,1b4d4 <__sprint_r>
   17174:	910ff06f          	jal	zero,16284 <_vfprintf_r+0x6d6>

0000000000017178 <vfprintf>:
   17178:	86b2                	c.mv	a3,a2
   1717a:	862e                	c.mv	a2,a1
   1717c:	85aa                	c.mv	a1,a0
   1717e:	8401b503          	ld	a0,-1984(gp) # 2b4c0 <_impure_ptr>
   17182:	a2dfe06f          	jal	zero,15bae <_vfprintf_r>

0000000000017186 <__sbprintf>:
   17186:	0105d783          	lhu	a5,16(a1)
   1718a:	b3010113          	addi	sp,sp,-1232
   1718e:	4c813023          	sd	s0,1216(sp)
   17192:	9bf5                	c.andi	a5,-3
   17194:	00f11823          	sh	a5,16(sp)
   17198:	0ac5a783          	lw	a5,172(a1)
   1719c:	842e                	c.mv	s0,a1
   1719e:	4a913c23          	sd	s1,1208(sp)
   171a2:	d73e                	c.swsp	a5,172(sp)
   171a4:	0125d783          	lhu	a5,18(a1)
   171a8:	4b213823          	sd	s2,1200(sp)
   171ac:	4c113423          	sd	ra,1224(sp)
   171b0:	00f11923          	sh	a5,18(sp)
   171b4:	799c                	c.ld	a5,48(a1)
   171b6:	892a                	c.mv	s2,a0
   171b8:	d402                	c.swsp	zero,40(sp)
   171ba:	f83e                	c.sdsp	a5,48(sp)
   171bc:	61bc                	c.ld	a5,64(a1)
   171be:	858a                	c.mv	a1,sp
   171c0:	e0be                	c.sdsp	a5,64(sp)
   171c2:	191c                	c.addi4spn	a5,sp,176
   171c4:	e03e                	c.sdsp	a5,0(sp)
   171c6:	ec3e                	c.sdsp	a5,24(sp)
   171c8:	40000793          	addi	a5,zero,1024
   171cc:	c63e                	c.swsp	a5,12(sp)
   171ce:	d03e                	c.swsp	a5,32(sp)
   171d0:	9dffe0ef          	jal	ra,15bae <_vfprintf_r>
   171d4:	84aa                	c.mv	s1,a0
   171d6:	00054863          	blt	a0,zero,171e6 <__sbprintf+0x60>
   171da:	858a                	c.mv	a1,sp
   171dc:	854a                	c.mv	a0,s2
   171de:	892fd0ef          	jal	ra,14270 <_fflush_r>
   171e2:	c111                	c.beqz	a0,171e6 <__sbprintf+0x60>
   171e4:	54fd                	c.li	s1,-1
   171e6:	01015783          	lhu	a5,16(sp)
   171ea:	0407f793          	andi	a5,a5,64
   171ee:	c799                	c.beqz	a5,171fc <__sbprintf+0x76>
   171f0:	01045783          	lhu	a5,16(s0)
   171f4:	0407e793          	ori	a5,a5,64
   171f8:	00f41823          	sh	a5,16(s0)
   171fc:	4c813083          	ld	ra,1224(sp)
   17200:	4c013403          	ld	s0,1216(sp)
   17204:	8526                	c.mv	a0,s1
   17206:	4b013903          	ld	s2,1200(sp)
   1720a:	4b813483          	ld	s1,1208(sp)
   1720e:	4d010113          	addi	sp,sp,1232
   17212:	8082                	c.jr	ra

0000000000017214 <_wctomb_r>:
   17214:	8401b783          	ld	a5,-1984(gp) # 2b4c0 <_impure_ptr>
   17218:	67bc                	c.ld	a5,72(a5)
   1721a:	e789                	c.bnez	a5,17224 <_wctomb_r+0x10>
   1721c:	0002b7b7          	lui	a5,0x2b
   17220:	ac878793          	addi	a5,a5,-1336 # 2aac8 <__global_locale>
   17224:	0e07b303          	ld	t1,224(a5)
   17228:	8302                	c.jr	t1

000000000001722a <__ascii_wctomb>:
   1722a:	cd91                	c.beqz	a1,17246 <__ascii_wctomb+0x1c>
   1722c:	0ff00793          	addi	a5,zero,255
   17230:	00c7f763          	bgeu	a5,a2,1723e <__ascii_wctomb+0x14>
   17234:	08a00793          	addi	a5,zero,138
   17238:	c11c                	c.sw	a5,0(a0)
   1723a:	557d                	c.li	a0,-1
   1723c:	8082                	c.jr	ra
   1723e:	00c58023          	sb	a2,0(a1)
   17242:	4505                	c.li	a0,1
   17244:	8082                	c.jr	ra
   17246:	4501                	c.li	a0,0
   17248:	8082                	c.jr	ra

000000000001724a <_write_r>:
   1724a:	1101                	c.addi	sp,-32
   1724c:	e822                	c.sdsp	s0,16(sp)
   1724e:	e426                	c.sdsp	s1,8(sp)
   17250:	84aa                	c.mv	s1,a0
   17252:	852e                	c.mv	a0,a1
   17254:	85b2                	c.mv	a1,a2
   17256:	8636                	c.mv	a2,a3
   17258:	ec06                	c.sdsp	ra,24(sp)
   1725a:	8e01ac23          	sw	zero,-1800(gp) # 2b578 <errno>
   1725e:	223050ef          	jal	ra,1cc80 <_write>
   17262:	57fd                	c.li	a5,-1
   17264:	00f51663          	bne	a0,a5,17270 <_write_r+0x26>
   17268:	8f81a783          	lw	a5,-1800(gp) # 2b578 <errno>
   1726c:	c391                	c.beqz	a5,17270 <_write_r+0x26>
   1726e:	c09c                	c.sw	a5,0(s1)
   17270:	60e2                	c.ldsp	ra,24(sp)
   17272:	6442                	c.ldsp	s0,16(sp)
   17274:	64a2                	c.ldsp	s1,8(sp)
   17276:	6105                	c.addi16sp	sp,32
   17278:	8082                	c.jr	ra

000000000001727a <__swsetup_r>:
   1727a:	1101                	c.addi	sp,-32
   1727c:	e426                	c.sdsp	s1,8(sp)
   1727e:	84aa                	c.mv	s1,a0
   17280:	8401b503          	ld	a0,-1984(gp) # 2b4c0 <_impure_ptr>
   17284:	e822                	c.sdsp	s0,16(sp)
   17286:	ec06                	c.sdsp	ra,24(sp)
   17288:	842e                	c.mv	s0,a1
   1728a:	c509                	c.beqz	a0,17294 <__swsetup_r+0x1a>
   1728c:	493c                	c.lw	a5,80(a0)
   1728e:	e399                	c.bnez	a5,17294 <__swsetup_r+0x1a>
   17290:	91efd0ef          	jal	ra,143ae <__sinit>
   17294:	01041703          	lh	a4,16(s0)
   17298:	03071793          	slli	a5,a4,0x30
   1729c:	93c1                	c.srli	a5,0x30
   1729e:	0087f693          	andi	a3,a5,8
   172a2:	eea9                	c.bnez	a3,172fc <__swsetup_r+0x82>
   172a4:	0107f693          	andi	a3,a5,16
   172a8:	ee89                	c.bnez	a3,172c2 <__swsetup_r+0x48>
   172aa:	47a5                	c.li	a5,9
   172ac:	c09c                	c.sw	a5,0(s1)
   172ae:	04076713          	ori	a4,a4,64
   172b2:	00e41823          	sh	a4,16(s0)
   172b6:	557d                	c.li	a0,-1
   172b8:	60e2                	c.ldsp	ra,24(sp)
   172ba:	6442                	c.ldsp	s0,16(sp)
   172bc:	64a2                	c.ldsp	s1,8(sp)
   172be:	6105                	c.addi16sp	sp,32
   172c0:	8082                	c.jr	ra
   172c2:	8b91                	c.andi	a5,4
   172c4:	c795                	c.beqz	a5,172f0 <__swsetup_r+0x76>
   172c6:	6c2c                	c.ld	a1,88(s0)
   172c8:	c991                	c.beqz	a1,172dc <__swsetup_r+0x62>
   172ca:	07440793          	addi	a5,s0,116
   172ce:	00f58563          	beq	a1,a5,172d8 <__swsetup_r+0x5e>
   172d2:	8526                	c.mv	a0,s1
   172d4:	c70fd0ef          	jal	ra,14744 <_free_r>
   172d8:	04043c23          	sd	zero,88(s0)
   172dc:	01045783          	lhu	a5,16(s0)
   172e0:	00042423          	sw	zero,8(s0)
   172e4:	fdb7f793          	andi	a5,a5,-37
   172e8:	00f41823          	sh	a5,16(s0)
   172ec:	6c1c                	c.ld	a5,24(s0)
   172ee:	e01c                	c.sd	a5,0(s0)
   172f0:	01045783          	lhu	a5,16(s0)
   172f4:	0087e793          	ori	a5,a5,8
   172f8:	00f41823          	sh	a5,16(s0)
   172fc:	6c1c                	c.ld	a5,24(s0)
   172fe:	ef89                	c.bnez	a5,17318 <__swsetup_r+0x9e>
   17300:	01045783          	lhu	a5,16(s0)
   17304:	20000713          	addi	a4,zero,512
   17308:	2807f793          	andi	a5,a5,640
   1730c:	00e78663          	beq	a5,a4,17318 <__swsetup_r+0x9e>
   17310:	85a2                	c.mv	a1,s0
   17312:	8526                	c.mv	a0,s1
   17314:	c3ffd0ef          	jal	ra,14f52 <__smakebuf_r>
   17318:	01045783          	lhu	a5,16(s0)
   1731c:	0017f713          	andi	a4,a5,1
   17320:	c705                	c.beqz	a4,17348 <__swsetup_r+0xce>
   17322:	501c                	c.lw	a5,32(s0)
   17324:	00042623          	sw	zero,12(s0)
   17328:	40f007bb          	subw	a5,zero,a5
   1732c:	d41c                	c.sw	a5,40(s0)
   1732e:	6c1c                	c.ld	a5,24(s0)
   17330:	4501                	c.li	a0,0
   17332:	f3d9                	c.bnez	a5,172b8 <__swsetup_r+0x3e>
   17334:	01041783          	lh	a5,16(s0)
   17338:	0807f713          	andi	a4,a5,128
   1733c:	df35                	c.beqz	a4,172b8 <__swsetup_r+0x3e>
   1733e:	0407e793          	ori	a5,a5,64
   17342:	00f41823          	sh	a5,16(s0)
   17346:	bf85                	c.j	172b6 <__swsetup_r+0x3c>
   17348:	8b89                	c.andi	a5,2
   1734a:	4701                	c.li	a4,0
   1734c:	e391                	c.bnez	a5,17350 <__swsetup_r+0xd6>
   1734e:	5018                	c.lw	a4,32(s0)
   17350:	c458                	c.sw	a4,12(s0)
   17352:	bff1                	c.j	1732e <__swsetup_r+0xb4>

0000000000017354 <__register_exitproc>:
   17354:	8381b703          	ld	a4,-1992(gp) # 2b4b8 <_global_impure_ptr>
   17358:	832a                	c.mv	t1,a0
   1735a:	1f873783          	ld	a5,504(a4)
   1735e:	e789                	c.bnez	a5,17368 <__register_exitproc+0x14>
   17360:	20070793          	addi	a5,a4,512
   17364:	1ef73c23          	sd	a5,504(a4)
   17368:	4798                	c.lw	a4,8(a5)
   1736a:	487d                	c.li	a6,31
   1736c:	557d                	c.li	a0,-1
   1736e:	04e84463          	blt	a6,a4,173b6 <__register_exitproc+0x62>
   17372:	02030a63          	beq	t1,zero,173a6 <__register_exitproc+0x52>
   17376:	00371813          	slli	a6,a4,0x3
   1737a:	983e                	c.add	a6,a5
   1737c:	10c83823          	sd	a2,272(a6)
   17380:	3107a883          	lw	a7,784(a5)
   17384:	4605                	c.li	a2,1
   17386:	00e6163b          	sllw	a2,a2,a4
   1738a:	00c8e8b3          	or	a7,a7,a2
   1738e:	3117a823          	sw	a7,784(a5)
   17392:	20d83823          	sd	a3,528(a6)
   17396:	4689                	c.li	a3,2
   17398:	00d31763          	bne	t1,a3,173a6 <__register_exitproc+0x52>
   1739c:	3147a683          	lw	a3,788(a5)
   173a0:	8e55                	c.or	a2,a3
   173a2:	30c7aa23          	sw	a2,788(a5)
   173a6:	0017069b          	addiw	a3,a4,1
   173aa:	0709                	c.addi	a4,2
   173ac:	070e                	c.slli	a4,0x3
   173ae:	c794                	c.sw	a3,8(a5)
   173b0:	97ba                	c.add	a5,a4
   173b2:	e38c                	c.sd	a1,0(a5)
   173b4:	4501                	c.li	a0,0
   173b6:	8082                	c.jr	ra

00000000000173b8 <__call_exitprocs>:
   173b8:	715d                	c.addi16sp	sp,-80
   173ba:	f44e                	c.sdsp	s3,40(sp)
   173bc:	8381b983          	ld	s3,-1992(gp) # 2b4b8 <_global_impure_ptr>
   173c0:	f052                	c.sdsp	s4,32(sp)
   173c2:	ec56                	c.sdsp	s5,24(sp)
   173c4:	e85a                	c.sdsp	s6,16(sp)
   173c6:	e486                	c.sdsp	ra,72(sp)
   173c8:	e0a2                	c.sdsp	s0,64(sp)
   173ca:	fc26                	c.sdsp	s1,56(sp)
   173cc:	f84a                	c.sdsp	s2,48(sp)
   173ce:	e45e                	c.sdsp	s7,8(sp)
   173d0:	8aaa                	c.mv	s5,a0
   173d2:	8a2e                	c.mv	s4,a1
   173d4:	4b05                	c.li	s6,1
   173d6:	1f89b403          	ld	s0,504(s3)
   173da:	c801                	c.beqz	s0,173ea <__call_exitprocs+0x32>
   173dc:	4404                	c.lw	s1,8(s0)
   173de:	34fd                	c.addiw	s1,-1
   173e0:	00349913          	slli	s2,s1,0x3
   173e4:	9922                	c.add	s2,s0
   173e6:	0004dd63          	bge	s1,zero,17400 <__call_exitprocs+0x48>
   173ea:	60a6                	c.ldsp	ra,72(sp)
   173ec:	6406                	c.ldsp	s0,64(sp)
   173ee:	74e2                	c.ldsp	s1,56(sp)
   173f0:	7942                	c.ldsp	s2,48(sp)
   173f2:	79a2                	c.ldsp	s3,40(sp)
   173f4:	7a02                	c.ldsp	s4,32(sp)
   173f6:	6ae2                	c.ldsp	s5,24(sp)
   173f8:	6b42                	c.ldsp	s6,16(sp)
   173fa:	6ba2                	c.ldsp	s7,8(sp)
   173fc:	6161                	c.addi16sp	sp,80
   173fe:	8082                	c.jr	ra
   17400:	000a0963          	beq	s4,zero,17412 <__call_exitprocs+0x5a>
   17404:	21093783          	ld	a5,528(s2)
   17408:	01478563          	beq	a5,s4,17412 <__call_exitprocs+0x5a>
   1740c:	34fd                	c.addiw	s1,-1
   1740e:	1961                	c.addi	s2,-8
   17410:	bfd9                	c.j	173e6 <__call_exitprocs+0x2e>
   17412:	441c                	c.lw	a5,8(s0)
   17414:	01093683          	ld	a3,16(s2)
   17418:	37fd                	c.addiw	a5,-1
   1741a:	02979663          	bne	a5,s1,17446 <__call_exitprocs+0x8e>
   1741e:	c404                	c.sw	s1,8(s0)
   17420:	d6f5                	c.beqz	a3,1740c <__call_exitprocs+0x54>
   17422:	31042703          	lw	a4,784(s0)
   17426:	009b163b          	sllw	a2,s6,s1
   1742a:	00842b83          	lw	s7,8(s0)
   1742e:	8f71                	c.and	a4,a2
   17430:	2701                	c.addiw	a4,0
   17432:	ef09                	c.bnez	a4,1744c <__call_exitprocs+0x94>
   17434:	9682                	c.jalr	a3
   17436:	4418                	c.lw	a4,8(s0)
   17438:	1f89b783          	ld	a5,504(s3)
   1743c:	f9771de3          	bne	a4,s7,173d6 <__call_exitprocs+0x1e>
   17440:	fcf406e3          	beq	s0,a5,1740c <__call_exitprocs+0x54>
   17444:	bf49                	c.j	173d6 <__call_exitprocs+0x1e>
   17446:	00093823          	sd	zero,16(s2)
   1744a:	bfd9                	c.j	17420 <__call_exitprocs+0x68>
   1744c:	31442783          	lw	a5,788(s0)
   17450:	11093583          	ld	a1,272(s2)
   17454:	8ff1                	c.and	a5,a2
   17456:	2781                	c.addiw	a5,0
   17458:	e781                	c.bnez	a5,17460 <__call_exitprocs+0xa8>
   1745a:	8556                	c.mv	a0,s5
   1745c:	9682                	c.jalr	a3
   1745e:	bfe1                	c.j	17436 <__call_exitprocs+0x7e>
   17460:	852e                	c.mv	a0,a1
   17462:	9682                	c.jalr	a3
   17464:	bfc9                	c.j	17436 <__call_exitprocs+0x7e>

0000000000017466 <_close_r>:
   17466:	1101                	c.addi	sp,-32
   17468:	e822                	c.sdsp	s0,16(sp)
   1746a:	e426                	c.sdsp	s1,8(sp)
   1746c:	84aa                	c.mv	s1,a0
   1746e:	852e                	c.mv	a0,a1
   17470:	ec06                	c.sdsp	ra,24(sp)
   17472:	8e01ac23          	sw	zero,-1800(gp) # 2b578 <errno>
   17476:	630050ef          	jal	ra,1caa6 <_close>
   1747a:	57fd                	c.li	a5,-1
   1747c:	00f51663          	bne	a0,a5,17488 <_close_r+0x22>
   17480:	8f81a783          	lw	a5,-1800(gp) # 2b578 <errno>
   17484:	c391                	c.beqz	a5,17488 <_close_r+0x22>
   17486:	c09c                	c.sw	a5,0(s1)
   17488:	60e2                	c.ldsp	ra,24(sp)
   1748a:	6442                	c.ldsp	s0,16(sp)
   1748c:	64a2                	c.ldsp	s1,8(sp)
   1748e:	6105                	c.addi16sp	sp,32
   17490:	8082                	c.jr	ra

0000000000017492 <__sflags>:
   17492:	0005c783          	lbu	a5,0(a1)
   17496:	07200713          	addi	a4,zero,114
   1749a:	06e78563          	beq	a5,a4,17504 <__sflags+0x72>
   1749e:	07700713          	addi	a4,zero,119
   174a2:	00e78c63          	beq	a5,a4,174ba <__sflags+0x28>
   174a6:	06100713          	addi	a4,zero,97
   174aa:	02e79463          	bne	a5,a4,174d2 <__sflags+0x40>
   174ae:	20800713          	addi	a4,zero,520
   174b2:	4785                	c.li	a5,1
   174b4:	10800513          	addi	a0,zero,264
   174b8:	a029                	c.j	174c2 <__sflags+0x30>
   174ba:	60000713          	addi	a4,zero,1536
   174be:	4785                	c.li	a5,1
   174c0:	4521                	c.li	a0,8
   174c2:	6805                	c.lui	a6,0x1
   174c4:	02b00893          	addi	a7,zero,43
   174c8:	07800313          	addi	t1,zero,120
   174cc:	80080813          	addi	a6,a6,-2048 # 800 <main-0xf8b0>
   174d0:	a809                	c.j	174e2 <__sflags+0x50>
   174d2:	47d9                	c.li	a5,22
   174d4:	c11c                	c.sw	a5,0(a0)
   174d6:	4501                	c.li	a0,0
   174d8:	8082                	c.jr	ra
   174da:	01168b63          	beq	a3,a7,174f0 <__sflags+0x5e>
   174de:	02668063          	beq	a3,t1,174fe <__sflags+0x6c>
   174e2:	0585                	c.addi	a1,1
   174e4:	0005c683          	lbu	a3,0(a1)
   174e8:	faed                	c.bnez	a3,174da <__sflags+0x48>
   174ea:	8fd9                	c.or	a5,a4
   174ec:	c21c                	c.sw	a5,0(a2)
   174ee:	8082                	c.jr	ra
   174f0:	990d                	c.andi	a0,-29
   174f2:	9bf1                	c.andi	a5,-4
   174f4:	01056513          	ori	a0,a0,16
   174f8:	0027e793          	ori	a5,a5,2
   174fc:	b7dd                	c.j	174e2 <__sflags+0x50>
   174fe:	0107e7b3          	or	a5,a5,a6
   17502:	b7c5                	c.j	174e2 <__sflags+0x50>
   17504:	4701                	c.li	a4,0
   17506:	4781                	c.li	a5,0
   17508:	4511                	c.li	a0,4
   1750a:	bf65                	c.j	174c2 <__sflags+0x30>

000000000001750c <__sfvwrite_r>:
   1750c:	6a1c                	c.ld	a5,16(a2)
   1750e:	e781                	c.bnez	a5,17516 <__sfvwrite_r+0xa>
   17510:	4781                	c.li	a5,0
   17512:	853e                	c.mv	a0,a5
   17514:	8082                	c.jr	ra
   17516:	0105d783          	lhu	a5,16(a1)
   1751a:	7119                	c.addi16sp	sp,-128
   1751c:	f8a2                	c.sdsp	s0,112(sp)
   1751e:	f0ca                	c.sdsp	s2,96(sp)
   17520:	e8d2                	c.sdsp	s4,80(sp)
   17522:	fc86                	c.sdsp	ra,120(sp)
   17524:	f4a6                	c.sdsp	s1,104(sp)
   17526:	ecce                	c.sdsp	s3,88(sp)
   17528:	e4d6                	c.sdsp	s5,72(sp)
   1752a:	e0da                	c.sdsp	s6,64(sp)
   1752c:	fc5e                	c.sdsp	s7,56(sp)
   1752e:	f862                	c.sdsp	s8,48(sp)
   17530:	f466                	c.sdsp	s9,40(sp)
   17532:	f06a                	c.sdsp	s10,32(sp)
   17534:	ec6e                	c.sdsp	s11,24(sp)
   17536:	8ba1                	c.andi	a5,8
   17538:	8a32                	c.mv	s4,a2
   1753a:	842e                	c.mv	s0,a1
   1753c:	892a                	c.mv	s2,a0
   1753e:	cfd1                	c.beqz	a5,175da <__sfvwrite_r+0xce>
   17540:	6d9c                	c.ld	a5,24(a1)
   17542:	cfc1                	c.beqz	a5,175da <__sfvwrite_r+0xce>
   17544:	01045783          	lhu	a5,16(s0)
   17548:	000a3983          	ld	s3,0(s4)
   1754c:	0027f713          	andi	a4,a5,2
   17550:	0e071863          	bne	a4,zero,17640 <__sfvwrite_r+0x134>
   17554:	8b85                	c.andi	a5,1
   17556:	4a81                	c.li	s5,0
   17558:	16078463          	beq	a5,zero,176c0 <__sfvwrite_r+0x1b4>
   1755c:	4501                	c.li	a0,0
   1755e:	4b81                	c.li	s7,0
   17560:	4b01                	c.li	s6,0
   17562:	240b0863          	beq	s6,zero,177b2 <__sfvwrite_r+0x2a6>
   17566:	e919                	c.bnez	a0,1757c <__sfvwrite_r+0x70>
   17568:	865a                	c.mv	a2,s6
   1756a:	45a9                	c.li	a1,10
   1756c:	855e                	c.mv	a0,s7
   1756e:	22d010ef          	jal	ra,18f9a <memchr>
   17572:	24050763          	beq	a0,zero,177c0 <__sfvwrite_r+0x2b4>
   17576:	0505                	c.addi	a0,1
   17578:	41750abb          	subw	s5,a0,s7
   1757c:	8c56                	c.mv	s8,s5
   1757e:	015b7363          	bgeu	s6,s5,17584 <__sfvwrite_r+0x78>
   17582:	8c5a                	c.mv	s8,s6
   17584:	6008                	c.ld	a0,0(s0)
   17586:	6c1c                	c.ld	a5,24(s0)
   17588:	5014                	c.lw	a3,32(s0)
   1758a:	22a7fe63          	bgeu	a5,a0,177c6 <__sfvwrite_r+0x2ba>
   1758e:	4444                	c.lw	s1,12(s0)
   17590:	9cb5                	c.addw	s1,a3
   17592:	2384da63          	bge	s1,s8,177c6 <__sfvwrite_r+0x2ba>
   17596:	85de                	c.mv	a1,s7
   17598:	8626                	c.mv	a2,s1
   1759a:	21b010ef          	jal	ra,18fb4 <memmove>
   1759e:	601c                	c.ld	a5,0(s0)
   175a0:	85a2                	c.mv	a1,s0
   175a2:	854a                	c.mv	a0,s2
   175a4:	97a6                	c.add	a5,s1
   175a6:	e01c                	c.sd	a5,0(s0)
   175a8:	cc9fc0ef          	jal	ra,14270 <_fflush_r>
   175ac:	10051263          	bne	a0,zero,176b0 <__sfvwrite_r+0x1a4>
   175b0:	409a8abb          	subw	s5,s5,s1
   175b4:	4505                	c.li	a0,1
   175b6:	000a9763          	bne	s5,zero,175c4 <__sfvwrite_r+0xb8>
   175ba:	85a2                	c.mv	a1,s0
   175bc:	854a                	c.mv	a0,s2
   175be:	cb3fc0ef          	jal	ra,14270 <_fflush_r>
   175c2:	e57d                	c.bnez	a0,176b0 <__sfvwrite_r+0x1a4>
   175c4:	010a3783          	ld	a5,16(s4)
   175c8:	9ba6                	c.add	s7,s1
   175ca:	409b0b33          	sub	s6,s6,s1
   175ce:	409784b3          	sub	s1,a5,s1
   175d2:	009a3823          	sd	s1,16(s4)
   175d6:	f4d1                	c.bnez	s1,17562 <__sfvwrite_r+0x56>
   175d8:	a099                	c.j	1761e <__sfvwrite_r+0x112>
   175da:	85a2                	c.mv	a1,s0
   175dc:	854a                	c.mv	a0,s2
   175de:	c9dff0ef          	jal	ra,1727a <__swsetup_r>
   175e2:	57fd                	c.li	a5,-1
   175e4:	d125                	c.beqz	a0,17544 <__sfvwrite_r+0x38>
   175e6:	a82d                	c.j	17620 <__sfvwrite_r+0x114>
   175e8:	0009ba83          	ld	s5,0(s3)
   175ec:	0089b483          	ld	s1,8(s3)
   175f0:	09c1                	c.addi	s3,16
   175f2:	d8fd                	c.beqz	s1,175e8 <__sfvwrite_r+0xdc>
   175f4:	86a6                	c.mv	a3,s1
   175f6:	009b7363          	bgeu	s6,s1,175fc <__sfvwrite_r+0xf0>
   175fa:	86da                	c.mv	a3,s6
   175fc:	603c                	c.ld	a5,64(s0)
   175fe:	780c                	c.ld	a1,48(s0)
   17600:	2681                	c.addiw	a3,0
   17602:	8656                	c.mv	a2,s5
   17604:	854a                	c.mv	a0,s2
   17606:	9782                	c.jalr	a5
   17608:	0aa05463          	bge	zero,a0,176b0 <__sfvwrite_r+0x1a4>
   1760c:	010a3783          	ld	a5,16(s4)
   17610:	9aaa                	c.add	s5,a0
   17612:	8c89                	c.sub	s1,a0
   17614:	40a78533          	sub	a0,a5,a0
   17618:	00aa3823          	sd	a0,16(s4)
   1761c:	f979                	c.bnez	a0,175f2 <__sfvwrite_r+0xe6>
   1761e:	4781                	c.li	a5,0
   17620:	70e6                	c.ldsp	ra,120(sp)
   17622:	7446                	c.ldsp	s0,112(sp)
   17624:	74a6                	c.ldsp	s1,104(sp)
   17626:	7906                	c.ldsp	s2,96(sp)
   17628:	69e6                	c.ldsp	s3,88(sp)
   1762a:	6a46                	c.ldsp	s4,80(sp)
   1762c:	6aa6                	c.ldsp	s5,72(sp)
   1762e:	6b06                	c.ldsp	s6,64(sp)
   17630:	7be2                	c.ldsp	s7,56(sp)
   17632:	7c42                	c.ldsp	s8,48(sp)
   17634:	7ca2                	c.ldsp	s9,40(sp)
   17636:	7d02                	c.ldsp	s10,32(sp)
   17638:	6de2                	c.ldsp	s11,24(sp)
   1763a:	853e                	c.mv	a0,a5
   1763c:	6109                	c.addi16sp	sp,128
   1763e:	8082                	c.jr	ra
   17640:	80000b37          	lui	s6,0x80000
   17644:	4a81                	c.li	s5,0
   17646:	4481                	c.li	s1,0
   17648:	c00b4b13          	xori	s6,s6,-1024
   1764c:	b75d                	c.j	175f2 <__sfvwrite_r+0xe6>
   1764e:	0009ba83          	ld	s5,0(s3)
   17652:	0089bd03          	ld	s10,8(s3)
   17656:	09c1                	c.addi	s3,16
   17658:	4444                	c.lw	s1,12(s0)
   1765a:	87a6                	c.mv	a5,s1
   1765c:	fe0d09e3          	beq	s10,zero,1764e <__sfvwrite_r+0x142>
   17660:	01045703          	lhu	a4,16(s0)
   17664:	6008                	c.ld	a0,0(s0)
   17666:	20077693          	andi	a3,a4,512
   1766a:	0e068863          	beq	a3,zero,1775a <__sfvwrite_r+0x24e>
   1766e:	089d6963          	bltu	s10,s1,17700 <__sfvwrite_r+0x1f4>
   17672:	48077693          	andi	a3,a4,1152
   17676:	c6c9                	c.beqz	a3,17700 <__sfvwrite_r+0x1f4>
   17678:	5004                	c.lw	s1,32(s0)
   1767a:	6c0c                	c.ld	a1,24(s0)
   1767c:	029c04bb          	mulw	s1,s8,s1
   17680:	8d0d                	c.sub	a0,a1
   17682:	00050d9b          	addiw	s11,a0,0
   17686:	001d8793          	addi	a5,s11,1
   1768a:	97ea                	c.add	a5,s10
   1768c:	0394c4bb          	divw	s1,s1,s9
   17690:	00f4f563          	bgeu	s1,a5,1769a <__sfvwrite_r+0x18e>
   17694:	2505                	c.addiw	a0,1
   17696:	01a504bb          	addw	s1,a0,s10
   1769a:	40077713          	andi	a4,a4,1024
   1769e:	cf49                	c.beqz	a4,17738 <__sfvwrite_r+0x22c>
   176a0:	85a6                	c.mv	a1,s1
   176a2:	854a                	c.mv	a0,s2
   176a4:	951fd0ef          	jal	ra,14ff4 <_malloc_r>
   176a8:	e515                	c.bnez	a0,176d4 <__sfvwrite_r+0x1c8>
   176aa:	47b1                	c.li	a5,12
   176ac:	00f92023          	sw	a5,0(s2)
   176b0:	01045783          	lhu	a5,16(s0)
   176b4:	0407e793          	ori	a5,a5,64
   176b8:	00f41823          	sh	a5,16(s0)
   176bc:	57fd                	c.li	a5,-1
   176be:	b78d                	c.j	17620 <__sfvwrite_r+0x114>
   176c0:	80000b37          	lui	s6,0x80000
   176c4:	ffeb4b93          	xori	s7,s6,-2
   176c8:	4d01                	c.li	s10,0
   176ca:	fffb4b13          	xori	s6,s6,-1
   176ce:	4c0d                	c.li	s8,3
   176d0:	4c89                	c.li	s9,2
   176d2:	b759                	c.j	17658 <__sfvwrite_r+0x14c>
   176d4:	6c0c                	c.ld	a1,24(s0)
   176d6:	866e                	c.mv	a2,s11
   176d8:	e42a                	c.sdsp	a0,8(sp)
   176da:	e53fd0ef          	jal	ra,1552c <memcpy>
   176de:	01045703          	lhu	a4,16(s0)
   176e2:	67a2                	c.ldsp	a5,8(sp)
   176e4:	b7f77713          	andi	a4,a4,-1153
   176e8:	08076713          	ori	a4,a4,128
   176ec:	00e41823          	sh	a4,16(s0)
   176f0:	ec1c                	c.sd	a5,24(s0)
   176f2:	d004                	c.sw	s1,32(s0)
   176f4:	97ee                	c.add	a5,s11
   176f6:	41b484bb          	subw	s1,s1,s11
   176fa:	e01c                	c.sd	a5,0(s0)
   176fc:	c444                	c.sw	s1,12(s0)
   176fe:	87ea                	c.mv	a5,s10
   17700:	84ea                	c.mv	s1,s10
   17702:	00fd7363          	bgeu	s10,a5,17708 <__sfvwrite_r+0x1fc>
   17706:	87ea                	c.mv	a5,s10
   17708:	6008                	c.ld	a0,0(s0)
   1770a:	863e                	c.mv	a2,a5
   1770c:	85d6                	c.mv	a1,s5
   1770e:	e43e                	c.sdsp	a5,8(sp)
   17710:	0a5010ef          	jal	ra,18fb4 <memmove>
   17714:	4458                	c.lw	a4,12(s0)
   17716:	67a2                	c.ldsp	a5,8(sp)
   17718:	9f1d                	c.subw	a4,a5
   1771a:	c458                	c.sw	a4,12(s0)
   1771c:	6018                	c.ld	a4,0(s0)
   1771e:	97ba                	c.add	a5,a4
   17720:	e01c                	c.sd	a5,0(s0)
   17722:	010a3783          	ld	a5,16(s4)
   17726:	9aa6                	c.add	s5,s1
   17728:	409d0d33          	sub	s10,s10,s1
   1772c:	409784b3          	sub	s1,a5,s1
   17730:	009a3823          	sd	s1,16(s4)
   17734:	f095                	c.bnez	s1,17658 <__sfvwrite_r+0x14c>
   17736:	b5e5                	c.j	1761e <__sfvwrite_r+0x112>
   17738:	8626                	c.mv	a2,s1
   1773a:	854a                	c.mv	a0,s2
   1773c:	302020ef          	jal	ra,19a3e <_realloc_r>
   17740:	87aa                	c.mv	a5,a0
   17742:	f55d                	c.bnez	a0,176f0 <__sfvwrite_r+0x1e4>
   17744:	6c0c                	c.ld	a1,24(s0)
   17746:	854a                	c.mv	a0,s2
   17748:	ffdfc0ef          	jal	ra,14744 <_free_r>
   1774c:	01045783          	lhu	a5,16(s0)
   17750:	f7f7f793          	andi	a5,a5,-129
   17754:	00f41823          	sh	a5,16(s0)
   17758:	bf89                	c.j	176aa <__sfvwrite_r+0x19e>
   1775a:	6c1c                	c.ld	a5,24(s0)
   1775c:	00a7e563          	bltu	a5,a0,17766 <__sfvwrite_r+0x25a>
   17760:	5014                	c.lw	a3,32(s0)
   17762:	02dd7763          	bgeu	s10,a3,17790 <__sfvwrite_r+0x284>
   17766:	009d7363          	bgeu	s10,s1,1776c <__sfvwrite_r+0x260>
   1776a:	84ea                	c.mv	s1,s10
   1776c:	8626                	c.mv	a2,s1
   1776e:	85d6                	c.mv	a1,s5
   17770:	045010ef          	jal	ra,18fb4 <memmove>
   17774:	445c                	c.lw	a5,12(s0)
   17776:	4097873b          	subw	a4,a5,s1
   1777a:	601c                	c.ld	a5,0(s0)
   1777c:	c458                	c.sw	a4,12(s0)
   1777e:	97a6                	c.add	a5,s1
   17780:	e01c                	c.sd	a5,0(s0)
   17782:	f345                	c.bnez	a4,17722 <__sfvwrite_r+0x216>
   17784:	85a2                	c.mv	a1,s0
   17786:	854a                	c.mv	a0,s2
   17788:	ae9fc0ef          	jal	ra,14270 <_fflush_r>
   1778c:	d959                	c.beqz	a0,17722 <__sfvwrite_r+0x216>
   1778e:	b70d                	c.j	176b0 <__sfvwrite_r+0x1a4>
   17790:	87da                	c.mv	a5,s6
   17792:	01abe363          	bltu	s7,s10,17798 <__sfvwrite_r+0x28c>
   17796:	87ea                	c.mv	a5,s10
   17798:	02d7c7bb          	divw	a5,a5,a3
   1779c:	6038                	c.ld	a4,64(s0)
   1779e:	780c                	c.ld	a1,48(s0)
   177a0:	8656                	c.mv	a2,s5
   177a2:	854a                	c.mv	a0,s2
   177a4:	02d786bb          	mulw	a3,a5,a3
   177a8:	9702                	c.jalr	a4
   177aa:	84aa                	c.mv	s1,a0
   177ac:	f6a04be3          	blt	zero,a0,17722 <__sfvwrite_r+0x216>
   177b0:	b701                	c.j	176b0 <__sfvwrite_r+0x1a4>
   177b2:	0009bb83          	ld	s7,0(s3)
   177b6:	0089bb03          	ld	s6,8(s3)
   177ba:	4501                	c.li	a0,0
   177bc:	09c1                	c.addi	s3,16
   177be:	b355                	c.j	17562 <__sfvwrite_r+0x56>
   177c0:	001b0a9b          	addiw	s5,s6,1
   177c4:	bb65                	c.j	1757c <__sfvwrite_r+0x70>
   177c6:	00dc4b63          	blt	s8,a3,177dc <__sfvwrite_r+0x2d0>
   177ca:	603c                	c.ld	a5,64(s0)
   177cc:	780c                	c.ld	a1,48(s0)
   177ce:	865e                	c.mv	a2,s7
   177d0:	854a                	c.mv	a0,s2
   177d2:	9782                	c.jalr	a5
   177d4:	84aa                	c.mv	s1,a0
   177d6:	dca04de3          	blt	zero,a0,175b0 <__sfvwrite_r+0xa4>
   177da:	bdd9                	c.j	176b0 <__sfvwrite_r+0x1a4>
   177dc:	8662                	c.mv	a2,s8
   177de:	85de                	c.mv	a1,s7
   177e0:	7d4010ef          	jal	ra,18fb4 <memmove>
   177e4:	445c                	c.lw	a5,12(s0)
   177e6:	84e2                	c.mv	s1,s8
   177e8:	418787bb          	subw	a5,a5,s8
   177ec:	c45c                	c.sw	a5,12(s0)
   177ee:	601c                	c.ld	a5,0(s0)
   177f0:	97e2                	c.add	a5,s8
   177f2:	e01c                	c.sd	a5,0(s0)
   177f4:	bb75                	c.j	175b0 <__sfvwrite_r+0xa4>

00000000000177f6 <_isatty_r>:
   177f6:	1101                	c.addi	sp,-32
   177f8:	e822                	c.sdsp	s0,16(sp)
   177fa:	e426                	c.sdsp	s1,8(sp)
   177fc:	84aa                	c.mv	s1,a0
   177fe:	852e                	c.mv	a0,a1
   17800:	ec06                	c.sdsp	ra,24(sp)
   17802:	8e01ac23          	sw	zero,-1800(gp) # 2b578 <errno>
   17806:	346050ef          	jal	ra,1cb4c <_isatty>
   1780a:	57fd                	c.li	a5,-1
   1780c:	00f51663          	bne	a0,a5,17818 <_isatty_r+0x22>
   17810:	8f81a783          	lw	a5,-1800(gp) # 2b578 <errno>
   17814:	c391                	c.beqz	a5,17818 <_isatty_r+0x22>
   17816:	c09c                	c.sw	a5,0(s1)
   17818:	60e2                	c.ldsp	ra,24(sp)
   1781a:	6442                	c.ldsp	s0,16(sp)
   1781c:	64a2                	c.ldsp	s1,8(sp)
   1781e:	6105                	c.addi16sp	sp,32
   17820:	8082                	c.jr	ra

0000000000017822 <eclear>:
   17822:	01450793          	addi	a5,a0,20
   17826:	0509                	c.addi	a0,2
   17828:	fe051f23          	sh	zero,-2(a0)
   1782c:	fef51de3          	bne	a0,a5,17826 <eclear+0x4>
   17830:	8082                	c.jr	ra

0000000000017832 <emov>:
   17832:	01450793          	addi	a5,a0,20
   17836:	0509                	c.addi	a0,2
   17838:	ffe55703          	lhu	a4,-2(a0)
   1783c:	0589                	c.addi	a1,2
   1783e:	fee59f23          	sh	a4,-2(a1)
   17842:	fea79ae3          	bne	a5,a0,17836 <emov+0x4>
   17846:	8082                	c.jr	ra

0000000000017848 <ecleaz>:
   17848:	01a50793          	addi	a5,a0,26
   1784c:	0509                	c.addi	a0,2
   1784e:	fe051f23          	sh	zero,-2(a0)
   17852:	fef51de3          	bne	a0,a5,1784c <ecleaz+0x4>
   17856:	8082                	c.jr	ra

0000000000017858 <emovz>:
   17858:	01850713          	addi	a4,a0,24
   1785c:	87ae                	c.mv	a5,a1
   1785e:	0509                	c.addi	a0,2
   17860:	ffe55683          	lhu	a3,-2(a0)
   17864:	0789                	c.addi	a5,2
   17866:	fed79f23          	sh	a3,-2(a5)
   1786a:	fea71ae3          	bne	a4,a0,1785e <emovz+0x6>
   1786e:	00059c23          	sh	zero,24(a1)
   17872:	8082                	c.jr	ra

0000000000017874 <ecmpm>:
   17874:	00450793          	addi	a5,a0,4
   17878:	0591                	c.addi	a1,4
   1787a:	0569                	c.addi	a0,26
   1787c:	0789                	c.addi	a5,2
   1787e:	0589                	c.addi	a1,2
   17880:	ffe7d683          	lhu	a3,-2(a5)
   17884:	ffe5d703          	lhu	a4,-2(a1)
   17888:	00e69663          	bne	a3,a4,17894 <ecmpm+0x20>
   1788c:	fef518e3          	bne	a0,a5,1787c <ecmpm+0x8>
   17890:	4501                	c.li	a0,0
   17892:	8082                	c.jr	ra
   17894:	4505                	c.li	a0,1
   17896:	00d76363          	bltu	a4,a3,1789c <ecmpm+0x28>
   1789a:	557d                	c.li	a0,-1
   1789c:	8082                	c.jr	ra

000000000001789e <eshdn1>:
   1789e:	00450693          	addi	a3,a0,4
   178a2:	4781                	c.li	a5,0
   178a4:	0569                	c.addi	a0,26
   178a6:	7661                	c.lui	a2,0xffff8
   178a8:	0006d703          	lhu	a4,0(a3)
   178ac:	00177593          	andi	a1,a4,1
   178b0:	c199                	c.beqz	a1,178b6 <eshdn1+0x18>
   178b2:	0017e793          	ori	a5,a5,1
   178b6:	0027f593          	andi	a1,a5,2
   178ba:	8305                	c.srli	a4,0x1
   178bc:	e999                	c.bnez	a1,178d2 <eshdn1+0x34>
   178be:	0017979b          	slliw	a5,a5,0x1
   178c2:	00e69023          	sh	a4,0(a3)
   178c6:	17c2                	c.slli	a5,0x30
   178c8:	0689                	c.addi	a3,2
   178ca:	93c1                	c.srli	a5,0x30
   178cc:	fcd51ee3          	bne	a0,a3,178a8 <eshdn1+0xa>
   178d0:	8082                	c.jr	ra
   178d2:	8f51                	c.or	a4,a2
   178d4:	b7ed                	c.j	178be <eshdn1+0x20>

00000000000178d6 <eshup1>:
   178d6:	01650693          	addi	a3,a0,22
   178da:	4701                	c.li	a4,0
   178dc:	0026d783          	lhu	a5,2(a3)
   178e0:	0107961b          	slliw	a2,a5,0x10
   178e4:	4106561b          	sraiw	a2,a2,0x10
   178e8:	00065463          	bge	a2,zero,178f0 <eshup1+0x1a>
   178ec:	00176713          	ori	a4,a4,1
   178f0:	0017979b          	slliw	a5,a5,0x1
   178f4:	17c2                	c.slli	a5,0x30
   178f6:	00277613          	andi	a2,a4,2
   178fa:	93c1                	c.srli	a5,0x30
   178fc:	ea19                	c.bnez	a2,17912 <eshup1+0x3c>
   178fe:	0017171b          	slliw	a4,a4,0x1
   17902:	00f69123          	sh	a5,2(a3)
   17906:	1742                	c.slli	a4,0x30
   17908:	16f9                	c.addi	a3,-2
   1790a:	9341                	c.srli	a4,0x30
   1790c:	fcd518e3          	bne	a0,a3,178dc <eshup1+0x6>
   17910:	8082                	c.jr	ra
   17912:	0017e793          	ori	a5,a5,1
   17916:	b7e5                	c.j	178fe <eshup1+0x28>

0000000000017918 <eshdn8>:
   17918:	00450793          	addi	a5,a0,4
   1791c:	4701                	c.li	a4,0
   1791e:	0569                	c.addi	a0,26
   17920:	0007d683          	lhu	a3,0(a5)
   17924:	0789                	c.addi	a5,2
   17926:	0086d61b          	srliw	a2,a3,0x8
   1792a:	8f51                	c.or	a4,a2
   1792c:	fee79f23          	sh	a4,-2(a5)
   17930:	0086971b          	slliw	a4,a3,0x8
   17934:	1742                	c.slli	a4,0x30
   17936:	9341                	c.srli	a4,0x30
   17938:	fef514e3          	bne	a0,a5,17920 <eshdn8+0x8>
   1793c:	8082                	c.jr	ra

000000000001793e <eshup8>:
   1793e:	01650793          	addi	a5,a0,22
   17942:	4701                	c.li	a4,0
   17944:	0027d683          	lhu	a3,2(a5)
   17948:	17f9                	c.addi	a5,-2
   1794a:	00869613          	slli	a2,a3,0x8
   1794e:	8f51                	c.or	a4,a2
   17950:	00e79223          	sh	a4,4(a5)
   17954:	0086d713          	srli	a4,a3,0x8
   17958:	fef516e3          	bne	a0,a5,17944 <eshup8+0x6>
   1795c:	8082                	c.jr	ra

000000000001795e <eshup6>:
   1795e:	00450793          	addi	a5,a0,4
   17962:	01850713          	addi	a4,a0,24
   17966:	0789                	c.addi	a5,2
   17968:	0007d683          	lhu	a3,0(a5)
   1796c:	fed79f23          	sh	a3,-2(a5)
   17970:	fef71be3          	bne	a4,a5,17966 <eshup6+0x8>
   17974:	00051c23          	sh	zero,24(a0)
   17978:	8082                	c.jr	ra

000000000001797a <eshdn6>:
   1797a:	01850793          	addi	a5,a0,24
   1797e:	01a50713          	addi	a4,a0,26
   17982:	00450693          	addi	a3,a0,4
   17986:	17f9                	c.addi	a5,-2
   17988:	0007d603          	lhu	a2,0(a5)
   1798c:	1779                	c.addi	a4,-2
   1798e:	00c71023          	sh	a2,0(a4)
   17992:	fef69ae3          	bne	a3,a5,17986 <eshdn6+0xc>
   17996:	00051223          	sh	zero,4(a0)
   1799a:	8082                	c.jr	ra

000000000001799c <eaddm>:
   1799c:	05e1                	c.addi	a1,24
   1799e:	01650713          	addi	a4,a0,22
   179a2:	4681                	c.li	a3,0
   179a4:	0005d783          	lhu	a5,0(a1)
   179a8:	1779                	c.addi	a4,-2
   179aa:	15f9                	c.addi	a1,-2
   179ac:	97b6                	c.add	a5,a3
   179ae:	00475683          	lhu	a3,4(a4)
   179b2:	97b6                	c.add	a5,a3
   179b4:	00f59123          	sh	a5,2(a1)
   179b8:	83c1                	c.srli	a5,0x10
   179ba:	0017f693          	andi	a3,a5,1
   179be:	fee513e3          	bne	a0,a4,179a4 <eaddm+0x8>
   179c2:	8082                	c.jr	ra

00000000000179c4 <esubm>:
   179c4:	05e1                	c.addi	a1,24
   179c6:	01650713          	addi	a4,a0,22
   179ca:	4681                	c.li	a3,0
   179cc:	0005d783          	lhu	a5,0(a1)
   179d0:	00275603          	lhu	a2,2(a4)
   179d4:	1779                	c.addi	a4,-2
   179d6:	15f9                	c.addi	a1,-2
   179d8:	8f91                	c.sub	a5,a2
   179da:	8f95                	c.sub	a5,a3
   179dc:	00f59123          	sh	a5,2(a1)
   179e0:	83c1                	c.srli	a5,0x10
   179e2:	0017f693          	andi	a3,a5,1
   179e6:	fee513e3          	bne	a0,a4,179cc <esubm+0x8>
   179ea:	8082                	c.jr	ra

00000000000179ec <m16m>:
   179ec:	1101                	c.addi	sp,-32
   179ee:	6341                	c.lui	t1,0x10
   179f0:	01858893          	addi	a7,a1,24
   179f4:	00011b23          	sh	zero,22(sp)
   179f8:	00011c23          	sh	zero,24(sp)
   179fc:	0591                	c.addi	a1,4
   179fe:	0834                	c.addi4spn	a3,sp,24
   17a00:	137d                	c.addi	t1,-1
   17a02:	0008d703          	lhu	a4,0(a7)
   17a06:	16f9                	c.addi	a3,-2
   17a08:	18f9                	c.addi	a7,-2
   17a0a:	e705                	c.bnez	a4,17a32 <m16m+0x46>
   17a0c:	fe069f23          	sh	zero,-2(a3)
   17a10:	ff1599e3          	bne	a1,a7,17a02 <m16m+0x16>
   17a14:	4791                	c.li	a5,4
   17a16:	4769                	c.li	a4,26
   17a18:	00f105b3          	add	a1,sp,a5
   17a1c:	0005d583          	lhu	a1,0(a1)
   17a20:	00f606b3          	add	a3,a2,a5
   17a24:	0789                	c.addi	a5,2
   17a26:	00b69023          	sh	a1,0(a3)
   17a2a:	fee797e3          	bne	a5,a4,17a18 <m16m+0x2c>
   17a2e:	6105                	c.addi16sp	sp,32
   17a30:	8082                	c.jr	ra
   17a32:	02a70733          	mul	a4,a4,a0
   17a36:	0026d803          	lhu	a6,2(a3)
   17a3a:	006777b3          	and	a5,a4,t1
   17a3e:	97c2                	c.add	a5,a6
   17a40:	0107d813          	srli	a6,a5,0x10
   17a44:	00f69123          	sh	a5,2(a3)
   17a48:	01075793          	srli	a5,a4,0x10
   17a4c:	0006d703          	lhu	a4,0(a3)
   17a50:	97ba                	c.add	a5,a4
   17a52:	97c2                	c.add	a5,a6
   17a54:	00f69023          	sh	a5,0(a3)
   17a58:	83c1                	c.srli	a5,0x10
   17a5a:	fef69f23          	sh	a5,-2(a3)
   17a5e:	bf4d                	c.j	17a10 <m16m+0x24>

0000000000017a60 <eisnan>:
   17a60:	01255783          	lhu	a5,18(a0)
   17a64:	fff7c793          	xori	a5,a5,-1
   17a68:	03179713          	slli	a4,a5,0x31
   17a6c:	eb09                	c.bnez	a4,17a7e <eisnan+0x1e>
   17a6e:	01250793          	addi	a5,a0,18
   17a72:	0509                	c.addi	a0,2
   17a74:	ffe55703          	lhu	a4,-2(a0)
   17a78:	e709                	c.bnez	a4,17a82 <eisnan+0x22>
   17a7a:	fea79ce3          	bne	a5,a0,17a72 <eisnan+0x12>
   17a7e:	4501                	c.li	a0,0
   17a80:	8082                	c.jr	ra
   17a82:	4505                	c.li	a0,1
   17a84:	8082                	c.jr	ra

0000000000017a86 <eisneg>:
   17a86:	1141                	c.addi	sp,-16
   17a88:	e022                	c.sdsp	s0,0(sp)
   17a8a:	e406                	c.sdsp	ra,8(sp)
   17a8c:	842a                	c.mv	s0,a0
   17a8e:	fd3ff0ef          	jal	ra,17a60 <eisnan>
   17a92:	e901                	c.bnez	a0,17aa2 <eisneg+0x1c>
   17a94:	01344503          	lbu	a0,19(s0)
   17a98:	811d                	c.srli	a0,0x7
   17a9a:	60a2                	c.ldsp	ra,8(sp)
   17a9c:	6402                	c.ldsp	s0,0(sp)
   17a9e:	0141                	c.addi	sp,16
   17aa0:	8082                	c.jr	ra
   17aa2:	4501                	c.li	a0,0
   17aa4:	bfdd                	c.j	17a9a <eisneg+0x14>

0000000000017aa6 <emovi>:
   17aa6:	01251783          	lh	a5,18(a0)
   17aaa:	1101                	c.addi	sp,-32
   17aac:	ec06                	c.sdsp	ra,24(sp)
   17aae:	e822                	c.sdsp	s0,16(sp)
   17ab0:	e426                	c.sdsp	s1,8(sp)
   17ab2:	e04a                	c.sdsp	s2,0(sp)
   17ab4:	0407d963          	bge	a5,zero,17b06 <emovi+0x60>
   17ab8:	57fd                	c.li	a5,-1
   17aba:	00f59023          	sh	a5,0(a1)
   17abe:	01255703          	lhu	a4,18(a0)
   17ac2:	67a1                	c.lui	a5,0x8
   17ac4:	17fd                	c.addi	a5,-1
   17ac6:	8f7d                	c.and	a4,a5
   17ac8:	00e59123          	sh	a4,2(a1)
   17acc:	01050913          	addi	s2,a0,16
   17ad0:	04f71863          	bne	a4,a5,17b20 <emovi+0x7a>
   17ad4:	842e                	c.mv	s0,a1
   17ad6:	84aa                	c.mv	s1,a0
   17ad8:	f89ff0ef          	jal	ra,17a60 <eisnan>
   17adc:	c905                	c.beqz	a0,17b0c <emovi+0x66>
   17ade:	00640793          	addi	a5,s0,6
   17ae2:	00041223          	sh	zero,4(s0)
   17ae6:	ffc48513          	addi	a0,s1,-4
   17aea:	1979                	c.addi	s2,-2
   17aec:	00295703          	lhu	a4,2(s2)
   17af0:	0789                	c.addi	a5,2
   17af2:	fee79f23          	sh	a4,-2(a5) # 7ffe <main-0x80b2>
   17af6:	fea91ae3          	bne	s2,a0,17aea <emovi+0x44>
   17afa:	60e2                	c.ldsp	ra,24(sp)
   17afc:	6442                	c.ldsp	s0,16(sp)
   17afe:	64a2                	c.ldsp	s1,8(sp)
   17b00:	6902                	c.ldsp	s2,0(sp)
   17b02:	6105                	c.addi16sp	sp,32
   17b04:	8082                	c.jr	ra
   17b06:	00059023          	sh	zero,0(a1)
   17b0a:	bf55                	c.j	17abe <emovi+0x18>
   17b0c:	00440793          	addi	a5,s0,4
   17b10:	01a40593          	addi	a1,s0,26
   17b14:	0789                	c.addi	a5,2
   17b16:	fe079f23          	sh	zero,-2(a5)
   17b1a:	feb79de3          	bne	a5,a1,17b14 <emovi+0x6e>
   17b1e:	bff1                	c.j	17afa <emovi+0x54>
   17b20:	00658793          	addi	a5,a1,6
   17b24:	00059223          	sh	zero,4(a1)
   17b28:	1579                	c.addi	a0,-2
   17b2a:	1979                	c.addi	s2,-2
   17b2c:	00295703          	lhu	a4,2(s2)
   17b30:	0789                	c.addi	a5,2
   17b32:	fee79f23          	sh	a4,-2(a5)
   17b36:	fea91ae3          	bne	s2,a0,17b2a <emovi+0x84>
   17b3a:	00059c23          	sh	zero,24(a1)
   17b3e:	bf75                	c.j	17afa <emovi+0x54>

0000000000017b40 <ecmp>:
   17b40:	711d                	c.addi16sp	sp,-96
   17b42:	e4a6                	c.sdsp	s1,72(sp)
   17b44:	e0ca                	c.sdsp	s2,64(sp)
   17b46:	ec86                	c.sdsp	ra,88(sp)
   17b48:	e8a2                	c.sdsp	s0,80(sp)
   17b4a:	892a                	c.mv	s2,a0
   17b4c:	84ae                	c.mv	s1,a1
   17b4e:	f13ff0ef          	jal	ra,17a60 <eisnan>
   17b52:	e559                	c.bnez	a0,17be0 <ecmp+0xa0>
   17b54:	8526                	c.mv	a0,s1
   17b56:	f0bff0ef          	jal	ra,17a60 <eisnan>
   17b5a:	842a                	c.mv	s0,a0
   17b5c:	e151                	c.bnez	a0,17be0 <ecmp+0xa0>
   17b5e:	858a                	c.mv	a1,sp
   17b60:	854a                	c.mv	a0,s2
   17b62:	f45ff0ef          	jal	ra,17aa6 <emovi>
   17b66:	100c                	c.addi4spn	a1,sp,32
   17b68:	8526                	c.mv	a0,s1
   17b6a:	f3dff0ef          	jal	ra,17aa6 <emovi>
   17b6e:	00015703          	lhu	a4,0(sp)
   17b72:	02015783          	lhu	a5,32(sp)
   17b76:	02e78c63          	beq	a5,a4,17bae <ecmp+0x6e>
   17b7a:	4789                	c.li	a5,2
   17b7c:	46e1                	c.li	a3,24
   17b7e:	00f10633          	add	a2,sp,a5
   17b82:	00065603          	lhu	a2,0(a2) # ffffffffffff8000 <__global_pointer$+0xfffffffffffcc380>
   17b86:	e205                	c.bnez	a2,17ba6 <ecmp+0x66>
   17b88:	1010                	c.addi4spn	a2,sp,32
   17b8a:	963e                	c.add	a2,a5
   17b8c:	00065603          	lhu	a2,0(a2)
   17b90:	ea19                	c.bnez	a2,17ba6 <ecmp+0x66>
   17b92:	0789                	c.addi	a5,2
   17b94:	fed795e3          	bne	a5,a3,17b7e <ecmp+0x3e>
   17b98:	8522                	c.mv	a0,s0
   17b9a:	60e6                	c.ldsp	ra,88(sp)
   17b9c:	6446                	c.ldsp	s0,80(sp)
   17b9e:	64a6                	c.ldsp	s1,72(sp)
   17ba0:	6906                	c.ldsp	s2,64(sp)
   17ba2:	6125                	c.addi16sp	sp,96
   17ba4:	8082                	c.jr	ra
   17ba6:	4405                	c.li	s0,1
   17ba8:	db65                	c.beqz	a4,17b98 <ecmp+0x58>
   17baa:	547d                	c.li	s0,-1
   17bac:	b7f5                	c.j	17b98 <ecmp+0x58>
   17bae:	4605                	c.li	a2,1
   17bb0:	c311                	c.beqz	a4,17bb4 <ecmp+0x74>
   17bb2:	567d                	c.li	a2,-1
   17bb4:	4781                	c.li	a5,0
   17bb6:	45e1                	c.li	a1,24
   17bb8:	00f10733          	add	a4,sp,a5
   17bbc:	00075683          	lhu	a3,0(a4)
   17bc0:	1018                	c.addi4spn	a4,sp,32
   17bc2:	973e                	c.add	a4,a5
   17bc4:	00075703          	lhu	a4,0(a4)
   17bc8:	00e69663          	bne	a3,a4,17bd4 <ecmp+0x94>
   17bcc:	0789                	c.addi	a5,2
   17bce:	feb795e3          	bne	a5,a1,17bb8 <ecmp+0x78>
   17bd2:	b7d9                	c.j	17b98 <ecmp+0x58>
   17bd4:	8432                	c.mv	s0,a2
   17bd6:	fcd761e3          	bltu	a4,a3,17b98 <ecmp+0x58>
   17bda:	40c0043b          	subw	s0,zero,a2
   17bde:	bf6d                	c.j	17b98 <ecmp+0x58>
   17be0:	5479                	c.li	s0,-2
   17be2:	bf5d                	c.j	17b98 <ecmp+0x58>

0000000000017be4 <eisinf>:
   17be4:	01255783          	lhu	a5,18(a0)
   17be8:	fff7c793          	xori	a5,a5,-1
   17bec:	03179713          	slli	a4,a5,0x31
   17bf0:	eb11                	c.bnez	a4,17c04 <eisinf+0x20>
   17bf2:	1141                	c.addi	sp,-16
   17bf4:	e406                	c.sdsp	ra,8(sp)
   17bf6:	e6bff0ef          	jal	ra,17a60 <eisnan>
   17bfa:	60a2                	c.ldsp	ra,8(sp)
   17bfc:	00153513          	sltiu	a0,a0,1
   17c00:	0141                	c.addi	sp,16
   17c02:	8082                	c.jr	ra
   17c04:	4501                	c.li	a0,0
   17c06:	8082                	c.jr	ra

0000000000017c08 <einfin.isra.2>:
   17c08:	01250793          	addi	a5,a0,18
   17c0c:	0509                	c.addi	a0,2
   17c0e:	fe051f23          	sh	zero,-2(a0)
   17c12:	fef51de3          	bne	a0,a5,17c0c <einfin.isra.2+0x4>
   17c16:	00055783          	lhu	a5,0(a0)
   17c1a:	6721                	c.lui	a4,0x8
   17c1c:	177d                	c.addi	a4,-1
   17c1e:	8fd9                	c.or	a5,a4
   17c20:	00f51023          	sh	a5,0(a0)
   17c24:	8082                	c.jr	ra

0000000000017c26 <eshift.part.3>:
   17c26:	7139                	c.addi16sp	sp,-64
   17c28:	f822                	c.sdsp	s0,48(sp)
   17c2a:	ec4e                	c.sdsp	s3,24(sp)
   17c2c:	fc06                	c.sdsp	ra,56(sp)
   17c2e:	f426                	c.sdsp	s1,40(sp)
   17c30:	f04a                	c.sdsp	s2,32(sp)
   17c32:	e852                	c.sdsp	s4,16(sp)
   17c34:	e456                	c.sdsp	s5,8(sp)
   17c36:	89aa                	c.mv	s3,a0
   17c38:	842e                	c.mv	s0,a1
   17c3a:	0a05d963          	bge	a1,zero,17cec <eshift.part.3+0xc6>
   17c3e:	40b00a3b          	subw	s4,zero,a1
   17c42:	8952                	c.mv	s2,s4
   17c44:	4481                	c.li	s1,0
   17c46:	4abd                	c.li	s5,15
   17c48:	034ac763          	blt	s5,s4,17c76 <eshift.part.3+0x50>
   17c4c:	0049591b          	srliw	s2,s2,0x4
   17c50:	55c1                	c.li	a1,-16
   17c52:	02b905bb          	mulw	a1,s2,a1
   17c56:	4a1d                	c.li	s4,7
   17c58:	4085893b          	subw	s2,a1,s0
   17c5c:	844a                	c.mv	s0,s2
   17c5e:	032a4463          	blt	s4,s2,17c86 <eshift.part.3+0x60>
   17c62:	0034559b          	srliw	a1,s0,0x3
   17c66:	57e1                	c.li	a5,-8
   17c68:	02f585bb          	mulw	a1,a1,a5
   17c6c:	9c2d                	c.addw	s0,a1
   17c6e:	e405                	c.bnez	s0,17c96 <eshift.part.3+0x70>
   17c70:	00903533          	sltu	a0,zero,s1
   17c74:	a09d                	c.j	17cda <eshift.part.3+0xb4>
   17c76:	0189d783          	lhu	a5,24(s3)
   17c7a:	854e                	c.mv	a0,s3
   17c7c:	3a41                	c.addiw	s4,-16
   17c7e:	8cdd                	c.or	s1,a5
   17c80:	cfbff0ef          	jal	ra,1797a <eshdn6>
   17c84:	b7d1                	c.j	17c48 <eshift.part.3+0x22>
   17c86:	0189c783          	lbu	a5,24(s3)
   17c8a:	854e                	c.mv	a0,s3
   17c8c:	3961                	c.addiw	s2,-8
   17c8e:	8cdd                	c.or	s1,a5
   17c90:	c89ff0ef          	jal	ra,17918 <eshdn8>
   17c94:	b7e9                	c.j	17c5e <eshift.part.3+0x38>
   17c96:	0189d783          	lhu	a5,24(s3)
   17c9a:	854e                	c.mv	a0,s3
   17c9c:	347d                	c.addiw	s0,-1
   17c9e:	8b85                	c.andi	a5,1
   17ca0:	8cdd                	c.or	s1,a5
   17ca2:	bfdff0ef          	jal	ra,1789e <eshdn1>
   17ca6:	b7e1                	c.j	17c6e <eshift.part.3+0x48>
   17ca8:	854e                	c.mv	a0,s3
   17caa:	cb5ff0ef          	jal	ra,1795e <eshup6>
   17cae:	34c1                	c.addiw	s1,-16
   17cb0:	fe994ce3          	blt	s2,s1,17ca8 <eshift.part.3+0x82>
   17cb4:	0044559b          	srliw	a1,s0,0x4
   17cb8:	57c1                	c.li	a5,-16
   17cba:	02f585bb          	mulw	a1,a1,a5
   17cbe:	491d                	c.li	s2,7
   17cc0:	00b404bb          	addw	s1,s0,a1
   17cc4:	8426                	c.mv	s0,s1
   17cc6:	02994663          	blt	s2,s1,17cf2 <eshift.part.3+0xcc>
   17cca:	0034559b          	srliw	a1,s0,0x3
   17cce:	57e1                	c.li	a5,-8
   17cd0:	02f585bb          	mulw	a1,a1,a5
   17cd4:	9c2d                	c.addw	s0,a1
   17cd6:	e01d                	c.bnez	s0,17cfc <eshift.part.3+0xd6>
   17cd8:	4501                	c.li	a0,0
   17cda:	70e2                	c.ldsp	ra,56(sp)
   17cdc:	7442                	c.ldsp	s0,48(sp)
   17cde:	74a2                	c.ldsp	s1,40(sp)
   17ce0:	7902                	c.ldsp	s2,32(sp)
   17ce2:	69e2                	c.ldsp	s3,24(sp)
   17ce4:	6a42                	c.ldsp	s4,16(sp)
   17ce6:	6aa2                	c.ldsp	s5,8(sp)
   17ce8:	6121                	c.addi16sp	sp,64
   17cea:	8082                	c.jr	ra
   17cec:	84ae                	c.mv	s1,a1
   17cee:	493d                	c.li	s2,15
   17cf0:	b7c1                	c.j	17cb0 <eshift.part.3+0x8a>
   17cf2:	854e                	c.mv	a0,s3
   17cf4:	c4bff0ef          	jal	ra,1793e <eshup8>
   17cf8:	34e1                	c.addiw	s1,-8
   17cfa:	b7f1                	c.j	17cc6 <eshift.part.3+0xa0>
   17cfc:	854e                	c.mv	a0,s3
   17cfe:	bd9ff0ef          	jal	ra,178d6 <eshup1>
   17d02:	347d                	c.addiw	s0,-1
   17d04:	bfc9                	c.j	17cd6 <eshift.part.3+0xb0>

0000000000017d06 <enormlz>:
   17d06:	00455783          	lhu	a5,4(a0)
   17d0a:	1101                	c.addi	sp,-32
   17d0c:	e426                	c.sdsp	s1,8(sp)
   17d0e:	ec06                	c.sdsp	ra,24(sp)
   17d10:	e822                	c.sdsp	s0,16(sp)
   17d12:	e04a                	c.sdsp	s2,0(sp)
   17d14:	84aa                	c.mv	s1,a0
   17d16:	efb9                	c.bnez	a5,17d74 <enormlz+0x6e>
   17d18:	00651783          	lh	a5,6(a0)
   17d1c:	4401                	c.li	s0,0
   17d1e:	0a000913          	addi	s2,zero,160
   17d22:	0007df63          	bge	a5,zero,17d40 <enormlz+0x3a>
   17d26:	8522                	c.mv	a0,s0
   17d28:	60e2                	c.ldsp	ra,24(sp)
   17d2a:	6442                	c.ldsp	s0,16(sp)
   17d2c:	64a2                	c.ldsp	s1,8(sp)
   17d2e:	6902                	c.ldsp	s2,0(sp)
   17d30:	6105                	c.addi16sp	sp,32
   17d32:	8082                	c.jr	ra
   17d34:	8526                	c.mv	a0,s1
   17d36:	2441                	c.addiw	s0,16
   17d38:	c27ff0ef          	jal	ra,1795e <eshup6>
   17d3c:	ff2405e3          	beq	s0,s2,17d26 <enormlz+0x20>
   17d40:	0064d783          	lhu	a5,6(s1)
   17d44:	dbe5                	c.beqz	a5,17d34 <enormlz+0x2e>
   17d46:	0064d783          	lhu	a5,6(s1)
   17d4a:	f007f793          	andi	a5,a5,-256
   17d4e:	cf91                	c.beqz	a5,17d6a <enormlz+0x64>
   17d50:	0a000913          	addi	s2,zero,160
   17d54:	00649783          	lh	a5,6(s1)
   17d58:	fc07c7e3          	blt	a5,zero,17d26 <enormlz+0x20>
   17d5c:	8526                	c.mv	a0,s1
   17d5e:	2405                	c.addiw	s0,1
   17d60:	b77ff0ef          	jal	ra,178d6 <eshup1>
   17d64:	fe8958e3          	bge	s2,s0,17d54 <enormlz+0x4e>
   17d68:	bf7d                	c.j	17d26 <enormlz+0x20>
   17d6a:	8526                	c.mv	a0,s1
   17d6c:	bd3ff0ef          	jal	ra,1793e <eshup8>
   17d70:	2421                	c.addiw	s0,8
   17d72:	bfd1                	c.j	17d46 <enormlz+0x40>
   17d74:	f007f793          	andi	a5,a5,-256
   17d78:	4401                	c.li	s0,0
   17d7a:	c781                	c.beqz	a5,17d82 <enormlz+0x7c>
   17d7c:	b9dff0ef          	jal	ra,17918 <eshdn8>
   17d80:	5461                	c.li	s0,-8
   17d82:	f7000913          	addi	s2,zero,-144
   17d86:	a039                	c.j	17d94 <enormlz+0x8e>
   17d88:	8526                	c.mv	a0,s1
   17d8a:	347d                	c.addiw	s0,-1
   17d8c:	b13ff0ef          	jal	ra,1789e <eshdn1>
   17d90:	f9244be3          	blt	s0,s2,17d26 <enormlz+0x20>
   17d94:	0044d783          	lhu	a5,4(s1)
   17d98:	fbe5                	c.bnez	a5,17d88 <enormlz+0x82>
   17d9a:	b771                	c.j	17d26 <enormlz+0x20>

0000000000017d9c <enan.constprop.12>:
   17d9c:	01050793          	addi	a5,a0,16
   17da0:	0509                	c.addi	a0,2
   17da2:	fe051f23          	sh	zero,-2(a0)
   17da6:	fef51de3          	bne	a0,a5,17da0 <enan.constprop.12+0x4>
   17daa:	77f1                	c.lui	a5,0xffffc
   17dac:	00f51023          	sh	a5,0(a0)
   17db0:	77e1                	c.lui	a5,0xffff8
   17db2:	fff7c793          	xori	a5,a5,-1
   17db6:	00f51123          	sh	a5,2(a0)
   17dba:	8082                	c.jr	ra

0000000000017dbc <emovo.isra.6>:
   17dbc:	872a                	c.mv	a4,a0
   17dbe:	00075683          	lhu	a3,0(a4) # 8000 <main-0x80b0>
   17dc2:	852e                	c.mv	a0,a1
   17dc4:	00275783          	lhu	a5,2(a4)
   17dc8:	c299                	c.beqz	a3,17dce <emovo.isra.6+0x12>
   17dca:	76e1                	c.lui	a3,0xffff8
   17dcc:	8fd5                	c.or	a5,a3
   17dce:	00f51923          	sh	a5,18(a0)
   17dd2:	00275603          	lhu	a2,2(a4)
   17dd6:	66a1                	c.lui	a3,0x8
   17dd8:	16fd                	c.addi	a3,-1
   17dda:	00670793          	addi	a5,a4,6
   17dde:	00d61b63          	bne	a2,a3,17df4 <emovo.isra.6+0x38>
   17de2:	0769                	c.addi	a4,26
   17de4:	0007d683          	lhu	a3,0(a5) # ffffffffffff8000 <__global_pointer$+0xfffffffffffcc380>
   17de8:	e28d                	c.bnez	a3,17e0a <emovo.isra.6+0x4e>
   17dea:	0789                	c.addi	a5,2
   17dec:	fee79ce3          	bne	a5,a4,17de4 <emovo.isra.6+0x28>
   17df0:	e19ff06f          	jal	zero,17c08 <einfin.isra.2>
   17df4:	0541                	c.addi	a0,16
   17df6:	0761                	c.addi	a4,24
   17df8:	0789                	c.addi	a5,2
   17dfa:	ffe7d683          	lhu	a3,-2(a5)
   17dfe:	1579                	c.addi	a0,-2
   17e00:	00d51123          	sh	a3,2(a0)
   17e04:	fee79ae3          	bne	a5,a4,17df8 <emovo.isra.6+0x3c>
   17e08:	8082                	c.jr	ra
   17e0a:	f93ff06f          	jal	zero,17d9c <enan.constprop.12>

0000000000017e0e <e113toe.isra.8>:
   17e0e:	7139                	c.addi16sp	sp,-64
   17e10:	f426                	c.sdsp	s1,40(sp)
   17e12:	84aa                	c.mv	s1,a0
   17e14:	850a                	c.mv	a0,sp
   17e16:	f822                	c.sdsp	s0,48(sp)
   17e18:	fc06                	c.sdsp	ra,56(sp)
   17e1a:	842e                	c.mv	s0,a1
   17e1c:	a2dff0ef          	jal	ra,17848 <ecleaz>
   17e20:	00e4d703          	lhu	a4,14(s1)
   17e24:	0107179b          	slliw	a5,a4,0x10
   17e28:	4107d79b          	sraiw	a5,a5,0x10
   17e2c:	0207c763          	blt	a5,zero,17e5a <e113toe.isra.8+0x4c>
   17e30:	00011023          	sh	zero,0(sp)
   17e34:	66a1                	c.lui	a3,0x8
   17e36:	16fd                	c.addi	a3,-1
   17e38:	8f75                	c.and	a4,a3
   17e3a:	00e48793          	addi	a5,s1,14
   17e3e:	04d71a63          	bne	a4,a3,17e92 <e113toe.isra.8+0x84>
   17e42:	8726                	c.mv	a4,s1
   17e44:	00075683          	lhu	a3,0(a4)
   17e48:	ce89                	c.beqz	a3,17e62 <e113toe.isra.8+0x54>
   17e4a:	8522                	c.mv	a0,s0
   17e4c:	f51ff0ef          	jal	ra,17d9c <enan.constprop.12>
   17e50:	70e2                	c.ldsp	ra,56(sp)
   17e52:	7442                	c.ldsp	s0,48(sp)
   17e54:	74a2                	c.ldsp	s1,40(sp)
   17e56:	6121                	c.addi16sp	sp,64
   17e58:	8082                	c.jr	ra
   17e5a:	57fd                	c.li	a5,-1
   17e5c:	00f11023          	sh	a5,0(sp)
   17e60:	bfd1                	c.j	17e34 <e113toe.isra.8+0x26>
   17e62:	0709                	c.addi	a4,2
   17e64:	fee790e3          	bne	a5,a4,17e44 <e113toe.isra.8+0x36>
   17e68:	8522                	c.mv	a0,s0
   17e6a:	9b9ff0ef          	jal	ra,17822 <eclear>
   17e6e:	8522                	c.mv	a0,s0
   17e70:	d99ff0ef          	jal	ra,17c08 <einfin.isra.2>
   17e74:	00e49783          	lh	a5,14(s1)
   17e78:	fc07dce3          	bge	a5,zero,17e50 <e113toe.isra.8+0x42>
   17e7c:	8522                	c.mv	a0,s0
   17e7e:	be3ff0ef          	jal	ra,17a60 <eisnan>
   17e82:	f579                	c.bnez	a0,17e50 <e113toe.isra.8+0x42>
   17e84:	01245783          	lhu	a5,18(s0)
   17e88:	7761                	c.lui	a4,0xffff8
   17e8a:	8fb9                	c.xor	a5,a4
   17e8c:	00f41923          	sh	a5,18(s0)
   17e90:	b7c1                	c.j	17e50 <e113toe.isra.8+0x42>
   17e92:	00e11123          	sh	a4,2(sp)
   17e96:	868a                	c.mv	a3,sp
   17e98:	17f9                	c.addi	a5,-2
   17e9a:	0007d603          	lhu	a2,0(a5)
   17e9e:	0689                	c.addi	a3,2
   17ea0:	00c69223          	sh	a2,4(a3) # 8004 <main-0x80ac>
   17ea4:	fef49ae3          	bne	s1,a5,17e98 <e113toe.isra.8+0x8a>
   17ea8:	eb01                	c.bnez	a4,17eb8 <e113toe.isra.8+0xaa>
   17eaa:	00011223          	sh	zero,4(sp)
   17eae:	85a2                	c.mv	a1,s0
   17eb0:	850a                	c.mv	a0,sp
   17eb2:	f0bff0ef          	jal	ra,17dbc <emovo.isra.6>
   17eb6:	bf69                	c.j	17e50 <e113toe.isra.8+0x42>
   17eb8:	4785                	c.li	a5,1
   17eba:	55fd                	c.li	a1,-1
   17ebc:	850a                	c.mv	a0,sp
   17ebe:	00f11223          	sh	a5,4(sp)
   17ec2:	d65ff0ef          	jal	ra,17c26 <eshift.part.3>
   17ec6:	b7e5                	c.j	17eae <e113toe.isra.8+0xa0>

0000000000017ec8 <emdnorm>:
   17ec8:	7139                	c.addi16sp	sp,-64
   17eca:	f822                	c.sdsp	s0,48(sp)
   17ecc:	f426                	c.sdsp	s1,40(sp)
   17ece:	f04a                	c.sdsp	s2,32(sp)
   17ed0:	ec4e                	c.sdsp	s3,24(sp)
   17ed2:	e852                	c.sdsp	s4,16(sp)
   17ed4:	e456                	c.sdsp	s5,8(sp)
   17ed6:	8936                	c.mv	s2,a3
   17ed8:	843e                	c.mv	s0,a5
   17eda:	fc06                	c.sdsp	ra,56(sp)
   17edc:	84aa                	c.mv	s1,a0
   17ede:	89ae                	c.mv	s3,a1
   17ee0:	8a32                	c.mv	s4,a2
   17ee2:	8aba                	c.mv	s5,a4
   17ee4:	e23ff0ef          	jal	ra,17d06 <enormlz>
   17ee8:	09000793          	addi	a5,zero,144
   17eec:	40a90933          	sub	s2,s2,a0
   17ef0:	02a7d763          	bge	a5,a0,17f1e <emdnorm+0x56>
   17ef4:	67a1                	c.lui	a5,0x8
   17ef6:	17f9                	c.addi	a5,-2
   17ef8:	2327c663          	blt	a5,s2,18124 <emdnorm+0x25c>
   17efc:	00248793          	addi	a5,s1,2
   17f00:	04e9                	c.addi	s1,26
   17f02:	0789                	c.addi	a5,2
   17f04:	fe079f23          	sh	zero,-2(a5) # 7ffe <main-0x80b2>
   17f08:	fe979de3          	bne	a5,s1,17f02 <emdnorm+0x3a>
   17f0c:	70e2                	c.ldsp	ra,56(sp)
   17f0e:	7442                	c.ldsp	s0,48(sp)
   17f10:	74a2                	c.ldsp	s1,40(sp)
   17f12:	7902                	c.ldsp	s2,32(sp)
   17f14:	69e2                	c.ldsp	s3,24(sp)
   17f16:	6a42                	c.ldsp	s4,16(sp)
   17f18:	6aa2                	c.ldsp	s5,8(sp)
   17f1a:	6121                	c.addi16sp	sp,64
   17f1c:	8082                	c.jr	ra
   17f1e:	00095d63          	bge	s2,zero,17f38 <emdnorm+0x70>
   17f22:	f7000793          	addi	a5,zero,-144
   17f26:	0ef94a63          	blt	s2,a5,1801a <emdnorm+0x152>
   17f2a:	0009059b          	addiw	a1,s2,0
   17f2e:	8526                	c.mv	a0,s1
   17f30:	cf7ff0ef          	jal	ra,17c26 <eshift.part.3>
   17f34:	0e051c63          	bne	a0,zero,1802c <emdnorm+0x164>
   17f38:	1a0a8a63          	beq	s5,zero,180ec <emdnorm+0x224>
   17f3c:	4058                	c.lw	a4,4(s0)
   17f3e:	401c                	c.lw	a5,0(s0)
   17f40:	04f70863          	beq	a4,a5,17f90 <emdnorm+0xc8>
   17f44:	01a40513          	addi	a0,s0,26
   17f48:	901ff0ef          	jal	ra,17848 <ecleaz>
   17f4c:	405c                	c.lw	a5,4(s0)
   17f4e:	03800713          	addi	a4,zero,56
   17f52:	10e78d63          	beq	a5,a4,1806c <emdnorm+0x1a4>
   17f56:	0cf74d63          	blt	a4,a5,18030 <emdnorm+0x168>
   17f5a:	4761                	c.li	a4,24
   17f5c:	12e78e63          	beq	a5,a4,18098 <emdnorm+0x1d0>
   17f60:	03500713          	addi	a4,zero,53
   17f64:	12e78163          	beq	a5,a4,18086 <emdnorm+0x1be>
   17f68:	80010737          	lui	a4,0x80010
   17f6c:	377d                	c.addiw	a4,-1
   17f6e:	c858                	c.sw	a4,20(s0)
   17f70:	4705                	c.li	a4,1
   17f72:	00e41c23          	sh	a4,24(s0)
   17f76:	472d                	c.li	a4,11
   17f78:	1702                	c.slli	a4,0x20
   17f7a:	0731                	c.addi	a4,12
   17f7c:	e418                	c.sd	a4,8(s0)
   17f7e:	4458                	c.lw	a4,12(s0)
   17f80:	01845683          	lhu	a3,24(s0)
   17f84:	0721                	c.addi	a4,8
   17f86:	0706                	c.slli	a4,0x1
   17f88:	9722                	c.add	a4,s0
   17f8a:	00d71523          	sh	a3,10(a4) # ffffffff8001000a <__global_pointer$+0xffffffff7ffe438a>
   17f8e:	c01c                	c.sw	a5,0(s0)
   17f90:	01204f63          	blt	zero,s2,17fae <emdnorm+0xe6>
   17f94:	4058                	c.lw	a4,4(s0)
   17f96:	09000793          	addi	a5,zero,144
   17f9a:	00f70a63          	beq	a4,a5,17fae <emdnorm+0xe6>
   17f9e:	0184d783          	lhu	a5,24(s1)
   17fa2:	8526                	c.mv	a0,s1
   17fa4:	8b85                	c.andi	a5,1
   17fa6:	00f9e9b3          	or	s3,s3,a5
   17faa:	8f5ff0ef          	jal	ra,1789e <eshdn1>
   17fae:	4414                	c.lw	a3,8(s0)
   17fb0:	01445583          	lhu	a1,20(s0)
   17fb4:	4048                	c.lw	a0,4(s0)
   17fb6:	00169793          	slli	a5,a3,0x1
   17fba:	00f48633          	add	a2,s1,a5
   17fbe:	00065703          	lhu	a4,0(a2)
   17fc2:	8f6d                	c.and	a4,a1
   17fc4:	08f00593          	addi	a1,zero,143
   17fc8:	00a5c863          	blt	a1,a0,17fd8 <emdnorm+0x110>
   17fcc:	0789                	c.addi	a5,2
   17fce:	2685                	c.addiw	a3,1
   17fd0:	97a6                	c.add	a5,s1
   17fd2:	45b1                	c.li	a1,12
   17fd4:	0cd5df63          	bge	a1,a3,180b2 <emdnorm+0x1ea>
   17fd8:	01445783          	lhu	a5,20(s0)
   17fdc:	00065683          	lhu	a3,0(a2)
   17fe0:	fff7c793          	xori	a5,a5,-1
   17fe4:	8ff5                	c.and	a5,a3
   17fe6:	00f61023          	sh	a5,0(a2)
   17fea:	01645783          	lhu	a5,22(s0)
   17fee:	00e7f6b3          	and	a3,a5,a4
   17ff2:	cee1                	c.beqz	a3,180ca <emdnorm+0x202>
   17ff4:	00e79d63          	bne	a5,a4,1800e <emdnorm+0x146>
   17ff8:	0c099763          	bne	s3,zero,180c6 <emdnorm+0x1fe>
   17ffc:	445c                	c.lw	a5,12(s0)
   17ffe:	01845703          	lhu	a4,24(s0)
   18002:	0786                	c.slli	a5,0x1
   18004:	97a6                	c.add	a5,s1
   18006:	0007d783          	lhu	a5,0(a5)
   1800a:	8ff9                	c.and	a5,a4
   1800c:	cfdd                	c.beqz	a5,180ca <emdnorm+0x202>
   1800e:	85a6                	c.mv	a1,s1
   18010:	01a40513          	addi	a0,s0,26
   18014:	989ff0ef          	jal	ra,1799c <eaddm>
   18018:	a84d                	c.j	180ca <emdnorm+0x202>
   1801a:	00248793          	addi	a5,s1,2
   1801e:	04e9                	c.addi	s1,26
   18020:	0789                	c.addi	a5,2
   18022:	fe079f23          	sh	zero,-2(a5)
   18026:	fe979de3          	bne	a5,s1,18020 <emdnorm+0x158>
   1802a:	b5cd                	c.j	17f0c <emdnorm+0x44>
   1802c:	4985                	c.li	s3,1
   1802e:	b729                	c.j	17f38 <emdnorm+0x70>
   18030:	04000713          	addi	a4,zero,64
   18034:	02e78163          	beq	a5,a4,18056 <emdnorm+0x18e>
   18038:	07100713          	addi	a4,zero,113
   1803c:	f2e796e3          	bne	a5,a4,17f68 <emdnorm+0xa0>
   18040:	40008737          	lui	a4,0x40008
   18044:	377d                	c.addiw	a4,-1
   18046:	c858                	c.sw	a4,20(s0)
   18048:	7761                	c.lui	a4,0xffff8
   1804a:	00e41c23          	sh	a4,24(s0)
   1804e:	4729                	c.li	a4,10
   18050:	1702                	c.slli	a4,0x20
   18052:	0729                	c.addi	a4,10
   18054:	b725                	c.j	17f7c <emdnorm+0xb4>
   18056:	80010737          	lui	a4,0x80010
   1805a:	377d                	c.addiw	a4,-1
   1805c:	c858                	c.sw	a4,20(s0)
   1805e:	4705                	c.li	a4,1
   18060:	00e41c23          	sh	a4,24(s0)
   18064:	470d                	c.li	a4,3
   18066:	1706                	c.slli	a4,0x21
   18068:	071d                	c.addi	a4,7
   1806a:	bf09                	c.j	17f7c <emdnorm+0xb4>
   1806c:	00800737          	lui	a4,0x800
   18070:	0ff7071b          	addiw	a4,a4,255
   18074:	c858                	c.sw	a4,20(s0)
   18076:	10000713          	addi	a4,zero,256
   1807a:	00e41c23          	sh	a4,24(s0)
   1807e:	4719                	c.li	a4,6
   18080:	1702                	c.slli	a4,0x20
   18082:	0719                	c.addi	a4,6
   18084:	bde5                	c.j	17f7c <emdnorm+0xb4>
   18086:	04000737          	lui	a4,0x4000
   1808a:	7ff7071b          	addiw	a4,a4,2047
   1808e:	c858                	c.sw	a4,20(s0)
   18090:	6705                	c.lui	a4,0x1
   18092:	8007071b          	addiw	a4,a4,-2048
   18096:	b7d5                	c.j	1807a <emdnorm+0x1b2>
   18098:	00800737          	lui	a4,0x800
   1809c:	0ff7071b          	addiw	a4,a4,255
   180a0:	c858                	c.sw	a4,20(s0)
   180a2:	10000713          	addi	a4,zero,256
   180a6:	00e41c23          	sh	a4,24(s0)
   180aa:	4711                	c.li	a4,4
   180ac:	1702                	c.slli	a4,0x20
   180ae:	0711                	c.addi	a4,4
   180b0:	b5f1                	c.j	17f7c <emdnorm+0xb4>
   180b2:	0007d503          	lhu	a0,0(a5)
   180b6:	c119                	c.beqz	a0,180bc <emdnorm+0x1f4>
   180b8:	00176713          	ori	a4,a4,1
   180bc:	00079023          	sh	zero,0(a5)
   180c0:	2685                	c.addiw	a3,1
   180c2:	0789                	c.addi	a5,2
   180c4:	bf01                	c.j	17fd4 <emdnorm+0x10c>
   180c6:	f40a04e3          	beq	s4,zero,1800e <emdnorm+0x146>
   180ca:	01204a63          	blt	zero,s2,180de <emdnorm+0x216>
   180ce:	4058                	c.lw	a4,4(s0)
   180d0:	09000793          	addi	a5,zero,144
   180d4:	00f70563          	beq	a4,a5,180de <emdnorm+0x216>
   180d8:	8526                	c.mv	a0,s1
   180da:	ffcff0ef          	jal	ra,178d6 <eshup1>
   180de:	0044d783          	lhu	a5,4(s1)
   180e2:	c789                	c.beqz	a5,180ec <emdnorm+0x224>
   180e4:	8526                	c.mv	a0,s1
   180e6:	fb8ff0ef          	jal	ra,1789e <eshdn1>
   180ea:	0905                	c.addi	s2,1
   180ec:	67a1                	c.lui	a5,0x8
   180ee:	00049c23          	sh	zero,24(s1)
   180f2:	17f9                	c.addi	a5,-2
   180f4:	0327d063          	bge	a5,s2,18114 <emdnorm+0x24c>
   180f8:	77e1                	c.lui	a5,0xffff8
   180fa:	fff7c793          	xori	a5,a5,-1
   180fe:	00f49123          	sh	a5,2(s1)
   18102:	00448793          	addi	a5,s1,4
   18106:	04e1                	c.addi	s1,24
   18108:	00079023          	sh	zero,0(a5) # ffffffffffff8000 <__global_pointer$+0xfffffffffffcc380>
   1810c:	0789                	c.addi	a5,2
   1810e:	fef49de3          	bne	s1,a5,18108 <emdnorm+0x240>
   18112:	bbed                	c.j	17f0c <emdnorm+0x44>
   18114:	00095563          	bge	s2,zero,1811e <emdnorm+0x256>
   18118:	00049123          	sh	zero,2(s1)
   1811c:	bbc5                	c.j	17f0c <emdnorm+0x44>
   1811e:	01249123          	sh	s2,2(s1)
   18122:	b3ed                	c.j	17f0c <emdnorm+0x44>
   18124:	e00a9ce3          	bne	s5,zero,17f3c <emdnorm+0x74>
   18128:	00049c23          	sh	zero,24(s1)
   1812c:	b7f1                	c.j	180f8 <emdnorm+0x230>

000000000001812e <eiremain>:
   1812e:	7139                	c.addi16sp	sp,-64
   18130:	e852                	c.sdsp	s4,16(sp)
   18132:	00255a03          	lhu	s4,2(a0)
   18136:	f822                	c.sdsp	s0,48(sp)
   18138:	842e                	c.mv	s0,a1
   1813a:	fc06                	c.sdsp	ra,56(sp)
   1813c:	f426                	c.sdsp	s1,40(sp)
   1813e:	f04a                	c.sdsp	s2,32(sp)
   18140:	e456                	c.sdsp	s5,8(sp)
   18142:	e05a                	c.sdsp	s6,0(sp)
   18144:	8932                	c.mv	s2,a2
   18146:	03460b13          	addi	s6,a2,52
   1814a:	ec4e                	c.sdsp	s3,24(sp)
   1814c:	8aaa                	c.mv	s5,a0
   1814e:	bb9ff0ef          	jal	ra,17d06 <enormlz>
   18152:	00245483          	lhu	s1,2(s0)
   18156:	40aa0a33          	sub	s4,s4,a0
   1815a:	8522                	c.mv	a0,s0
   1815c:	babff0ef          	jal	ra,17d06 <enormlz>
   18160:	8c89                	c.sub	s1,a0
   18162:	855a                	c.mv	a0,s6
   18164:	ee4ff0ef          	jal	ra,17848 <ecleaz>
   18168:	0344d363          	bge	s1,s4,1818e <eiremain+0x60>
   1816c:	8522                	c.mv	a0,s0
   1816e:	7442                	c.ldsp	s0,48(sp)
   18170:	70e2                	c.ldsp	ra,56(sp)
   18172:	69e2                	c.ldsp	s3,24(sp)
   18174:	6a42                	c.ldsp	s4,16(sp)
   18176:	6aa2                	c.ldsp	s5,8(sp)
   18178:	6b02                	c.ldsp	s6,0(sp)
   1817a:	87ca                	c.mv	a5,s2
   1817c:	86a6                	c.mv	a3,s1
   1817e:	7902                	c.ldsp	s2,32(sp)
   18180:	74a2                	c.ldsp	s1,40(sp)
   18182:	4701                	c.li	a4,0
   18184:	4601                	c.li	a2,0
   18186:	4581                	c.li	a1,0
   18188:	6121                	c.addi16sp	sp,64
   1818a:	d3fff06f          	jal	zero,17ec8 <emdnorm>
   1818e:	85a2                	c.mv	a1,s0
   18190:	8556                	c.mv	a0,s5
   18192:	ee2ff0ef          	jal	ra,17874 <ecmpm>
   18196:	4981                	c.li	s3,0
   18198:	00a04763          	blt	zero,a0,181a6 <eiremain+0x78>
   1819c:	85a2                	c.mv	a1,s0
   1819e:	8556                	c.mv	a0,s5
   181a0:	825ff0ef          	jal	ra,179c4 <esubm>
   181a4:	4985                	c.li	s3,1
   181a6:	855a                	c.mv	a0,s6
   181a8:	f2eff0ef          	jal	ra,178d6 <eshup1>
   181ac:	04c95783          	lhu	a5,76(s2)
   181b0:	8522                	c.mv	a0,s0
   181b2:	14fd                	c.addi	s1,-1
   181b4:	00f9e9b3          	or	s3,s3,a5
   181b8:	05391623          	sh	s3,76(s2)
   181bc:	f1aff0ef          	jal	ra,178d6 <eshup1>
   181c0:	b765                	c.j	18168 <eiremain+0x3a>

00000000000181c2 <emul>:
   181c2:	7131                	c.addi16sp	sp,-192
   181c4:	f922                	c.sdsp	s0,176(sp)
   181c6:	f526                	c.sdsp	s1,168(sp)
   181c8:	f14a                	c.sdsp	s2,160(sp)
   181ca:	ed4e                	c.sdsp	s3,152(sp)
   181cc:	fd06                	c.sdsp	ra,184(sp)
   181ce:	e952                	c.sdsp	s4,144(sp)
   181d0:	e556                	c.sdsp	s5,136(sp)
   181d2:	e15a                	c.sdsp	s6,128(sp)
   181d4:	fcde                	c.sdsp	s7,120(sp)
   181d6:	f8e2                	c.sdsp	s8,112(sp)
   181d8:	f4e6                	c.sdsp	s9,104(sp)
   181da:	84aa                	c.mv	s1,a0
   181dc:	842e                	c.mv	s0,a1
   181de:	8932                	c.mv	s2,a2
   181e0:	89b6                	c.mv	s3,a3
   181e2:	87fff0ef          	jal	ra,17a60 <eisnan>
   181e6:	c115                	c.beqz	a0,1820a <emul+0x48>
   181e8:	85ca                	c.mv	a1,s2
   181ea:	8526                	c.mv	a0,s1
   181ec:	e46ff0ef          	jal	ra,17832 <emov>
   181f0:	70ea                	c.ldsp	ra,184(sp)
   181f2:	744a                	c.ldsp	s0,176(sp)
   181f4:	74aa                	c.ldsp	s1,168(sp)
   181f6:	790a                	c.ldsp	s2,160(sp)
   181f8:	69ea                	c.ldsp	s3,152(sp)
   181fa:	6a4a                	c.ldsp	s4,144(sp)
   181fc:	6aaa                	c.ldsp	s5,136(sp)
   181fe:	6b0a                	c.ldsp	s6,128(sp)
   18200:	7be6                	c.ldsp	s7,120(sp)
   18202:	7c46                	c.ldsp	s8,112(sp)
   18204:	7ca6                	c.ldsp	s9,104(sp)
   18206:	6129                	c.addi16sp	sp,192
   18208:	8082                	c.jr	ra
   1820a:	8522                	c.mv	a0,s0
   1820c:	855ff0ef          	jal	ra,17a60 <eisnan>
   18210:	c501                	c.beqz	a0,18218 <emul+0x56>
   18212:	85ca                	c.mv	a1,s2
   18214:	8522                	c.mv	a0,s0
   18216:	bfd9                	c.j	181ec <emul+0x2a>
   18218:	8526                	c.mv	a0,s1
   1821a:	9cbff0ef          	jal	ra,17be4 <eisinf>
   1821e:	e529                	c.bnez	a0,18268 <emul+0xa6>
   18220:	8522                	c.mv	a0,s0
   18222:	9c3ff0ef          	jal	ra,17be4 <eisinf>
   18226:	c909                	c.beqz	a0,18238 <emul+0x76>
   18228:	000295b7          	lui	a1,0x29
   1822c:	9b058593          	addi	a1,a1,-1616 # 289b0 <ezero>
   18230:	8526                	c.mv	a0,s1
   18232:	90fff0ef          	jal	ra,17b40 <ecmp>
   18236:	c129                	c.beqz	a0,18278 <emul+0xb6>
   18238:	8526                	c.mv	a0,s1
   1823a:	9abff0ef          	jal	ra,17be4 <eisinf>
   1823e:	e509                	c.bnez	a0,18248 <emul+0x86>
   18240:	8522                	c.mv	a0,s0
   18242:	9a3ff0ef          	jal	ra,17be4 <eisinf>
   18246:	c121                	c.beqz	a0,18286 <emul+0xc4>
   18248:	8526                	c.mv	a0,s1
   1824a:	83dff0ef          	jal	ra,17a86 <eisneg>
   1824e:	84aa                	c.mv	s1,a0
   18250:	8522                	c.mv	a0,s0
   18252:	835ff0ef          	jal	ra,17a86 <eisneg>
   18256:	02a48563          	beq	s1,a0,18280 <emul+0xbe>
   1825a:	77e1                	c.lui	a5,0xffff8
   1825c:	00f91923          	sh	a5,18(s2)
   18260:	854a                	c.mv	a0,s2
   18262:	9a7ff0ef          	jal	ra,17c08 <einfin.isra.2>
   18266:	b769                	c.j	181f0 <emul+0x2e>
   18268:	000295b7          	lui	a1,0x29
   1826c:	9b058593          	addi	a1,a1,-1616 # 289b0 <ezero>
   18270:	8522                	c.mv	a0,s0
   18272:	8cfff0ef          	jal	ra,17b40 <ecmp>
   18276:	f54d                	c.bnez	a0,18220 <emul+0x5e>
   18278:	854a                	c.mv	a0,s2
   1827a:	b23ff0ef          	jal	ra,17d9c <enan.constprop.12>
   1827e:	bf8d                	c.j	181f0 <emul+0x2e>
   18280:	00091923          	sh	zero,18(s2)
   18284:	bff1                	c.j	18260 <emul+0x9e>
   18286:	8526                	c.mv	a0,s1
   18288:	858a                	c.mv	a1,sp
   1828a:	81dff0ef          	jal	ra,17aa6 <emovi>
   1828e:	8522                	c.mv	a0,s0
   18290:	100c                	c.addi4spn	a1,sp,32
   18292:	815ff0ef          	jal	ra,17aa6 <emovi>
   18296:	00215403          	lhu	s0,2(sp)
   1829a:	02215483          	lhu	s1,34(sp)
   1829e:	ec09                	c.bnez	s0,182b8 <emul+0xf6>
   182a0:	4781                	c.li	a5,0
   182a2:	4759                	c.li	a4,22
   182a4:	00f106b3          	add	a3,sp,a5
   182a8:	0026d683          	lhu	a3,2(a3)
   182ac:	c6e9                	c.beqz	a3,18376 <emul+0x1b4>
   182ae:	850a                	c.mv	a0,sp
   182b0:	a57ff0ef          	jal	ra,17d06 <enormlz>
   182b4:	40a00433          	sub	s0,zero,a0
   182b8:	02215783          	lhu	a5,34(sp)
   182bc:	8c26                	c.mv	s8,s1
   182be:	ef81                	c.bnez	a5,182d6 <emul+0x114>
   182c0:	4759                	c.li	a4,22
   182c2:	1014                	c.addi4spn	a3,sp,32
   182c4:	96be                	c.add	a3,a5
   182c6:	0026d683          	lhu	a3,2(a3)
   182ca:	cecd                	c.beqz	a3,18384 <emul+0x1c2>
   182cc:	1008                	c.addi4spn	a0,sp,32
   182ce:	a39ff0ef          	jal	ra,17d06 <enormlz>
   182d2:	40a48c33          	sub	s8,s1,a0
   182d6:	02015783          	lhu	a5,32(sp)
   182da:	03498b93          	addi	s7,s3,52
   182de:	03898493          	addi	s1,s3,56
   182e2:	02f99a23          	sh	a5,52(s3)
   182e6:	02215783          	lhu	a5,34(sp)
   182ea:	8a5e                	c.mv	s4,s7
   182ec:	02f99b23          	sh	a5,54(s3)
   182f0:	04e98793          	addi	a5,s3,78
   182f4:	00049023          	sh	zero,0(s1)
   182f8:	0489                	c.addi	s1,2
   182fa:	fe979de3          	bne	a5,s1,182f4 <emul+0x132>
   182fe:	4a81                	c.li	s5,0
   18300:	4b01                	c.li	s6,0
   18302:	5cb1                	c.li	s9,-20
   18304:	015107b3          	add	a5,sp,s5
   18308:	0187d503          	lhu	a0,24(a5) # ffffffffffff8018 <__global_pointer$+0xfffffffffffcc398>
   1830c:	c909                	c.beqz	a0,1831e <emul+0x15c>
   1830e:	100c                	c.addi4spn	a1,sp,32
   18310:	0090                	c.addi4spn	a2,sp,64
   18312:	edaff0ef          	jal	ra,179ec <m16m>
   18316:	85de                	c.mv	a1,s7
   18318:	0088                	c.addi4spn	a0,sp,64
   1831a:	e82ff0ef          	jal	ra,1799c <eaddm>
   1831e:	04c9d783          	lhu	a5,76(s3)
   18322:	855e                	c.mv	a0,s7
   18324:	1af9                	c.addi	s5,-2
   18326:	00fb6b33          	or	s6,s6,a5
   1832a:	e50ff0ef          	jal	ra,1797a <eshdn6>
   1832e:	fd9a9be3          	bne	s5,s9,18304 <emul+0x142>
   18332:	101c                	c.addi4spn	a5,sp,32
   18334:	000a5703          	lhu	a4,0(s4)
   18338:	0a09                	c.addi	s4,2
   1833a:	0789                	c.addi	a5,2
   1833c:	fee79f23          	sh	a4,-2(a5)
   18340:	fe9a1ae3          	bne	s4,s1,18334 <emul+0x172>
   18344:	76f1                	c.lui	a3,0xffffc
   18346:	9462                	c.add	s0,s8
   18348:	0689                	c.addi	a3,2
   1834a:	87ce                	c.mv	a5,s3
   1834c:	04000713          	addi	a4,zero,64
   18350:	96a2                	c.add	a3,s0
   18352:	4601                	c.li	a2,0
   18354:	85da                	c.mv	a1,s6
   18356:	1008                	c.addi4spn	a0,sp,32
   18358:	b71ff0ef          	jal	ra,17ec8 <emdnorm>
   1835c:	00015703          	lhu	a4,0(sp)
   18360:	02015783          	lhu	a5,32(sp)
   18364:	02f71463          	bne	a4,a5,1838c <emul+0x1ca>
   18368:	02011023          	sh	zero,32(sp)
   1836c:	85ca                	c.mv	a1,s2
   1836e:	1008                	c.addi4spn	a0,sp,32
   18370:	a4dff0ef          	jal	ra,17dbc <emovo.isra.6>
   18374:	bdb5                	c.j	181f0 <emul+0x2e>
   18376:	0789                	c.addi	a5,2
   18378:	f2e796e3          	bne	a5,a4,182a4 <emul+0xe2>
   1837c:	854a                	c.mv	a0,s2
   1837e:	ca4ff0ef          	jal	ra,17822 <eclear>
   18382:	b5bd                	c.j	181f0 <emul+0x2e>
   18384:	0789                	c.addi	a5,2
   18386:	f2e79ee3          	bne	a5,a4,182c2 <emul+0x100>
   1838a:	bfcd                	c.j	1837c <emul+0x1ba>
   1838c:	57fd                	c.li	a5,-1
   1838e:	02f11023          	sh	a5,32(sp)
   18392:	bfe9                	c.j	1836c <emul+0x1aa>

0000000000018394 <ediv>:
   18394:	7131                	c.addi16sp	sp,-192
   18396:	f922                	c.sdsp	s0,176(sp)
   18398:	f526                	c.sdsp	s1,168(sp)
   1839a:	f14a                	c.sdsp	s2,160(sp)
   1839c:	e556                	c.sdsp	s5,136(sp)
   1839e:	fd06                	c.sdsp	ra,184(sp)
   183a0:	ed4e                	c.sdsp	s3,152(sp)
   183a2:	e952                	c.sdsp	s4,144(sp)
   183a4:	e15a                	c.sdsp	s6,128(sp)
   183a6:	fcde                	c.sdsp	s7,120(sp)
   183a8:	f8e2                	c.sdsp	s8,112(sp)
   183aa:	f4e6                	c.sdsp	s9,104(sp)
   183ac:	f0ea                	c.sdsp	s10,96(sp)
   183ae:	84aa                	c.mv	s1,a0
   183b0:	842e                	c.mv	s0,a1
   183b2:	8932                	c.mv	s2,a2
   183b4:	8ab6                	c.mv	s5,a3
   183b6:	eaaff0ef          	jal	ra,17a60 <eisnan>
   183ba:	c11d                	c.beqz	a0,183e0 <ediv+0x4c>
   183bc:	85ca                	c.mv	a1,s2
   183be:	8526                	c.mv	a0,s1
   183c0:	c72ff0ef          	jal	ra,17832 <emov>
   183c4:	70ea                	c.ldsp	ra,184(sp)
   183c6:	744a                	c.ldsp	s0,176(sp)
   183c8:	74aa                	c.ldsp	s1,168(sp)
   183ca:	790a                	c.ldsp	s2,160(sp)
   183cc:	69ea                	c.ldsp	s3,152(sp)
   183ce:	6a4a                	c.ldsp	s4,144(sp)
   183d0:	6aaa                	c.ldsp	s5,136(sp)
   183d2:	6b0a                	c.ldsp	s6,128(sp)
   183d4:	7be6                	c.ldsp	s7,120(sp)
   183d6:	7c46                	c.ldsp	s8,112(sp)
   183d8:	7ca6                	c.ldsp	s9,104(sp)
   183da:	7d06                	c.ldsp	s10,96(sp)
   183dc:	6129                	c.addi16sp	sp,192
   183de:	8082                	c.jr	ra
   183e0:	8522                	c.mv	a0,s0
   183e2:	e7eff0ef          	jal	ra,17a60 <eisnan>
   183e6:	c501                	c.beqz	a0,183ee <ediv+0x5a>
   183e8:	85ca                	c.mv	a1,s2
   183ea:	8522                	c.mv	a0,s0
   183ec:	bfd1                	c.j	183c0 <ediv+0x2c>
   183ee:	000299b7          	lui	s3,0x29
   183f2:	9b098593          	addi	a1,s3,-1616 # 289b0 <ezero>
   183f6:	8526                	c.mv	a0,s1
   183f8:	f48ff0ef          	jal	ra,17b40 <ecmp>
   183fc:	16050763          	beq	a0,zero,1856a <ediv+0x1d6>
   18400:	8526                	c.mv	a0,s1
   18402:	fe2ff0ef          	jal	ra,17be4 <eisinf>
   18406:	89aa                	c.mv	s3,a0
   18408:	8522                	c.mv	a0,s0
   1840a:	fdaff0ef          	jal	ra,17be4 <eisinf>
   1840e:	16099963          	bne	s3,zero,18580 <ediv+0x1ec>
   18412:	16051c63          	bne	a0,zero,1858a <ediv+0x1f6>
   18416:	8526                	c.mv	a0,s1
   18418:	858a                	c.mv	a1,sp
   1841a:	e8cff0ef          	jal	ra,17aa6 <emovi>
   1841e:	8522                	c.mv	a0,s0
   18420:	100c                	c.addi4spn	a1,sp,32
   18422:	e84ff0ef          	jal	ra,17aa6 <emovi>
   18426:	02215483          	lhu	s1,34(sp)
   1842a:	00215403          	lhu	s0,2(sp)
   1842e:	ec91                	c.bnez	s1,1844a <ediv+0xb6>
   18430:	4781                	c.li	a5,0
   18432:	4759                	c.li	a4,22
   18434:	1014                	c.addi4spn	a3,sp,32
   18436:	96be                	c.add	a3,a5
   18438:	0026d683          	lhu	a3,2(a3) # ffffffffffffc002 <__global_pointer$+0xfffffffffffd0382>
   1843c:	16068763          	beq	a3,zero,185aa <ediv+0x216>
   18440:	1008                	c.addi4spn	a0,sp,32
   18442:	8c5ff0ef          	jal	ra,17d06 <enormlz>
   18446:	40a004b3          	sub	s1,zero,a0
   1844a:	00215783          	lhu	a5,2(sp)
   1844e:	8ba2                	c.mv	s7,s0
   18450:	ef89                	c.bnez	a5,1846a <ediv+0xd6>
   18452:	4759                	c.li	a4,22
   18454:	00f106b3          	add	a3,sp,a5
   18458:	0026d683          	lhu	a3,2(a3)
   1845c:	14068b63          	beq	a3,zero,185b2 <ediv+0x21e>
   18460:	850a                	c.mv	a0,sp
   18462:	8a5ff0ef          	jal	ra,17d06 <enormlz>
   18466:	40a40bb3          	sub	s7,s0,a0
   1846a:	02015783          	lhu	a5,32(sp)
   1846e:	02215703          	lhu	a4,34(sp)
   18472:	034a8993          	addi	s3,s5,52
   18476:	02fa9a23          	sh	a5,52(s5)
   1847a:	038a8793          	addi	a5,s5,56
   1847e:	02ea9b23          	sh	a4,54(s5)
   18482:	8a3e                	c.mv	s4,a5
   18484:	04ea8713          	addi	a4,s5,78
   18488:	0789                	c.addi	a5,2
   1848a:	fe079f23          	sh	zero,-2(a5)
   1848e:	fee79de3          	bne	a5,a4,18488 <ediv+0xf4>
   18492:	1008                	c.addi4spn	a0,sp,32
   18494:	c0aff0ef          	jal	ra,1789e <eshdn1>
   18498:	00615c03          	lhu	s8,6(sp)
   1849c:	6b41                	c.lui	s6,0x10
   1849e:	1b7d                	c.addi	s6,-1
   184a0:	036c0d33          	mul	s10,s8,s6
   184a4:	01a98c93          	addi	s9,s3,26
   184a8:	02415783          	lhu	a5,36(sp)
   184ac:	02615403          	lhu	s0,38(sp)
   184b0:	07c2                	c.slli	a5,0x10
   184b2:	97a2                	c.add	a5,s0
   184b4:	845a                	c.mv	s0,s6
   184b6:	00fd6663          	bltu	s10,a5,184c2 <ediv+0x12e>
   184ba:	0387d433          	divu	s0,a5,s8
   184be:	1442                	c.slli	s0,0x30
   184c0:	9041                	c.srli	s0,0x30
   184c2:	858a                	c.mv	a1,sp
   184c4:	8522                	c.mv	a0,s0
   184c6:	0090                	c.addi4spn	a2,sp,64
   184c8:	d24ff0ef          	jal	ra,179ec <m16m>
   184cc:	100c                	c.addi4spn	a1,sp,32
   184ce:	0088                	c.addi4spn	a0,sp,64
   184d0:	ba4ff0ef          	jal	ra,17874 <ecmpm>
   184d4:	00a05f63          	bge	zero,a0,184f2 <ediv+0x15e>
   184d8:	008c                	c.addi4spn	a1,sp,64
   184da:	850a                	c.mv	a0,sp
   184dc:	ce8ff0ef          	jal	ra,179c4 <esubm>
   184e0:	100c                	c.addi4spn	a1,sp,32
   184e2:	0088                	c.addi4spn	a0,sp,64
   184e4:	b90ff0ef          	jal	ra,17874 <ecmpm>
   184e8:	0ea04163          	blt	zero,a0,185ca <ediv+0x236>
   184ec:	347d                	c.addiw	s0,-1
   184ee:	1442                	c.slli	s0,0x30
   184f0:	9041                	c.srli	s0,0x30
   184f2:	100c                	c.addi4spn	a1,sp,32
   184f4:	0088                	c.addi4spn	a0,sp,64
   184f6:	cceff0ef          	jal	ra,179c4 <esubm>
   184fa:	1008                	c.addi4spn	a0,sp,32
   184fc:	008a1023          	sh	s0,0(s4)
   18500:	0a09                	c.addi	s4,2
   18502:	c5cff0ef          	jal	ra,1795e <eshup6>
   18506:	fb9a11e3          	bne	s4,s9,184a8 <ediv+0x114>
   1850a:	4781                	c.li	a5,0
   1850c:	4581                	c.li	a1,0
   1850e:	4759                	c.li	a4,22
   18510:	1014                	c.addi4spn	a3,sp,32
   18512:	96be                	c.add	a3,a5
   18514:	0046d683          	lhu	a3,4(a3)
   18518:	0789                	c.addi	a5,2
   1851a:	8dd5                	c.or	a1,a3
   1851c:	fee79ae3          	bne	a5,a4,18510 <ediv+0x17c>
   18520:	2581                	c.addiw	a1,0
   18522:	00b035b3          	sltu	a1,zero,a1
   18526:	101c                	c.addi4spn	a5,sp,32
   18528:	0009d703          	lhu	a4,0(s3)
   1852c:	0989                	c.addi	s3,2
   1852e:	0789                	c.addi	a5,2
   18530:	fee79f23          	sh	a4,-2(a5)
   18534:	ff3a1ae3          	bne	s4,s3,18528 <ediv+0x194>
   18538:	6691                	c.lui	a3,0x4
   1853a:	417484b3          	sub	s1,s1,s7
   1853e:	16fd                	c.addi	a3,-1
   18540:	87d6                	c.mv	a5,s5
   18542:	04000713          	addi	a4,zero,64
   18546:	96a6                	c.add	a3,s1
   18548:	4601                	c.li	a2,0
   1854a:	1008                	c.addi4spn	a0,sp,32
   1854c:	97dff0ef          	jal	ra,17ec8 <emdnorm>
   18550:	00015703          	lhu	a4,0(sp)
   18554:	02015783          	lhu	a5,32(sp)
   18558:	08f71163          	bne	a4,a5,185da <ediv+0x246>
   1855c:	02011023          	sh	zero,32(sp)
   18560:	85ca                	c.mv	a1,s2
   18562:	1008                	c.addi4spn	a0,sp,32
   18564:	859ff0ef          	jal	ra,17dbc <emovo.isra.6>
   18568:	bdb1                	c.j	183c4 <ediv+0x30>
   1856a:	9b098593          	addi	a1,s3,-1616
   1856e:	8522                	c.mv	a0,s0
   18570:	dd0ff0ef          	jal	ra,17b40 <ecmp>
   18574:	e80516e3          	bne	a0,zero,18400 <ediv+0x6c>
   18578:	854a                	c.mv	a0,s2
   1857a:	823ff0ef          	jal	ra,17d9c <enan.constprop.12>
   1857e:	b599                	c.j	183c4 <ediv+0x30>
   18580:	fd65                	c.bnez	a0,18578 <ediv+0x1e4>
   18582:	854a                	c.mv	a0,s2
   18584:	a9eff0ef          	jal	ra,17822 <eclear>
   18588:	bd35                	c.j	183c4 <ediv+0x30>
   1858a:	8526                	c.mv	a0,s1
   1858c:	cfaff0ef          	jal	ra,17a86 <eisneg>
   18590:	84aa                	c.mv	s1,a0
   18592:	8522                	c.mv	a0,s0
   18594:	cf2ff0ef          	jal	ra,17a86 <eisneg>
   18598:	02a48663          	beq	s1,a0,185c4 <ediv+0x230>
   1859c:	77e1                	c.lui	a5,0xffff8
   1859e:	00f91923          	sh	a5,18(s2)
   185a2:	854a                	c.mv	a0,s2
   185a4:	e64ff0ef          	jal	ra,17c08 <einfin.isra.2>
   185a8:	bd31                	c.j	183c4 <ediv+0x30>
   185aa:	0789                	c.addi	a5,2
   185ac:	e8e794e3          	bne	a5,a4,18434 <ediv+0xa0>
   185b0:	bfc9                	c.j	18582 <ediv+0x1ee>
   185b2:	0789                	c.addi	a5,2
   185b4:	eae790e3          	bne	a5,a4,18454 <ediv+0xc0>
   185b8:	00015703          	lhu	a4,0(sp)
   185bc:	02015783          	lhu	a5,32(sp)
   185c0:	fcf71ee3          	bne	a4,a5,1859c <ediv+0x208>
   185c4:	00091923          	sh	zero,18(s2)
   185c8:	bfe9                	c.j	185a2 <ediv+0x20e>
   185ca:	3479                	c.addiw	s0,-2
   185cc:	1442                	c.slli	s0,0x30
   185ce:	008c                	c.addi4spn	a1,sp,64
   185d0:	850a                	c.mv	a0,sp
   185d2:	9041                	c.srli	s0,0x30
   185d4:	bf0ff0ef          	jal	ra,179c4 <esubm>
   185d8:	bf29                	c.j	184f2 <ediv+0x15e>
   185da:	57fd                	c.li	a5,-1
   185dc:	02f11023          	sh	a5,32(sp)
   185e0:	b741                	c.j	18560 <ediv+0x1cc>

00000000000185e2 <_ldtoa_r>:
   185e2:	db010113          	addi	sp,sp,-592
   185e6:	ffe6                	c.sdsp	s9,504(sp)
   185e8:	8cbe                	c.mv	s9,a5
   185ea:	09100793          	addi	a5,zero,145
   185ee:	e0ae                	c.sdsp	a1,64(sp)
   185f0:	1782                	c.slli	a5,0x20
   185f2:	712c                	c.ld	a1,96(a0)
   185f4:	17fd                	c.addi	a5,-1
   185f6:	24813023          	sd	s0,576(sp)
   185fa:	23413023          	sd	s4,544(sp)
   185fe:	21513c23          	sd	s5,536(sp)
   18602:	21713423          	sd	s7,520(sp)
   18606:	24113423          	sd	ra,584(sp)
   1860a:	22913c23          	sd	s1,568(sp)
   1860e:	23213823          	sd	s2,560(sp)
   18612:	23313423          	sd	s3,552(sp)
   18616:	21613823          	sd	s6,528(sp)
   1861a:	21813023          	sd	s8,512(sp)
   1861e:	fbea                	c.sdsp	s10,496(sp)
   18620:	f7ee                	c.sdsp	s11,488(sp)
   18622:	ec46                	c.sdsp	a7,24(sp)
   18624:	e4b2                	c.sdsp	a2,72(sp)
   18626:	eb3e                	c.sdsp	a5,400(sp)
   18628:	8a2a                	c.mv	s4,a0
   1862a:	8bb6                	c.mv	s7,a3
   1862c:	8aba                	c.mv	s5,a4
   1862e:	8442                	c.mv	s0,a6
   18630:	c999                	c.beqz	a1,18646 <_ldtoa_r+0x64>
   18632:	5538                	c.lw	a4,104(a0)
   18634:	4785                	c.li	a5,1
   18636:	00e797bb          	sllw	a5,a5,a4
   1863a:	c598                	c.sw	a4,8(a1)
   1863c:	c5dc                	c.sw	a5,12(a1)
   1863e:	219000ef          	jal	ra,19056 <_Bfree>
   18642:	060a3023          	sd	zero,96(s4)
   18646:	0088                	c.addi4spn	a0,sp,64
   18648:	188c                	c.addi4spn	a1,sp,112
   1864a:	fc4ff0ef          	jal	ra,17e0e <e113toe.isra.8>
   1864e:	1888                	c.addi4spn	a0,sp,112
   18650:	c36ff0ef          	jal	ra,17a86 <eisneg>
   18654:	cd4d                	c.beqz	a0,1870e <_ldtoa_r+0x12c>
   18656:	4785                	c.li	a5,1
   18658:	c01c                	c.sw	a5,0(s0)
   1865a:	478d                	c.li	a5,3
   1865c:	0afb8c63          	beq	s7,a5,18714 <_ldtoa_r+0x132>
   18660:	4951                	c.li	s2,20
   18662:	000b8c63          	beq	s7,zero,1867a <_ldtoa_r+0x98>
   18666:	fffa879b          	addiw	a5,s5,-1
   1866a:	02a00713          	addi	a4,zero,42
   1866e:	0007891b          	addiw	s2,a5,0
   18672:	00f75463          	bge	a4,a5,1867a <_ldtoa_r+0x98>
   18676:	02a00913          	addi	s2,zero,42
   1867a:	19412783          	lw	a5,404(sp)
   1867e:	1888                	c.addi4spn	a0,sp,112
   18680:	f03e                	c.sdsp	a5,32(sp)
   18682:	bdeff0ef          	jal	ra,17a60 <eisnan>
   18686:	842a                	c.mv	s0,a0
   18688:	c941                	c.beqz	a0,18718 <_ldtoa_r+0x136>
   1868a:	000295b7          	lui	a1,0x29
   1868e:	c1858593          	addi	a1,a1,-1000 # 28c18 <emtens+0x108>
   18692:	0a88                	c.addi4spn	a0,sp,336
   18694:	6409                	c.lui	s0,0x2
   18696:	02b010ef          	jal	ra,19ec0 <sprintf>
   1869a:	70f40413          	addi	s0,s0,1807 # 270f <main-0xd9a1>
   1869e:	5782                	c.lwsp	a5,32(sp)
   186a0:	1888                	c.addi4spn	a0,sp,112
   186a2:	1a812023          	sw	s0,416(sp)
   186a6:	18f12a23          	sw	a5,404(sp)
   186aa:	d3aff0ef          	jal	ra,17be4 <eisinf>
   186ae:	15010993          	addi	s3,sp,336
   186b2:	e511                	c.bnez	a0,186be <_ldtoa_r+0xdc>
   186b4:	1888                	c.addi4spn	a0,sp,112
   186b6:	baaff0ef          	jal	ra,17a60 <eisnan>
   186ba:	70050363          	beq	a0,zero,18dc0 <_ldtoa_r+0x7de>
   186be:	6789                	c.lui	a5,0x2
   186c0:	70f7879b          	addiw	a5,a5,1807
   186c4:	00fca023          	sw	a5,0(s9)
   186c8:	87ce                	c.mv	a5,s3
   186ca:	02000613          	addi	a2,zero,32
   186ce:	02d00693          	addi	a3,zero,45
   186d2:	0007c703          	lbu	a4,0(a5) # 2000 <main-0xe0b0>
   186d6:	72c70963          	beq	a4,a2,18e08 <_ldtoa_r+0x826>
   186da:	72d70763          	beq	a4,a3,18e08 <_ldtoa_r+0x826>
   186de:	844e                	c.mv	s0,s3
   186e0:	0785                	c.addi	a5,1
   186e2:	fff7c703          	lbu	a4,-1(a5)
   186e6:	00140693          	addi	a3,s0,1
   186ea:	fee68fa3          	sb	a4,-1(a3) # 3fff <main-0xc0b1>
   186ee:	72071063          	bne	a4,zero,18e0e <_ldtoa_r+0x82c>
   186f2:	4709                	c.li	a4,2
   186f4:	4785                	c.li	a5,1
   186f6:	00eb8863          	beq	s7,a4,18706 <_ldtoa_r+0x124>
   186fa:	1a012783          	lw	a5,416(sp)
   186fe:	0127d363          	bge	a5,s2,18704 <_ldtoa_r+0x122>
   18702:	87ca                	c.mv	a5,s2
   18704:	2781                	c.addiw	a5,0
   18706:	03000693          	addi	a3,zero,48
   1870a:	7100006f          	jal	zero,18e1a <_ldtoa_r+0x838>
   1870e:	00042023          	sw	zero,0(s0)
   18712:	b7a1                	c.j	1865a <_ldtoa_r+0x78>
   18714:	87d6                	c.mv	a5,s5
   18716:	bf91                	c.j	1866a <_ldtoa_r+0x88>
   18718:	09000793          	addi	a5,zero,144
   1871c:	090c                	c.addi4spn	a1,sp,144
   1871e:	1888                	c.addi4spn	a0,sp,112
   18720:	18f12a23          	sw	a5,404(sp)
   18724:	90eff0ef          	jal	ra,17832 <emov>
   18728:	0a215783          	lhu	a5,162(sp)
   1872c:	e402                	c.sdsp	zero,8(sp)
   1872e:	0107971b          	slliw	a4,a5,0x10
   18732:	4107571b          	sraiw	a4,a4,0x10
   18736:	00075a63          	bge	a4,zero,1874a <_ldtoa_r+0x168>
   1873a:	6721                	c.lui	a4,0x8
   1873c:	177d                	c.addi	a4,-1
   1873e:	8ff9                	c.and	a5,a4
   18740:	0af11123          	sh	a5,162(sp)
   18744:	67c1                	c.lui	a5,0x10
   18746:	17fd                	c.addi	a5,-1
   18748:	e43e                	c.sdsp	a5,8(sp)
   1874a:	00029b37          	lui	s6,0x29
   1874e:	9b0b0513          	addi	a0,s6,-1616 # 289b0 <ezero>
   18752:	190c                	c.addi4spn	a1,sp,176
   18754:	0561                	c.addi	a0,24
   18756:	8dcff0ef          	jal	ra,17832 <emov>
   1875a:	0a215703          	lhu	a4,162(sp)
   1875e:	000294b7          	lui	s1,0x29
   18762:	9b0b0993          	addi	s3,s6,-1616
   18766:	9c848493          	addi	s1,s1,-1592 # 289c8 <eone>
   1876a:	74071c63          	bne	a4,zero,18ec2 <_ldtoa_r+0x8e0>
   1876e:	091c                	c.addi4spn	a5,sp,144
   18770:	0a210713          	addi	a4,sp,162
   18774:	0007d683          	lhu	a3,0(a5) # 10000 <main-0xb0>
   18778:	e6e1                	c.bnez	a3,18840 <_ldtoa_r+0x25e>
   1877a:	0789                	c.addi	a5,2
   1877c:	fef71ce3          	bne	a4,a5,18774 <_ldtoa_r+0x192>
   18780:	198c                	c.addi4spn	a1,sp,240
   18782:	1908                	c.addi4spn	a0,sp,176
   18784:	b22ff0ef          	jal	ra,17aa6 <emovi>
   18788:	190c                	c.addi4spn	a1,sp,176
   1878a:	1988                	c.addi4spn	a0,sp,240
   1878c:	8ccff0ef          	jal	ra,17858 <emovz>
   18790:	198c                	c.addi4spn	a1,sp,240
   18792:	0908                	c.addi4spn	a0,sp,144
   18794:	b12ff0ef          	jal	ra,17aa6 <emovi>
   18798:	090c                	c.addi4spn	a1,sp,144
   1879a:	1988                	c.addi4spn	a0,sp,240
   1879c:	8bcff0ef          	jal	ra,17858 <emovz>
   187a0:	0b10                	c.addi4spn	a2,sp,400
   187a2:	090c                	c.addi4spn	a1,sp,144
   187a4:	1908                	c.addi4spn	a0,sp,176
   187a6:	989ff0ef          	jal	ra,1812e <eiremain>
   187aa:	1dc15483          	lhu	s1,476(sp)
   187ae:	e881                	c.bnez	s1,187be <_ldtoa_r+0x1dc>
   187b0:	9b0b0593          	addi	a1,s6,-1616
   187b4:	0908                	c.addi4spn	a0,sp,144
   187b6:	b8aff0ef          	jal	ra,17b40 <ecmp>
   187ba:	4c051763          	bne	a0,zero,18c88 <_ldtoa_r+0x6a6>
   187be:	67a2                	c.ldsp	a5,8(sp)
   187c0:	4e078e63          	beq	a5,zero,18cbc <_ldtoa_r+0x6da>
   187c4:	02d00793          	addi	a5,zero,45
   187c8:	14f10823          	sb	a5,336(sp)
   187cc:	478d                	c.li	a5,3
   187ce:	89ca                	c.mv	s3,s2
   187d0:	00fb9863          	bne	s7,a5,187e0 <_ldtoa_r+0x1fe>
   187d4:	008909bb          	addw	s3,s2,s0
   187d8:	02a00793          	addi	a5,zero,42
   187dc:	7137c063          	blt	a5,s3,18edc <_ldtoa_r+0x8fa>
   187e0:	47a9                	c.li	a5,10
   187e2:	4ef49063          	bne	s1,a5,18cc2 <_ldtoa_r+0x6e0>
   187e6:	03100793          	addi	a5,zero,49
   187ea:	14f108a3          	sb	a5,337(sp)
   187ee:	02e00793          	addi	a5,zero,46
   187f2:	14f10923          	sb	a5,338(sp)
   187f6:	15310c13          	addi	s8,sp,339
   187fa:	01305963          	bge	zero,s3,1880c <_ldtoa_r+0x22a>
   187fe:	03000793          	addi	a5,zero,48
   18802:	14f109a3          	sb	a5,339(sp)
   18806:	39fd                	c.addiw	s3,-1
   18808:	15410c13          	addi	s8,sp,340
   1880c:	2405                	c.addiw	s0,1
   1880e:	4c09d463          	bge	s3,zero,18cd6 <_ldtoa_r+0x6f4>
   18812:	000295b7          	lui	a1,0x29
   18816:	8622                	c.mv	a2,s0
   18818:	c4858593          	addi	a1,a1,-952 # 28c48 <emtens+0x138>
   1881c:	8562                	c.mv	a0,s8
   1881e:	6a2010ef          	jal	ra,19ec0 <sprintf>
   18822:	bdb5                	c.j	1869e <_ldtoa_r+0xbc>
   18824:	000295b7          	lui	a1,0x29
   18828:	c3058593          	addi	a1,a1,-976 # 28c30 <emtens+0x120>
   1882c:	b59d                	c.j	18692 <_ldtoa_r+0xb0>
   1882e:	0a011783          	lh	a5,160(sp)
   18832:	0007c763          	blt	a5,zero,18840 <_ldtoa_r+0x25e>
   18836:	000295b7          	lui	a1,0x29
   1883a:	c4058593          	addi	a1,a1,-960 # 28c40 <emtens+0x130>
   1883e:	bd91                	c.j	18692 <_ldtoa_r+0xb0>
   18840:	090c                	c.addi4spn	a1,sp,144
   18842:	8526                	c.mv	a0,s1
   18844:	afcff0ef          	jal	ra,17b40 <ecmp>
   18848:	dd05                	c.beqz	a0,18780 <_ldtoa_r+0x19e>
   1884a:	32055263          	bge	a0,zero,18b6e <_ldtoa_r+0x58c>
   1884e:	098c                	c.addi4spn	a1,sp,208
   18850:	0908                	c.addi4spn	a0,sp,144
   18852:	fe1fe0ef          	jal	ra,17832 <emov>
   18856:	6791                	c.lui	a5,0x4
   18858:	08e7879b          	addiw	a5,a5,142
   1885c:	0ef11123          	sh	a5,226(sp)
   18860:	47c1                	c.li	a5,16
   18862:	e83e                	c.sdsp	a5,16(sp)
   18864:	67a1                	c.lui	a5,0x8
   18866:	17fd                	c.addi	a5,-1
   18868:	f43e                	c.sdsp	a5,40(sp)
   1886a:	77f1                	c.lui	a5,0xffffc
   1886c:	2789                	c.addiw	a5,2
   1886e:	4d01                	c.li	s10,0
   18870:	da3e                	c.swsp	a5,52(sp)
   18872:	000297b7          	lui	a5,0x29
   18876:	a8078793          	addi	a5,a5,-1408 # 28a80 <etens+0xa0>
   1887a:	01a78533          	add	a0,a5,s10
   1887e:	0b14                	c.addi4spn	a3,sp,400
   18880:	1910                	c.addi4spn	a2,sp,176
   18882:	098c                	c.addi4spn	a1,sp,208
   18884:	b11ff0ef          	jal	ra,18394 <ediv>
   18888:	08ac                	c.addi4spn	a1,sp,88
   1888a:	1908                	c.addi4spn	a0,sp,176
   1888c:	fa7fe0ef          	jal	ra,17832 <emov>
   18890:	77a2                	c.ldsp	a5,40(sp)
   18892:	06a15c03          	lhu	s8,106(sp)
   18896:	00fc76b3          	and	a3,s8,a5
   1889a:	57d2                	c.lwsp	a5,52(sp)
   1889c:	9ebd                	c.addw	a3,a5
   1889e:	02d04f63          	blt	zero,a3,188dc <_ldtoa_r+0x2fa>
   188a2:	1988                	c.addi4spn	a0,sp,240
   188a4:	f7ffe0ef          	jal	ra,17822 <eclear>
   188a8:	010c1c1b          	slliw	s8,s8,0x10
   188ac:	410c5c1b          	sraiw	s8,s8,0x10
   188b0:	0c0c5063          	bge	s8,zero,18970 <_ldtoa_r+0x38e>
   188b4:	4781                	c.li	a5,0
   188b6:	08b8                	c.addi4spn	a4,sp,88
   188b8:	973e                	c.add	a4,a5
   188ba:	00075683          	lhu	a3,0(a4) # 8000 <main-0x80b0>
   188be:	1998                	c.addi4spn	a4,sp,240
   188c0:	973e                	c.add	a4,a5
   188c2:	00075703          	lhu	a4,0(a4)
   188c6:	28e68f63          	beq	a3,a4,18b64 <_ldtoa_r+0x582>
   188ca:	8526                	c.mv	a0,s1
   188cc:	994ff0ef          	jal	ra,17a60 <eisnan>
   188d0:	c135                	c.beqz	a0,18934 <_ldtoa_r+0x352>
   188d2:	198c                	c.addi4spn	a1,sp,240
   188d4:	8526                	c.mv	a0,s1
   188d6:	f5dfe0ef          	jal	ra,17832 <emov>
   188da:	a859                	c.j	18970 <_ldtoa_r+0x38e>
   188dc:	09000793          	addi	a5,zero,144
   188e0:	40d7873b          	subw	a4,a5,a3
   188e4:	198c                	c.addi4spn	a1,sp,240
   188e6:	08a8                	c.addi4spn	a0,sp,88
   188e8:	8dba                	c.mv	s11,a4
   188ea:	fc3a                	c.sdsp	a4,56(sp)
   188ec:	f47fe0ef          	jal	ra,17832 <emov>
   188f0:	7762                	c.ldsp	a4,56(sp)
   188f2:	06e05f63          	bge	zero,a4,18970 <_ldtoa_r+0x38e>
   188f6:	199c                	c.addi4spn	a5,sp,240
   188f8:	463d                	c.li	a2,15
   188fa:	02e64863          	blt	a2,a4,1892a <_ldtoa_r+0x348>
   188fe:	004dd61b          	srliw	a2,s11,0x4
   18902:	02061713          	slli	a4,a2,0x20
   18906:	199c                	c.addi4spn	a5,sp,240
   18908:	837d                	c.srli	a4,0x1f
   1890a:	973e                	c.add	a4,a5
   1890c:	57c1                	c.li	a5,-16
   1890e:	02c787bb          	mulw	a5,a5,a2
   18912:	00075683          	lhu	a3,0(a4)
   18916:	01b787bb          	addw	a5,a5,s11
   1891a:	0786                	c.slli	a5,0x1
   1891c:	97ce                	c.add	a5,s3
   1891e:	1387d783          	lhu	a5,312(a5)
   18922:	8ff5                	c.and	a5,a3
   18924:	00f71023          	sh	a5,0(a4)
   18928:	b741                	c.j	188a8 <_ldtoa_r+0x2c6>
   1892a:	00079023          	sh	zero,0(a5)
   1892e:	3741                	c.addiw	a4,-16
   18930:	0789                	c.addi	a5,2
   18932:	b7e1                	c.j	188fa <_ldtoa_r+0x318>
   18934:	1988                	c.addi4spn	a0,sp,240
   18936:	92aff0ef          	jal	ra,17a60 <eisnan>
   1893a:	c501                	c.beqz	a0,18942 <_ldtoa_r+0x360>
   1893c:	198c                	c.addi4spn	a1,sp,240
   1893e:	852e                	c.mv	a0,a1
   18940:	bf59                	c.j	188d6 <_ldtoa_r+0x2f4>
   18942:	8526                	c.mv	a0,s1
   18944:	aa0ff0ef          	jal	ra,17be4 <eisinf>
   18948:	8daa                	c.mv	s11,a0
   1894a:	1988                	c.addi4spn	a0,sp,240
   1894c:	a98ff0ef          	jal	ra,17be4 <eisinf>
   18950:	8c2a                	c.mv	s8,a0
   18952:	0e0d8a63          	beq	s11,zero,18a46 <_ldtoa_r+0x464>
   18956:	c969                	c.beqz	a0,18a28 <_ldtoa_r+0x446>
   18958:	8526                	c.mv	a0,s1
   1895a:	92cff0ef          	jal	ra,17a86 <eisneg>
   1895e:	8c2a                	c.mv	s8,a0
   18960:	1988                	c.addi4spn	a0,sp,240
   18962:	924ff0ef          	jal	ra,17a86 <eisneg>
   18966:	0cac1163          	bne	s8,a0,18a28 <_ldtoa_r+0x446>
   1896a:	1988                	c.addi4spn	a0,sp,240
   1896c:	c30ff0ef          	jal	ra,17d9c <enan.constprop.12>
   18970:	4781                	c.li	a5,0
   18972:	1918                	c.addi4spn	a4,sp,176
   18974:	973e                	c.add	a4,a5
   18976:	00075683          	lhu	a3,0(a4)
   1897a:	1998                	c.addi4spn	a4,sp,240
   1897c:	973e                	c.add	a4,a5
   1897e:	00075703          	lhu	a4,0(a4)
   18982:	00e69c63          	bne	a3,a4,1899a <_ldtoa_r+0x3b8>
   18986:	0789                	c.addi	a5,2
   18988:	4749                	c.li	a4,18
   1898a:	fee794e3          	bne	a5,a4,18972 <_ldtoa_r+0x390>
   1898e:	098c                	c.addi4spn	a1,sp,208
   18990:	1908                	c.addi4spn	a0,sp,176
   18992:	ea1fe0ef          	jal	ra,17832 <emov>
   18996:	47c2                	c.lwsp	a5,16(sp)
   18998:	9c3d                	c.addw	s0,a5
   1899a:	67c2                	c.ldsp	a5,16(sp)
   1899c:	0d51                	c.addi	s10,20
   1899e:	8385                	c.srli	a5,0x1
   189a0:	e83e                	c.sdsp	a5,16(sp)
   189a2:	06400793          	addi	a5,zero,100
   189a6:	ecfd16e3          	bne	s10,a5,18872 <_ldtoa_r+0x290>
   189aa:	0e215783          	lhu	a5,226(sp)
   189ae:	0a215703          	lhu	a4,162(sp)
   189b2:	090c                	c.addi4spn	a1,sp,144
   189b4:	0988                	c.addi4spn	a0,sp,208
   189b6:	9fb9                	c.addw	a5,a4
   189b8:	7771                	c.lui	a4,0xffffc
   189ba:	f727071b          	addiw	a4,a4,-142
   189be:	9fb9                	c.addw	a5,a4
   189c0:	0ef11123          	sh	a5,226(sp)
   189c4:	e6ffe0ef          	jal	ra,17832 <emov>
   189c8:	8526                	c.mv	a0,s1
   189ca:	190c                	c.addi4spn	a1,sp,176
   189cc:	e67fe0ef          	jal	ra,17832 <emov>
   189d0:	4481                	c.li	s1,0
   189d2:	6d05                	c.lui	s10,0x1
   189d4:	12098993          	addi	s3,s3,288
   189d8:	10400d93          	addi	s11,zero,260
   189dc:	000297b7          	lui	a5,0x29
   189e0:	9e078793          	addi	a5,a5,-1568 # 289e0 <etens>
   189e4:	098c                	c.addi4spn	a1,sp,208
   189e6:	854e                	c.mv	a0,s3
   189e8:	00f48c33          	add	s8,s1,a5
   189ec:	954ff0ef          	jal	ra,17b40 <ecmp>
   189f0:	d8a048e3          	blt	zero,a0,18780 <_ldtoa_r+0x19e>
   189f4:	098c                	c.addi4spn	a1,sp,208
   189f6:	8562                	c.mv	a0,s8
   189f8:	948ff0ef          	jal	ra,17b40 <ecmp>
   189fc:	02a04063          	blt	zero,a0,18a1c <_ldtoa_r+0x43a>
   18a00:	0990                	c.addi4spn	a2,sp,208
   18a02:	85b2                	c.mv	a1,a2
   18a04:	0b14                	c.addi4spn	a3,sp,400
   18a06:	8562                	c.mv	a0,s8
   18a08:	98dff0ef          	jal	ra,18394 <ediv>
   18a0c:	1910                	c.addi4spn	a2,sp,176
   18a0e:	0b14                	c.addi4spn	a3,sp,400
   18a10:	85b2                	c.mv	a1,a2
   18a12:	8562                	c.mv	a0,s8
   18a14:	faeff0ef          	jal	ra,181c2 <emul>
   18a18:	008d043b          	addw	s0,s10,s0
   18a1c:	04d1                	c.addi	s1,20
   18a1e:	001d5d13          	srli	s10,s10,0x1
   18a22:	fbb49de3          	bne	s1,s11,189dc <_ldtoa_r+0x3fa>
   18a26:	bba9                	c.j	18780 <_ldtoa_r+0x19e>
   18a28:	8526                	c.mv	a0,s1
   18a2a:	198c                	c.addi4spn	a1,sp,240
   18a2c:	e07fe0ef          	jal	ra,17832 <emov>
   18a30:	1988                	c.addi4spn	a0,sp,240
   18a32:	82eff0ef          	jal	ra,17a60 <eisnan>
   18a36:	fd0d                	c.bnez	a0,18970 <_ldtoa_r+0x38e>
   18a38:	10215783          	lhu	a5,258(sp)
   18a3c:	7761                	c.lui	a4,0xffff8
   18a3e:	8fb9                	c.xor	a5,a4
   18a40:	10f11123          	sh	a5,258(sp)
   18a44:	b735                	c.j	18970 <_ldtoa_r+0x38e>
   18a46:	ee051be3          	bne	a0,zero,1893c <_ldtoa_r+0x35a>
   18a4a:	0a0c                	c.addi4spn	a1,sp,272
   18a4c:	8526                	c.mv	a0,s1
   18a4e:	858ff0ef          	jal	ra,17aa6 <emovi>
   18a52:	1a0c                	c.addi4spn	a1,sp,304
   18a54:	1988                	c.addi4spn	a0,sp,240
   18a56:	850ff0ef          	jal	ra,17aa6 <emovi>
   18a5a:	11015703          	lhu	a4,272(sp)
   18a5e:	13215d83          	lhu	s11,306(sp)
   18a62:	11215783          	lhu	a5,274(sp)
   18a66:	fff74713          	xori	a4,a4,-1
   18a6a:	1742                	c.slli	a4,0x30
   18a6c:	9341                	c.srli	a4,0x30
   18a6e:	10e11823          	sh	a4,272(sp)
   18a72:	41b787b3          	sub	a5,a5,s11
   18a76:	06f05363          	bge	zero,a5,18adc <_ldtoa_r+0x4fa>
   18a7a:	0a8c                	c.addi4spn	a1,sp,336
   18a7c:	1a08                	c.addi4spn	a0,sp,304
   18a7e:	fc3e                	c.sdsp	a5,56(sp)
   18a80:	dd9fe0ef          	jal	ra,17858 <emovz>
   18a84:	1a0c                	c.addi4spn	a1,sp,304
   18a86:	0a08                	c.addi4spn	a0,sp,272
   18a88:	dd1fe0ef          	jal	ra,17858 <emovz>
   18a8c:	0a0c                	c.addi4spn	a1,sp,272
   18a8e:	0a88                	c.addi4spn	a0,sp,336
   18a90:	dc9fe0ef          	jal	ra,17858 <emovz>
   18a94:	77e2                	c.ldsp	a5,56(sp)
   18a96:	13215d83          	lhu	s11,306(sp)
   18a9a:	40f007b3          	sub	a5,zero,a5
   18a9e:	f6f00713          	addi	a4,zero,-145
   18aa2:	06e7c763          	blt	a5,a4,18b10 <_ldtoa_r+0x52e>
   18aa6:	85be                	c.mv	a1,a5
   18aa8:	0a08                	c.addi4spn	a0,sp,272
   18aaa:	97cff0ef          	jal	ra,17c26 <eshift.part.3>
   18aae:	882a                	c.mv	a6,a0
   18ab0:	11015703          	lhu	a4,272(sp)
   18ab4:	13015783          	lhu	a5,304(sp)
   18ab8:	fc42                	c.sdsp	a6,56(sp)
   18aba:	1a0c                	c.addi4spn	a1,sp,304
   18abc:	0a08                	c.addi4spn	a0,sp,272
   18abe:	08f71f63          	bne	a4,a5,18b5c <_ldtoa_r+0x57a>
   18ac2:	edbfe0ef          	jal	ra,1799c <eaddm>
   18ac6:	7862                	c.ldsp	a6,56(sp)
   18ac8:	0b1c                	c.addi4spn	a5,sp,400
   18aca:	04000713          	addi	a4,zero,64
   18ace:	86ee                	c.mv	a3,s11
   18ad0:	8662                	c.mv	a2,s8
   18ad2:	85c2                	c.mv	a1,a6
   18ad4:	1a08                	c.addi4spn	a0,sp,304
   18ad6:	bf2ff0ef          	jal	ra,17ec8 <emdnorm>
   18ada:	a81d                	c.j	18b10 <_ldtoa_r+0x52e>
   18adc:	f3e9                	c.bnez	a5,18a9e <_ldtoa_r+0x4bc>
   18ade:	1a0c                	c.addi4spn	a1,sp,304
   18ae0:	0a08                	c.addi4spn	a0,sp,272
   18ae2:	fc3a                	c.sdsp	a4,56(sp)
   18ae4:	d91fe0ef          	jal	ra,17874 <ecmpm>
   18ae8:	e929                	c.bnez	a0,18b3a <_ldtoa_r+0x558>
   18aea:	13015783          	lhu	a5,304(sp)
   18aee:	7762                	c.ldsp	a4,56(sp)
   18af0:	00e78663          	beq	a5,a4,18afc <_ldtoa_r+0x51a>
   18af4:	1988                	c.addi4spn	a0,sp,240
   18af6:	d2dfe0ef          	jal	ra,17822 <eclear>
   18afa:	bd9d                	c.j	18970 <_ldtoa_r+0x38e>
   18afc:	000d9f63          	bne	s11,zero,18b1a <_ldtoa_r+0x538>
   18b00:	13611703          	lh	a4,310(sp)
   18b04:	4781                	c.li	a5,0
   18b06:	00074b63          	blt	a4,zero,18b1c <_ldtoa_r+0x53a>
   18b0a:	1a08                	c.addi4spn	a0,sp,304
   18b0c:	dcbfe0ef          	jal	ra,178d6 <eshup1>
   18b10:	198c                	c.addi4spn	a1,sp,240
   18b12:	1a08                	c.addi4spn	a0,sp,304
   18b14:	aa8ff0ef          	jal	ra,17dbc <emovo.isra.6>
   18b18:	bda1                	c.j	18970 <_ldtoa_r+0x38e>
   18b1a:	4781                	c.li	a5,0
   18b1c:	4759                	c.li	a4,22
   18b1e:	1a14                	c.addi4spn	a3,sp,304
   18b20:	00f68633          	add	a2,a3,a5
   18b24:	00265603          	lhu	a2,2(a2)
   18b28:	c609                	c.beqz	a2,18b32 <_ldtoa_r+0x550>
   18b2a:	0d85                	c.addi	s11,1
   18b2c:	13b11923          	sh	s11,306(sp)
   18b30:	b7c5                	c.j	18b10 <_ldtoa_r+0x52e>
   18b32:	0789                	c.addi	a5,2
   18b34:	fee795e3          	bne	a5,a4,18b1e <_ldtoa_r+0x53c>
   18b38:	bfd5                	c.j	18b2c <_ldtoa_r+0x54a>
   18b3a:	4801                	c.li	a6,0
   18b3c:	f6a05ae3          	bge	zero,a0,18ab0 <_ldtoa_r+0x4ce>
   18b40:	0a8c                	c.addi4spn	a1,sp,336
   18b42:	1a08                	c.addi4spn	a0,sp,304
   18b44:	d15fe0ef          	jal	ra,17858 <emovz>
   18b48:	1a0c                	c.addi4spn	a1,sp,304
   18b4a:	0a08                	c.addi4spn	a0,sp,272
   18b4c:	d0dfe0ef          	jal	ra,17858 <emovz>
   18b50:	0a0c                	c.addi4spn	a1,sp,272
   18b52:	0a88                	c.addi4spn	a0,sp,336
   18b54:	d05fe0ef          	jal	ra,17858 <emovz>
   18b58:	8862                	c.mv	a6,s8
   18b5a:	bf99                	c.j	18ab0 <_ldtoa_r+0x4ce>
   18b5c:	e69fe0ef          	jal	ra,179c4 <esubm>
   18b60:	4c05                	c.li	s8,1
   18b62:	b795                	c.j	18ac6 <_ldtoa_r+0x4e4>
   18b64:	0789                	c.addi	a5,2
   18b66:	4749                	c.li	a4,18
   18b68:	d4e797e3          	bne	a5,a4,188b6 <_ldtoa_r+0x2d4>
   18b6c:	b511                	c.j	18970 <_ldtoa_r+0x38e>
   18b6e:	0a215783          	lhu	a5,162(sp)
   18b72:	12098c13          	addi	s8,s3,288
   18b76:	cfad                	c.beqz	a5,18bf0 <_ldtoa_r+0x60e>
   18b78:	198c                	c.addi4spn	a1,sp,240
   18b7a:	0908                	c.addi4spn	a0,sp,144
   18b7c:	6c11                	c.lui	s8,0x4
   18b7e:	f29fe0ef          	jal	ra,17aa6 <emovi>
   18b82:	1c79                	c.addi	s8,-2
   18b84:	fd500d13          	addi	s10,zero,-43
   18b88:	10815783          	lhu	a5,264(sp)
   18b8c:	8b9d                	c.andi	a5,7
   18b8e:	e7a9                	c.bnez	a5,18bd8 <_ldtoa_r+0x5f6>
   18b90:	098c                	c.addi4spn	a1,sp,208
   18b92:	1988                	c.addi4spn	a0,sp,240
   18b94:	cc5fe0ef          	jal	ra,17858 <emovz>
   18b98:	0988                	c.addi4spn	a0,sp,208
   18b9a:	d05fe0ef          	jal	ra,1789e <eshdn1>
   18b9e:	0988                	c.addi4spn	a0,sp,208
   18ba0:	cfffe0ef          	jal	ra,1789e <eshdn1>
   18ba4:	098c                	c.addi4spn	a1,sp,208
   18ba6:	1988                	c.addi4spn	a0,sp,240
   18ba8:	df5fe0ef          	jal	ra,1799c <eaddm>
   18bac:	0d215783          	lhu	a5,210(sp)
   18bb0:	278d                	c.addiw	a5,3
   18bb2:	0cf11923          	sh	a5,210(sp)
   18bb6:	0d415783          	lhu	a5,212(sp)
   18bba:	e3e1                	c.bnez	a5,18c7a <_ldtoa_r+0x698>
   18bbc:	0e815783          	lhu	a5,232(sp)
   18bc0:	ef81                	c.bnez	a5,18bd8 <_ldtoa_r+0x5f6>
   18bc2:	0d215783          	lhu	a5,210(sp)
   18bc6:	00fc6963          	bltu	s8,a5,18bd8 <_ldtoa_r+0x5f6>
   18bca:	198c                	c.addi4spn	a1,sp,240
   18bcc:	0988                	c.addi4spn	a0,sp,208
   18bce:	347d                	c.addiw	s0,-1
   18bd0:	c89fe0ef          	jal	ra,17858 <emovz>
   18bd4:	fba41ae3          	bne	s0,s10,18b88 <_ldtoa_r+0x5a6>
   18bd8:	090c                	c.addi4spn	a1,sp,144
   18bda:	1988                	c.addi4spn	a0,sp,240
   18bdc:	9e0ff0ef          	jal	ra,17dbc <emovo.isra.6>
   18be0:	a821                	c.j	18bf8 <_ldtoa_r+0x616>
   18be2:	0910                	c.addi4spn	a2,sp,144
   18be4:	0b14                	c.addi4spn	a3,sp,400
   18be6:	85b2                	c.mv	a1,a2
   18be8:	8562                	c.mv	a0,s8
   18bea:	dd8ff0ef          	jal	ra,181c2 <emul>
   18bee:	347d                	c.addiw	s0,-1
   18bf0:	0a011783          	lh	a5,160(sp)
   18bf4:	fe07d7e3          	bge	a5,zero,18be2 <_ldtoa_r+0x600>
   18bf8:	198c                	c.addi4spn	a1,sp,240
   18bfa:	0908                	c.addi4spn	a0,sp,144
   18bfc:	c37fe0ef          	jal	ra,17832 <emov>
   18c00:	190c                	c.addi4spn	a1,sp,176
   18c02:	8526                	c.mv	a0,s1
   18c04:	c2ffe0ef          	jal	ra,17832 <emov>
   18c08:	16098793          	addi	a5,s3,352
   18c0c:	4d01                	c.li	s10,0
   18c0e:	7c7d                	c.lui	s8,0xfffff
   18c10:	e83e                	c.sdsp	a5,16(sp)
   18c12:	4d89                	c.li	s11,2
   18c14:	000297b7          	lui	a5,0x29
   18c18:	9e078793          	addi	a5,a5,-1568 # 289e0 <etens>
   18c1c:	01a789b3          	add	s3,a5,s10
   18c20:	67c2                	c.ldsp	a5,16(sp)
   18c22:	198c                	c.addi4spn	a1,sp,240
   18c24:	8526                	c.mv	a0,s1
   18c26:	01a78733          	add	a4,a5,s10
   18c2a:	f43a                	c.sdsp	a4,40(sp)
   18c2c:	f15fe0ef          	jal	ra,17b40 <ecmp>
   18c30:	7722                	c.ldsp	a4,40(sp)
   18c32:	02a05d63          	bge	zero,a0,18c6c <_ldtoa_r+0x68a>
   18c36:	198c                	c.addi4spn	a1,sp,240
   18c38:	853a                	c.mv	a0,a4
   18c3a:	f07fe0ef          	jal	ra,17b40 <ecmp>
   18c3e:	02054063          	blt	a0,zero,18c5e <_ldtoa_r+0x67c>
   18c42:	1990                	c.addi4spn	a2,sp,240
   18c44:	85b2                	c.mv	a1,a2
   18c46:	0b14                	c.addi4spn	a3,sp,400
   18c48:	854e                	c.mv	a0,s3
   18c4a:	d78ff0ef          	jal	ra,181c2 <emul>
   18c4e:	1910                	c.addi4spn	a2,sp,176
   18c50:	0b14                	c.addi4spn	a3,sp,400
   18c52:	85b2                	c.mv	a1,a2
   18c54:	854e                	c.mv	a0,s3
   18c56:	d6cff0ef          	jal	ra,181c2 <emul>
   18c5a:	008c043b          	addw	s0,s8,s0
   18c5e:	0d51                	c.addi	s10,20
   18c60:	10400793          	addi	a5,zero,260
   18c64:	03bc4c3b          	divw	s8,s8,s11
   18c68:	fafd16e3          	bne	s10,a5,18c14 <_ldtoa_r+0x632>
   18c6c:	1910                	c.addi4spn	a2,sp,176
   18c6e:	0b14                	c.addi4spn	a3,sp,400
   18c70:	85a6                	c.mv	a1,s1
   18c72:	8532                	c.mv	a0,a2
   18c74:	f20ff0ef          	jal	ra,18394 <ediv>
   18c78:	b621                	c.j	18780 <_ldtoa_r+0x19e>
   18c7a:	0988                	c.addi4spn	a0,sp,208
   18c7c:	c23fe0ef          	jal	ra,1789e <eshdn1>
   18c80:	0d215783          	lhu	a5,210(sp)
   18c84:	2785                	c.addiw	a5,1
   18c86:	b735                	c.j	18bb2 <_ldtoa_r+0x5d0>
   18c88:	0908                	c.addi4spn	a0,sp,144
   18c8a:	c4dfe0ef          	jal	ra,178d6 <eshup1>
   18c8e:	098c                	c.addi4spn	a1,sp,208
   18c90:	0908                	c.addi4spn	a0,sp,144
   18c92:	bc7fe0ef          	jal	ra,17858 <emovz>
   18c96:	0988                	c.addi4spn	a0,sp,208
   18c98:	c3ffe0ef          	jal	ra,178d6 <eshup1>
   18c9c:	0988                	c.addi4spn	a0,sp,208
   18c9e:	c39fe0ef          	jal	ra,178d6 <eshup1>
   18ca2:	090c                	c.addi4spn	a1,sp,144
   18ca4:	0988                	c.addi4spn	a0,sp,208
   18ca6:	cf7fe0ef          	jal	ra,1799c <eaddm>
   18caa:	0b10                	c.addi4spn	a2,sp,400
   18cac:	090c                	c.addi4spn	a1,sp,144
   18cae:	1908                	c.addi4spn	a0,sp,176
   18cb0:	c7eff0ef          	jal	ra,1812e <eiremain>
   18cb4:	347d                	c.addiw	s0,-1
   18cb6:	1dc15483          	lhu	s1,476(sp)
   18cba:	bcd5                	c.j	187ae <_ldtoa_r+0x1cc>
   18cbc:	02000793          	addi	a5,zero,32
   18cc0:	b621                	c.j	187c8 <_ldtoa_r+0x1e6>
   18cc2:	0304849b          	addiw	s1,s1,48
   18cc6:	02e00793          	addi	a5,zero,46
   18cca:	149108a3          	sb	s1,337(sp)
   18cce:	14f10923          	sb	a5,338(sp)
   18cd2:	15310c13          	addi	s8,sp,339
   18cd6:	84e2                	c.mv	s1,s8
   18cd8:	418487bb          	subw	a5,s1,s8
   18cdc:	04f9d063          	bge	s3,a5,18d1c <_ldtoa_r+0x73a>
   18ce0:	1dc15783          	lhu	a5,476(sp)
   18ce4:	4711                	c.li	a4,4
   18ce6:	fff48c13          	addi	s8,s1,-1
   18cea:	b2f754e3          	bge	a4,a5,18812 <_ldtoa_r+0x230>
   18cee:	4715                	c.li	a4,5
   18cf0:	06e78463          	beq	a5,a4,18d58 <_ldtoa_r+0x776>
   18cf4:	87e2                	c.mv	a5,s8
   18cf6:	02e00613          	addi	a2,zero,46
   18cfa:	03800593          	addi	a1,zero,56
   18cfe:	03000693          	addi	a3,zero,48
   18d02:	17fd                	c.addi	a5,-1
   18d04:	0007c703          	lbu	a4,0(a5)
   18d08:	07f77713          	andi	a4,a4,127
   18d0c:	0809d163          	bge	s3,zero,18d8e <_ldtoa_r+0x7ac>
   18d10:	03100713          	addi	a4,zero,49
   18d14:	00e78023          	sb	a4,0(a5)
   18d18:	2405                	c.addiw	s0,1
   18d1a:	bce5                	c.j	18812 <_ldtoa_r+0x230>
   18d1c:	0908                	c.addi4spn	a0,sp,144
   18d1e:	bb9fe0ef          	jal	ra,178d6 <eshup1>
   18d22:	098c                	c.addi4spn	a1,sp,208
   18d24:	0908                	c.addi4spn	a0,sp,144
   18d26:	b33fe0ef          	jal	ra,17858 <emovz>
   18d2a:	0988                	c.addi4spn	a0,sp,208
   18d2c:	babfe0ef          	jal	ra,178d6 <eshup1>
   18d30:	0988                	c.addi4spn	a0,sp,208
   18d32:	ba5fe0ef          	jal	ra,178d6 <eshup1>
   18d36:	090c                	c.addi4spn	a1,sp,144
   18d38:	0988                	c.addi4spn	a0,sp,208
   18d3a:	c63fe0ef          	jal	ra,1799c <eaddm>
   18d3e:	0b10                	c.addi4spn	a2,sp,400
   18d40:	090c                	c.addi4spn	a1,sp,144
   18d42:	1908                	c.addi4spn	a0,sp,176
   18d44:	beaff0ef          	jal	ra,1812e <eiremain>
   18d48:	1dc14783          	lbu	a5,476(sp)
   18d4c:	0485                	c.addi	s1,1
   18d4e:	0307879b          	addiw	a5,a5,48
   18d52:	fef48fa3          	sb	a5,-1(s1)
   18d56:	b749                	c.j	18cd8 <_ldtoa_r+0x6f6>
   18d58:	190c                	c.addi4spn	a1,sp,176
   18d5a:	0908                	c.addi4spn	a0,sp,144
   18d5c:	860ff0ef          	jal	ra,17dbc <emovo.isra.6>
   18d60:	9b0b0593          	addi	a1,s6,-1616
   18d64:	1908                	c.addi4spn	a0,sp,176
   18d66:	ddbfe0ef          	jal	ra,17b40 <ecmp>
   18d6a:	f549                	c.bnez	a0,18cf4 <_ldtoa_r+0x712>
   18d6c:	aa09c3e3          	blt	s3,zero,18812 <_ldtoa_r+0x230>
   18d70:	ffe4c783          	lbu	a5,-2(s1)
   18d74:	fd278793          	addi	a5,a5,-46
   18d78:	0017b793          	sltiu	a5,a5,1
   18d7c:	fff7c793          	xori	a5,a5,-1
   18d80:	97e2                	c.add	a5,s8
   18d82:	0007c783          	lbu	a5,0(a5)
   18d86:	8b85                	c.andi	a5,1
   18d88:	a80785e3          	beq	a5,zero,18812 <_ldtoa_r+0x230>
   18d8c:	b7a5                	c.j	18cf4 <_ldtoa_r+0x712>
   18d8e:	02c71063          	bne	a4,a2,18dae <_ldtoa_r+0x7cc>
   18d92:	fff7c703          	lbu	a4,-1(a5)
   18d96:	03800693          	addi	a3,zero,56
   18d9a:	00e6e663          	bltu	a3,a4,18da6 <_ldtoa_r+0x7c4>
   18d9e:	2705                	c.addiw	a4,1
   18da0:	fee78fa3          	sb	a4,-1(a5)
   18da4:	b4bd                	c.j	18812 <_ldtoa_r+0x230>
   18da6:	2405                	c.addiw	s0,1
   18da8:	03100713          	addi	a4,zero,49
   18dac:	bfd5                	c.j	18da0 <_ldtoa_r+0x7be>
   18dae:	00e5e663          	bltu	a1,a4,18dba <_ldtoa_r+0x7d8>
   18db2:	2705                	c.addiw	a4,1
   18db4:	00e78023          	sb	a4,0(a5)
   18db8:	bca9                	c.j	18812 <_ldtoa_r+0x230>
   18dba:	00d78023          	sb	a3,0(a5)
   18dbe:	b791                	c.j	18d02 <_ldtoa_r+0x720>
   18dc0:	2405                	c.addiw	s0,1
   18dc2:	008ca023          	sw	s0,0(s9)
   18dc6:	87ce                	c.mv	a5,s3
   18dc8:	02e00693          	addi	a3,zero,46
   18dcc:	0007c703          	lbu	a4,0(a5)
   18dd0:	e701                	c.bnez	a4,18dd8 <_ldtoa_r+0x7f6>
   18dd2:	04500713          	addi	a4,zero,69
   18dd6:	a839                	c.j	18df4 <_ldtoa_r+0x812>
   18dd8:	00d70963          	beq	a4,a3,18dea <_ldtoa_r+0x808>
   18ddc:	0785                	c.addi	a5,1
   18dde:	b7fd                	c.j	18dcc <_ldtoa_r+0x7ea>
   18de0:	0017c703          	lbu	a4,1(a5)
   18de4:	0785                	c.addi	a5,1
   18de6:	fee78fa3          	sb	a4,-1(a5)
   18dea:	0007c703          	lbu	a4,0(a5)
   18dee:	fb6d                	c.bnez	a4,18de0 <_ldtoa_r+0x7fe>
   18df0:	b7cd                	c.j	18dd2 <_ldtoa_r+0x7f0>
   18df2:	17fd                	c.addi	a5,-1
   18df4:	0007c683          	lbu	a3,0(a5)
   18df8:	00e68463          	beq	a3,a4,18e00 <_ldtoa_r+0x81e>
   18dfc:	fef9ebe3          	bltu	s3,a5,18df2 <_ldtoa_r+0x810>
   18e00:	00078023          	sb	zero,0(a5)
   18e04:	8c5ff06f          	jal	zero,186c8 <_ldtoa_r+0xe6>
   18e08:	0785                	c.addi	a5,1
   18e0a:	8c9ff06f          	jal	zero,186d2 <_ldtoa_r+0xf0>
   18e0e:	8436                	c.mv	s0,a3
   18e10:	8d1ff06f          	jal	zero,186e0 <_ldtoa_r+0xfe>
   18e14:	147d                	c.addi	s0,-1
   18e16:	00040023          	sb	zero,0(s0)
   18e1a:	fff44703          	lbu	a4,-1(s0)
   18e1e:	00d71663          	bne	a4,a3,18e2a <_ldtoa_r+0x848>
   18e22:	41340733          	sub	a4,s0,s3
   18e26:	fee7c7e3          	blt	a5,a4,18e14 <_ldtoa_r+0x832>
   18e2a:	478d                	c.li	a5,3
   18e2c:	0cfb9963          	bne	s7,a5,18efe <_ldtoa_r+0x91c>
   18e30:	1a012783          	lw	a5,416(sp)
   18e34:	0127893b          	addw	s2,a5,s2
   18e38:	00095763          	bge	s2,zero,18e46 <_ldtoa_r+0x864>
   18e3c:	14010823          	sb	zero,336(sp)
   18e40:	000ca023          	sw	zero,0(s9)
   18e44:	844e                	c.mv	s0,s3
   18e46:	000ca783          	lw	a5,0(s9)
   18e4a:	01578abb          	addw	s5,a5,s5
   18e4e:	2a8d                	c.addiw	s5,3
   18e50:	060a2423          	sw	zero,104(s4)
   18e54:	4791                	c.li	a5,4
   18e56:	01c78713          	addi	a4,a5,28
   18e5a:	068a2583          	lw	a1,104(s4)
   18e5e:	04eafc63          	bgeu	s5,a4,18eb6 <_ldtoa_r+0x8d4>
   18e62:	8552                	c.mv	a0,s4
   18e64:	18e000ef          	jal	ra,18ff2 <_Balloc>
   18e68:	06aa3023          	sd	a0,96(s4)
   18e6c:	85ce                	c.mv	a1,s3
   18e6e:	84aa                	c.mv	s1,a0
   18e70:	094010ef          	jal	ra,19f04 <strcpy>
   18e74:	67e2                	c.ldsp	a5,24(sp)
   18e76:	c789                	c.beqz	a5,18e80 <_ldtoa_r+0x89e>
   18e78:	41340433          	sub	s0,s0,s3
   18e7c:	9426                	c.add	s0,s1
   18e7e:	e380                	c.sd	s0,0(a5)
   18e80:	24813083          	ld	ra,584(sp)
   18e84:	24013403          	ld	s0,576(sp)
   18e88:	8526                	c.mv	a0,s1
   18e8a:	23013903          	ld	s2,560(sp)
   18e8e:	23813483          	ld	s1,568(sp)
   18e92:	22813983          	ld	s3,552(sp)
   18e96:	22013a03          	ld	s4,544(sp)
   18e9a:	21813a83          	ld	s5,536(sp)
   18e9e:	21013b03          	ld	s6,528(sp)
   18ea2:	20813b83          	ld	s7,520(sp)
   18ea6:	20013c03          	ld	s8,512(sp)
   18eaa:	7cfe                	c.ldsp	s9,504(sp)
   18eac:	7d5e                	c.ldsp	s10,496(sp)
   18eae:	7dbe                	c.ldsp	s11,488(sp)
   18eb0:	25010113          	addi	sp,sp,592
   18eb4:	8082                	c.jr	ra
   18eb6:	2585                	c.addiw	a1,1
   18eb8:	06ba2423          	sw	a1,104(s4)
   18ebc:	0017979b          	slliw	a5,a5,0x1
   18ec0:	bf59                	c.j	18e56 <_ldtoa_r+0x874>
   18ec2:	67a1                	c.lui	a5,0x8
   18ec4:	17fd                	c.addi	a5,-1
   18ec6:	96f714e3          	bne	a4,a5,1882e <_ldtoa_r+0x24c>
   18eca:	67a2                	c.ldsp	a5,8(sp)
   18ecc:	94078ce3          	beq	a5,zero,18824 <_ldtoa_r+0x242>
   18ed0:	000295b7          	lui	a1,0x29
   18ed4:	c2058593          	addi	a1,a1,-992 # 28c20 <emtens+0x110>
   18ed8:	fbaff06f          	jal	zero,18692 <_ldtoa_r+0xb0>
   18edc:	47a9                	c.li	a5,10
   18ede:	02a00993          	addi	s3,zero,42
   18ee2:	def490e3          	bne	s1,a5,18cc2 <_ldtoa_r+0x6e0>
   18ee6:	03100793          	addi	a5,zero,49
   18eea:	14f108a3          	sb	a5,337(sp)
   18eee:	02e00793          	addi	a5,zero,46
   18ef2:	14f10923          	sb	a5,338(sp)
   18ef6:	02a00993          	addi	s3,zero,42
   18efa:	905ff06f          	jal	zero,187fe <_ldtoa_r+0x21c>
   18efe:	2aa5                	c.addiw	s5,9
   18f00:	bf81                	c.j	18e50 <_ldtoa_r+0x86e>

0000000000018f02 <_ldcheck>:
   18f02:	611c                	c.ld	a5,0(a0)
   18f04:	7139                	c.addi16sp	sp,-64
   18f06:	080c                	c.addi4spn	a1,sp,16
   18f08:	e03e                	c.sdsp	a5,0(sp)
   18f0a:	651c                	c.ld	a5,8(a0)
   18f0c:	850a                	c.mv	a0,sp
   18f0e:	fc06                	c.sdsp	ra,56(sp)
   18f10:	e43e                	c.sdsp	a5,8(sp)
   18f12:	efdfe0ef          	jal	ra,17e0e <e113toe.isra.8>
   18f16:	02215783          	lhu	a5,34(sp)
   18f1a:	4501                	c.li	a0,0
   18f1c:	fff7c793          	xori	a5,a5,-1
   18f20:	03179713          	slli	a4,a5,0x31
   18f24:	e719                	c.bnez	a4,18f32 <_ldcheck+0x30>
   18f26:	0808                	c.addi4spn	a0,sp,16
   18f28:	b39fe0ef          	jal	ra,17a60 <eisnan>
   18f2c:	00153513          	sltiu	a0,a0,1
   18f30:	0505                	c.addi	a0,1
   18f32:	70e2                	c.ldsp	ra,56(sp)
   18f34:	6121                	c.addi16sp	sp,64
   18f36:	8082                	c.jr	ra

0000000000018f38 <__localeconv_l>:
   18f38:	10050513          	addi	a0,a0,256
   18f3c:	8082                	c.jr	ra

0000000000018f3e <_localeconv_r>:
   18f3e:	8401b783          	ld	a5,-1984(gp) # 2b4c0 <_impure_ptr>
   18f42:	67a8                	c.ld	a0,72(a5)
   18f44:	e509                	c.bnez	a0,18f4e <_localeconv_r+0x10>
   18f46:	0002b537          	lui	a0,0x2b
   18f4a:	ac850513          	addi	a0,a0,-1336 # 2aac8 <__global_locale>
   18f4e:	10050513          	addi	a0,a0,256
   18f52:	8082                	c.jr	ra

0000000000018f54 <localeconv>:
   18f54:	8401b783          	ld	a5,-1984(gp) # 2b4c0 <_impure_ptr>
   18f58:	67a8                	c.ld	a0,72(a5)
   18f5a:	e509                	c.bnez	a0,18f64 <localeconv+0x10>
   18f5c:	0002b537          	lui	a0,0x2b
   18f60:	ac850513          	addi	a0,a0,-1336 # 2aac8 <__global_locale>
   18f64:	10050513          	addi	a0,a0,256
   18f68:	8082                	c.jr	ra

0000000000018f6a <_lseek_r>:
   18f6a:	1101                	c.addi	sp,-32
   18f6c:	e822                	c.sdsp	s0,16(sp)
   18f6e:	e426                	c.sdsp	s1,8(sp)
   18f70:	84aa                	c.mv	s1,a0
   18f72:	852e                	c.mv	a0,a1
   18f74:	85b2                	c.mv	a1,a2
   18f76:	8636                	c.mv	a2,a3
   18f78:	ec06                	c.sdsp	ra,24(sp)
   18f7a:	8e01ac23          	sw	zero,-1800(gp) # 2b578 <errno>
   18f7e:	3ed030ef          	jal	ra,1cb6a <_lseek>
   18f82:	57fd                	c.li	a5,-1
   18f84:	00f51663          	bne	a0,a5,18f90 <_lseek_r+0x26>
   18f88:	8f81a783          	lw	a5,-1800(gp) # 2b578 <errno>
   18f8c:	c391                	c.beqz	a5,18f90 <_lseek_r+0x26>
   18f8e:	c09c                	c.sw	a5,0(s1)
   18f90:	60e2                	c.ldsp	ra,24(sp)
   18f92:	6442                	c.ldsp	s0,16(sp)
   18f94:	64a2                	c.ldsp	s1,8(sp)
   18f96:	6105                	c.addi16sp	sp,32
   18f98:	8082                	c.jr	ra

0000000000018f9a <memchr>:
   18f9a:	0ff5f593          	andi	a1,a1,255
   18f9e:	962a                	c.add	a2,a0
   18fa0:	00c51463          	bne	a0,a2,18fa8 <memchr+0xe>
   18fa4:	4501                	c.li	a0,0
   18fa6:	8082                	c.jr	ra
   18fa8:	00054783          	lbu	a5,0(a0)
   18fac:	feb78de3          	beq	a5,a1,18fa6 <memchr+0xc>
   18fb0:	0505                	c.addi	a0,1
   18fb2:	b7fd                	c.j	18fa0 <memchr+0x6>

0000000000018fb4 <memmove>:
   18fb4:	00c50733          	add	a4,a0,a2
   18fb8:	00a5e663          	bltu	a1,a0,18fc4 <memmove+0x10>
   18fbc:	87aa                	c.mv	a5,a0
   18fbe:	02e79363          	bne	a5,a4,18fe4 <memmove+0x30>
   18fc2:	8082                	c.jr	ra
   18fc4:	00c587b3          	add	a5,a1,a2
   18fc8:	8e1d                	c.sub	a2,a5
   18fca:	fef579e3          	bgeu	a0,a5,18fbc <memmove+0x8>
   18fce:	00c786b3          	add	a3,a5,a2
   18fd2:	e291                	c.bnez	a3,18fd6 <memmove+0x22>
   18fd4:	8082                	c.jr	ra
   18fd6:	17fd                	c.addi	a5,-1
   18fd8:	0007c683          	lbu	a3,0(a5) # 8000 <main-0x80b0>
   18fdc:	177d                	c.addi	a4,-1
   18fde:	00d70023          	sb	a3,0(a4) # ffffffffffff8000 <__global_pointer$+0xfffffffffffcc380>
   18fe2:	b7f5                	c.j	18fce <memmove+0x1a>
   18fe4:	0585                	c.addi	a1,1
   18fe6:	fff5c683          	lbu	a3,-1(a1)
   18fea:	0785                	c.addi	a5,1
   18fec:	fed78fa3          	sb	a3,-1(a5)
   18ff0:	b7f9                	c.j	18fbe <memmove+0xa>

0000000000018ff2 <_Balloc>:
   18ff2:	7d3c                	c.ld	a5,120(a0)
   18ff4:	1101                	c.addi	sp,-32
   18ff6:	e426                	c.sdsp	s1,8(sp)
   18ff8:	e04a                	c.sdsp	s2,0(sp)
   18ffa:	ec06                	c.sdsp	ra,24(sp)
   18ffc:	e822                	c.sdsp	s0,16(sp)
   18ffe:	84aa                	c.mv	s1,a0
   19000:	892e                	c.mv	s2,a1
   19002:	c79d                	c.beqz	a5,19030 <_Balloc+0x3e>
   19004:	7cb8                	c.ld	a4,120(s1)
   19006:	00391793          	slli	a5,s2,0x3
   1900a:	97ba                	c.add	a5,a4
   1900c:	6388                	c.ld	a0,0(a5)
   1900e:	ed1d                	c.bnez	a0,1904c <_Balloc+0x5a>
   19010:	4405                	c.li	s0,1
   19012:	0124143b          	sllw	s0,s0,s2
   19016:	fff4061b          	addiw	a2,s0,-1
   1901a:	0621                	c.addi	a2,8
   1901c:	060a                	c.slli	a2,0x2
   1901e:	4585                	c.li	a1,1
   19020:	8526                	c.mv	a0,s1
   19022:	65d020ef          	jal	ra,1be7e <_calloc_r>
   19026:	cd01                	c.beqz	a0,1903e <_Balloc+0x4c>
   19028:	01252423          	sw	s2,8(a0)
   1902c:	c540                	c.sw	s0,12(a0)
   1902e:	a00d                	c.j	19050 <_Balloc+0x5e>
   19030:	04100613          	addi	a2,zero,65
   19034:	45a1                	c.li	a1,8
   19036:	649020ef          	jal	ra,1be7e <_calloc_r>
   1903a:	fca8                	c.sd	a0,120(s1)
   1903c:	f561                	c.bnez	a0,19004 <_Balloc+0x12>
   1903e:	4501                	c.li	a0,0
   19040:	60e2                	c.ldsp	ra,24(sp)
   19042:	6442                	c.ldsp	s0,16(sp)
   19044:	64a2                	c.ldsp	s1,8(sp)
   19046:	6902                	c.ldsp	s2,0(sp)
   19048:	6105                	c.addi16sp	sp,32
   1904a:	8082                	c.jr	ra
   1904c:	6118                	c.ld	a4,0(a0)
   1904e:	e398                	c.sd	a4,0(a5)
   19050:	00053823          	sd	zero,16(a0)
   19054:	b7f5                	c.j	19040 <_Balloc+0x4e>

0000000000019056 <_Bfree>:
   19056:	c989                	c.beqz	a1,19068 <_Bfree+0x12>
   19058:	459c                	c.lw	a5,8(a1)
   1905a:	00379713          	slli	a4,a5,0x3
   1905e:	7d3c                	c.ld	a5,120(a0)
   19060:	97ba                	c.add	a5,a4
   19062:	6398                	c.ld	a4,0(a5)
   19064:	e198                	c.sd	a4,0(a1)
   19066:	e38c                	c.sd	a1,0(a5)
   19068:	8082                	c.jr	ra

000000000001906a <__multadd>:
   1906a:	7139                	c.addi16sp	sp,-64
   1906c:	ec4e                	c.sdsp	s3,24(sp)
   1906e:	89aa                	c.mv	s3,a0
   19070:	6541                	c.lui	a0,0x10
   19072:	f822                	c.sdsp	s0,48(sp)
   19074:	f426                	c.sdsp	s1,40(sp)
   19076:	842e                	c.mv	s0,a1
   19078:	49c4                	c.lw	s1,20(a1)
   1907a:	fc06                	c.sdsp	ra,56(sp)
   1907c:	f04a                	c.sdsp	s2,32(sp)
   1907e:	05e1                	c.addi	a1,24
   19080:	4801                	c.li	a6,0
   19082:	157d                	c.addi	a0,-1
   19084:	419c                	c.lw	a5,0(a1)
   19086:	0591                	c.addi	a1,4
   19088:	2805                	c.addiw	a6,1
   1908a:	00a7f733          	and	a4,a5,a0
   1908e:	02c7073b          	mulw	a4,a4,a2
   19092:	0107d79b          	srliw	a5,a5,0x10
   19096:	02c787bb          	mulw	a5,a5,a2
   1909a:	9f35                	c.addw	a4,a3
   1909c:	0107569b          	srliw	a3,a4,0x10
   190a0:	8f69                	c.and	a4,a0
   190a2:	9fb5                	c.addw	a5,a3
   190a4:	0107d69b          	srliw	a3,a5,0x10
   190a8:	0107979b          	slliw	a5,a5,0x10
   190ac:	9fb9                	c.addw	a5,a4
   190ae:	fef5ae23          	sw	a5,-4(a1)
   190b2:	2681                	c.addiw	a3,0
   190b4:	fc9848e3          	blt	a6,s1,19084 <__multadd+0x1a>
   190b8:	c2a1                	c.beqz	a3,190f8 <__multadd+0x8e>
   190ba:	445c                	c.lw	a5,12(s0)
   190bc:	02f4c763          	blt	s1,a5,190ea <__multadd+0x80>
   190c0:	440c                	c.lw	a1,8(s0)
   190c2:	854e                	c.mv	a0,s3
   190c4:	e436                	c.sdsp	a3,8(sp)
   190c6:	2585                	c.addiw	a1,1
   190c8:	f2bff0ef          	jal	ra,18ff2 <_Balloc>
   190cc:	4850                	c.lw	a2,20(s0)
   190ce:	01040593          	addi	a1,s0,16
   190d2:	892a                	c.mv	s2,a0
   190d4:	0609                	c.addi	a2,2
   190d6:	060a                	c.slli	a2,0x2
   190d8:	0541                	c.addi	a0,16
   190da:	c52fc0ef          	jal	ra,1552c <memcpy>
   190de:	85a2                	c.mv	a1,s0
   190e0:	854e                	c.mv	a0,s3
   190e2:	f75ff0ef          	jal	ra,19056 <_Bfree>
   190e6:	66a2                	c.ldsp	a3,8(sp)
   190e8:	844a                	c.mv	s0,s2
   190ea:	00448793          	addi	a5,s1,4
   190ee:	078a                	c.slli	a5,0x2
   190f0:	97a2                	c.add	a5,s0
   190f2:	c794                	c.sw	a3,8(a5)
   190f4:	2485                	c.addiw	s1,1
   190f6:	c844                	c.sw	s1,20(s0)
   190f8:	8522                	c.mv	a0,s0
   190fa:	70e2                	c.ldsp	ra,56(sp)
   190fc:	7442                	c.ldsp	s0,48(sp)
   190fe:	74a2                	c.ldsp	s1,40(sp)
   19100:	7902                	c.ldsp	s2,32(sp)
   19102:	69e2                	c.ldsp	s3,24(sp)
   19104:	6121                	c.addi16sp	sp,64
   19106:	8082                	c.jr	ra

0000000000019108 <__s2b>:
   19108:	715d                	c.addi16sp	sp,-80
   1910a:	47a5                	c.li	a5,9
   1910c:	f44e                	c.sdsp	s3,40(sp)
   1910e:	89b6                	c.mv	s3,a3
   19110:	26a1                	c.addiw	a3,8
   19112:	e0a2                	c.sdsp	s0,64(sp)
   19114:	f84a                	c.sdsp	s2,48(sp)
   19116:	ec56                	c.sdsp	s5,24(sp)
   19118:	842e                	c.mv	s0,a1
   1911a:	02f6c6bb          	divw	a3,a3,a5
   1911e:	e486                	c.sdsp	ra,72(sp)
   19120:	fc26                	c.sdsp	s1,56(sp)
   19122:	f052                	c.sdsp	s4,32(sp)
   19124:	892a                	c.mv	s2,a0
   19126:	8ab2                	c.mv	s5,a2
   19128:	4785                	c.li	a5,1
   1912a:	4581                	c.li	a1,0
   1912c:	04d7ce63          	blt	a5,a3,19188 <__s2b+0x80>
   19130:	854a                	c.mv	a0,s2
   19132:	e43a                	c.sdsp	a4,8(sp)
   19134:	ebfff0ef          	jal	ra,18ff2 <_Balloc>
   19138:	6722                	c.ldsp	a4,8(sp)
   1913a:	4785                	c.li	a5,1
   1913c:	c95c                	c.sw	a5,20(a0)
   1913e:	cd18                	c.sw	a4,24(a0)
   19140:	47a5                	c.li	a5,9
   19142:	0557d763          	bge	a5,s5,19190 <__s2b+0x88>
   19146:	0425                	c.addi	s0,9
   19148:	8a22                	c.mv	s4,s0
   1914a:	44a5                	c.li	s1,9
   1914c:	0a05                	c.addi	s4,1
   1914e:	fffa4683          	lbu	a3,-1(s4)
   19152:	85aa                	c.mv	a1,a0
   19154:	4629                	c.li	a2,10
   19156:	fd06869b          	addiw	a3,a3,-48
   1915a:	854a                	c.mv	a0,s2
   1915c:	2485                	c.addiw	s1,1
   1915e:	f0dff0ef          	jal	ra,1906a <__multadd>
   19162:	fe9a95e3          	bne	s5,s1,1914c <__s2b+0x44>
   19166:	ff64879b          	addiw	a5,s1,-10
   1916a:	1782                	c.slli	a5,0x20
   1916c:	9381                	c.srli	a5,0x20
   1916e:	943e                	c.add	s0,a5
   19170:	0409                	c.addi	s0,2
   19172:	0334c263          	blt	s1,s3,19196 <__s2b+0x8e>
   19176:	60a6                	c.ldsp	ra,72(sp)
   19178:	6406                	c.ldsp	s0,64(sp)
   1917a:	74e2                	c.ldsp	s1,56(sp)
   1917c:	7942                	c.ldsp	s2,48(sp)
   1917e:	79a2                	c.ldsp	s3,40(sp)
   19180:	7a02                	c.ldsp	s4,32(sp)
   19182:	6ae2                	c.ldsp	s5,24(sp)
   19184:	6161                	c.addi16sp	sp,80
   19186:	8082                	c.jr	ra
   19188:	0017979b          	slliw	a5,a5,0x1
   1918c:	2585                	c.addiw	a1,1
   1918e:	bf79                	c.j	1912c <__s2b+0x24>
   19190:	0429                	c.addi	s0,10
   19192:	44a5                	c.li	s1,9
   19194:	bff9                	c.j	19172 <__s2b+0x6a>
   19196:	00044683          	lbu	a3,0(s0)
   1919a:	85aa                	c.mv	a1,a0
   1919c:	4629                	c.li	a2,10
   1919e:	fd06869b          	addiw	a3,a3,-48
   191a2:	854a                	c.mv	a0,s2
   191a4:	ec7ff0ef          	jal	ra,1906a <__multadd>
   191a8:	2485                	c.addiw	s1,1
   191aa:	0405                	c.addi	s0,1
   191ac:	b7d9                	c.j	19172 <__s2b+0x6a>

00000000000191ae <__hi0bits>:
   191ae:	7741                	c.lui	a4,0xffff0
   191b0:	8f69                	c.and	a4,a0
   191b2:	87aa                	c.mv	a5,a0
   191b4:	4501                	c.li	a0,0
   191b6:	e701                	c.bnez	a4,191be <__hi0bits+0x10>
   191b8:	0107979b          	slliw	a5,a5,0x10
   191bc:	4541                	c.li	a0,16
   191be:	ff000737          	lui	a4,0xff000
   191c2:	8f7d                	c.and	a4,a5
   191c4:	e701                	c.bnez	a4,191cc <__hi0bits+0x1e>
   191c6:	2521                	c.addiw	a0,8
   191c8:	0087979b          	slliw	a5,a5,0x8
   191cc:	f0000737          	lui	a4,0xf0000
   191d0:	8f7d                	c.and	a4,a5
   191d2:	e701                	c.bnez	a4,191da <__hi0bits+0x2c>
   191d4:	2511                	c.addiw	a0,4
   191d6:	0047979b          	slliw	a5,a5,0x4
   191da:	c0000737          	lui	a4,0xc0000
   191de:	8f7d                	c.and	a4,a5
   191e0:	e701                	c.bnez	a4,191e8 <__hi0bits+0x3a>
   191e2:	2509                	c.addiw	a0,2
   191e4:	0027979b          	slliw	a5,a5,0x2
   191e8:	0007ca63          	blt	a5,zero,191fc <__hi0bits+0x4e>
   191ec:	02179713          	slli	a4,a5,0x21
   191f0:	00075463          	bge	a4,zero,191f8 <__hi0bits+0x4a>
   191f4:	2505                	c.addiw	a0,1
   191f6:	8082                	c.jr	ra
   191f8:	02000513          	addi	a0,zero,32
   191fc:	8082                	c.jr	ra

00000000000191fe <__lo0bits>:
   191fe:	411c                	c.lw	a5,0(a0)
   19200:	0077f713          	andi	a4,a5,7
   19204:	86be                	c.mv	a3,a5
   19206:	c31d                	c.beqz	a4,1922c <__lo0bits+0x2e>
   19208:	0017f613          	andi	a2,a5,1
   1920c:	4701                	c.li	a4,0
   1920e:	ea01                	c.bnez	a2,1921e <__lo0bits+0x20>
   19210:	0026f713          	andi	a4,a3,2
   19214:	c719                	c.beqz	a4,19222 <__lo0bits+0x24>
   19216:	0017d79b          	srliw	a5,a5,0x1
   1921a:	c11c                	c.sw	a5,0(a0)
   1921c:	4705                	c.li	a4,1
   1921e:	853a                	c.mv	a0,a4
   19220:	8082                	c.jr	ra
   19222:	0027d79b          	srliw	a5,a5,0x2
   19226:	c11c                	c.sw	a5,0(a0)
   19228:	4709                	c.li	a4,2
   1922a:	bfd5                	c.j	1921e <__lo0bits+0x20>
   1922c:	03079693          	slli	a3,a5,0x30
   19230:	92c1                	c.srli	a3,0x30
   19232:	4701                	c.li	a4,0
   19234:	e689                	c.bnez	a3,1923e <__lo0bits+0x40>
   19236:	0107d79b          	srliw	a5,a5,0x10
   1923a:	2781                	c.addiw	a5,0
   1923c:	4741                	c.li	a4,16
   1923e:	0ff7f693          	andi	a3,a5,255
   19242:	e689                	c.bnez	a3,1924c <__lo0bits+0x4e>
   19244:	0087d79b          	srliw	a5,a5,0x8
   19248:	2721                	c.addiw	a4,8
   1924a:	2781                	c.addiw	a5,0
   1924c:	00f7f693          	andi	a3,a5,15
   19250:	e689                	c.bnez	a3,1925a <__lo0bits+0x5c>
   19252:	0047d79b          	srliw	a5,a5,0x4
   19256:	2711                	c.addiw	a4,4
   19258:	2781                	c.addiw	a5,0
   1925a:	0037f693          	andi	a3,a5,3
   1925e:	e689                	c.bnez	a3,19268 <__lo0bits+0x6a>
   19260:	0027d79b          	srliw	a5,a5,0x2
   19264:	2709                	c.addiw	a4,2
   19266:	2781                	c.addiw	a5,0
   19268:	0017f693          	andi	a3,a5,1
   1926c:	e691                	c.bnez	a3,19278 <__lo0bits+0x7a>
   1926e:	0017d79b          	srliw	a5,a5,0x1
   19272:	2781                	c.addiw	a5,0
   19274:	c781                	c.beqz	a5,1927c <__lo0bits+0x7e>
   19276:	2705                	c.addiw	a4,1
   19278:	c11c                	c.sw	a5,0(a0)
   1927a:	b755                	c.j	1921e <__lo0bits+0x20>
   1927c:	02000713          	addi	a4,zero,32
   19280:	bf79                	c.j	1921e <__lo0bits+0x20>

0000000000019282 <__i2b>:
   19282:	1141                	c.addi	sp,-16
   19284:	e022                	c.sdsp	s0,0(sp)
   19286:	842e                	c.mv	s0,a1
   19288:	4585                	c.li	a1,1
   1928a:	e406                	c.sdsp	ra,8(sp)
   1928c:	d67ff0ef          	jal	ra,18ff2 <_Balloc>
   19290:	cd00                	c.sw	s0,24(a0)
   19292:	60a2                	c.ldsp	ra,8(sp)
   19294:	6402                	c.ldsp	s0,0(sp)
   19296:	4705                	c.li	a4,1
   19298:	c958                	c.sw	a4,20(a0)
   1929a:	0141                	c.addi	sp,16
   1929c:	8082                	c.jr	ra

000000000001929e <__multiply>:
   1929e:	49d8                	c.lw	a4,20(a1)
   192a0:	4a5c                	c.lw	a5,20(a2)
   192a2:	7139                	c.addi16sp	sp,-64
   192a4:	f426                	c.sdsp	s1,40(sp)
   192a6:	fc06                	c.sdsp	ra,56(sp)
   192a8:	f822                	c.sdsp	s0,48(sp)
   192aa:	f04a                	c.sdsp	s2,32(sp)
   192ac:	ec4e                	c.sdsp	s3,24(sp)
   192ae:	84ae                	c.mv	s1,a1
   192b0:	00f75463          	bge	a4,a5,192b8 <__multiply+0x1a>
   192b4:	84b2                	c.mv	s1,a2
   192b6:	862e                	c.mv	a2,a1
   192b8:	0144a983          	lw	s3,20(s1)
   192bc:	01462903          	lw	s2,20(a2)
   192c0:	44dc                	c.lw	a5,12(s1)
   192c2:	448c                	c.lw	a1,8(s1)
   192c4:	0129843b          	addw	s0,s3,s2
   192c8:	0087d363          	bge	a5,s0,192ce <__multiply+0x30>
   192cc:	2585                	c.addiw	a1,1
   192ce:	e432                	c.sdsp	a2,8(sp)
   192d0:	d23ff0ef          	jal	ra,18ff2 <_Balloc>
   192d4:	6622                	c.ldsp	a2,8(sp)
   192d6:	01850813          	addi	a6,a0,24 # 10018 <main-0x98>
   192da:	00241313          	slli	t1,s0,0x2
   192de:	9342                	c.add	t1,a6
   192e0:	87c2                	c.mv	a5,a6
   192e2:	0267ed63          	bltu	a5,t1,1931c <__multiply+0x7e>
   192e6:	01848593          	addi	a1,s1,24
   192ea:	00299893          	slli	a7,s3,0x2
   192ee:	0661                	c.addi	a2,24
   192f0:	00291e13          	slli	t3,s2,0x2
   192f4:	66c1                	c.lui	a3,0x10
   192f6:	98ae                	c.add	a7,a1
   192f8:	9e32                	c.add	t3,a2
   192fa:	16fd                	c.addi	a3,-1
   192fc:	03c66463          	bltu	a2,t3,19324 <__multiply+0x86>
   19300:	00805663          	bge	zero,s0,1930c <__multiply+0x6e>
   19304:	1371                	c.addi	t1,-4
   19306:	00032783          	lw	a5,0(t1) # 10000 <main-0xb0>
   1930a:	cbf5                	c.beqz	a5,193fe <__multiply+0x160>
   1930c:	c940                	c.sw	s0,20(a0)
   1930e:	70e2                	c.ldsp	ra,56(sp)
   19310:	7442                	c.ldsp	s0,48(sp)
   19312:	74a2                	c.ldsp	s1,40(sp)
   19314:	7902                	c.ldsp	s2,32(sp)
   19316:	69e2                	c.ldsp	s3,24(sp)
   19318:	6121                	c.addi16sp	sp,64
   1931a:	8082                	c.jr	ra
   1931c:	0007a023          	sw	zero,0(a5)
   19320:	0791                	c.addi	a5,4
   19322:	b7c1                	c.j	192e2 <__multiply+0x44>
   19324:	00062f83          	lw	t6,0(a2)
   19328:	01f6ffb3          	and	t6,a3,t6
   1932c:	040f8f63          	beq	t6,zero,1938a <__multiply+0xec>
   19330:	82c2                	c.mv	t0,a6
   19332:	83ae                	c.mv	t2,a1
   19334:	4f01                	c.li	t5,0
   19336:	0003a703          	lw	a4,0(t2)
   1933a:	0002a483          	lw	s1,0(t0) # 1567a <memset+0x90>
   1933e:	0391                	c.addi	t2,4
   19340:	00d77eb3          	and	t4,a4,a3
   19344:	03fe8ebb          	mulw	t4,t4,t6
   19348:	00d4f7b3          	and	a5,s1,a3
   1934c:	0104d49b          	srliw	s1,s1,0x10
   19350:	00fe8ebb          	addw	t4,t4,a5
   19354:	0107579b          	srliw	a5,a4,0x10
   19358:	03f787bb          	mulw	a5,a5,t6
   1935c:	01ee8ebb          	addw	t4,t4,t5
   19360:	010ed71b          	srliw	a4,t4,0x10
   19364:	01d6feb3          	and	t4,a3,t4
   19368:	9fa5                	c.addw	a5,s1
   1936a:	9fb9                	c.addw	a5,a4
   1936c:	0107df1b          	srliw	t5,a5,0x10
   19370:	0107979b          	slliw	a5,a5,0x10
   19374:	00428713          	addi	a4,t0,4
   19378:	00fee7b3          	or	a5,t4,a5
   1937c:	fef72e23          	sw	a5,-4(a4) # ffffffffbffffffc <__global_pointer$+0xffffffffbffd437c>
   19380:	2f01                	c.addiw	t5,0
   19382:	0713ea63          	bltu	t2,a7,193f6 <__multiply+0x158>
   19386:	01e2a223          	sw	t5,4(t0)
   1938a:	00265283          	lhu	t0,2(a2)
   1938e:	06028163          	beq	t0,zero,193f0 <__multiply+0x152>
   19392:	00082e83          	lw	t4,0(a6)
   19396:	8f42                	c.mv	t5,a6
   19398:	8fae                	c.mv	t6,a1
   1939a:	4781                	c.li	a5,0
   1939c:	000fa703          	lw	a4,0(t6)
   193a0:	002f5383          	lhu	t2,2(t5)
   193a4:	00defeb3          	and	t4,t4,a3
   193a8:	8f75                	c.and	a4,a3
   193aa:	0257073b          	mulw	a4,a4,t0
   193ae:	0f91                	c.addi	t6,4
   193b0:	0077073b          	addw	a4,a4,t2
   193b4:	9f3d                	c.addw	a4,a5
   193b6:	0107179b          	slliw	a5,a4,0x10
   193ba:	00feeeb3          	or	t4,t4,a5
   193be:	004f0393          	addi	t2,t5,4
   193c2:	ffd3ae23          	sw	t4,-4(t2)
   193c6:	ffefd783          	lhu	a5,-2(t6)
   193ca:	004f2e83          	lw	t4,4(t5)
   193ce:	0107571b          	srliw	a4,a4,0x10
   193d2:	025787bb          	mulw	a5,a5,t0
   193d6:	00defeb3          	and	t4,t4,a3
   193da:	01d787bb          	addw	a5,a5,t4
   193de:	00e78ebb          	addw	t4,a5,a4
   193e2:	010ed79b          	srliw	a5,t4,0x10
   193e6:	2781                	c.addiw	a5,0
   193e8:	011fe963          	bltu	t6,a7,193fa <__multiply+0x15c>
   193ec:	01df2223          	sw	t4,4(t5)
   193f0:	0611                	c.addi	a2,4
   193f2:	0811                	c.addi	a6,4
   193f4:	b721                	c.j	192fc <__multiply+0x5e>
   193f6:	82ba                	c.mv	t0,a4
   193f8:	bf3d                	c.j	19336 <__multiply+0x98>
   193fa:	8f1e                	c.mv	t5,t2
   193fc:	b745                	c.j	1939c <__multiply+0xfe>
   193fe:	347d                	c.addiw	s0,-1
   19400:	b701                	c.j	19300 <__multiply+0x62>

0000000000019402 <__pow5mult>:
   19402:	7179                	c.addi16sp	sp,-48
   19404:	ec26                	c.sdsp	s1,24(sp)
   19406:	e84a                	c.sdsp	s2,16(sp)
   19408:	e44e                	c.sdsp	s3,8(sp)
   1940a:	f406                	c.sdsp	ra,40(sp)
   1940c:	f022                	c.sdsp	s0,32(sp)
   1940e:	e052                	c.sdsp	s4,0(sp)
   19410:	00367793          	andi	a5,a2,3
   19414:	892a                	c.mv	s2,a0
   19416:	84b2                	c.mv	s1,a2
   19418:	89ae                	c.mv	s3,a1
   1941a:	cf89                	c.beqz	a5,19434 <__pow5mult+0x32>
   1941c:	37fd                	c.addiw	a5,-1
   1941e:	00029737          	lui	a4,0x29
   19422:	c5070713          	addi	a4,a4,-944 # 28c50 <p05.3264>
   19426:	078a                	c.slli	a5,0x2
   19428:	97ba                	c.add	a5,a4
   1942a:	4390                	c.lw	a2,0(a5)
   1942c:	4681                	c.li	a3,0
   1942e:	c3dff0ef          	jal	ra,1906a <__multadd>
   19432:	89aa                	c.mv	s3,a0
   19434:	8489                	c.srai	s1,0x2
   19436:	c8b1                	c.beqz	s1,1948a <__pow5mult+0x88>
   19438:	07093403          	ld	s0,112(s2)
   1943c:	e819                	c.bnez	s0,19452 <__pow5mult+0x50>
   1943e:	27100593          	addi	a1,zero,625
   19442:	854a                	c.mv	a0,s2
   19444:	e3fff0ef          	jal	ra,19282 <__i2b>
   19448:	06a93823          	sd	a0,112(s2)
   1944c:	842a                	c.mv	s0,a0
   1944e:	00053023          	sd	zero,0(a0)
   19452:	0014f793          	andi	a5,s1,1
   19456:	cf81                	c.beqz	a5,1946e <__pow5mult+0x6c>
   19458:	85ce                	c.mv	a1,s3
   1945a:	8622                	c.mv	a2,s0
   1945c:	854a                	c.mv	a0,s2
   1945e:	e41ff0ef          	jal	ra,1929e <__multiply>
   19462:	8a2a                	c.mv	s4,a0
   19464:	85ce                	c.mv	a1,s3
   19466:	854a                	c.mv	a0,s2
   19468:	befff0ef          	jal	ra,19056 <_Bfree>
   1946c:	89d2                	c.mv	s3,s4
   1946e:	8485                	c.srai	s1,0x1
   19470:	cc89                	c.beqz	s1,1948a <__pow5mult+0x88>
   19472:	6008                	c.ld	a0,0(s0)
   19474:	e909                	c.bnez	a0,19486 <__pow5mult+0x84>
   19476:	8622                	c.mv	a2,s0
   19478:	85a2                	c.mv	a1,s0
   1947a:	854a                	c.mv	a0,s2
   1947c:	e23ff0ef          	jal	ra,1929e <__multiply>
   19480:	e008                	c.sd	a0,0(s0)
   19482:	00053023          	sd	zero,0(a0)
   19486:	842a                	c.mv	s0,a0
   19488:	b7e9                	c.j	19452 <__pow5mult+0x50>
   1948a:	70a2                	c.ldsp	ra,40(sp)
   1948c:	7402                	c.ldsp	s0,32(sp)
   1948e:	854e                	c.mv	a0,s3
   19490:	64e2                	c.ldsp	s1,24(sp)
   19492:	6942                	c.ldsp	s2,16(sp)
   19494:	69a2                	c.ldsp	s3,8(sp)
   19496:	6a02                	c.ldsp	s4,0(sp)
   19498:	6145                	c.addi16sp	sp,48
   1949a:	8082                	c.jr	ra

000000000001949c <__lshift>:
   1949c:	715d                	c.addi16sp	sp,-80
   1949e:	fc26                	c.sdsp	s1,56(sp)
   194a0:	84ae                	c.mv	s1,a1
   194a2:	f44e                	c.sdsp	s3,40(sp)
   194a4:	0144a983          	lw	s3,20(s1)
   194a8:	e85a                	c.sdsp	s6,16(sp)
   194aa:	458c                	c.lw	a1,8(a1)
   194ac:	40565b1b          	sraiw	s6,a2,0x5
   194b0:	44dc                	c.lw	a5,12(s1)
   194b2:	016989bb          	addw	s3,s3,s6
   194b6:	e0a2                	c.sdsp	s0,64(sp)
   194b8:	f84a                	c.sdsp	s2,48(sp)
   194ba:	ec56                	c.sdsp	s5,24(sp)
   194bc:	e486                	c.sdsp	ra,72(sp)
   194be:	f052                	c.sdsp	s4,32(sp)
   194c0:	8aaa                	c.mv	s5,a0
   194c2:	845a                	c.mv	s0,s6
   194c4:	0019891b          	addiw	s2,s3,1
   194c8:	0927c463          	blt	a5,s2,19550 <__lshift+0xb4>
   194cc:	8556                	c.mv	a0,s5
   194ce:	e432                	c.sdsp	a2,8(sp)
   194d0:	b23ff0ef          	jal	ra,18ff2 <_Balloc>
   194d4:	6622                	c.ldsp	a2,8(sp)
   194d6:	01850793          	addi	a5,a0,24
   194da:	8a2a                	c.mv	s4,a0
   194dc:	86be                	c.mv	a3,a5
   194de:	4701                	c.li	a4,0
   194e0:	0691                	c.addi	a3,4
   194e2:	07674b63          	blt	a4,s6,19558 <__lshift+0xbc>
   194e6:	000b5363          	bge	s6,zero,194ec <__lshift+0x50>
   194ea:	4401                	c.li	s0,0
   194ec:	48d4                	c.lw	a3,20(s1)
   194ee:	040a                	c.slli	s0,0x2
   194f0:	943e                	c.add	s0,a5
   194f2:	068a                	c.slli	a3,0x2
   194f4:	01848793          	addi	a5,s1,24
   194f8:	8a7d                	c.andi	a2,31
   194fa:	96be                	c.add	a3,a5
   194fc:	c625                	c.beqz	a2,19564 <__lshift+0xc8>
   194fe:	02000593          	addi	a1,zero,32
   19502:	9d91                	c.subw	a1,a2
   19504:	4701                	c.li	a4,0
   19506:	4388                	c.lw	a0,0(a5)
   19508:	00440813          	addi	a6,s0,4
   1950c:	0791                	c.addi	a5,4
   1950e:	00c5153b          	sllw	a0,a0,a2
   19512:	8f49                	c.or	a4,a0
   19514:	fee82e23          	sw	a4,-4(a6)
   19518:	ffc7a703          	lw	a4,-4(a5)
   1951c:	00b7573b          	srlw	a4,a4,a1
   19520:	04d7e063          	bltu	a5,a3,19560 <__lshift+0xc4>
   19524:	c058                	c.sw	a4,4(s0)
   19526:	c319                	c.beqz	a4,1952c <__lshift+0x90>
   19528:	0029891b          	addiw	s2,s3,2
   1952c:	397d                	c.addiw	s2,-1
   1952e:	012a2a23          	sw	s2,20(s4)
   19532:	8556                	c.mv	a0,s5
   19534:	85a6                	c.mv	a1,s1
   19536:	b21ff0ef          	jal	ra,19056 <_Bfree>
   1953a:	60a6                	c.ldsp	ra,72(sp)
   1953c:	6406                	c.ldsp	s0,64(sp)
   1953e:	8552                	c.mv	a0,s4
   19540:	74e2                	c.ldsp	s1,56(sp)
   19542:	7942                	c.ldsp	s2,48(sp)
   19544:	79a2                	c.ldsp	s3,40(sp)
   19546:	7a02                	c.ldsp	s4,32(sp)
   19548:	6ae2                	c.ldsp	s5,24(sp)
   1954a:	6b42                	c.ldsp	s6,16(sp)
   1954c:	6161                	c.addi16sp	sp,80
   1954e:	8082                	c.jr	ra
   19550:	2585                	c.addiw	a1,1
   19552:	0017979b          	slliw	a5,a5,0x1
   19556:	bf8d                	c.j	194c8 <__lshift+0x2c>
   19558:	fe06ae23          	sw	zero,-4(a3) # fffc <main-0xb4>
   1955c:	2705                	c.addiw	a4,1
   1955e:	b749                	c.j	194e0 <__lshift+0x44>
   19560:	8442                	c.mv	s0,a6
   19562:	b755                	c.j	19506 <__lshift+0x6a>
   19564:	0791                	c.addi	a5,4
   19566:	ffc7a703          	lw	a4,-4(a5)
   1956a:	0411                	c.addi	s0,4
   1956c:	fee42e23          	sw	a4,-4(s0)
   19570:	fed7eae3          	bltu	a5,a3,19564 <__lshift+0xc8>
   19574:	bf65                	c.j	1952c <__lshift+0x90>

0000000000019576 <__mcmp>:
   19576:	495c                	c.lw	a5,20(a0)
   19578:	49d8                	c.lw	a4,20(a1)
   1957a:	9f99                	c.subw	a5,a4
   1957c:	e38d                	c.bnez	a5,1959e <__mcmp+0x28>
   1957e:	070a                	c.slli	a4,0x2
   19580:	0561                	c.addi	a0,24
   19582:	05e1                	c.addi	a1,24
   19584:	00e506b3          	add	a3,a0,a4
   19588:	95ba                	c.add	a1,a4
   1958a:	16f1                	c.addi	a3,-4
   1958c:	15f1                	c.addi	a1,-4
   1958e:	4290                	c.lw	a2,0(a3)
   19590:	4198                	c.lw	a4,0(a1)
   19592:	00e60863          	beq	a2,a4,195a2 <__mcmp+0x2c>
   19596:	57fd                	c.li	a5,-1
   19598:	00e66363          	bltu	a2,a4,1959e <__mcmp+0x28>
   1959c:	4785                	c.li	a5,1
   1959e:	853e                	c.mv	a0,a5
   195a0:	8082                	c.jr	ra
   195a2:	fed564e3          	bltu	a0,a3,1958a <__mcmp+0x14>
   195a6:	bfe5                	c.j	1959e <__mcmp+0x28>

00000000000195a8 <__mdiff>:
   195a8:	7179                	c.addi16sp	sp,-48
   195aa:	ec26                	c.sdsp	s1,24(sp)
   195ac:	84ae                	c.mv	s1,a1
   195ae:	e44e                	c.sdsp	s3,8(sp)
   195b0:	85b2                	c.mv	a1,a2
   195b2:	89aa                	c.mv	s3,a0
   195b4:	8526                	c.mv	a0,s1
   195b6:	f022                	c.sdsp	s0,32(sp)
   195b8:	f406                	c.sdsp	ra,40(sp)
   195ba:	e84a                	c.sdsp	s2,16(sp)
   195bc:	8432                	c.mv	s0,a2
   195be:	fb9ff0ef          	jal	ra,19576 <__mcmp>
   195c2:	e105                	c.bnez	a0,195e2 <__mdiff+0x3a>
   195c4:	4581                	c.li	a1,0
   195c6:	854e                	c.mv	a0,s3
   195c8:	a2bff0ef          	jal	ra,18ff2 <_Balloc>
   195cc:	4785                	c.li	a5,1
   195ce:	c95c                	c.sw	a5,20(a0)
   195d0:	00052c23          	sw	zero,24(a0)
   195d4:	70a2                	c.ldsp	ra,40(sp)
   195d6:	7402                	c.ldsp	s0,32(sp)
   195d8:	64e2                	c.ldsp	s1,24(sp)
   195da:	6942                	c.ldsp	s2,16(sp)
   195dc:	69a2                	c.ldsp	s3,8(sp)
   195de:	6145                	c.addi16sp	sp,48
   195e0:	8082                	c.jr	ra
   195e2:	4905                	c.li	s2,1
   195e4:	00054663          	blt	a0,zero,195f0 <__mdiff+0x48>
   195e8:	87a2                	c.mv	a5,s0
   195ea:	4901                	c.li	s2,0
   195ec:	8426                	c.mv	s0,s1
   195ee:	84be                	c.mv	s1,a5
   195f0:	440c                	c.lw	a1,8(s0)
   195f2:	854e                	c.mv	a0,s3
   195f4:	9ffff0ef          	jal	ra,18ff2 <_Balloc>
   195f8:	01442303          	lw	t1,20(s0)
   195fc:	0144a883          	lw	a7,20(s1)
   19600:	01840613          	addi	a2,s0,24
   19604:	00231e13          	slli	t3,t1,0x2
   19608:	01848813          	addi	a6,s1,24
   1960c:	088a                	c.slli	a7,0x2
   1960e:	6f41                	c.lui	t5,0x10
   19610:	01252823          	sw	s2,16(a0)
   19614:	9e32                	c.add	t3,a2
   19616:	98c2                	c.add	a7,a6
   19618:	01850693          	addi	a3,a0,24
   1961c:	4f81                	c.li	t6,0
   1961e:	1f7d                	c.addi	t5,-1
   19620:	4218                	c.lw	a4,0(a2)
   19622:	00082783          	lw	a5,0(a6)
   19626:	0691                	c.addi	a3,4
   19628:	01e775b3          	and	a1,a4,t5
   1962c:	01f585bb          	addw	a1,a1,t6
   19630:	01e7feb3          	and	t4,a5,t5
   19634:	41d58ebb          	subw	t4,a1,t4
   19638:	0107571b          	srliw	a4,a4,0x10
   1963c:	0107d79b          	srliw	a5,a5,0x10
   19640:	40f707bb          	subw	a5,a4,a5
   19644:	410ed59b          	sraiw	a1,t4,0x10
   19648:	9fad                	c.addw	a5,a1
   1964a:	4107df9b          	sraiw	t6,a5,0x10
   1964e:	01eef733          	and	a4,t4,t5
   19652:	0107979b          	slliw	a5,a5,0x10
   19656:	8fd9                	c.or	a5,a4
   19658:	0811                	c.addi	a6,4
   1965a:	fef6ae23          	sw	a5,-4(a3)
   1965e:	0611                	c.addi	a2,4
   19660:	fd1860e3          	bltu	a6,a7,19620 <__mdiff+0x78>
   19664:	68c1                	c.lui	a7,0x10
   19666:	18fd                	c.addi	a7,-1
   19668:	01c66863          	bltu	a2,t3,19678 <__mdiff+0xd0>
   1966c:	16f1                	c.addi	a3,-4
   1966e:	429c                	c.lw	a5,0(a3)
   19670:	cb9d                	c.beqz	a5,196a6 <__mdiff+0xfe>
   19672:	00652a23          	sw	t1,20(a0)
   19676:	bfb9                	c.j	195d4 <__mdiff+0x2c>
   19678:	4218                	c.lw	a4,0(a2)
   1967a:	0691                	c.addi	a3,4
   1967c:	0611                	c.addi	a2,4
   1967e:	011775b3          	and	a1,a4,a7
   19682:	01f5883b          	addw	a6,a1,t6
   19686:	0107571b          	srliw	a4,a4,0x10
   1968a:	4108559b          	sraiw	a1,a6,0x10
   1968e:	00b707bb          	addw	a5,a4,a1
   19692:	4107df9b          	sraiw	t6,a5,0x10
   19696:	01187733          	and	a4,a6,a7
   1969a:	0107979b          	slliw	a5,a5,0x10
   1969e:	8fd9                	c.or	a5,a4
   196a0:	fef6ae23          	sw	a5,-4(a3)
   196a4:	b7d1                	c.j	19668 <__mdiff+0xc0>
   196a6:	337d                	c.addiw	t1,-1
   196a8:	b7d1                	c.j	1966c <__mdiff+0xc4>

00000000000196aa <__ulp>:
   196aa:	e20507d3          	fmv.x.d	a5,fa0
   196ae:	7ff00737          	lui	a4,0x7ff00
   196b2:	9381                	c.srli	a5,0x20
   196b4:	8f7d                	c.and	a4,a5
   196b6:	fcc007b7          	lui	a5,0xfcc00
   196ba:	9fb9                	c.addw	a5,a4
   196bc:	0007871b          	addiw	a4,a5,0
   196c0:	00e05763          	bge	zero,a4,196ce <__ulp+0x24>
   196c4:	02079713          	slli	a4,a5,0x20
   196c8:	f2070553          	fmv.d.x	fa0,a4
   196cc:	8082                	c.jr	ra
   196ce:	40f007bb          	subw	a5,zero,a5
   196d2:	4147d79b          	sraiw	a5,a5,0x14
   196d6:	474d                	c.li	a4,19
   196d8:	00f74763          	blt	a4,a5,196e6 <__ulp+0x3c>
   196dc:	00080737          	lui	a4,0x80
   196e0:	40f757bb          	sraw	a5,a4,a5
   196e4:	b7c5                	c.j	196c4 <__ulp+0x1a>
   196e6:	37b1                	c.addiw	a5,-20
   196e8:	4679                	c.li	a2,30
   196ea:	4701                	c.li	a4,0
   196ec:	4685                	c.li	a3,1
   196ee:	00f64663          	blt	a2,a5,196fa <__ulp+0x50>
   196f2:	fff7c793          	xori	a5,a5,-1
   196f6:	00f696bb          	sllw	a3,a3,a5
   196fa:	57fd                	c.li	a5,-1
   196fc:	1682                	c.slli	a3,0x20
   196fe:	1782                	c.slli	a5,0x20
   19700:	9281                	c.srli	a3,0x20
   19702:	8ff9                	c.and	a5,a4
   19704:	00d7e733          	or	a4,a5,a3
   19708:	b7c1                	c.j	196c8 <__ulp+0x1e>

000000000001970a <__b2d>:
   1970a:	7139                	c.addi16sp	sp,-64
   1970c:	f426                	c.sdsp	s1,40(sp)
   1970e:	4944                	c.lw	s1,20(a0)
   19710:	ec4e                	c.sdsp	s3,24(sp)
   19712:	01850993          	addi	s3,a0,24
   19716:	048a                	c.slli	s1,0x2
   19718:	94ce                	c.add	s1,s3
   1971a:	f822                	c.sdsp	s0,48(sp)
   1971c:	ffc4a403          	lw	s0,-4(s1)
   19720:	f04a                	c.sdsp	s2,32(sp)
   19722:	e42e                	c.sdsp	a1,8(sp)
   19724:	8522                	c.mv	a0,s0
   19726:	fc06                	c.sdsp	ra,56(sp)
   19728:	a87ff0ef          	jal	ra,191ae <__hi0bits>
   1972c:	65a2                	c.ldsp	a1,8(sp)
   1972e:	02000793          	addi	a5,zero,32
   19732:	9f89                	c.subw	a5,a0
   19734:	c19c                	c.sw	a5,0(a1)
   19736:	47a9                	c.li	a5,10
   19738:	ffc48913          	addi	s2,s1,-4
   1973c:	04a7c763          	blt	a5,a0,1978a <__b2d+0x80>
   19740:	46ad                	c.li	a3,11
   19742:	40a6863b          	subw	a2,a3,a0
   19746:	00c4573b          	srlw	a4,s0,a2
   1974a:	3ff007b7          	lui	a5,0x3ff00
   1974e:	8f5d                	c.or	a4,a5
   19750:	1702                	c.slli	a4,0x20
   19752:	4681                	c.li	a3,0
   19754:	0129f463          	bgeu	s3,s2,1975c <__b2d+0x52>
   19758:	ff84a683          	lw	a3,-8(s1)
   1975c:	0155079b          	addiw	a5,a0,21
   19760:	00f417bb          	sllw	a5,s0,a5
   19764:	00c6d6bb          	srlw	a3,a3,a2
   19768:	8fd5                	c.or	a5,a3
   1976a:	547d                	c.li	s0,-1
   1976c:	1782                	c.slli	a5,0x20
   1976e:	1402                	c.slli	s0,0x20
   19770:	9381                	c.srli	a5,0x20
   19772:	8c79                	c.and	s0,a4
   19774:	00f46733          	or	a4,s0,a5
   19778:	70e2                	c.ldsp	ra,56(sp)
   1977a:	7442                	c.ldsp	s0,48(sp)
   1977c:	74a2                	c.ldsp	s1,40(sp)
   1977e:	7902                	c.ldsp	s2,32(sp)
   19780:	69e2                	c.ldsp	s3,24(sp)
   19782:	f2070553          	fmv.d.x	fa0,a4
   19786:	6121                	c.addi16sp	sp,64
   19788:	8082                	c.jr	ra
   1978a:	4681                	c.li	a3,0
   1978c:	0129f663          	bgeu	s3,s2,19798 <__b2d+0x8e>
   19790:	ff84a683          	lw	a3,-8(s1)
   19794:	ff848913          	addi	s2,s1,-8
   19798:	ff55079b          	addiw	a5,a0,-11
   1979c:	853e                	c.mv	a0,a5
   1979e:	c3a9                	c.beqz	a5,197e0 <__b2d+0xd6>
   197a0:	02000793          	addi	a5,zero,32
   197a4:	40a7863b          	subw	a2,a5,a0
   197a8:	00a4143b          	sllw	s0,s0,a0
   197ac:	3ff007b7          	lui	a5,0x3ff00
   197b0:	8c5d                	c.or	s0,a5
   197b2:	00c6d7bb          	srlw	a5,a3,a2
   197b6:	8c5d                	c.or	s0,a5
   197b8:	02041713          	slli	a4,s0,0x20
   197bc:	4781                	c.li	a5,0
   197be:	0129f463          	bgeu	s3,s2,197c6 <__b2d+0xbc>
   197c2:	ffc92783          	lw	a5,-4(s2)
   197c6:	00a696bb          	sllw	a3,a3,a0
   197ca:	00c7d7bb          	srlw	a5,a5,a2
   197ce:	8edd                	c.or	a3,a5
   197d0:	547d                	c.li	s0,-1
   197d2:	1682                	c.slli	a3,0x20
   197d4:	1402                	c.slli	s0,0x20
   197d6:	9281                	c.srli	a3,0x20
   197d8:	8c79                	c.and	s0,a4
   197da:	00d46733          	or	a4,s0,a3
   197de:	bf69                	c.j	19778 <__b2d+0x6e>
   197e0:	3ff007b7          	lui	a5,0x3ff00
   197e4:	02069713          	slli	a4,a3,0x20
   197e8:	8c5d                	c.or	s0,a5
   197ea:	9301                	c.srli	a4,0x20
   197ec:	1402                	c.slli	s0,0x20
   197ee:	8f41                	c.or	a4,s0
   197f0:	b761                	c.j	19778 <__b2d+0x6e>

00000000000197f2 <__d2b>:
   197f2:	7139                	c.addi16sp	sp,-64
   197f4:	f822                	c.sdsp	s0,48(sp)
   197f6:	e852                	c.sdsp	s4,16(sp)
   197f8:	e2050453          	fmv.x.d	s0,fa0
   197fc:	8a2e                	c.mv	s4,a1
   197fe:	4585                	c.li	a1,1
   19800:	f426                	c.sdsp	s1,40(sp)
   19802:	f04a                	c.sdsp	s2,32(sp)
   19804:	ec4e                	c.sdsp	s3,24(sp)
   19806:	fc06                	c.sdsp	ra,56(sp)
   19808:	8932                	c.mv	s2,a2
   1980a:	fe8ff0ef          	jal	ra,18ff2 <_Balloc>
   1980e:	001007b7          	lui	a5,0x100
   19812:	42045493          	srai	s1,s0,0x20
   19816:	17fd                	c.addi	a5,-1
   19818:	8fe5                	c.and	a5,s1
   1981a:	0144d49b          	srliw	s1,s1,0x14
   1981e:	7ff4f493          	andi	s1,s1,2047
   19822:	89aa                	c.mv	s3,a0
   19824:	e0bd                	c.bnez	s1,1988a <__d2b+0x98>
   19826:	c63e                	c.swsp	a5,12(sp)
   19828:	2401                	c.addiw	s0,0
   1982a:	c43d                	c.beqz	s0,19898 <__d2b+0xa6>
   1982c:	0028                	c.addi4spn	a0,sp,8
   1982e:	c422                	c.swsp	s0,8(sp)
   19830:	9cfff0ef          	jal	ra,191fe <__lo0bits>
   19834:	46a2                	c.lwsp	a3,8(sp)
   19836:	cd31                	c.beqz	a0,19892 <__d2b+0xa0>
   19838:	4732                	c.lwsp	a4,12(sp)
   1983a:	02000793          	addi	a5,zero,32
   1983e:	9f89                	c.subw	a5,a0
   19840:	00f717bb          	sllw	a5,a4,a5
   19844:	8fd5                	c.or	a5,a3
   19846:	00a7573b          	srlw	a4,a4,a0
   1984a:	00f9ac23          	sw	a5,24(s3)
   1984e:	c63a                	c.swsp	a4,12(sp)
   19850:	4432                	c.lwsp	s0,12(sp)
   19852:	0089ae23          	sw	s0,28(s3)
   19856:	00803433          	sltu	s0,zero,s0
   1985a:	0405                	c.addi	s0,1
   1985c:	0089aa23          	sw	s0,20(s3)
   19860:	c8a9                	c.beqz	s1,198b2 <__d2b+0xc0>
   19862:	bcd4849b          	addiw	s1,s1,-1075
   19866:	9ca9                	c.addw	s1,a0
   19868:	03500793          	addi	a5,zero,53
   1986c:	009a2023          	sw	s1,0(s4)
   19870:	40a7853b          	subw	a0,a5,a0
   19874:	00a92023          	sw	a0,0(s2)
   19878:	70e2                	c.ldsp	ra,56(sp)
   1987a:	7442                	c.ldsp	s0,48(sp)
   1987c:	854e                	c.mv	a0,s3
   1987e:	74a2                	c.ldsp	s1,40(sp)
   19880:	7902                	c.ldsp	s2,32(sp)
   19882:	69e2                	c.ldsp	s3,24(sp)
   19884:	6a42                	c.ldsp	s4,16(sp)
   19886:	6121                	c.addi16sp	sp,64
   19888:	8082                	c.jr	ra
   1988a:	00100737          	lui	a4,0x100
   1988e:	8fd9                	c.or	a5,a4
   19890:	bf59                	c.j	19826 <__d2b+0x34>
   19892:	00d9ac23          	sw	a3,24(s3)
   19896:	bf6d                	c.j	19850 <__d2b+0x5e>
   19898:	0068                	c.addi4spn	a0,sp,12
   1989a:	965ff0ef          	jal	ra,191fe <__lo0bits>
   1989e:	47b2                	c.lwsp	a5,12(sp)
   198a0:	0205051b          	addiw	a0,a0,32
   198a4:	4405                	c.li	s0,1
   198a6:	00f9ac23          	sw	a5,24(s3)
   198aa:	4785                	c.li	a5,1
   198ac:	00f9aa23          	sw	a5,20(s3)
   198b0:	bf45                	c.j	19860 <__d2b+0x6e>
   198b2:	bce5051b          	addiw	a0,a0,-1074
   198b6:	00241793          	slli	a5,s0,0x2
   198ba:	00aa2023          	sw	a0,0(s4)
   198be:	97ce                	c.add	a5,s3
   198c0:	4bc8                	c.lw	a0,20(a5)
   198c2:	0054141b          	slliw	s0,s0,0x5
   198c6:	8e9ff0ef          	jal	ra,191ae <__hi0bits>
   198ca:	9c09                	c.subw	s0,a0
   198cc:	00892023          	sw	s0,0(s2)
   198d0:	b765                	c.j	19878 <__d2b+0x86>

00000000000198d2 <__ratio>:
   198d2:	7139                	c.addi16sp	sp,-64
   198d4:	f04a                	c.sdsp	s2,32(sp)
   198d6:	892e                	c.mv	s2,a1
   198d8:	002c                	c.addi4spn	a1,sp,8
   198da:	fc06                	c.sdsp	ra,56(sp)
   198dc:	f426                	c.sdsp	s1,40(sp)
   198de:	ec4e                	c.sdsp	s3,24(sp)
   198e0:	f822                	c.sdsp	s0,48(sp)
   198e2:	89aa                	c.mv	s3,a0
   198e4:	e27ff0ef          	jal	ra,1970a <__b2d>
   198e8:	006c                	c.addi4spn	a1,sp,12
   198ea:	854a                	c.mv	a0,s2
   198ec:	e20504d3          	fmv.x.d	s1,fa0
   198f0:	e1bff0ef          	jal	ra,1970a <__b2d>
   198f4:	01492683          	lw	a3,20(s2)
   198f8:	0149a783          	lw	a5,20(s3)
   198fc:	45b2                	c.lwsp	a1,12(sp)
   198fe:	e2050653          	fmv.x.d	a2,fa0
   19902:	9f95                	c.subw	a5,a3
   19904:	46a2                	c.lwsp	a3,8(sp)
   19906:	0057979b          	slliw	a5,a5,0x5
   1990a:	9e8d                	c.subw	a3,a1
   1990c:	9ebd                	c.addw	a3,a5
   1990e:	87b6                	c.mv	a5,a3
   19910:	02d05a63          	bge	zero,a3,19944 <__ratio+0x72>
   19914:	0146979b          	slliw	a5,a3,0x14
   19918:	547d                	c.li	s0,-1
   1991a:	0204d693          	srli	a3,s1,0x20
   1991e:	9fb5                	c.addw	a5,a3
   19920:	9001                	c.srli	s0,0x20
   19922:	1782                	c.slli	a5,0x20
   19924:	8c65                	c.and	s0,s1
   19926:	8732                	c.mv	a4,a2
   19928:	8c5d                	c.or	s0,a5
   1992a:	f20407d3          	fmv.d.x	fa5,s0
   1992e:	70e2                	c.ldsp	ra,56(sp)
   19930:	7442                	c.ldsp	s0,48(sp)
   19932:	f2070753          	fmv.d.x	fa4,a4
   19936:	74a2                	c.ldsp	s1,40(sp)
   19938:	7902                	c.ldsp	s2,32(sp)
   1993a:	69e2                	c.ldsp	s3,24(sp)
   1993c:	1ae7f553          	fdiv.d	fa0,fa5,fa4
   19940:	6121                	c.addi16sp	sp,64
   19942:	8082                	c.jr	ra
   19944:	fff006b7          	lui	a3,0xfff00
   19948:	02f687bb          	mulw	a5,a3,a5
   1994c:	02065713          	srli	a4,a2,0x20
   19950:	8426                	c.mv	s0,s1
   19952:	9fb9                	c.addw	a5,a4
   19954:	577d                	c.li	a4,-1
   19956:	9301                	c.srli	a4,0x20
   19958:	1782                	c.slli	a5,0x20
   1995a:	8f71                	c.and	a4,a2
   1995c:	8f5d                	c.or	a4,a5
   1995e:	b7f1                	c.j	1992a <__ratio+0x58>

0000000000019960 <_mprec_log10>:
   19960:	47dd                	c.li	a5,23
   19962:	00a7ca63          	blt	a5,a0,19976 <_mprec_log10+0x16>
   19966:	000297b7          	lui	a5,0x29
   1996a:	c5078793          	addi	a5,a5,-944 # 28c50 <p05.3264>
   1996e:	050e                	c.slli	a0,0x3
   19970:	953e                	c.add	a0,a5
   19972:	2908                	c.fld	fa0,16(a0)
   19974:	8082                	c.jr	ra
   19976:	0002b7b7          	lui	a5,0x2b
   1997a:	4887b507          	fld	fa0,1160(a5) # 2b488 <__TMC_END__+0x8>
   1997e:	0002b7b7          	lui	a5,0x2b
   19982:	4907b787          	fld	fa5,1168(a5) # 2b490 <__TMC_END__+0x10>
   19986:	357d                	c.addiw	a0,-1
   19988:	12f57553          	fmul.d	fa0,fa0,fa5
   1998c:	fd6d                	c.bnez	a0,19986 <_mprec_log10+0x26>
   1998e:	8082                	c.jr	ra

0000000000019990 <__copybits>:
   19990:	fff5879b          	addiw	a5,a1,-1
   19994:	4a58                	c.lw	a4,20(a2)
   19996:	4057d79b          	sraiw	a5,a5,0x5
   1999a:	0785                	c.addi	a5,1
   1999c:	078a                	c.slli	a5,0x2
   1999e:	01860693          	addi	a3,a2,24
   199a2:	070a                	c.slli	a4,0x2
   199a4:	97aa                	c.add	a5,a0
   199a6:	9736                	c.add	a4,a3
   199a8:	00e6e563          	bltu	a3,a4,199b2 <__copybits+0x22>
   199ac:	00f56a63          	bltu	a0,a5,199c0 <__copybits+0x30>
   199b0:	8082                	c.jr	ra
   199b2:	0691                	c.addi	a3,4
   199b4:	ffc6a603          	lw	a2,-4(a3) # ffffffffffeffffc <__global_pointer$+0xffffffffffed437c>
   199b8:	0511                	c.addi	a0,4
   199ba:	fec52e23          	sw	a2,-4(a0)
   199be:	b7ed                	c.j	199a8 <__copybits+0x18>
   199c0:	0511                	c.addi	a0,4
   199c2:	fe052e23          	sw	zero,-4(a0)
   199c6:	b7dd                	c.j	199ac <__copybits+0x1c>

00000000000199c8 <__any_on>:
   199c8:	4954                	c.lw	a3,20(a0)
   199ca:	4055d793          	srai	a5,a1,0x5
   199ce:	01850713          	addi	a4,a0,24
   199d2:	02f6c763          	blt	a3,a5,19a00 <__any_on+0x38>
   199d6:	00d7df63          	bge	a5,a3,199f4 <__any_on+0x2c>
   199da:	89fd                	c.andi	a1,31
   199dc:	cd81                	c.beqz	a1,199f4 <__any_on+0x2c>
   199de:	00279693          	slli	a3,a5,0x2
   199e2:	96ba                	c.add	a3,a4
   199e4:	4290                	c.lw	a2,0(a3)
   199e6:	4505                	c.li	a0,1
   199e8:	00b656bb          	srlw	a3,a2,a1
   199ec:	00b695bb          	sllw	a1,a3,a1
   199f0:	00c59e63          	bne	a1,a2,19a0c <__any_on+0x44>
   199f4:	078a                	c.slli	a5,0x2
   199f6:	97ba                	c.add	a5,a4
   199f8:	00f76663          	bltu	a4,a5,19a04 <__any_on+0x3c>
   199fc:	4501                	c.li	a0,0
   199fe:	8082                	c.jr	ra
   19a00:	87b6                	c.mv	a5,a3
   19a02:	bfcd                	c.j	199f4 <__any_on+0x2c>
   19a04:	17f1                	c.addi	a5,-4
   19a06:	4394                	c.lw	a3,0(a5)
   19a08:	dae5                	c.beqz	a3,199f8 <__any_on+0x30>
   19a0a:	4505                	c.li	a0,1
   19a0c:	8082                	c.jr	ra

0000000000019a0e <_read_r>:
   19a0e:	1101                	c.addi	sp,-32
   19a10:	e822                	c.sdsp	s0,16(sp)
   19a12:	e426                	c.sdsp	s1,8(sp)
   19a14:	84aa                	c.mv	s1,a0
   19a16:	852e                	c.mv	a0,a1
   19a18:	85b2                	c.mv	a1,a2
   19a1a:	8636                	c.mv	a2,a3
   19a1c:	ec06                	c.sdsp	ra,24(sp)
   19a1e:	8e01ac23          	sw	zero,-1800(gp) # 2b578 <errno>
   19a22:	1aa030ef          	jal	ra,1cbcc <_read>
   19a26:	57fd                	c.li	a5,-1
   19a28:	00f51663          	bne	a0,a5,19a34 <_read_r+0x26>
   19a2c:	8f81a783          	lw	a5,-1800(gp) # 2b578 <errno>
   19a30:	c391                	c.beqz	a5,19a34 <_read_r+0x26>
   19a32:	c09c                	c.sw	a5,0(s1)
   19a34:	60e2                	c.ldsp	ra,24(sp)
   19a36:	6442                	c.ldsp	s0,16(sp)
   19a38:	64a2                	c.ldsp	s1,8(sp)
   19a3a:	6105                	c.addi16sp	sp,32
   19a3c:	8082                	c.jr	ra

0000000000019a3e <_realloc_r>:
   19a3e:	711d                	c.addi16sp	sp,-96
   19a40:	e8a2                	c.sdsp	s0,80(sp)
   19a42:	ec86                	c.sdsp	ra,88(sp)
   19a44:	842e                	c.mv	s0,a1
   19a46:	e4a6                	c.sdsp	s1,72(sp)
   19a48:	e0ca                	c.sdsp	s2,64(sp)
   19a4a:	fc4e                	c.sdsp	s3,56(sp)
   19a4c:	f852                	c.sdsp	s4,48(sp)
   19a4e:	f456                	c.sdsp	s5,40(sp)
   19a50:	f05a                	c.sdsp	s6,32(sp)
   19a52:	ec5e                	c.sdsp	s7,24(sp)
   19a54:	e862                	c.sdsp	s8,16(sp)
   19a56:	85b2                	c.mv	a1,a2
   19a58:	ec11                	c.bnez	s0,19a74 <_realloc_r+0x36>
   19a5a:	6446                	c.ldsp	s0,80(sp)
   19a5c:	60e6                	c.ldsp	ra,88(sp)
   19a5e:	64a6                	c.ldsp	s1,72(sp)
   19a60:	6906                	c.ldsp	s2,64(sp)
   19a62:	79e2                	c.ldsp	s3,56(sp)
   19a64:	7a42                	c.ldsp	s4,48(sp)
   19a66:	7aa2                	c.ldsp	s5,40(sp)
   19a68:	7b02                	c.ldsp	s6,32(sp)
   19a6a:	6be2                	c.ldsp	s7,24(sp)
   19a6c:	6c42                	c.ldsp	s8,16(sp)
   19a6e:	6125                	c.addi16sp	sp,96
   19a70:	d84fb06f          	jal	zero,14ff4 <_malloc_r>
   19a74:	8aaa                	c.mv	s5,a0
   19a76:	e432                	c.sdsp	a2,8(sp)
   19a78:	c1dfb0ef          	jal	ra,15694 <__malloc_lock>
   19a7c:	65a2                	c.ldsp	a1,8(sp)
   19a7e:	ff843683          	ld	a3,-8(s0)
   19a82:	02e00793          	addi	a5,zero,46
   19a86:	01758993          	addi	s3,a1,23
   19a8a:	ff040b93          	addi	s7,s0,-16
   19a8e:	ffc6f913          	andi	s2,a3,-4
   19a92:	0337fb63          	bgeu	a5,s3,19ac8 <_realloc_r+0x8a>
   19a96:	800007b7          	lui	a5,0x80000
   19a9a:	ff09fb13          	andi	s6,s3,-16
   19a9e:	fff7c793          	xori	a5,a5,-1
   19aa2:	0367f563          	bgeu	a5,s6,19acc <_realloc_r+0x8e>
   19aa6:	47b1                	c.li	a5,12
   19aa8:	00faa023          	sw	a5,0(s5)
   19aac:	4a01                	c.li	s4,0
   19aae:	60e6                	c.ldsp	ra,88(sp)
   19ab0:	6446                	c.ldsp	s0,80(sp)
   19ab2:	8552                	c.mv	a0,s4
   19ab4:	64a6                	c.ldsp	s1,72(sp)
   19ab6:	6906                	c.ldsp	s2,64(sp)
   19ab8:	79e2                	c.ldsp	s3,56(sp)
   19aba:	7a42                	c.ldsp	s4,48(sp)
   19abc:	7aa2                	c.ldsp	s5,40(sp)
   19abe:	7b02                	c.ldsp	s6,32(sp)
   19ac0:	6be2                	c.ldsp	s7,24(sp)
   19ac2:	6c42                	c.ldsp	s8,16(sp)
   19ac4:	6125                	c.addi16sp	sp,96
   19ac6:	8082                	c.jr	ra
   19ac8:	02000b13          	addi	s6,zero,32
   19acc:	fcbb6de3          	bltu	s6,a1,19aa6 <_realloc_r+0x68>
   19ad0:	33695263          	bge	s2,s6,19df4 <_realloc_r+0x3b6>
   19ad4:	0002bc37          	lui	s8,0x2b
   19ad8:	c70c0713          	addi	a4,s8,-912 # 2ac70 <__malloc_av_>
   19adc:	6b10                	c.ld	a2,16(a4)
   19ade:	012b87b3          	add	a5,s7,s2
   19ae2:	6798                	c.ld	a4,8(a5)
   19ae4:	c70c0c13          	addi	s8,s8,-912
   19ae8:	00f60863          	beq	a2,a5,19af8 <_realloc_r+0xba>
   19aec:	ffe77513          	andi	a0,a4,-2
   19af0:	953e                	c.add	a0,a5
   19af2:	6508                	c.ld	a0,8(a0)
   19af4:	8905                	c.andi	a0,1
   19af6:	e559                	c.bnez	a0,19b84 <_realloc_r+0x146>
   19af8:	9b71                	c.andi	a4,-4
   19afa:	00e909b3          	add	s3,s2,a4
   19afe:	02f61c63          	bne	a2,a5,19b36 <_realloc_r+0xf8>
   19b02:	020b0513          	addi	a0,s6,32
   19b06:	08a9c163          	blt	s3,a0,19b88 <_realloc_r+0x14a>
   19b0a:	9bda                	c.add	s7,s6
   19b0c:	416989b3          	sub	s3,s3,s6
   19b10:	017c3823          	sd	s7,16(s8)
   19b14:	0019e993          	ori	s3,s3,1
   19b18:	013bb423          	sd	s3,8(s7)
   19b1c:	ff843983          	ld	s3,-8(s0)
   19b20:	8556                	c.mv	a0,s5
   19b22:	8a22                	c.mv	s4,s0
   19b24:	0019f993          	andi	s3,s3,1
   19b28:	0169e9b3          	or	s3,s3,s6
   19b2c:	ff343c23          	sd	s3,-8(s0)
   19b30:	b67fb0ef          	jal	ra,15696 <__malloc_unlock>
   19b34:	bfad                	c.j	19aae <_realloc_r+0x70>
   19b36:	0569c963          	blt	s3,s6,19b88 <_realloc_r+0x14a>
   19b3a:	6f98                	c.ld	a4,24(a5)
   19b3c:	6b9c                	c.ld	a5,16(a5)
   19b3e:	ef98                	c.sd	a4,24(a5)
   19b40:	eb1c                	c.sd	a5,16(a4)
   19b42:	008bb703          	ld	a4,8(s7)
   19b46:	416986b3          	sub	a3,s3,s6
   19b4a:	467d                	c.li	a2,31
   19b4c:	8b05                	c.andi	a4,1
   19b4e:	013b87b3          	add	a5,s7,s3
   19b52:	2ad67363          	bgeu	a2,a3,19df8 <_realloc_r+0x3ba>
   19b56:	00eb69b3          	or	s3,s6,a4
   19b5a:	013bb423          	sd	s3,8(s7)
   19b5e:	016b85b3          	add	a1,s7,s6
   19b62:	0016e693          	ori	a3,a3,1
   19b66:	e594                	c.sd	a3,8(a1)
   19b68:	6798                	c.ld	a4,8(a5)
   19b6a:	05c1                	c.addi	a1,16
   19b6c:	8556                	c.mv	a0,s5
   19b6e:	00176713          	ori	a4,a4,1
   19b72:	e798                	c.sd	a4,8(a5)
   19b74:	bd1fa0ef          	jal	ra,14744 <_free_r>
   19b78:	8556                	c.mv	a0,s5
   19b7a:	b1dfb0ef          	jal	ra,15696 <__malloc_unlock>
   19b7e:	010b8a13          	addi	s4,s7,16
   19b82:	b735                	c.j	19aae <_realloc_r+0x70>
   19b84:	4701                	c.li	a4,0
   19b86:	4781                	c.li	a5,0
   19b88:	8a85                	c.andi	a3,1
   19b8a:	1c069563          	bne	a3,zero,19d54 <_realloc_r+0x316>
   19b8e:	ff043483          	ld	s1,-16(s0)
   19b92:	409b84b3          	sub	s1,s7,s1
   19b96:	0084ba03          	ld	s4,8(s1)
   19b9a:	ffca7a13          	andi	s4,s4,-4
   19b9e:	9a4a                	c.add	s4,s2
   19ba0:	12078c63          	beq	a5,zero,19cd8 <_realloc_r+0x29a>
   19ba4:	014709b3          	add	s3,a4,s4
   19ba8:	0af61663          	bne	a2,a5,19c54 <_realloc_r+0x216>
   19bac:	020b0793          	addi	a5,s6,32
   19bb0:	12f9c463          	blt	s3,a5,19cd8 <_realloc_r+0x29a>
   19bb4:	6898                	c.ld	a4,16(s1)
   19bb6:	6c9c                	c.ld	a5,24(s1)
   19bb8:	ff890613          	addi	a2,s2,-8
   19bbc:	01048a13          	addi	s4,s1,16
   19bc0:	ef1c                	c.sd	a5,24(a4)
   19bc2:	eb98                	c.sd	a4,16(a5)
   19bc4:	04800713          	addi	a4,zero,72
   19bc8:	08c76163          	bltu	a4,a2,19c4a <_realloc_r+0x20c>
   19bcc:	02700693          	addi	a3,zero,39
   19bd0:	87d2                	c.mv	a5,s4
   19bd2:	00c6fd63          	bgeu	a3,a2,19bec <_realloc_r+0x1ae>
   19bd6:	601c                	c.ld	a5,0(s0)
   19bd8:	e89c                	c.sd	a5,16(s1)
   19bda:	641c                	c.ld	a5,8(s0)
   19bdc:	ec9c                	c.sd	a5,24(s1)
   19bde:	03700793          	addi	a5,zero,55
   19be2:	02c7ef63          	bltu	a5,a2,19c20 <_realloc_r+0x1e2>
   19be6:	0441                	c.addi	s0,16
   19be8:	02048793          	addi	a5,s1,32
   19bec:	6018                	c.ld	a4,0(s0)
   19bee:	e398                	c.sd	a4,0(a5)
   19bf0:	6418                	c.ld	a4,8(s0)
   19bf2:	e798                	c.sd	a4,8(a5)
   19bf4:	6818                	c.ld	a4,16(s0)
   19bf6:	eb98                	c.sd	a4,16(a5)
   19bf8:	016487b3          	add	a5,s1,s6
   19bfc:	416989b3          	sub	s3,s3,s6
   19c00:	00fc3823          	sd	a5,16(s8)
   19c04:	0019e993          	ori	s3,s3,1
   19c08:	0137b423          	sd	s3,8(a5) # ffffffff80000008 <__global_pointer$+0xffffffff7ffd4388>
   19c0c:	649c                	c.ld	a5,8(s1)
   19c0e:	8b85                	c.andi	a5,1
   19c10:	0167e9b3          	or	s3,a5,s6
   19c14:	0134b423          	sd	s3,8(s1)
   19c18:	8556                	c.mv	a0,s5
   19c1a:	a7dfb0ef          	jal	ra,15696 <__malloc_unlock>
   19c1e:	bd41                	c.j	19aae <_realloc_r+0x70>
   19c20:	681c                	c.ld	a5,16(s0)
   19c22:	f09c                	c.sd	a5,32(s1)
   19c24:	6c1c                	c.ld	a5,24(s0)
   19c26:	f49c                	c.sd	a5,40(s1)
   19c28:	00e60763          	beq	a2,a4,19c36 <_realloc_r+0x1f8>
   19c2c:	02040413          	addi	s0,s0,32
   19c30:	03048793          	addi	a5,s1,48
   19c34:	bf65                	c.j	19bec <_realloc_r+0x1ae>
   19c36:	701c                	c.ld	a5,32(s0)
   19c38:	03040413          	addi	s0,s0,48
   19c3c:	f89c                	c.sd	a5,48(s1)
   19c3e:	ff843703          	ld	a4,-8(s0)
   19c42:	04048793          	addi	a5,s1,64
   19c46:	fc98                	c.sd	a4,56(s1)
   19c48:	b755                	c.j	19bec <_realloc_r+0x1ae>
   19c4a:	85a2                	c.mv	a1,s0
   19c4c:	8552                	c.mv	a0,s4
   19c4e:	b66ff0ef          	jal	ra,18fb4 <memmove>
   19c52:	b75d                	c.j	19bf8 <_realloc_r+0x1ba>
   19c54:	0969c263          	blt	s3,s6,19cd8 <_realloc_r+0x29a>
   19c58:	6f98                	c.ld	a4,24(a5)
   19c5a:	6b9c                	c.ld	a5,16(a5)
   19c5c:	ff890613          	addi	a2,s2,-8
   19c60:	01048513          	addi	a0,s1,16
   19c64:	ef98                	c.sd	a4,24(a5)
   19c66:	eb1c                	c.sd	a5,16(a4)
   19c68:	6898                	c.ld	a4,16(s1)
   19c6a:	6c9c                	c.ld	a5,24(s1)
   19c6c:	ef1c                	c.sd	a5,24(a4)
   19c6e:	eb98                	c.sd	a4,16(a5)
   19c70:	04800793          	addi	a5,zero,72
   19c74:	04c7ee63          	bltu	a5,a2,19cd0 <_realloc_r+0x292>
   19c78:	02700713          	addi	a4,zero,39
   19c7c:	00c77d63          	bgeu	a4,a2,19c96 <_realloc_r+0x258>
   19c80:	6018                	c.ld	a4,0(s0)
   19c82:	e898                	c.sd	a4,16(s1)
   19c84:	6418                	c.ld	a4,8(s0)
   19c86:	ec98                	c.sd	a4,24(s1)
   19c88:	03700713          	addi	a4,zero,55
   19c8c:	00c76d63          	bltu	a4,a2,19ca6 <_realloc_r+0x268>
   19c90:	0441                	c.addi	s0,16
   19c92:	02048513          	addi	a0,s1,32
   19c96:	601c                	c.ld	a5,0(s0)
   19c98:	e11c                	c.sd	a5,0(a0)
   19c9a:	641c                	c.ld	a5,8(s0)
   19c9c:	e51c                	c.sd	a5,8(a0)
   19c9e:	681c                	c.ld	a5,16(s0)
   19ca0:	e91c                	c.sd	a5,16(a0)
   19ca2:	8ba6                	c.mv	s7,s1
   19ca4:	bd79                	c.j	19b42 <_realloc_r+0x104>
   19ca6:	6818                	c.ld	a4,16(s0)
   19ca8:	f098                	c.sd	a4,32(s1)
   19caa:	6c18                	c.ld	a4,24(s0)
   19cac:	f498                	c.sd	a4,40(s1)
   19cae:	00f60763          	beq	a2,a5,19cbc <_realloc_r+0x27e>
   19cb2:	02040413          	addi	s0,s0,32
   19cb6:	03048513          	addi	a0,s1,48
   19cba:	bff1                	c.j	19c96 <_realloc_r+0x258>
   19cbc:	701c                	c.ld	a5,32(s0)
   19cbe:	04048513          	addi	a0,s1,64
   19cc2:	03040413          	addi	s0,s0,48
   19cc6:	f89c                	c.sd	a5,48(s1)
   19cc8:	ff843783          	ld	a5,-8(s0)
   19ccc:	fc9c                	c.sd	a5,56(s1)
   19cce:	b7e1                	c.j	19c96 <_realloc_r+0x258>
   19cd0:	85a2                	c.mv	a1,s0
   19cd2:	ae2ff0ef          	jal	ra,18fb4 <memmove>
   19cd6:	b7f1                	c.j	19ca2 <_realloc_r+0x264>
   19cd8:	076a4e63          	blt	s4,s6,19d54 <_realloc_r+0x316>
   19cdc:	6c9c                	c.ld	a5,24(s1)
   19cde:	6898                	c.ld	a4,16(s1)
   19ce0:	ff890613          	addi	a2,s2,-8
   19ce4:	01048513          	addi	a0,s1,16
   19ce8:	ef1c                	c.sd	a5,24(a4)
   19cea:	eb98                	c.sd	a4,16(a5)
   19cec:	04800793          	addi	a5,zero,72
   19cf0:	04c7ee63          	bltu	a5,a2,19d4c <_realloc_r+0x30e>
   19cf4:	02700713          	addi	a4,zero,39
   19cf8:	00c77d63          	bgeu	a4,a2,19d12 <_realloc_r+0x2d4>
   19cfc:	6018                	c.ld	a4,0(s0)
   19cfe:	e898                	c.sd	a4,16(s1)
   19d00:	6418                	c.ld	a4,8(s0)
   19d02:	ec98                	c.sd	a4,24(s1)
   19d04:	03700713          	addi	a4,zero,55
   19d08:	00c76d63          	bltu	a4,a2,19d22 <_realloc_r+0x2e4>
   19d0c:	0441                	c.addi	s0,16
   19d0e:	02048513          	addi	a0,s1,32
   19d12:	601c                	c.ld	a5,0(s0)
   19d14:	e11c                	c.sd	a5,0(a0)
   19d16:	641c                	c.ld	a5,8(s0)
   19d18:	e51c                	c.sd	a5,8(a0)
   19d1a:	681c                	c.ld	a5,16(s0)
   19d1c:	e91c                	c.sd	a5,16(a0)
   19d1e:	89d2                	c.mv	s3,s4
   19d20:	b749                	c.j	19ca2 <_realloc_r+0x264>
   19d22:	6818                	c.ld	a4,16(s0)
   19d24:	f098                	c.sd	a4,32(s1)
   19d26:	6c18                	c.ld	a4,24(s0)
   19d28:	f498                	c.sd	a4,40(s1)
   19d2a:	00f60763          	beq	a2,a5,19d38 <_realloc_r+0x2fa>
   19d2e:	02040413          	addi	s0,s0,32
   19d32:	03048513          	addi	a0,s1,48
   19d36:	bff1                	c.j	19d12 <_realloc_r+0x2d4>
   19d38:	701c                	c.ld	a5,32(s0)
   19d3a:	04048513          	addi	a0,s1,64
   19d3e:	03040413          	addi	s0,s0,48
   19d42:	f89c                	c.sd	a5,48(s1)
   19d44:	ff843783          	ld	a5,-8(s0)
   19d48:	fc9c                	c.sd	a5,56(s1)
   19d4a:	b7e1                	c.j	19d12 <_realloc_r+0x2d4>
   19d4c:	85a2                	c.mv	a1,s0
   19d4e:	a66ff0ef          	jal	ra,18fb4 <memmove>
   19d52:	b7f1                	c.j	19d1e <_realloc_r+0x2e0>
   19d54:	8556                	c.mv	a0,s5
   19d56:	a9efb0ef          	jal	ra,14ff4 <_malloc_r>
   19d5a:	8a2a                	c.mv	s4,a0
   19d5c:	ea050ee3          	beq	a0,zero,19c18 <_realloc_r+0x1da>
   19d60:	ff843783          	ld	a5,-8(s0)
   19d64:	ff050713          	addi	a4,a0,-16
   19d68:	9bf9                	c.andi	a5,-2
   19d6a:	97de                	c.add	a5,s7
   19d6c:	00e79863          	bne	a5,a4,19d7c <_realloc_r+0x33e>
   19d70:	ff853983          	ld	s3,-8(a0)
   19d74:	ffc9f993          	andi	s3,s3,-4
   19d78:	99ca                	c.add	s3,s2
   19d7a:	b3e1                	c.j	19b42 <_realloc_r+0x104>
   19d7c:	ff890613          	addi	a2,s2,-8
   19d80:	04800793          	addi	a5,zero,72
   19d84:	06c7e463          	bltu	a5,a2,19dec <_realloc_r+0x3ae>
   19d88:	02700713          	addi	a4,zero,39
   19d8c:	04c77d63          	bgeu	a4,a2,19de6 <_realloc_r+0x3a8>
   19d90:	6018                	c.ld	a4,0(s0)
   19d92:	e118                	c.sd	a4,0(a0)
   19d94:	6418                	c.ld	a4,8(s0)
   19d96:	e518                	c.sd	a4,8(a0)
   19d98:	03700713          	addi	a4,zero,55
   19d9c:	02c76163          	bltu	a4,a2,19dbe <_realloc_r+0x380>
   19da0:	01040713          	addi	a4,s0,16
   19da4:	01050793          	addi	a5,a0,16
   19da8:	6314                	c.ld	a3,0(a4)
   19daa:	e394                	c.sd	a3,0(a5)
   19dac:	6714                	c.ld	a3,8(a4)
   19dae:	e794                	c.sd	a3,8(a5)
   19db0:	6b18                	c.ld	a4,16(a4)
   19db2:	eb98                	c.sd	a4,16(a5)
   19db4:	85a2                	c.mv	a1,s0
   19db6:	8556                	c.mv	a0,s5
   19db8:	98dfa0ef          	jal	ra,14744 <_free_r>
   19dbc:	bdb1                	c.j	19c18 <_realloc_r+0x1da>
   19dbe:	6818                	c.ld	a4,16(s0)
   19dc0:	e918                	c.sd	a4,16(a0)
   19dc2:	6c18                	c.ld	a4,24(s0)
   19dc4:	ed18                	c.sd	a4,24(a0)
   19dc6:	00f60763          	beq	a2,a5,19dd4 <_realloc_r+0x396>
   19dca:	02040713          	addi	a4,s0,32
   19dce:	02050793          	addi	a5,a0,32
   19dd2:	bfd9                	c.j	19da8 <_realloc_r+0x36a>
   19dd4:	701c                	c.ld	a5,32(s0)
   19dd6:	03040713          	addi	a4,s0,48
   19dda:	f11c                	c.sd	a5,32(a0)
   19ddc:	7414                	c.ld	a3,40(s0)
   19dde:	03050793          	addi	a5,a0,48
   19de2:	f514                	c.sd	a3,40(a0)
   19de4:	b7d1                	c.j	19da8 <_realloc_r+0x36a>
   19de6:	87aa                	c.mv	a5,a0
   19de8:	8722                	c.mv	a4,s0
   19dea:	bf7d                	c.j	19da8 <_realloc_r+0x36a>
   19dec:	85a2                	c.mv	a1,s0
   19dee:	9c6ff0ef          	jal	ra,18fb4 <memmove>
   19df2:	b7c9                	c.j	19db4 <_realloc_r+0x376>
   19df4:	89ca                	c.mv	s3,s2
   19df6:	b3b1                	c.j	19b42 <_realloc_r+0x104>
   19df8:	00e9e9b3          	or	s3,s3,a4
   19dfc:	013bb423          	sd	s3,8(s7)
   19e00:	6798                	c.ld	a4,8(a5)
   19e02:	00176713          	ori	a4,a4,1
   19e06:	e798                	c.sd	a4,8(a5)
   19e08:	bb85                	c.j	19b78 <_realloc_r+0x13a>

0000000000019e0a <frexp>:
   19e0a:	e20507d3          	fmv.x.d	a5,fa0
   19e0e:	80000637          	lui	a2,0x80000
   19e12:	fff64613          	xori	a2,a2,-1
   19e16:	4207d713          	srai	a4,a5,0x20
   19e1a:	00c776b3          	and	a3,a4,a2
   19e1e:	00052023          	sw	zero,0(a0)
   19e22:	7ff005b7          	lui	a1,0x7ff00
   19e26:	04b6dc63          	bge	a3,a1,19e7e <frexp+0x74>
   19e2a:	00f6e5b3          	or	a1,a3,a5
   19e2e:	2581                	c.addiw	a1,0
   19e30:	c5b9                	c.beqz	a1,19e7e <frexp+0x74>
   19e32:	001005b7          	lui	a1,0x100
   19e36:	02b6d163          	bge	a3,a1,19e58 <frexp+0x4e>
   19e3a:	0002b737          	lui	a4,0x2b
   19e3e:	49873787          	fld	fa5,1176(a4) # 2b498 <__TMC_END__+0x18>
   19e42:	12f577d3          	fmul.d	fa5,fa0,fa5
   19e46:	e20787d3          	fmv.x.d	a5,fa5
   19e4a:	4207d713          	srai	a4,a5,0x20
   19e4e:	00c776b3          	and	a3,a4,a2
   19e52:	fca00613          	addi	a2,zero,-54
   19e56:	c110                	c.sw	a2,0(a0)
   19e58:	4110                	c.lw	a2,0(a0)
   19e5a:	4146d69b          	sraiw	a3,a3,0x14
   19e5e:	c026869b          	addiw	a3,a3,-1022
   19e62:	9eb1                	c.addw	a3,a2
   19e64:	c114                	c.sw	a3,0(a0)
   19e66:	801006b7          	lui	a3,0x80100
   19e6a:	16fd                	c.addi	a3,-1
   19e6c:	8f75                	c.and	a4,a3
   19e6e:	3fe006b7          	lui	a3,0x3fe00
   19e72:	8f55                	c.or	a4,a3
   19e74:	56fd                	c.li	a3,-1
   19e76:	9281                	c.srli	a3,0x20
   19e78:	1702                	c.slli	a4,0x20
   19e7a:	8ff5                	c.and	a5,a3
   19e7c:	8fd9                	c.or	a5,a4
   19e7e:	f2078553          	fmv.d.x	fa0,a5
   19e82:	8082                	c.jr	ra

0000000000019e84 <_sprintf_r>:
   19e84:	7111                	c.addi16sp	sp,-256
   19e86:	f5be                	c.sdsp	a5,232(sp)
   19e88:	800007b7          	lui	a5,0x80000
   19e8c:	fff7c793          	xori	a5,a5,-1
   19e90:	d83e                	c.swsp	a5,48(sp)
   19e92:	ce3e                	c.swsp	a5,28(sp)
   19e94:	77c1                	c.lui	a5,0xffff0
   19e96:	edb6                	c.sdsp	a3,216(sp)
   19e98:	e82e                	c.sdsp	a1,16(sp)
   19e9a:	f42e                	c.sdsp	a1,40(sp)
   19e9c:	2087879b          	addiw	a5,a5,520
   19ea0:	09b4                	c.addi4spn	a3,sp,216
   19ea2:	080c                	c.addi4spn	a1,sp,16
   19ea4:	e586                	c.sdsp	ra,200(sp)
   19ea6:	d03e                	c.swsp	a5,32(sp)
   19ea8:	f1ba                	c.sdsp	a4,224(sp)
   19eaa:	f9c2                	c.sdsp	a6,240(sp)
   19eac:	fdc6                	c.sdsp	a7,248(sp)
   19eae:	e436                	c.sdsp	a3,8(sp)
   19eb0:	096000ef          	jal	ra,19f46 <_svfprintf_r>
   19eb4:	67c2                	c.ldsp	a5,16(sp)
   19eb6:	00078023          	sb	zero,0(a5) # ffffffffffff0000 <__global_pointer$+0xfffffffffffc4380>
   19eba:	60ae                	c.ldsp	ra,200(sp)
   19ebc:	6111                	c.addi16sp	sp,256
   19ebe:	8082                	c.jr	ra

0000000000019ec0 <sprintf>:
   19ec0:	7111                	c.addi16sp	sp,-256
   19ec2:	f5be                	c.sdsp	a5,232(sp)
   19ec4:	800007b7          	lui	a5,0x80000
   19ec8:	fff7c793          	xori	a5,a5,-1
   19ecc:	d83e                	c.swsp	a5,48(sp)
   19ece:	ce3e                	c.swsp	a5,28(sp)
   19ed0:	77c1                	c.lui	a5,0xffff0
   19ed2:	2087879b          	addiw	a5,a5,520
   19ed6:	d03e                	c.swsp	a5,32(sp)
   19ed8:	e82a                	c.sdsp	a0,16(sp)
   19eda:	f42a                	c.sdsp	a0,40(sp)
   19edc:	8401b503          	ld	a0,-1984(gp) # 2b4c0 <_impure_ptr>
   19ee0:	e9b2                	c.sdsp	a2,208(sp)
   19ee2:	edb6                	c.sdsp	a3,216(sp)
   19ee4:	862e                	c.mv	a2,a1
   19ee6:	0994                	c.addi4spn	a3,sp,208
   19ee8:	080c                	c.addi4spn	a1,sp,16
   19eea:	e586                	c.sdsp	ra,200(sp)
   19eec:	f1ba                	c.sdsp	a4,224(sp)
   19eee:	f9c2                	c.sdsp	a6,240(sp)
   19ef0:	fdc6                	c.sdsp	a7,248(sp)
   19ef2:	e436                	c.sdsp	a3,8(sp)
   19ef4:	052000ef          	jal	ra,19f46 <_svfprintf_r>
   19ef8:	67c2                	c.ldsp	a5,16(sp)
   19efa:	00078023          	sb	zero,0(a5) # ffffffffffff0000 <__global_pointer$+0xfffffffffffc4380>
   19efe:	60ae                	c.ldsp	ra,200(sp)
   19f00:	6111                	c.addi16sp	sp,256
   19f02:	8082                	c.jr	ra

0000000000019f04 <strcpy>:
   19f04:	87aa                	c.mv	a5,a0
   19f06:	0005c703          	lbu	a4,0(a1) # 100000 <__global_pointer$+0xd4380>
   19f0a:	0785                	c.addi	a5,1
   19f0c:	0585                	c.addi	a1,1
   19f0e:	fee78fa3          	sb	a4,-1(a5)
   19f12:	fb75                	c.bnez	a4,19f06 <strcpy+0x2>
   19f14:	8082                	c.jr	ra

0000000000019f16 <strncpy>:
   19f16:	872a                	c.mv	a4,a0
   19f18:	e211                	c.bnez	a2,19f1c <strncpy+0x6>
   19f1a:	8082                	c.jr	ra
   19f1c:	0585                	c.addi	a1,1
   19f1e:	fff5c683          	lbu	a3,-1(a1)
   19f22:	00170793          	addi	a5,a4,1
   19f26:	fff60813          	addi	a6,a2,-1 # ffffffff7fffffff <__global_pointer$+0xffffffff7ffd437f>
   19f2a:	fed78fa3          	sb	a3,-1(a5)
   19f2e:	e689                	c.bnez	a3,19f38 <strncpy+0x22>
   19f30:	9732                	c.add	a4,a2
   19f32:	00e79663          	bne	a5,a4,19f3e <strncpy+0x28>
   19f36:	8082                	c.jr	ra
   19f38:	873e                	c.mv	a4,a5
   19f3a:	8642                	c.mv	a2,a6
   19f3c:	bff1                	c.j	19f18 <strncpy+0x2>
   19f3e:	0785                	c.addi	a5,1
   19f40:	fe078fa3          	sb	zero,-1(a5)
   19f44:	b7fd                	c.j	19f32 <strncpy+0x1c>

0000000000019f46 <_svfprintf_r>:
   19f46:	d9010113          	addi	sp,sp,-624
   19f4a:	26113423          	sd	ra,616(sp)
   19f4e:	24913c23          	sd	s1,600(sp)
   19f52:	25213823          	sd	s2,592(sp)
   19f56:	25313423          	sd	s3,584(sp)
   19f5a:	23713423          	sd	s7,552(sp)
   19f5e:	89ae                	c.mv	s3,a1
   19f60:	84b2                	c.mv	s1,a2
   19f62:	8bb6                	c.mv	s7,a3
   19f64:	26813023          	sd	s0,608(sp)
   19f68:	25413023          	sd	s4,576(sp)
   19f6c:	23513c23          	sd	s5,568(sp)
   19f70:	23613823          	sd	s6,560(sp)
   19f74:	23813023          	sd	s8,544(sp)
   19f78:	21913c23          	sd	s9,536(sp)
   19f7c:	21a13823          	sd	s10,528(sp)
   19f80:	21b13423          	sd	s11,520(sp)
   19f84:	892a                	c.mv	s2,a0
   19f86:	fb9fe0ef          	jal	ra,18f3e <_localeconv_r>
   19f8a:	611c                	c.ld	a5,0(a0)
   19f8c:	853e                	c.mv	a0,a5
   19f8e:	e4be                	c.sdsp	a5,72(sp)
   19f90:	c0dfb0ef          	jal	ra,15b9c <strlen>
   19f94:	0109d783          	lhu	a5,16(s3)
   19f98:	ec2a                	c.sdsp	a0,24(sp)
   19f9a:	f982                	c.sdsp	zero,240(sp)
   19f9c:	fd82                	c.sdsp	zero,248(sp)
   19f9e:	0807f793          	andi	a5,a5,128
   19fa2:	cb85                	c.beqz	a5,19fd2 <_svfprintf_r+0x8c>
   19fa4:	0189b783          	ld	a5,24(s3)
   19fa8:	e78d                	c.bnez	a5,19fd2 <_svfprintf_r+0x8c>
   19faa:	04000593          	addi	a1,zero,64
   19fae:	854a                	c.mv	a0,s2
   19fb0:	844fb0ef          	jal	ra,14ff4 <_malloc_r>
   19fb4:	00a9b023          	sd	a0,0(s3)
   19fb8:	00a9bc23          	sd	a0,24(s3)
   19fbc:	e519                	c.bnez	a0,19fca <_svfprintf_r+0x84>
   19fbe:	47b1                	c.li	a5,12
   19fc0:	00f92023          	sw	a5,0(s2)
   19fc4:	57fd                	c.li	a5,-1
   19fc6:	f43e                	c.sdsp	a5,40(sp)
   19fc8:	a3ed                	c.j	1a5b2 <_svfprintf_r+0x66c>
   19fca:	04000793          	addi	a5,zero,64
   19fce:	02f9a023          	sw	a5,32(s3)
   19fd2:	000297b7          	lui	a5,0x29
   19fd6:	d7878793          	addi	a5,a5,-648 # 28d78 <__mprec_bigtens+0x28>
   19fda:	ed3e                	c.sdsp	a5,152(sp)
   19fdc:	000297b7          	lui	a5,0x29
   19fe0:	8287b783          	ld	a5,-2008(a5) # 28828 <zeroes.4441+0x20>
   19fe4:	18010a93          	addi	s5,sp,384
   19fe8:	e256                	c.sdsp	s5,256(sp)
   19fea:	f13e                	c.sdsp	a5,160(sp)
   19fec:	000297b7          	lui	a5,0x29
   19ff0:	8387b783          	ld	a5,-1992(a5) # 28838 <zeroes.4441+0x30>
   19ff4:	ea02                	c.sdsp	zero,272(sp)
   19ff6:	10012423          	sw	zero,264(sp)
   19ffa:	f53e                	c.sdsp	a5,168(sp)
   19ffc:	000297b7          	lui	a5,0x29
   1a000:	8487b783          	ld	a5,-1976(a5) # 28848 <zeroes.4441+0x40>
   1a004:	4a01                	c.li	s4,0
   1a006:	8cd6                	c.mv	s9,s5
   1a008:	f082                	c.sdsp	zero,96(sp)
   1a00a:	ec82                	c.sdsp	zero,88(sp)
   1a00c:	e002                	c.sdsp	zero,0(sp)
   1a00e:	e082                	c.sdsp	zero,64(sp)
   1a010:	e882                	c.sdsp	zero,80(sp)
   1a012:	f402                	c.sdsp	zero,40(sp)
   1a014:	e93e                	c.sdsp	a5,144(sp)
   1a016:	8426                	c.mv	s0,s1
   1a018:	02500713          	addi	a4,zero,37
   1a01c:	00044783          	lbu	a5,0(s0)
   1a020:	c399                	c.beqz	a5,1a026 <_svfprintf_r+0xe0>
   1a022:	08e79663          	bne	a5,a4,1a0ae <_svfprintf_r+0x168>
   1a026:	40940b3b          	subw	s6,s0,s1
   1a02a:	020b0f63          	beq	s6,zero,1a068 <_svfprintf_r+0x122>
   1a02e:	67d2                	c.ldsp	a5,272(sp)
   1a030:	009cb023          	sd	s1,0(s9)
   1a034:	016cb423          	sd	s6,8(s9)
   1a038:	97da                	c.add	a5,s6
   1a03a:	ea3e                	c.sdsp	a5,272(sp)
   1a03c:	10812783          	lw	a5,264(sp)
   1a040:	0cc1                	c.addi	s9,16
   1a042:	0017871b          	addiw	a4,a5,1
   1a046:	10e12423          	sw	a4,264(sp)
   1a04a:	479d                	c.li	a5,7
   1a04c:	00e7da63          	bge	a5,a4,1a060 <_svfprintf_r+0x11a>
   1a050:	0210                	c.addi4spn	a2,sp,256
   1a052:	85ce                	c.mv	a1,s3
   1a054:	854a                	c.mv	a0,s2
   1a056:	7b1010ef          	jal	ra,1c006 <__ssprint_r>
   1a05a:	54051663          	bne	a0,zero,1a5a6 <_svfprintf_r+0x660>
   1a05e:	8cd6                	c.mv	s9,s5
   1a060:	57a2                	c.lwsp	a5,40(sp)
   1a062:	016787bb          	addw	a5,a5,s6
   1a066:	f43e                	c.sdsp	a5,40(sp)
   1a068:	00044783          	lbu	a5,0(s0)
   1a06c:	e399                	c.bnez	a5,1a072 <_svfprintf_r+0x12c>
   1a06e:	4520106f          	jal	zero,1b4c0 <_svfprintf_r+0x157a>
   1a072:	00140793          	addi	a5,s0,1
   1a076:	0c0107a3          	sb	zero,207(sp)
   1a07a:	5dfd                	c.li	s11,-1
   1a07c:	f002                	c.sdsp	zero,32(sp)
   1a07e:	4401                	c.li	s0,0
   1a080:	05a00d13          	addi	s10,zero,90
   1a084:	4c29                	c.li	s8,10
   1a086:	0007cb03          	lbu	s6,0(a5)
   1a08a:	00178713          	addi	a4,a5,1
   1a08e:	e83a                	c.sdsp	a4,16(sp)
   1a090:	46a5                	c.li	a3,9
   1a092:	02a00613          	addi	a2,zero,42
   1a096:	fe0b079b          	addiw	a5,s6,-32
   1a09a:	0007871b          	addiw	a4,a5,0
   1a09e:	3eed68e3          	bltu	s10,a4,1ac8e <_svfprintf_r+0xd48>
   1a0a2:	676a                	c.ldsp	a4,152(sp)
   1a0a4:	1782                	c.slli	a5,0x20
   1a0a6:	83f9                	c.srli	a5,0x1e
   1a0a8:	97ba                	c.add	a5,a4
   1a0aa:	439c                	c.lw	a5,0(a5)
   1a0ac:	8782                	c.jr	a5
   1a0ae:	0405                	c.addi	s0,1
   1a0b0:	b7b5                	c.j	1a01c <_svfprintf_r+0xd6>
   1a0b2:	000297b7          	lui	a5,0x29
   1a0b6:	88878793          	addi	a5,a5,-1912 # 28888 <zeroes.4441+0x80>
   1a0ba:	f0be                	c.sdsp	a5,96(sp)
   1a0bc:	008b8793          	addi	a5,s7,8
   1a0c0:	f83e                	c.sdsp	a5,48(sp)
   1a0c2:	02047793          	andi	a5,s0,32
   1a0c6:	28078de3          	beq	a5,zero,1ab60 <_svfprintf_r+0xc1a>
   1a0ca:	000bbb83          	ld	s7,0(s7)
   1a0ce:	00147793          	andi	a5,s0,1
   1a0d2:	cf81                	c.beqz	a5,1a0ea <_svfprintf_r+0x1a4>
   1a0d4:	000b8b63          	beq	s7,zero,1a0ea <_svfprintf_r+0x1a4>
   1a0d8:	03000793          	addi	a5,zero,48
   1a0dc:	00246413          	ori	s0,s0,2
   1a0e0:	0cf10823          	sb	a5,208(sp)
   1a0e4:	0d6108a3          	sb	s6,209(sp)
   1a0e8:	2401                	c.addiw	s0,0
   1a0ea:	bff47413          	andi	s0,s0,-1025
   1a0ee:	2401                	c.addiw	s0,0
   1a0f0:	4789                	c.li	a5,2
   1a0f2:	16b0006f          	jal	zero,1aa5c <_svfprintf_r+0xb16>
   1a0f6:	854a                	c.mv	a0,s2
   1a0f8:	e47fe0ef          	jal	ra,18f3e <_localeconv_r>
   1a0fc:	651c                	c.ld	a5,8(a0)
   1a0fe:	853e                	c.mv	a0,a5
   1a100:	e8be                	c.sdsp	a5,80(sp)
   1a102:	a9bfb0ef          	jal	ra,15b9c <strlen>
   1a106:	e0aa                	c.sdsp	a0,64(sp)
   1a108:	854a                	c.mv	a0,s2
   1a10a:	e35fe0ef          	jal	ra,18f3e <_localeconv_r>
   1a10e:	691c                	c.ld	a5,16(a0)
   1a110:	e03e                	c.sdsp	a5,0(sp)
   1a112:	6786                	c.ldsp	a5,64(sp)
   1a114:	c38d                	c.beqz	a5,1a136 <_svfprintf_r+0x1f0>
   1a116:	6782                	c.ldsp	a5,0(sp)
   1a118:	cf99                	c.beqz	a5,1a136 <_svfprintf_r+0x1f0>
   1a11a:	0007c783          	lbu	a5,0(a5)
   1a11e:	cf81                	c.beqz	a5,1a136 <_svfprintf_r+0x1f0>
   1a120:	40046413          	ori	s0,s0,1024
   1a124:	2401                	c.addiw	s0,0
   1a126:	a801                	c.j	1a136 <_svfprintf_r+0x1f0>
   1a128:	0cf14783          	lbu	a5,207(sp)
   1a12c:	e789                	c.bnez	a5,1a136 <_svfprintf_r+0x1f0>
   1a12e:	02000793          	addi	a5,zero,32
   1a132:	0cf107a3          	sb	a5,207(sp)
   1a136:	67c2                	c.ldsp	a5,16(sp)
   1a138:	b7b9                	c.j	1a086 <_svfprintf_r+0x140>
   1a13a:	00146413          	ori	s0,s0,1
   1a13e:	b7dd                	c.j	1a124 <_svfprintf_r+0x1de>
   1a140:	000ba783          	lw	a5,0(s7)
   1a144:	0ba1                	c.addi	s7,8
   1a146:	f03e                	c.sdsp	a5,32(sp)
   1a148:	fe07d7e3          	bge	a5,zero,1a136 <_svfprintf_r+0x1f0>
   1a14c:	5782                	c.lwsp	a5,32(sp)
   1a14e:	40f007bb          	subw	a5,zero,a5
   1a152:	f03e                	c.sdsp	a5,32(sp)
   1a154:	00446413          	ori	s0,s0,4
   1a158:	b7f1                	c.j	1a124 <_svfprintf_r+0x1de>
   1a15a:	02b00793          	addi	a5,zero,43
   1a15e:	bfd1                	c.j	1a132 <_svfprintf_r+0x1ec>
   1a160:	6742                	c.ldsp	a4,16(sp)
   1a162:	67c2                	c.ldsp	a5,16(sp)
   1a164:	00074b03          	lbu	s6,0(a4)
   1a168:	0785                	c.addi	a5,1
   1a16a:	02cb1c63          	bne	s6,a2,1a1a2 <_svfprintf_r+0x25c>
   1a16e:	000bae03          	lw	t3,0(s7)
   1a172:	008b8713          	addi	a4,s7,8
   1a176:	000e5363          	bge	t3,zero,1a17c <_svfprintf_r+0x236>
   1a17a:	5e7d                	c.li	t3,-1
   1a17c:	000e0d9b          	addiw	s11,t3,0
   1a180:	8bba                	c.mv	s7,a4
   1a182:	e83e                	c.sdsp	a5,16(sp)
   1a184:	bf4d                	c.j	1a136 <_svfprintf_r+0x1f0>
   1a186:	03bc0e3b          	mulw	t3,s8,s11
   1a18a:	0785                	c.addi	a5,1
   1a18c:	fff7cb03          	lbu	s6,-1(a5)
   1a190:	00ee0dbb          	addw	s11,t3,a4
   1a194:	fd0b059b          	addiw	a1,s6,-48
   1a198:	872e                	c.mv	a4,a1
   1a19a:	feb6f6e3          	bgeu	a3,a1,1a186 <_svfprintf_r+0x240>
   1a19e:	e83e                	c.sdsp	a5,16(sp)
   1a1a0:	bddd                	c.j	1a096 <_svfprintf_r+0x150>
   1a1a2:	4d81                	c.li	s11,0
   1a1a4:	bfc5                	c.j	1a194 <_svfprintf_r+0x24e>
   1a1a6:	08046413          	ori	s0,s0,128
   1a1aa:	bfad                	c.j	1a124 <_svfprintf_r+0x1de>
   1a1ac:	67c2                	c.ldsp	a5,16(sp)
   1a1ae:	f002                	c.sdsp	zero,32(sp)
   1a1b0:	5702                	c.lwsp	a4,32(sp)
   1a1b2:	fd0b0b1b          	addiw	s6,s6,-48
   1a1b6:	0785                	c.addi	a5,1
   1a1b8:	02ec073b          	mulw	a4,s8,a4
   1a1bc:	00eb073b          	addw	a4,s6,a4
   1a1c0:	fff7cb03          	lbu	s6,-1(a5)
   1a1c4:	f03a                	c.sdsp	a4,32(sp)
   1a1c6:	fd0b071b          	addiw	a4,s6,-48
   1a1ca:	fee6f3e3          	bgeu	a3,a4,1a1b0 <_svfprintf_r+0x26a>
   1a1ce:	bfc1                	c.j	1a19e <_svfprintf_r+0x258>
   1a1d0:	00846413          	ori	s0,s0,8
   1a1d4:	bf81                	c.j	1a124 <_svfprintf_r+0x1de>
   1a1d6:	67c2                	c.ldsp	a5,16(sp)
   1a1d8:	0007c703          	lbu	a4,0(a5)
   1a1dc:	06800793          	addi	a5,zero,104
   1a1e0:	00f71863          	bne	a4,a5,1a1f0 <_svfprintf_r+0x2aa>
   1a1e4:	67c2                	c.ldsp	a5,16(sp)
   1a1e6:	20046413          	ori	s0,s0,512
   1a1ea:	0785                	c.addi	a5,1
   1a1ec:	e83e                	c.sdsp	a5,16(sp)
   1a1ee:	bf1d                	c.j	1a124 <_svfprintf_r+0x1de>
   1a1f0:	04046413          	ori	s0,s0,64
   1a1f4:	bf05                	c.j	1a124 <_svfprintf_r+0x1de>
   1a1f6:	67c2                	c.ldsp	a5,16(sp)
   1a1f8:	0007c703          	lbu	a4,0(a5)
   1a1fc:	06c00793          	addi	a5,zero,108
   1a200:	00f71863          	bne	a4,a5,1a210 <_svfprintf_r+0x2ca>
   1a204:	67c2                	c.ldsp	a5,16(sp)
   1a206:	0785                	c.addi	a5,1
   1a208:	e83e                	c.sdsp	a5,16(sp)
   1a20a:	02046413          	ori	s0,s0,32
   1a20e:	bf19                	c.j	1a124 <_svfprintf_r+0x1de>
   1a210:	01046413          	ori	s0,s0,16
   1a214:	bf01                	c.j	1a124 <_svfprintf_r+0x1de>
   1a216:	008b8793          	addi	a5,s7,8
   1a21a:	f83e                	c.sdsp	a5,48(sp)
   1a21c:	000ba783          	lw	a5,0(s7)
   1a220:	0c0107a3          	sb	zero,207(sp)
   1a224:	10f10c23          	sb	a5,280(sp)
   1a228:	4b81                	c.li	s7,0
   1a22a:	4d85                	c.li	s11,1
   1a22c:	4701                	c.li	a4,0
   1a22e:	e402                	c.sdsp	zero,8(sp)
   1a230:	4c01                	c.li	s8,0
   1a232:	4d01                	c.li	s10,0
   1a234:	0a24                	c.addi4spn	s1,sp,280
   1a236:	86ba                	c.mv	a3,a4
   1a238:	01b75363          	bge	a4,s11,1a23e <_svfprintf_r+0x2f8>
   1a23c:	86ee                	c.mv	a3,s11
   1a23e:	0cf14603          	lbu	a2,207(sp)
   1a242:	0006879b          	addiw	a5,a3,0
   1a246:	fc3e                	c.sdsp	a5,56(sp)
   1a248:	c601                	c.beqz	a2,1a250 <_svfprintf_r+0x30a>
   1a24a:	0016879b          	addiw	a5,a3,1
   1a24e:	fc3e                	c.sdsp	a5,56(sp)
   1a250:	00247693          	andi	a3,s0,2
   1a254:	0006879b          	addiw	a5,a3,0
   1a258:	f4be                	c.sdsp	a5,104(sp)
   1a25a:	c781                	c.beqz	a5,1a262 <_svfprintf_r+0x31c>
   1a25c:	57e2                	c.lwsp	a5,56(sp)
   1a25e:	2789                	c.addiw	a5,2
   1a260:	fc3e                	c.sdsp	a5,56(sp)
   1a262:	08447793          	andi	a5,s0,132
   1a266:	f8be                	c.sdsp	a5,112(sp)
   1a268:	efb1                	c.bnez	a5,1a2c4 <_svfprintf_r+0x37e>
   1a26a:	5782                	c.lwsp	a5,32(sp)
   1a26c:	56e2                	c.lwsp	a3,56(sp)
   1a26e:	40d786bb          	subw	a3,a5,a3
   1a272:	04d05963          	bge	zero,a3,1a2c4 <_svfprintf_r+0x37e>
   1a276:	00029837          	lui	a6,0x29
   1a27a:	48c1                	c.li	a7,16
   1a27c:	ee880813          	addi	a6,a6,-280 # 28ee8 <blanks.4425>
   1a280:	4e9d                	c.li	t4,7
   1a282:	10812583          	lw	a1,264(sp)
   1a286:	010cb023          	sd	a6,0(s9)
   1a28a:	6652                	c.ldsp	a2,272(sp)
   1a28c:	0015851b          	addiw	a0,a1,1
   1a290:	85aa                	c.mv	a1,a0
   1a292:	010c8f13          	addi	t5,s9,16
   1a296:	20d8c5e3          	blt	a7,a3,1aca0 <_svfprintf_r+0xd5a>
   1a29a:	00dcb423          	sd	a3,8(s9)
   1a29e:	96b2                	c.add	a3,a2
   1a2a0:	ea36                	c.sdsp	a3,272(sp)
   1a2a2:	10a12423          	sw	a0,264(sp)
   1a2a6:	469d                	c.li	a3,7
   1a2a8:	8cfa                	c.mv	s9,t5
   1a2aa:	00a6dd63          	bge	a3,a0,1a2c4 <_svfprintf_r+0x37e>
   1a2ae:	0210                	c.addi4spn	a2,sp,256
   1a2b0:	85ce                	c.mv	a1,s3
   1a2b2:	854a                	c.mv	a0,s2
   1a2b4:	fcba                	c.sdsp	a4,120(sp)
   1a2b6:	551010ef          	jal	ra,1c006 <__ssprint_r>
   1a2ba:	c119                	c.beqz	a0,1a2c0 <_svfprintf_r+0x37a>
   1a2bc:	1c60106f          	jal	zero,1b482 <_svfprintf_r+0x153c>
   1a2c0:	7766                	c.ldsp	a4,120(sp)
   1a2c2:	8cd6                	c.mv	s9,s5
   1a2c4:	0cf14683          	lbu	a3,207(sp)
   1a2c8:	c2a1                	c.beqz	a3,1a308 <_svfprintf_r+0x3c2>
   1a2ca:	0cf10693          	addi	a3,sp,207
   1a2ce:	00dcb023          	sd	a3,0(s9)
   1a2d2:	4685                	c.li	a3,1
   1a2d4:	00dcb423          	sd	a3,8(s9)
   1a2d8:	66d2                	c.ldsp	a3,272(sp)
   1a2da:	0cc1                	c.addi	s9,16
   1a2dc:	0685                	c.addi	a3,1
   1a2de:	ea36                	c.sdsp	a3,272(sp)
   1a2e0:	10812683          	lw	a3,264(sp)
   1a2e4:	0016861b          	addiw	a2,a3,1
   1a2e8:	10c12423          	sw	a2,264(sp)
   1a2ec:	469d                	c.li	a3,7
   1a2ee:	00c6dd63          	bge	a3,a2,1a308 <_svfprintf_r+0x3c2>
   1a2f2:	0210                	c.addi4spn	a2,sp,256
   1a2f4:	85ce                	c.mv	a1,s3
   1a2f6:	854a                	c.mv	a0,s2
   1a2f8:	fcba                	c.sdsp	a4,120(sp)
   1a2fa:	50d010ef          	jal	ra,1c006 <__ssprint_r>
   1a2fe:	c119                	c.beqz	a0,1a304 <_svfprintf_r+0x3be>
   1a300:	1820106f          	jal	zero,1b482 <_svfprintf_r+0x153c>
   1a304:	7766                	c.ldsp	a4,120(sp)
   1a306:	8cd6                	c.mv	s9,s5
   1a308:	77a6                	c.ldsp	a5,104(sp)
   1a30a:	cf9d                	c.beqz	a5,1a348 <_svfprintf_r+0x402>
   1a30c:	0994                	c.addi4spn	a3,sp,208
   1a30e:	00dcb023          	sd	a3,0(s9)
   1a312:	4689                	c.li	a3,2
   1a314:	00dcb423          	sd	a3,8(s9)
   1a318:	66d2                	c.ldsp	a3,272(sp)
   1a31a:	0cc1                	c.addi	s9,16
   1a31c:	0689                	c.addi	a3,2
   1a31e:	ea36                	c.sdsp	a3,272(sp)
   1a320:	10812683          	lw	a3,264(sp)
   1a324:	0016861b          	addiw	a2,a3,1
   1a328:	10c12423          	sw	a2,264(sp)
   1a32c:	469d                	c.li	a3,7
   1a32e:	00c6dd63          	bge	a3,a2,1a348 <_svfprintf_r+0x402>
   1a332:	0210                	c.addi4spn	a2,sp,256
   1a334:	85ce                	c.mv	a1,s3
   1a336:	854a                	c.mv	a0,s2
   1a338:	f4ba                	c.sdsp	a4,104(sp)
   1a33a:	4cd010ef          	jal	ra,1c006 <__ssprint_r>
   1a33e:	c119                	c.beqz	a0,1a344 <_svfprintf_r+0x3fe>
   1a340:	1420106f          	jal	zero,1b482 <_svfprintf_r+0x153c>
   1a344:	7726                	c.ldsp	a4,104(sp)
   1a346:	8cd6                	c.mv	s9,s5
   1a348:	77c6                	c.ldsp	a5,112(sp)
   1a34a:	08000693          	addi	a3,zero,128
   1a34e:	04d79f63          	bne	a5,a3,1a3ac <_svfprintf_r+0x466>
   1a352:	5782                	c.lwsp	a5,32(sp)
   1a354:	56e2                	c.lwsp	a3,56(sp)
   1a356:	40d786bb          	subw	a3,a5,a3
   1a35a:	04d05963          	bge	zero,a3,1a3ac <_svfprintf_r+0x466>
   1a35e:	00029837          	lui	a6,0x29
   1a362:	48c1                	c.li	a7,16
   1a364:	ef880813          	addi	a6,a6,-264 # 28ef8 <zeroes.4426>
   1a368:	4e9d                	c.li	t4,7
   1a36a:	10812583          	lw	a1,264(sp)
   1a36e:	010cb023          	sd	a6,0(s9)
   1a372:	6652                	c.ldsp	a2,272(sp)
   1a374:	0015851b          	addiw	a0,a1,1
   1a378:	85aa                	c.mv	a1,a0
   1a37a:	010c8f13          	addi	t5,s9,16
   1a37e:	14d8cfe3          	blt	a7,a3,1acdc <_svfprintf_r+0xd96>
   1a382:	00dcb423          	sd	a3,8(s9)
   1a386:	96b2                	c.add	a3,a2
   1a388:	ea36                	c.sdsp	a3,272(sp)
   1a38a:	10a12423          	sw	a0,264(sp)
   1a38e:	469d                	c.li	a3,7
   1a390:	8cfa                	c.mv	s9,t5
   1a392:	00a6dd63          	bge	a3,a0,1a3ac <_svfprintf_r+0x466>
   1a396:	0210                	c.addi4spn	a2,sp,256
   1a398:	85ce                	c.mv	a1,s3
   1a39a:	854a                	c.mv	a0,s2
   1a39c:	f4ba                	c.sdsp	a4,104(sp)
   1a39e:	469010ef          	jal	ra,1c006 <__ssprint_r>
   1a3a2:	c119                	c.beqz	a0,1a3a8 <_svfprintf_r+0x462>
   1a3a4:	0de0106f          	jal	zero,1b482 <_svfprintf_r+0x153c>
   1a3a8:	7726                	c.ldsp	a4,104(sp)
   1a3aa:	8cd6                	c.mv	s9,s5
   1a3ac:	41b7073b          	subw	a4,a4,s11
   1a3b0:	04e05763          	bge	zero,a4,1a3fe <_svfprintf_r+0x4b8>
   1a3b4:	00029837          	lui	a6,0x29
   1a3b8:	48c1                	c.li	a7,16
   1a3ba:	ef880813          	addi	a6,a6,-264 # 28ef8 <zeroes.4426>
   1a3be:	4e9d                	c.li	t4,7
   1a3c0:	10812603          	lw	a2,264(sp)
   1a3c4:	010cb023          	sd	a6,0(s9)
   1a3c8:	66d2                	c.ldsp	a3,272(sp)
   1a3ca:	0016059b          	addiw	a1,a2,1
   1a3ce:	862e                	c.mv	a2,a1
   1a3d0:	010c8513          	addi	a0,s9,16
   1a3d4:	14e8c2e3          	blt	a7,a4,1ad18 <_svfprintf_r+0xdd2>
   1a3d8:	00ecb423          	sd	a4,8(s9)
   1a3dc:	9736                	c.add	a4,a3
   1a3de:	ea3a                	c.sdsp	a4,272(sp)
   1a3e0:	10b12423          	sw	a1,264(sp)
   1a3e4:	471d                	c.li	a4,7
   1a3e6:	8caa                	c.mv	s9,a0
   1a3e8:	00b75b63          	bge	a4,a1,1a3fe <_svfprintf_r+0x4b8>
   1a3ec:	0210                	c.addi4spn	a2,sp,256
   1a3ee:	85ce                	c.mv	a1,s3
   1a3f0:	854a                	c.mv	a0,s2
   1a3f2:	415010ef          	jal	ra,1c006 <__ssprint_r>
   1a3f6:	c119                	c.beqz	a0,1a3fc <_svfprintf_r+0x4b6>
   1a3f8:	08a0106f          	jal	zero,1b482 <_svfprintf_r+0x153c>
   1a3fc:	8cd6                	c.mv	s9,s5
   1a3fe:	10047693          	andi	a3,s0,256
   1a402:	6752                	c.ldsp	a4,272(sp)
   1a404:	140696e3          	bne	a3,zero,1ad50 <_svfprintf_r+0xe0a>
   1a408:	10812783          	lw	a5,264(sp)
   1a40c:	00ed8e33          	add	t3,s11,a4
   1a410:	009cb023          	sd	s1,0(s9)
   1a414:	0017871b          	addiw	a4,a5,1
   1a418:	01bcb423          	sd	s11,8(s9)
   1a41c:	ea72                	c.sdsp	t3,272(sp)
   1a41e:	10e12423          	sw	a4,264(sp)
   1a422:	479d                	c.li	a5,7
   1a424:	0cc1                	c.addi	s9,16
   1a426:	20e7d2e3          	bge	a5,a4,1ae2a <_svfprintf_r+0xee4>
   1a42a:	0210                	c.addi4spn	a2,sp,256
   1a42c:	85ce                	c.mv	a1,s3
   1a42e:	854a                	c.mv	a0,s2
   1a430:	3d7010ef          	jal	ra,1c006 <__ssprint_r>
   1a434:	c119                	c.beqz	a0,1a43a <_svfprintf_r+0x4f4>
   1a436:	04c0106f          	jal	zero,1b482 <_svfprintf_r+0x153c>
   1a43a:	8cd6                	c.mv	s9,s5
   1a43c:	1ef0006f          	jal	zero,1ae2a <_svfprintf_r+0xee4>
   1a440:	01046413          	ori	s0,s0,16
   1a444:	2401                	c.addiw	s0,0
   1a446:	008b8793          	addi	a5,s7,8
   1a44a:	f83e                	c.sdsp	a5,48(sp)
   1a44c:	02047793          	andi	a5,s0,32
   1a450:	cb85                	c.beqz	a5,1a480 <_svfprintf_r+0x53a>
   1a452:	000bbb83          	ld	s7,0(s7)
   1a456:	000bd863          	bge	s7,zero,1a466 <_svfprintf_r+0x520>
   1a45a:	02d00793          	addi	a5,zero,45
   1a45e:	41700bb3          	sub	s7,zero,s7
   1a462:	0cf107a3          	sb	a5,207(sp)
   1a466:	57fd                	c.li	a5,-1
   1a468:	72fd9663          	bne	s11,a5,1ab94 <_svfprintf_r+0xc4e>
   1a46c:	47a5                	c.li	a5,9
   1a46e:	7977e163          	bltu	a5,s7,1abf0 <_svfprintf_r+0xcaa>
   1a472:	030b8b9b          	addiw	s7,s7,48
   1a476:	17710da3          	sb	s7,379(sp)
   1a47a:	17b10493          	addi	s1,sp,379
   1a47e:	afa1                	c.j	1abd6 <_svfprintf_r+0xc90>
   1a480:	01047793          	andi	a5,s0,16
   1a484:	f7f9                	c.bnez	a5,1a452 <_svfprintf_r+0x50c>
   1a486:	04047793          	andi	a5,s0,64
   1a48a:	c781                	c.beqz	a5,1a492 <_svfprintf_r+0x54c>
   1a48c:	000b9b83          	lh	s7,0(s7)
   1a490:	b7d9                	c.j	1a456 <_svfprintf_r+0x510>
   1a492:	20047793          	andi	a5,s0,512
   1a496:	c781                	c.beqz	a5,1a49e <_svfprintf_r+0x558>
   1a498:	000b8b83          	lb	s7,0(s7)
   1a49c:	bf6d                	c.j	1a456 <_svfprintf_r+0x510>
   1a49e:	000bab83          	lw	s7,0(s7)
   1a4a2:	bf55                	c.j	1a456 <_svfprintf_r+0x510>
   1a4a4:	00847793          	andi	a5,s0,8
   1a4a8:	cfb9                	c.beqz	a5,1a506 <_svfprintf_r+0x5c0>
   1a4aa:	0bbd                	c.addi	s7,15
   1a4ac:	ff0bfb93          	andi	s7,s7,-16
   1a4b0:	010b8793          	addi	a5,s7,16
   1a4b4:	f83e                	c.sdsp	a5,48(sp)
   1a4b6:	000bb783          	ld	a5,0(s7)
   1a4ba:	f9be                	c.sdsp	a5,240(sp)
   1a4bc:	008bb783          	ld	a5,8(s7)
   1a4c0:	fdbe                	c.sdsp	a5,248(sp)
   1a4c2:	1988                	c.addi4spn	a0,sp,240
   1a4c4:	a3ffe0ef          	jal	ra,18f02 <_ldcheck>
   1a4c8:	cdaa                	c.swsp	a0,216(sp)
   1a4ca:	4789                	c.li	a5,2
   1a4cc:	04f51c63          	bne	a0,a5,1a524 <_svfprintf_r+0x5de>
   1a4d0:	754e                	c.ldsp	a0,240(sp)
   1a4d2:	75ee                	c.ldsp	a1,248(sp)
   1a4d4:	4601                	c.li	a2,0
   1a4d6:	4681                	c.li	a3,0
   1a4d8:	189020ef          	jal	ra,1ce60 <__letf2>
   1a4dc:	00055663          	bge	a0,zero,1a4e8 <_svfprintf_r+0x5a2>
   1a4e0:	02d00793          	addi	a5,zero,45
   1a4e4:	0cf107a3          	sb	a5,207(sp)
   1a4e8:	04700793          	addi	a5,zero,71
   1a4ec:	0367c763          	blt	a5,s6,1a51a <_svfprintf_r+0x5d4>
   1a4f0:	000294b7          	lui	s1,0x29
   1a4f4:	85048493          	addi	s1,s1,-1968 # 28850 <zeroes.4441+0x48>
   1a4f8:	f7f47413          	andi	s0,s0,-129
   1a4fc:	2401                	c.addiw	s0,0
   1a4fe:	4b81                	c.li	s7,0
   1a500:	4d8d                	c.li	s11,3
   1a502:	4701                	c.li	a4,0
   1a504:	adf9                	c.j	1abe2 <_svfprintf_r+0xc9c>
   1a506:	000bb507          	fld	fa0,0(s7)
   1a50a:	008b8793          	addi	a5,s7,8
   1a50e:	f83e                	c.sdsp	a5,48(sp)
   1a510:	17d030ef          	jal	ra,1de8c <__extenddftf2>
   1a514:	f9aa                	c.sdsp	a0,240(sp)
   1a516:	fdae                	c.sdsp	a1,248(sp)
   1a518:	b76d                	c.j	1a4c2 <_svfprintf_r+0x57c>
   1a51a:	000294b7          	lui	s1,0x29
   1a51e:	85848493          	addi	s1,s1,-1960 # 28858 <zeroes.4441+0x50>
   1a522:	bfd9                	c.j	1a4f8 <_svfprintf_r+0x5b2>
   1a524:	4785                	c.li	a5,1
   1a526:	02f51763          	bne	a0,a5,1a554 <_svfprintf_r+0x60e>
   1a52a:	77ee                	c.ldsp	a5,248(sp)
   1a52c:	0007d663          	bge	a5,zero,1a538 <_svfprintf_r+0x5f2>
   1a530:	02d00793          	addi	a5,zero,45
   1a534:	0cf107a3          	sb	a5,207(sp)
   1a538:	04700793          	addi	a5,zero,71
   1a53c:	0167c763          	blt	a5,s6,1a54a <_svfprintf_r+0x604>
   1a540:	000294b7          	lui	s1,0x29
   1a544:	86048493          	addi	s1,s1,-1952 # 28860 <zeroes.4441+0x58>
   1a548:	bf45                	c.j	1a4f8 <_svfprintf_r+0x5b2>
   1a54a:	000294b7          	lui	s1,0x29
   1a54e:	86848493          	addi	s1,s1,-1944 # 28868 <zeroes.4441+0x60>
   1a552:	b75d                	c.j	1a4f8 <_svfprintf_r+0x5b2>
   1a554:	fdfb7c13          	andi	s8,s6,-33
   1a558:	04100793          	addi	a5,zero,65
   1a55c:	08fc1963          	bne	s8,a5,1a5ee <_svfprintf_r+0x6a8>
   1a560:	03000793          	addi	a5,zero,48
   1a564:	0cf10823          	sb	a5,208(sp)
   1a568:	06100713          	addi	a4,zero,97
   1a56c:	05800793          	addi	a5,zero,88
   1a570:	00eb1463          	bne	s6,a4,1a578 <_svfprintf_r+0x632>
   1a574:	07800793          	addi	a5,zero,120
   1a578:	0cf108a3          	sb	a5,209(sp)
   1a57c:	00246413          	ori	s0,s0,2
   1a580:	06300793          	addi	a5,zero,99
   1a584:	2401                	c.addiw	s0,0
   1a586:	19b7d863          	bge	a5,s11,1a716 <_svfprintf_r+0x7d0>
   1a58a:	001d859b          	addiw	a1,s11,1
   1a58e:	854a                	c.mv	a0,s2
   1a590:	a65fa0ef          	jal	ra,14ff4 <_malloc_r>
   1a594:	84aa                	c.mv	s1,a0
   1a596:	18051363          	bne	a0,zero,1a71c <_svfprintf_r+0x7d6>
   1a59a:	0109d783          	lhu	a5,16(s3)
   1a59e:	0407e793          	ori	a5,a5,64
   1a5a2:	00f99823          	sh	a5,16(s3)
   1a5a6:	0109d783          	lhu	a5,16(s3)
   1a5aa:	0407f793          	andi	a5,a5,64
   1a5ae:	a0079be3          	bne	a5,zero,19fc4 <_svfprintf_r+0x7e>
   1a5b2:	26813083          	ld	ra,616(sp)
   1a5b6:	26013403          	ld	s0,608(sp)
   1a5ba:	7522                	c.ldsp	a0,40(sp)
   1a5bc:	25813483          	ld	s1,600(sp)
   1a5c0:	25013903          	ld	s2,592(sp)
   1a5c4:	24813983          	ld	s3,584(sp)
   1a5c8:	24013a03          	ld	s4,576(sp)
   1a5cc:	23813a83          	ld	s5,568(sp)
   1a5d0:	23013b03          	ld	s6,560(sp)
   1a5d4:	22813b83          	ld	s7,552(sp)
   1a5d8:	22013c03          	ld	s8,544(sp)
   1a5dc:	21813c83          	ld	s9,536(sp)
   1a5e0:	21013d03          	ld	s10,528(sp)
   1a5e4:	20813d83          	ld	s11,520(sp)
   1a5e8:	27010113          	addi	sp,sp,624
   1a5ec:	8082                	c.jr	ra
   1a5ee:	57fd                	c.li	a5,-1
   1a5f0:	12fd8863          	beq	s11,a5,1a720 <_svfprintf_r+0x7da>
   1a5f4:	04700793          	addi	a5,zero,71
   1a5f8:	4b81                	c.li	s7,0
   1a5fa:	00fc1463          	bne	s8,a5,1a602 <_svfprintf_r+0x6bc>
   1a5fe:	120d8463          	beq	s11,zero,1a726 <_svfprintf_r+0x7e0>
   1a602:	10046793          	ori	a5,s0,256
   1a606:	7a6e                	c.ldsp	s4,248(sp)
   1a608:	2781                	c.addiw	a5,0
   1a60a:	fc3e                	c.sdsp	a5,56(sp)
   1a60c:	fc82                	c.sdsp	zero,120(sp)
   1a60e:	7ece                	c.ldsp	t4,240(sp)
   1a610:	000a5963          	bge	s4,zero,1a622 <_svfprintf_r+0x6dc>
   1a614:	57fd                	c.li	a5,-1
   1a616:	17fe                	c.slli	a5,0x3f
   1a618:	00fa4a33          	xor	s4,s4,a5
   1a61c:	02d00793          	addi	a5,zero,45
   1a620:	fcbe                	c.sdsp	a5,120(sp)
   1a622:	04100793          	addi	a5,zero,65
   1a626:	22fc1363          	bne	s8,a5,1a84c <_svfprintf_r+0x906>
   1a62a:	8576                	c.mv	a0,t4
   1a62c:	85d2                	c.mv	a1,s4
   1a62e:	143030ef          	jal	ra,1df70 <__trunctfdf2>
   1a632:	09a8                	c.addi4spn	a0,sp,216
   1a634:	fd6ff0ef          	jal	ra,19e0a <frexp>
   1a638:	055030ef          	jal	ra,1de8c <__extenddftf2>
   1a63c:	768a                	c.ldsp	a3,160(sp)
   1a63e:	4601                	c.li	a2,0
   1a640:	0e5020ef          	jal	ra,1cf24 <__multf3>
   1a644:	4601                	c.li	a2,0
   1a646:	4681                	c.li	a3,0
   1a648:	e12a                	c.sdsp	a0,128(sp)
   1a64a:	e52e                	c.sdsp	a1,136(sp)
   1a64c:	6ac020ef          	jal	ra,1ccf8 <__eqtf2>
   1a650:	e119                	c.bnez	a0,1a656 <_svfprintf_r+0x710>
   1a652:	4785                	c.li	a5,1
   1a654:	cdbe                	c.swsp	a5,216(sp)
   1a656:	06100793          	addi	a5,zero,97
   1a65a:	0cfb1963          	bne	s6,a5,1a72c <_svfprintf_r+0x7e6>
   1a65e:	000297b7          	lui	a5,0x29
   1a662:	87078793          	addi	a5,a5,-1936 # 28870 <zeroes.4441+0x68>
   1a666:	e43e                	c.sdsp	a5,8(sp)
   1a668:	fffd871b          	addiw	a4,s11,-1
   1a66c:	8a26                	c.mv	s4,s1
   1a66e:	76aa                	c.ldsp	a3,168(sp)
   1a670:	650a                	c.ldsp	a0,128(sp)
   1a672:	65aa                	c.ldsp	a1,136(sp)
   1a674:	4601                	c.li	a2,0
   1a676:	f93a                	c.sdsp	a4,176(sp)
   1a678:	0ad020ef          	jal	ra,1cf24 <__multf3>
   1a67c:	8d2a                	c.mv	s10,a0
   1a67e:	f4ae                	c.sdsp	a1,104(sp)
   1a680:	6fc030ef          	jal	ra,1dd7c <__fixtfsi>
   1a684:	0005079b          	addiw	a5,a0,0
   1a688:	f8be                	c.sdsp	a5,112(sp)
   1a68a:	784030ef          	jal	ra,1de0e <__floatsitf>
   1a68e:	77a6                	c.ldsp	a5,104(sp)
   1a690:	86ae                	c.mv	a3,a1
   1a692:	862a                	c.mv	a2,a0
   1a694:	85be                	c.mv	a1,a5
   1a696:	856a                	c.mv	a0,s10
   1a698:	6d5020ef          	jal	ra,1d56c <__subtf3>
   1a69c:	67a2                	c.ldsp	a5,8(sp)
   1a69e:	7746                	c.ldsp	a4,112(sp)
   1a6a0:	0a05                	c.addi	s4,1
   1a6a2:	e12a                	c.sdsp	a0,128(sp)
   1a6a4:	00e786b3          	add	a3,a5,a4
   1a6a8:	774a                	c.ldsp	a4,176(sp)
   1a6aa:	0006c683          	lbu	a3,0(a3) # 3fe00000 <__global_pointer$+0x3fdd4380>
   1a6ae:	e52e                	c.sdsp	a1,136(sp)
   1a6b0:	0007079b          	addiw	a5,a4,0
   1a6b4:	f4be                	c.sdsp	a5,104(sp)
   1a6b6:	feda0fa3          	sb	a3,-1(s4)
   1a6ba:	57fd                	c.li	a5,-1
   1a6bc:	88aa                	c.mv	a7,a0
   1a6be:	8d2e                	c.mv	s10,a1
   1a6c0:	06f70b63          	beq	a4,a5,1a736 <_svfprintf_r+0x7f0>
   1a6c4:	377d                	c.addiw	a4,-1
   1a6c6:	4601                	c.li	a2,0
   1a6c8:	4681                	c.li	a3,0
   1a6ca:	f93a                	c.sdsp	a4,176(sp)
   1a6cc:	fd2a                	c.sdsp	a0,184(sp)
   1a6ce:	62a020ef          	jal	ra,1ccf8 <__eqtf2>
   1a6d2:	774a                	c.ldsp	a4,176(sp)
   1a6d4:	78ea                	c.ldsp	a7,184(sp)
   1a6d6:	fd41                	c.bnez	a0,1a66e <_svfprintf_r+0x728>
   1a6d8:	66ca                	c.ldsp	a3,144(sp)
   1a6da:	4601                	c.li	a2,0
   1a6dc:	8546                	c.mv	a0,a7
   1a6de:	85ea                	c.mv	a1,s10
   1a6e0:	e146                	c.sdsp	a7,128(sp)
   1a6e2:	6ba020ef          	jal	ra,1cd9c <__getf2>
   1a6e6:	04a04b63          	blt	zero,a0,1a73c <_svfprintf_r+0x7f6>
   1a6ea:	688a                	c.ldsp	a7,128(sp)
   1a6ec:	66ca                	c.ldsp	a3,144(sp)
   1a6ee:	4601                	c.li	a2,0
   1a6f0:	8546                	c.mv	a0,a7
   1a6f2:	85ea                	c.mv	a1,s10
   1a6f4:	604020ef          	jal	ra,1ccf8 <__eqtf2>
   1a6f8:	e509                	c.bnez	a0,1a702 <_svfprintf_r+0x7bc>
   1a6fa:	77c6                	c.ldsp	a5,112(sp)
   1a6fc:	0017f713          	andi	a4,a5,1
   1a700:	ef15                	c.bnez	a4,1a73c <_svfprintf_r+0x7f6>
   1a702:	5726                	c.lwsp	a4,104(sp)
   1a704:	03000693          	addi	a3,zero,48
   1a708:	06074163          	blt	a4,zero,1a76a <_svfprintf_r+0x824>
   1a70c:	0a05                	c.addi	s4,1
   1a70e:	feda0fa3          	sb	a3,-1(s4)
   1a712:	377d                	c.addiw	a4,-1
   1a714:	bfd5                	c.j	1a708 <_svfprintf_r+0x7c2>
   1a716:	4b81                	c.li	s7,0
   1a718:	0a24                	c.addi4spn	s1,sp,280
   1a71a:	b5e5                	c.j	1a602 <_svfprintf_r+0x6bc>
   1a71c:	8baa                	c.mv	s7,a0
   1a71e:	b5d5                	c.j	1a602 <_svfprintf_r+0x6bc>
   1a720:	4b81                	c.li	s7,0
   1a722:	4d99                	c.li	s11,6
   1a724:	bdf9                	c.j	1a602 <_svfprintf_r+0x6bc>
   1a726:	8bee                	c.mv	s7,s11
   1a728:	4d85                	c.li	s11,1
   1a72a:	bde1                	c.j	1a602 <_svfprintf_r+0x6bc>
   1a72c:	000297b7          	lui	a5,0x29
   1a730:	88878793          	addi	a5,a5,-1912 # 28888 <zeroes.4441+0x80>
   1a734:	bf0d                	c.j	1a666 <_svfprintf_r+0x720>
   1a736:	57fd                	c.li	a5,-1
   1a738:	f4be                	c.sdsp	a5,104(sp)
   1a73a:	bf79                	c.j	1a6d8 <_svfprintf_r+0x792>
   1a73c:	67a2                	c.ldsp	a5,8(sp)
   1a73e:	f5d2                	c.sdsp	s4,232(sp)
   1a740:	03000593          	addi	a1,zero,48
   1a744:	00f7c603          	lbu	a2,15(a5)
   1a748:	76ae                	c.ldsp	a3,232(sp)
   1a74a:	fff68713          	addi	a4,a3,-1
   1a74e:	f5ba                	c.sdsp	a4,232(sp)
   1a750:	fff6c703          	lbu	a4,-1(a3)
   1a754:	0ec70563          	beq	a4,a2,1a83e <_svfprintf_r+0x8f8>
   1a758:	03900613          	addi	a2,zero,57
   1a75c:	0ec71463          	bne	a4,a2,1a844 <_svfprintf_r+0x8fe>
   1a760:	67a2                	c.ldsp	a5,8(sp)
   1a762:	00a7c703          	lbu	a4,10(a5)
   1a766:	fee68fa3          	sb	a4,-1(a3)
   1a76a:	04700713          	addi	a4,zero,71
   1a76e:	409a0a3b          	subw	s4,s4,s1
   1a772:	4d6e                	c.lwsp	s10,216(sp)
   1a774:	18ec1463          	bne	s8,a4,1a8fc <_svfprintf_r+0x9b6>
   1a778:	5775                	c.li	a4,-3
   1a77a:	00ed4463          	blt	s10,a4,1a782 <_svfprintf_r+0x83c>
   1a77e:	1fadd463          	bge	s11,s10,1a966 <_svfprintf_r+0xa20>
   1a782:	3b79                	c.addiw	s6,-2
   1a784:	fffd069b          	addiw	a3,s10,-1
   1a788:	cdb6                	c.swsp	a3,216(sp)
   1a78a:	fdfb7613          	andi	a2,s6,-33
   1a78e:	04100513          	addi	a0,zero,65
   1a792:	0ffb7713          	andi	a4,s6,255
   1a796:	4581                	c.li	a1,0
   1a798:	00a61663          	bne	a2,a0,1a7a4 <_svfprintf_r+0x85e>
   1a79c:	273d                	c.addiw	a4,15
   1a79e:	0ff77713          	andi	a4,a4,255
   1a7a2:	4585                	c.li	a1,1
   1a7a4:	0ee10023          	sb	a4,224(sp)
   1a7a8:	02b00793          	addi	a5,zero,43
   1a7ac:	0006d763          	bge	a3,zero,1a7ba <_svfprintf_r+0x874>
   1a7b0:	4685                	c.li	a3,1
   1a7b2:	41a686bb          	subw	a3,a3,s10
   1a7b6:	02d00793          	addi	a5,zero,45
   1a7ba:	0ef100a3          	sb	a5,225(sp)
   1a7be:	47a5                	c.li	a5,9
   1a7c0:	16d7da63          	bge	a5,a3,1a934 <_svfprintf_r+0x9ee>
   1a7c4:	0ef10713          	addi	a4,sp,239
   1a7c8:	853a                	c.mv	a0,a4
   1a7ca:	45a9                	c.li	a1,10
   1a7cc:	4825                	c.li	a6,9
   1a7ce:	02b6e7bb          	remw	a5,a3,a1
   1a7d2:	fff70613          	addi	a2,a4,-1
   1a7d6:	02b6c6bb          	divw	a3,a3,a1
   1a7da:	0307879b          	addiw	a5,a5,48
   1a7de:	fef70fa3          	sb	a5,-1(a4)
   1a7e2:	14d84063          	blt	a6,a3,1a922 <_svfprintf_r+0x9dc>
   1a7e6:	0306879b          	addiw	a5,a3,48
   1a7ea:	fef60fa3          	sb	a5,-1(a2)
   1a7ee:	1779                	c.addi	a4,-2
   1a7f0:	0e210613          	addi	a2,sp,226
   1a7f4:	12a76963          	bltu	a4,a0,1a926 <_svfprintf_r+0x9e0>
   1a7f8:	119c                	c.addi4spn	a5,sp,224
   1a7fa:	40f607bb          	subw	a5,a2,a5
   1a7fe:	ecbe                	c.sdsp	a5,88(sp)
   1a800:	47e6                	c.lwsp	a5,88(sp)
   1a802:	4705                	c.li	a4,1
   1a804:	01478dbb          	addw	s11,a5,s4
   1a808:	87ee                	c.mv	a5,s11
   1a80a:	01474563          	blt	a4,s4,1a814 <_svfprintf_r+0x8ce>
   1a80e:	00147713          	andi	a4,s0,1
   1a812:	c701                	c.beqz	a4,1a81a <_svfprintf_r+0x8d4>
   1a814:	4762                	c.lwsp	a4,24(sp)
   1a816:	00e78dbb          	addw	s11,a5,a4
   1a81a:	bff47413          	andi	s0,s0,-1025
   1a81e:	2401                	c.addiw	s0,0
   1a820:	10046793          	ori	a5,s0,256
   1a824:	fc3e                	c.sdsp	a5,56(sp)
   1a826:	e402                	c.sdsp	zero,8(sp)
   1a828:	4c01                	c.li	s8,0
   1a82a:	4d01                	c.li	s10,0
   1a82c:	77e6                	c.ldsp	a5,120(sp)
   1a82e:	c789                	c.beqz	a5,1a838 <_svfprintf_r+0x8f2>
   1a830:	02d00713          	addi	a4,zero,45
   1a834:	0ce107a3          	sb	a4,207(sp)
   1a838:	7462                	c.ldsp	s0,56(sp)
   1a83a:	4701                	c.li	a4,0
   1a83c:	baed                	c.j	1a236 <_svfprintf_r+0x2f0>
   1a83e:	feb68fa3          	sb	a1,-1(a3)
   1a842:	b719                	c.j	1a748 <_svfprintf_r+0x802>
   1a844:	2705                	c.addiw	a4,1
   1a846:	0ff77713          	andi	a4,a4,255
   1a84a:	bf31                	c.j	1a766 <_svfprintf_r+0x820>
   1a84c:	04600793          	addi	a5,zero,70
   1a850:	00fc0b63          	beq	s8,a5,1a866 <_svfprintf_r+0x920>
   1a854:	04500793          	addi	a5,zero,69
   1a858:	8d6e                	c.mv	s10,s11
   1a85a:	00fc1463          	bne	s8,a5,1a862 <_svfprintf_r+0x91c>
   1a85e:	001d8d1b          	addiw	s10,s11,1
   1a862:	4689                	c.li	a3,2
   1a864:	a019                	c.j	1a86a <_svfprintf_r+0x924>
   1a866:	8d6e                	c.mv	s10,s11
   1a868:	468d                	c.li	a3,3
   1a86a:	09bc                	c.addi4spn	a5,sp,216
   1a86c:	85f6                	c.mv	a1,t4
   1a86e:	0e810893          	addi	a7,sp,232
   1a872:	0dc10813          	addi	a6,sp,220
   1a876:	876a                	c.mv	a4,s10
   1a878:	8652                	c.mv	a2,s4
   1a87a:	854a                	c.mv	a0,s2
   1a87c:	e476                	c.sdsp	t4,8(sp)
   1a87e:	d65fd0ef          	jal	ra,185e2 <_ldtoa_r>
   1a882:	04700793          	addi	a5,zero,71
   1a886:	84aa                	c.mv	s1,a0
   1a888:	6ea2                	c.ldsp	t4,8(sp)
   1a88a:	00fc1563          	bne	s8,a5,1a894 <_svfprintf_r+0x94e>
   1a88e:	00147793          	andi	a5,s0,1
   1a892:	cbb1                	c.beqz	a5,1a8e6 <_svfprintf_r+0x9a0>
   1a894:	04600713          	addi	a4,zero,70
   1a898:	01a487b3          	add	a5,s1,s10
   1a89c:	02ec1963          	bne	s8,a4,1a8ce <_svfprintf_r+0x988>
   1a8a0:	0004c683          	lbu	a3,0(s1)
   1a8a4:	03000713          	addi	a4,zero,48
   1a8a8:	02e69163          	bne	a3,a4,1a8ca <_svfprintf_r+0x984>
   1a8ac:	8576                	c.mv	a0,t4
   1a8ae:	4601                	c.li	a2,0
   1a8b0:	4681                	c.li	a3,0
   1a8b2:	85d2                	c.mv	a1,s4
   1a8b4:	f4be                	c.sdsp	a5,104(sp)
   1a8b6:	e476                	c.sdsp	t4,8(sp)
   1a8b8:	440020ef          	jal	ra,1ccf8 <__eqtf2>
   1a8bc:	6ea2                	c.ldsp	t4,8(sp)
   1a8be:	77a6                	c.ldsp	a5,104(sp)
   1a8c0:	c509                	c.beqz	a0,1a8ca <_svfprintf_r+0x984>
   1a8c2:	4705                	c.li	a4,1
   1a8c4:	41a70d3b          	subw	s10,a4,s10
   1a8c8:	cdea                	c.swsp	s10,216(sp)
   1a8ca:	476e                	c.lwsp	a4,216(sp)
   1a8cc:	97ba                	c.add	a5,a4
   1a8ce:	4681                	c.li	a3,0
   1a8d0:	4601                	c.li	a2,0
   1a8d2:	8576                	c.mv	a0,t4
   1a8d4:	85d2                	c.mv	a1,s4
   1a8d6:	e43e                	c.sdsp	a5,8(sp)
   1a8d8:	420020ef          	jal	ra,1ccf8 <__eqtf2>
   1a8dc:	67a2                	c.ldsp	a5,8(sp)
   1a8de:	03000693          	addi	a3,zero,48
   1a8e2:	e909                	c.bnez	a0,1a8f4 <_svfprintf_r+0x9ae>
   1a8e4:	f5be                	c.sdsp	a5,232(sp)
   1a8e6:	7a2e                	c.ldsp	s4,232(sp)
   1a8e8:	b549                	c.j	1a76a <_svfprintf_r+0x824>
   1a8ea:	00170613          	addi	a2,a4,1
   1a8ee:	f5b2                	c.sdsp	a2,232(sp)
   1a8f0:	00d70023          	sb	a3,0(a4)
   1a8f4:	772e                	c.ldsp	a4,232(sp)
   1a8f6:	fef76ae3          	bltu	a4,a5,1a8ea <_svfprintf_r+0x9a4>
   1a8fa:	b7f5                	c.j	1a8e6 <_svfprintf_r+0x9a0>
   1a8fc:	04600713          	addi	a4,zero,70
   1a900:	e8ec12e3          	bne	s8,a4,1a784 <_svfprintf_r+0x83e>
   1a904:	05a05863          	bge	zero,s10,1a954 <_svfprintf_r+0xa0e>
   1a908:	000d9563          	bne	s11,zero,1a912 <_svfprintf_r+0x9cc>
   1a90c:	00147713          	andi	a4,s0,1
   1a910:	cf59                	c.beqz	a4,1a9ae <_svfprintf_r+0xa68>
   1a912:	47e2                	c.lwsp	a5,24(sp)
   1a914:	01a7873b          	addw	a4,a5,s10
   1a918:	01b70dbb          	addw	s11,a4,s11
   1a91c:	06600b13          	addi	s6,zero,102
   1a920:	a895                	c.j	1a994 <_svfprintf_r+0xa4e>
   1a922:	8732                	c.mv	a4,a2
   1a924:	b56d                	c.j	1a7ce <_svfprintf_r+0x888>
   1a926:	0705                	c.addi	a4,1
   1a928:	fff74783          	lbu	a5,-1(a4)
   1a92c:	0605                	c.addi	a2,1
   1a92e:	fef60fa3          	sb	a5,-1(a2)
   1a932:	b5c9                	c.j	1a7f4 <_svfprintf_r+0x8ae>
   1a934:	0e210713          	addi	a4,sp,226
   1a938:	e599                	c.bnez	a1,1a946 <_svfprintf_r+0xa00>
   1a93a:	03000793          	addi	a5,zero,48
   1a93e:	0ef10123          	sb	a5,226(sp)
   1a942:	0e310713          	addi	a4,sp,227
   1a946:	0306879b          	addiw	a5,a3,48
   1a94a:	00170613          	addi	a2,a4,1
   1a94e:	00f70023          	sb	a5,0(a4)
   1a952:	b55d                	c.j	1a7f8 <_svfprintf_r+0x8b2>
   1a954:	000d9563          	bne	s11,zero,1a95e <_svfprintf_r+0xa18>
   1a958:	00147713          	andi	a4,s0,1
   1a95c:	cb39                	c.beqz	a4,1a9b2 <_svfprintf_r+0xa6c>
   1a95e:	47e2                	c.lwsp	a5,24(sp)
   1a960:	0017871b          	addiw	a4,a5,1
   1a964:	bf55                	c.j	1a918 <_svfprintf_r+0x9d2>
   1a966:	014d4c63          	blt	s10,s4,1a97e <_svfprintf_r+0xa38>
   1a96a:	00147713          	andi	a4,s0,1
   1a96e:	8dea                	c.mv	s11,s10
   1a970:	c701                	c.beqz	a4,1a978 <_svfprintf_r+0xa32>
   1a972:	47e2                	c.lwsp	a5,24(sp)
   1a974:	01a78dbb          	addw	s11,a5,s10
   1a978:	06700b13          	addi	s6,zero,103
   1a97c:	a821                	c.j	1a994 <_svfprintf_r+0xa4e>
   1a97e:	47e2                	c.lwsp	a5,24(sp)
   1a980:	06700b13          	addi	s6,zero,103
   1a984:	01478dbb          	addw	s11,a5,s4
   1a988:	01a04663          	blt	zero,s10,1a994 <_svfprintf_r+0xa4e>
   1a98c:	41ad8e3b          	subw	t3,s11,s10
   1a990:	001e0d9b          	addiw	s11,t3,1
   1a994:	40047413          	andi	s0,s0,1024
   1a998:	00040c1b          	addiw	s8,s0,0
   1a99c:	e402                	c.sdsp	zero,8(sp)
   1a99e:	e80c07e3          	beq	s8,zero,1a82c <_svfprintf_r+0x8e6>
   1a9a2:	4c01                	c.li	s8,0
   1a9a4:	e9a054e3          	bge	zero,s10,1a82c <_svfprintf_r+0x8e6>
   1a9a8:	0ff00693          	addi	a3,zero,255
   1a9ac:	a01d                	c.j	1a9d2 <_svfprintf_r+0xa8c>
   1a9ae:	8dea                	c.mv	s11,s10
   1a9b0:	b7b5                	c.j	1a91c <_svfprintf_r+0x9d6>
   1a9b2:	06600b13          	addi	s6,zero,102
   1a9b6:	4d85                	c.li	s11,1
   1a9b8:	bff1                	c.j	1a994 <_svfprintf_r+0xa4e>
   1a9ba:	2701                	c.addiw	a4,0
   1a9bc:	03a75063          	bge	a4,s10,1a9dc <_svfprintf_r+0xa96>
   1a9c0:	6782                	c.ldsp	a5,0(sp)
   1a9c2:	40ed0d3b          	subw	s10,s10,a4
   1a9c6:	0017c703          	lbu	a4,1(a5)
   1a9ca:	c315                	c.beqz	a4,1a9ee <_svfprintf_r+0xaa8>
   1a9cc:	0785                	c.addi	a5,1
   1a9ce:	2c05                	c.addiw	s8,1
   1a9d0:	e03e                	c.sdsp	a5,0(sp)
   1a9d2:	6782                	c.ldsp	a5,0(sp)
   1a9d4:	0007c703          	lbu	a4,0(a5)
   1a9d8:	fed711e3          	bne	a4,a3,1a9ba <_svfprintf_r+0xa74>
   1a9dc:	47a2                	c.lwsp	a5,8(sp)
   1a9de:	00fc073b          	addw	a4,s8,a5
   1a9e2:	4786                	c.lwsp	a5,64(sp)
   1a9e4:	02f7073b          	mulw	a4,a4,a5
   1a9e8:	01b70dbb          	addw	s11,a4,s11
   1a9ec:	b581                	c.j	1a82c <_svfprintf_r+0x8e6>
   1a9ee:	47a2                	c.lwsp	a5,8(sp)
   1a9f0:	2785                	c.addiw	a5,1
   1a9f2:	e43e                	c.sdsp	a5,8(sp)
   1a9f4:	bff9                	c.j	1a9d2 <_svfprintf_r+0xa8c>
   1a9f6:	008b8713          	addi	a4,s7,8
   1a9fa:	f83a                	c.sdsp	a4,48(sp)
   1a9fc:	02047713          	andi	a4,s0,32
   1aa00:	000bb783          	ld	a5,0(s7)
   1aa04:	c719                	c.beqz	a4,1aa12 <_svfprintf_r+0xacc>
   1aa06:	7722                	c.ldsp	a4,40(sp)
   1aa08:	e398                	c.sd	a4,0(a5)
   1aa0a:	7bc2                	c.ldsp	s7,48(sp)
   1aa0c:	64c2                	c.ldsp	s1,16(sp)
   1aa0e:	e08ff06f          	jal	zero,1a016 <_svfprintf_r+0xd0>
   1aa12:	01047713          	andi	a4,s0,16
   1aa16:	fb65                	c.bnez	a4,1aa06 <_svfprintf_r+0xac0>
   1aa18:	04047713          	andi	a4,s0,64
   1aa1c:	c711                	c.beqz	a4,1aa28 <_svfprintf_r+0xae2>
   1aa1e:	02815703          	lhu	a4,40(sp)
   1aa22:	00e79023          	sh	a4,0(a5)
   1aa26:	b7d5                	c.j	1aa0a <_svfprintf_r+0xac4>
   1aa28:	20047413          	andi	s0,s0,512
   1aa2c:	c411                	c.beqz	s0,1aa38 <_svfprintf_r+0xaf2>
   1aa2e:	02814703          	lbu	a4,40(sp)
   1aa32:	00e78023          	sb	a4,0(a5)
   1aa36:	bfd1                	c.j	1aa0a <_svfprintf_r+0xac4>
   1aa38:	5722                	c.lwsp	a4,40(sp)
   1aa3a:	c398                	c.sw	a4,0(a5)
   1aa3c:	b7f9                	c.j	1aa0a <_svfprintf_r+0xac4>
   1aa3e:	01046413          	ori	s0,s0,16
   1aa42:	2401                	c.addiw	s0,0
   1aa44:	008b8793          	addi	a5,s7,8
   1aa48:	f83e                	c.sdsp	a5,48(sp)
   1aa4a:	02047793          	andi	a5,s0,32
   1aa4e:	cb85                	c.beqz	a5,1aa7e <_svfprintf_r+0xb38>
   1aa50:	000bbb83          	ld	s7,0(s7)
   1aa54:	bff47413          	andi	s0,s0,-1025
   1aa58:	2401                	c.addiw	s0,0
   1aa5a:	4781                	c.li	a5,0
   1aa5c:	0c0107a3          	sb	zero,207(sp)
   1aa60:	577d                	c.li	a4,-1
   1aa62:	12ed8c63          	beq	s11,a4,1ab9a <_svfprintf_r+0xc54>
   1aa66:	8722                	c.mv	a4,s0
   1aa68:	f7f47413          	andi	s0,s0,-129
   1aa6c:	2401                	c.addiw	s0,0
   1aa6e:	120b9663          	bne	s7,zero,1ab9a <_svfprintf_r+0xc54>
   1aa72:	200d8463          	beq	s11,zero,1ac7a <_svfprintf_r+0xd34>
   1aa76:	4705                	c.li	a4,1
   1aa78:	12e79463          	bne	a5,a4,1aba0 <_svfprintf_r+0xc5a>
   1aa7c:	badd                	c.j	1a472 <_svfprintf_r+0x52c>
   1aa7e:	01047793          	andi	a5,s0,16
   1aa82:	f7f9                	c.bnez	a5,1aa50 <_svfprintf_r+0xb0a>
   1aa84:	04047793          	andi	a5,s0,64
   1aa88:	000bab83          	lw	s7,0(s7)
   1aa8c:	c789                	c.beqz	a5,1aa96 <_svfprintf_r+0xb50>
   1aa8e:	1bc2                	c.slli	s7,0x30
   1aa90:	030bdb93          	srli	s7,s7,0x30
   1aa94:	b7c1                	c.j	1aa54 <_svfprintf_r+0xb0e>
   1aa96:	20047793          	andi	a5,s0,512
   1aa9a:	c781                	c.beqz	a5,1aaa2 <_svfprintf_r+0xb5c>
   1aa9c:	0ffbfb93          	andi	s7,s7,255
   1aaa0:	bf55                	c.j	1aa54 <_svfprintf_r+0xb0e>
   1aaa2:	1b82                	c.slli	s7,0x20
   1aaa4:	020bdb93          	srli	s7,s7,0x20
   1aaa8:	b775                	c.j	1aa54 <_svfprintf_r+0xb0e>
   1aaaa:	008b8793          	addi	a5,s7,8
   1aaae:	f83e                	c.sdsp	a5,48(sp)
   1aab0:	77e1                	c.lui	a5,0xffff8
   1aab2:	8307c793          	xori	a5,a5,-2000
   1aab6:	0cf11823          	sh	a5,208(sp)
   1aaba:	000297b7          	lui	a5,0x29
   1aabe:	87078793          	addi	a5,a5,-1936 # 28870 <zeroes.4441+0x68>
   1aac2:	00246413          	ori	s0,s0,2
   1aac6:	f0be                	c.sdsp	a5,96(sp)
   1aac8:	000bbb83          	ld	s7,0(s7)
   1aacc:	2401                	c.addiw	s0,0
   1aace:	4789                	c.li	a5,2
   1aad0:	07800b13          	addi	s6,zero,120
   1aad4:	b761                	c.j	1aa5c <_svfprintf_r+0xb16>
   1aad6:	008b8793          	addi	a5,s7,8
   1aada:	f83e                	c.sdsp	a5,48(sp)
   1aadc:	0c0107a3          	sb	zero,207(sp)
   1aae0:	57fd                	c.li	a5,-1
   1aae2:	000bb483          	ld	s1,0(s7)
   1aae6:	00fd8e63          	beq	s11,a5,1ab02 <_svfprintf_r+0xbbc>
   1aaea:	866e                	c.mv	a2,s11
   1aaec:	4581                	c.li	a1,0
   1aaee:	8526                	c.mv	a0,s1
   1aaf0:	caafe0ef          	jal	ra,18f9a <memchr>
   1aaf4:	8baa                	c.mv	s7,a0
   1aaf6:	a00506e3          	beq	a0,zero,1a502 <_svfprintf_r+0x5bc>
   1aafa:	40950dbb          	subw	s11,a0,s1
   1aafe:	4b81                	c.li	s7,0
   1ab00:	b409                	c.j	1a502 <_svfprintf_r+0x5bc>
   1ab02:	8526                	c.mv	a0,s1
   1ab04:	898fb0ef          	jal	ra,15b9c <strlen>
   1ab08:	00050d9b          	addiw	s11,a0,0
   1ab0c:	bfcd                	c.j	1aafe <_svfprintf_r+0xbb8>
   1ab0e:	01046413          	ori	s0,s0,16
   1ab12:	2401                	c.addiw	s0,0
   1ab14:	008b8793          	addi	a5,s7,8
   1ab18:	f83e                	c.sdsp	a5,48(sp)
   1ab1a:	02047793          	andi	a5,s0,32
   1ab1e:	c789                	c.beqz	a5,1ab28 <_svfprintf_r+0xbe2>
   1ab20:	000bbb83          	ld	s7,0(s7)
   1ab24:	4785                	c.li	a5,1
   1ab26:	bf1d                	c.j	1aa5c <_svfprintf_r+0xb16>
   1ab28:	01047793          	andi	a5,s0,16
   1ab2c:	fbf5                	c.bnez	a5,1ab20 <_svfprintf_r+0xbda>
   1ab2e:	04047793          	andi	a5,s0,64
   1ab32:	000bab83          	lw	s7,0(s7)
   1ab36:	c789                	c.beqz	a5,1ab40 <_svfprintf_r+0xbfa>
   1ab38:	1bc2                	c.slli	s7,0x30
   1ab3a:	030bdb93          	srli	s7,s7,0x30
   1ab3e:	b7dd                	c.j	1ab24 <_svfprintf_r+0xbde>
   1ab40:	20047793          	andi	a5,s0,512
   1ab44:	c781                	c.beqz	a5,1ab4c <_svfprintf_r+0xc06>
   1ab46:	0ffbfb93          	andi	s7,s7,255
   1ab4a:	bfe9                	c.j	1ab24 <_svfprintf_r+0xbde>
   1ab4c:	1b82                	c.slli	s7,0x20
   1ab4e:	020bdb93          	srli	s7,s7,0x20
   1ab52:	bfc9                	c.j	1ab24 <_svfprintf_r+0xbde>
   1ab54:	000297b7          	lui	a5,0x29
   1ab58:	87078793          	addi	a5,a5,-1936 # 28870 <zeroes.4441+0x68>
   1ab5c:	d5eff06f          	jal	zero,1a0ba <_svfprintf_r+0x174>
   1ab60:	01047793          	andi	a5,s0,16
   1ab64:	d6079363          	bne	a5,zero,1a0ca <_svfprintf_r+0x184>
   1ab68:	04047793          	andi	a5,s0,64
   1ab6c:	000bab83          	lw	s7,0(s7)
   1ab70:	c791                	c.beqz	a5,1ab7c <_svfprintf_r+0xc36>
   1ab72:	1bc2                	c.slli	s7,0x30
   1ab74:	030bdb93          	srli	s7,s7,0x30
   1ab78:	d56ff06f          	jal	zero,1a0ce <_svfprintf_r+0x188>
   1ab7c:	20047793          	andi	a5,s0,512
   1ab80:	c789                	c.beqz	a5,1ab8a <_svfprintf_r+0xc44>
   1ab82:	0ffbfb93          	andi	s7,s7,255
   1ab86:	d48ff06f          	jal	zero,1a0ce <_svfprintf_r+0x188>
   1ab8a:	1b82                	c.slli	s7,0x20
   1ab8c:	020bdb93          	srli	s7,s7,0x20
   1ab90:	d3eff06f          	jal	zero,1a0ce <_svfprintf_r+0x188>
   1ab94:	8722                	c.mv	a4,s0
   1ab96:	4785                	c.li	a5,1
   1ab98:	bdc1                	c.j	1aa68 <_svfprintf_r+0xb22>
   1ab9a:	4705                	c.li	a4,1
   1ab9c:	8ce788e3          	beq	a5,a4,1a46c <_svfprintf_r+0x526>
   1aba0:	4709                	c.li	a4,2
   1aba2:	0ae78d63          	beq	a5,a4,1ac5c <_svfprintf_r+0xd16>
   1aba6:	1afc                	c.addi4spn	a5,sp,380
   1aba8:	007bf713          	andi	a4,s7,7
   1abac:	03070713          	addi	a4,a4,48
   1abb0:	fee78fa3          	sb	a4,-1(a5)
   1abb4:	003bdb93          	srli	s7,s7,0x3
   1abb8:	fff78493          	addi	s1,a5,-1
   1abbc:	020b9863          	bne	s7,zero,1abec <_svfprintf_r+0xca6>
   1abc0:	00147693          	andi	a3,s0,1
   1abc4:	ca89                	c.beqz	a3,1abd6 <_svfprintf_r+0xc90>
   1abc6:	03000693          	addi	a3,zero,48
   1abca:	00d70663          	beq	a4,a3,1abd6 <_svfprintf_r+0xc90>
   1abce:	fed48fa3          	sb	a3,-1(s1)
   1abd2:	ffe78493          	addi	s1,a5,-2
   1abd6:	17c10e13          	addi	t3,sp,380
   1abda:	876e                	c.mv	a4,s11
   1abdc:	4b81                	c.li	s7,0
   1abde:	409e0dbb          	subw	s11,t3,s1
   1abe2:	e402                	c.sdsp	zero,8(sp)
   1abe4:	4c01                	c.li	s8,0
   1abe6:	4d01                	c.li	s10,0
   1abe8:	e4eff06f          	jal	zero,1a236 <_svfprintf_r+0x2f0>
   1abec:	87a6                	c.mv	a5,s1
   1abee:	bf6d                	c.j	1aba8 <_svfprintf_r+0xc62>
   1abf0:	40047c13          	andi	s8,s0,1024
   1abf4:	4a01                	c.li	s4,0
   1abf6:	1afc                	c.addi4spn	a5,sp,380
   1abf8:	4d29                	c.li	s10,10
   1abfa:	2c01                	c.addiw	s8,0
   1abfc:	0ff00693          	addi	a3,zero,255
   1ac00:	4825                	c.li	a6,9
   1ac02:	03abf733          	remu	a4,s7,s10
   1ac06:	fff78493          	addi	s1,a5,-1
   1ac0a:	2a05                	c.addiw	s4,1
   1ac0c:	0307071b          	addiw	a4,a4,48
   1ac10:	fee78fa3          	sb	a4,-1(a5)
   1ac14:	020c0e63          	beq	s8,zero,1ac50 <_svfprintf_r+0xd0a>
   1ac18:	6782                	c.ldsp	a5,0(sp)
   1ac1a:	0007c783          	lbu	a5,0(a5)
   1ac1e:	02fa1963          	bne	s4,a5,1ac50 <_svfprintf_r+0xd0a>
   1ac22:	02d78763          	beq	a5,a3,1ac50 <_svfprintf_r+0xd0a>
   1ac26:	03787563          	bgeu	a6,s7,1ac50 <_svfprintf_r+0xd0a>
   1ac2a:	6786                	c.ldsp	a5,64(sp)
   1ac2c:	65c6                	c.ldsp	a1,80(sp)
   1ac2e:	fc42                	c.sdsp	a6,56(sp)
   1ac30:	8c9d                	c.sub	s1,a5
   1ac32:	863e                	c.mv	a2,a5
   1ac34:	8526                	c.mv	a0,s1
   1ac36:	e436                	c.sdsp	a3,8(sp)
   1ac38:	adeff0ef          	jal	ra,19f16 <strncpy>
   1ac3c:	6782                	c.ldsp	a5,0(sp)
   1ac3e:	4a01                	c.li	s4,0
   1ac40:	66a2                	c.ldsp	a3,8(sp)
   1ac42:	0017c783          	lbu	a5,1(a5)
   1ac46:	7862                	c.ldsp	a6,56(sp)
   1ac48:	c781                	c.beqz	a5,1ac50 <_svfprintf_r+0xd0a>
   1ac4a:	6782                	c.ldsp	a5,0(sp)
   1ac4c:	0785                	c.addi	a5,1
   1ac4e:	e03e                	c.sdsp	a5,0(sp)
   1ac50:	03abdbb3          	divu	s7,s7,s10
   1ac54:	f80b81e3          	beq	s7,zero,1abd6 <_svfprintf_r+0xc90>
   1ac58:	87a6                	c.mv	a5,s1
   1ac5a:	b765                	c.j	1ac02 <_svfprintf_r+0xcbc>
   1ac5c:	1ae4                	c.addi4spn	s1,sp,380
   1ac5e:	7706                	c.ldsp	a4,96(sp)
   1ac60:	00fbf793          	andi	a5,s7,15
   1ac64:	14fd                	c.addi	s1,-1
   1ac66:	97ba                	c.add	a5,a4
   1ac68:	0007c783          	lbu	a5,0(a5)
   1ac6c:	004bdb93          	srli	s7,s7,0x4
   1ac70:	00f48023          	sb	a5,0(s1)
   1ac74:	fe0b95e3          	bne	s7,zero,1ac5e <_svfprintf_r+0xd18>
   1ac78:	bfb9                	c.j	1abd6 <_svfprintf_r+0xc90>
   1ac7a:	1ae4                	c.addi4spn	s1,sp,380
   1ac7c:	ffa9                	c.bnez	a5,1abd6 <_svfprintf_r+0xc90>
   1ac7e:	8b05                	c.andi	a4,1
   1ac80:	db39                	c.beqz	a4,1abd6 <_svfprintf_r+0xc90>
   1ac82:	03000793          	addi	a5,zero,48
   1ac86:	16f10da3          	sb	a5,379(sp)
   1ac8a:	ff0ff06f          	jal	zero,1a47a <_svfprintf_r+0x534>
   1ac8e:	020b09e3          	beq	s6,zero,1b4c0 <_svfprintf_r+0x157a>
   1ac92:	11610c23          	sb	s6,280(sp)
   1ac96:	0c0107a3          	sb	zero,207(sp)
   1ac9a:	f85e                	c.sdsp	s7,48(sp)
   1ac9c:	d8cff06f          	jal	zero,1a228 <_svfprintf_r+0x2e2>
   1aca0:	0641                	c.addi	a2,16
   1aca2:	011cb423          	sd	a7,8(s9)
   1aca6:	ea32                	c.sdsp	a2,272(sp)
   1aca8:	10b12423          	sw	a1,264(sp)
   1acac:	02aed463          	bge	t4,a0,1acd4 <_svfprintf_r+0xd8e>
   1acb0:	0210                	c.addi4spn	a2,sp,256
   1acb2:	85ce                	c.mv	a1,s3
   1acb4:	854a                	c.mv	a0,s2
   1acb6:	fd76                	c.sdsp	t4,184(sp)
   1acb8:	f942                	c.sdsp	a6,176(sp)
   1acba:	e546                	c.sdsp	a7,136(sp)
   1acbc:	e13a                	c.sdsp	a4,128(sp)
   1acbe:	fcb6                	c.sdsp	a3,120(sp)
   1acc0:	346010ef          	jal	ra,1c006 <__ssprint_r>
   1acc4:	7a051f63          	bne	a0,zero,1b482 <_svfprintf_r+0x153c>
   1acc8:	7eea                	c.ldsp	t4,184(sp)
   1acca:	784a                	c.ldsp	a6,176(sp)
   1accc:	68aa                	c.ldsp	a7,136(sp)
   1acce:	670a                	c.ldsp	a4,128(sp)
   1acd0:	76e6                	c.ldsp	a3,120(sp)
   1acd2:	8f56                	c.mv	t5,s5
   1acd4:	36c1                	c.addiw	a3,-16
   1acd6:	8cfa                	c.mv	s9,t5
   1acd8:	daaff06f          	jal	zero,1a282 <_svfprintf_r+0x33c>
   1acdc:	0641                	c.addi	a2,16
   1acde:	011cb423          	sd	a7,8(s9)
   1ace2:	ea32                	c.sdsp	a2,272(sp)
   1ace4:	10b12423          	sw	a1,264(sp)
   1ace8:	02aed463          	bge	t4,a0,1ad10 <_svfprintf_r+0xdca>
   1acec:	0210                	c.addi4spn	a2,sp,256
   1acee:	85ce                	c.mv	a1,s3
   1acf0:	854a                	c.mv	a0,s2
   1acf2:	e576                	c.sdsp	t4,136(sp)
   1acf4:	e142                	c.sdsp	a6,128(sp)
   1acf6:	fcc6                	c.sdsp	a7,120(sp)
   1acf8:	f8ba                	c.sdsp	a4,112(sp)
   1acfa:	f4b6                	c.sdsp	a3,104(sp)
   1acfc:	30a010ef          	jal	ra,1c006 <__ssprint_r>
   1ad00:	78051163          	bne	a0,zero,1b482 <_svfprintf_r+0x153c>
   1ad04:	6eaa                	c.ldsp	t4,136(sp)
   1ad06:	680a                	c.ldsp	a6,128(sp)
   1ad08:	78e6                	c.ldsp	a7,120(sp)
   1ad0a:	7746                	c.ldsp	a4,112(sp)
   1ad0c:	76a6                	c.ldsp	a3,104(sp)
   1ad0e:	8f56                	c.mv	t5,s5
   1ad10:	36c1                	c.addiw	a3,-16
   1ad12:	8cfa                	c.mv	s9,t5
   1ad14:	e56ff06f          	jal	zero,1a36a <_svfprintf_r+0x424>
   1ad18:	06c1                	c.addi	a3,16
   1ad1a:	011cb423          	sd	a7,8(s9)
   1ad1e:	ea36                	c.sdsp	a3,272(sp)
   1ad20:	10c12423          	sw	a2,264(sp)
   1ad24:	02bed263          	bge	t4,a1,1ad48 <_svfprintf_r+0xe02>
   1ad28:	0210                	c.addi4spn	a2,sp,256
   1ad2a:	85ce                	c.mv	a1,s3
   1ad2c:	854a                	c.mv	a0,s2
   1ad2e:	e176                	c.sdsp	t4,128(sp)
   1ad30:	fcc2                	c.sdsp	a6,120(sp)
   1ad32:	f8c6                	c.sdsp	a7,112(sp)
   1ad34:	f4ba                	c.sdsp	a4,104(sp)
   1ad36:	2d0010ef          	jal	ra,1c006 <__ssprint_r>
   1ad3a:	74051463          	bne	a0,zero,1b482 <_svfprintf_r+0x153c>
   1ad3e:	6e8a                	c.ldsp	t4,128(sp)
   1ad40:	7866                	c.ldsp	a6,120(sp)
   1ad42:	78c6                	c.ldsp	a7,112(sp)
   1ad44:	7726                	c.ldsp	a4,104(sp)
   1ad46:	8556                	c.mv	a0,s5
   1ad48:	3741                	c.addiw	a4,-16
   1ad4a:	8caa                	c.mv	s9,a0
   1ad4c:	e74ff06f          	jal	zero,1a3c0 <_svfprintf_r+0x47a>
   1ad50:	06500693          	addi	a3,zero,101
   1ad54:	5966d463          	bge	a3,s6,1b2dc <_svfprintf_r+0x1396>
   1ad58:	754e                	c.ldsp	a0,240(sp)
   1ad5a:	75ee                	c.ldsp	a1,248(sp)
   1ad5c:	4601                	c.li	a2,0
   1ad5e:	4681                	c.li	a3,0
   1ad60:	f4ba                	c.sdsp	a4,104(sp)
   1ad62:	797010ef          	jal	ra,1ccf8 <__eqtf2>
   1ad66:	7726                	c.ldsp	a4,104(sp)
   1ad68:	10051f63          	bne	a0,zero,1ae86 <_svfprintf_r+0xf40>
   1ad6c:	000297b7          	lui	a5,0x29
   1ad70:	8a078793          	addi	a5,a5,-1888 # 288a0 <zeroes.4441+0x98>
   1ad74:	00fcb023          	sd	a5,0(s9)
   1ad78:	4785                	c.li	a5,1
   1ad7a:	00fcb423          	sd	a5,8(s9)
   1ad7e:	10812783          	lw	a5,264(sp)
   1ad82:	0705                	c.addi	a4,1
   1ad84:	ea3a                	c.sdsp	a4,272(sp)
   1ad86:	0017871b          	addiw	a4,a5,1
   1ad8a:	10e12423          	sw	a4,264(sp)
   1ad8e:	479d                	c.li	a5,7
   1ad90:	0cc1                	c.addi	s9,16
   1ad92:	00e7da63          	bge	a5,a4,1ada6 <_svfprintf_r+0xe60>
   1ad96:	0210                	c.addi4spn	a2,sp,256
   1ad98:	85ce                	c.mv	a1,s3
   1ad9a:	854a                	c.mv	a0,s2
   1ad9c:	26a010ef          	jal	ra,1c006 <__ssprint_r>
   1ada0:	6e051163          	bne	a0,zero,1b482 <_svfprintf_r+0x153c>
   1ada4:	8cd6                	c.mv	s9,s5
   1ada6:	47ee                	c.lwsp	a5,216(sp)
   1ada8:	0147c563          	blt	a5,s4,1adb2 <_svfprintf_r+0xe6c>
   1adac:	00147793          	andi	a5,s0,1
   1adb0:	cfad                	c.beqz	a5,1ae2a <_svfprintf_r+0xee4>
   1adb2:	67a6                	c.ldsp	a5,72(sp)
   1adb4:	6762                	c.ldsp	a4,24(sp)
   1adb6:	0cc1                	c.addi	s9,16
   1adb8:	fefcb823          	sd	a5,-16(s9)
   1adbc:	67e2                	c.ldsp	a5,24(sp)
   1adbe:	fefcbc23          	sd	a5,-8(s9)
   1adc2:	67d2                	c.ldsp	a5,272(sp)
   1adc4:	97ba                	c.add	a5,a4
   1adc6:	ea3e                	c.sdsp	a5,272(sp)
   1adc8:	10812783          	lw	a5,264(sp)
   1adcc:	0017871b          	addiw	a4,a5,1
   1add0:	10e12423          	sw	a4,264(sp)
   1add4:	479d                	c.li	a5,7
   1add6:	00e7da63          	bge	a5,a4,1adea <_svfprintf_r+0xea4>
   1adda:	0210                	c.addi4spn	a2,sp,256
   1addc:	85ce                	c.mv	a1,s3
   1adde:	854a                	c.mv	a0,s2
   1ade0:	226010ef          	jal	ra,1c006 <__ssprint_r>
   1ade4:	68051f63          	bne	a0,zero,1b482 <_svfprintf_r+0x153c>
   1ade8:	8cd6                	c.mv	s9,s5
   1adea:	fffa049b          	addiw	s1,s4,-1
   1adee:	02905e63          	bge	zero,s1,1ae2a <_svfprintf_r+0xee4>
   1adf2:	00029b37          	lui	s6,0x29
   1adf6:	4c41                	c.li	s8,16
   1adf8:	ef8b0b13          	addi	s6,s6,-264 # 28ef8 <zeroes.4426>
   1adfc:	4d1d                	c.li	s10,7
   1adfe:	10812703          	lw	a4,264(sp)
   1ae02:	016cb023          	sd	s6,0(s9)
   1ae06:	67d2                	c.ldsp	a5,272(sp)
   1ae08:	0017069b          	addiw	a3,a4,1
   1ae0c:	8736                	c.mv	a4,a3
   1ae0e:	010c8613          	addi	a2,s9,16
   1ae12:	049c4763          	blt	s8,s1,1ae60 <_svfprintf_r+0xf1a>
   1ae16:	009cb423          	sd	s1,8(s9)
   1ae1a:	94be                	c.add	s1,a5
   1ae1c:	ea26                	c.sdsp	s1,272(sp)
   1ae1e:	10d12423          	sw	a3,264(sp)
   1ae22:	479d                	c.li	a5,7
   1ae24:	8cb2                	c.mv	s9,a2
   1ae26:	e0d7c263          	blt	a5,a3,1a42a <_svfprintf_r+0x4e4>
   1ae2a:	8811                	c.andi	s0,4
   1ae2c:	60041563          	bne	s0,zero,1b436 <_svfprintf_r+0x14f0>
   1ae30:	7702                	c.ldsp	a4,32(sp)
   1ae32:	76e2                	c.ldsp	a3,56(sp)
   1ae34:	5782                	c.lwsp	a5,32(sp)
   1ae36:	00d75363          	bge	a4,a3,1ae3c <_svfprintf_r+0xef6>
   1ae3a:	57e2                	c.lwsp	a5,56(sp)
   1ae3c:	5722                	c.lwsp	a4,40(sp)
   1ae3e:	9fb9                	c.addw	a5,a4
   1ae40:	f43e                	c.sdsp	a5,40(sp)
   1ae42:	67d2                	c.ldsp	a5,272(sp)
   1ae44:	cb81                	c.beqz	a5,1ae54 <_svfprintf_r+0xf0e>
   1ae46:	0210                	c.addi4spn	a2,sp,256
   1ae48:	85ce                	c.mv	a1,s3
   1ae4a:	854a                	c.mv	a0,s2
   1ae4c:	1ba010ef          	jal	ra,1c006 <__ssprint_r>
   1ae50:	62051963          	bne	a0,zero,1b482 <_svfprintf_r+0x153c>
   1ae54:	10012423          	sw	zero,264(sp)
   1ae58:	640b9f63          	bne	s7,zero,1b4b6 <_svfprintf_r+0x1570>
   1ae5c:	8cd6                	c.mv	s9,s5
   1ae5e:	b675                	c.j	1aa0a <_svfprintf_r+0xac4>
   1ae60:	07c1                	c.addi	a5,16
   1ae62:	018cb423          	sd	s8,8(s9)
   1ae66:	ea3e                	c.sdsp	a5,272(sp)
   1ae68:	10e12423          	sw	a4,264(sp)
   1ae6c:	00dd5a63          	bge	s10,a3,1ae80 <_svfprintf_r+0xf3a>
   1ae70:	0210                	c.addi4spn	a2,sp,256
   1ae72:	85ce                	c.mv	a1,s3
   1ae74:	854a                	c.mv	a0,s2
   1ae76:	190010ef          	jal	ra,1c006 <__ssprint_r>
   1ae7a:	60051463          	bne	a0,zero,1b482 <_svfprintf_r+0x153c>
   1ae7e:	8656                	c.mv	a2,s5
   1ae80:	34c1                	c.addiw	s1,-16
   1ae82:	8cb2                	c.mv	s9,a2
   1ae84:	bfad                	c.j	1adfe <_svfprintf_r+0xeb8>
   1ae86:	46ee                	c.lwsp	a3,216(sp)
   1ae88:	12d04263          	blt	zero,a3,1afac <_svfprintf_r+0x1066>
   1ae8c:	000297b7          	lui	a5,0x29
   1ae90:	8a078793          	addi	a5,a5,-1888 # 288a0 <zeroes.4441+0x98>
   1ae94:	00fcb023          	sd	a5,0(s9)
   1ae98:	4785                	c.li	a5,1
   1ae9a:	00fcb423          	sd	a5,8(s9)
   1ae9e:	10812783          	lw	a5,264(sp)
   1aea2:	0705                	c.addi	a4,1
   1aea4:	ea3a                	c.sdsp	a4,272(sp)
   1aea6:	0017871b          	addiw	a4,a5,1
   1aeaa:	10e12423          	sw	a4,264(sp)
   1aeae:	479d                	c.li	a5,7
   1aeb0:	0cc1                	c.addi	s9,16
   1aeb2:	00e7da63          	bge	a5,a4,1aec6 <_svfprintf_r+0xf80>
   1aeb6:	0210                	c.addi4spn	a2,sp,256
   1aeb8:	85ce                	c.mv	a1,s3
   1aeba:	854a                	c.mv	a0,s2
   1aebc:	14a010ef          	jal	ra,1c006 <__ssprint_r>
   1aec0:	5c051163          	bne	a0,zero,1b482 <_svfprintf_r+0x153c>
   1aec4:	8cd6                	c.mv	s9,s5
   1aec6:	47ee                	c.lwsp	a5,216(sp)
   1aec8:	e791                	c.bnez	a5,1aed4 <_svfprintf_r+0xf8e>
   1aeca:	000a1563          	bne	s4,zero,1aed4 <_svfprintf_r+0xf8e>
   1aece:	00147793          	andi	a5,s0,1
   1aed2:	dfa1                	c.beqz	a5,1ae2a <_svfprintf_r+0xee4>
   1aed4:	67a6                	c.ldsp	a5,72(sp)
   1aed6:	6762                	c.ldsp	a4,24(sp)
   1aed8:	010c8313          	addi	t1,s9,16
   1aedc:	00fcb023          	sd	a5,0(s9)
   1aee0:	67e2                	c.ldsp	a5,24(sp)
   1aee2:	00fcb423          	sd	a5,8(s9)
   1aee6:	67d2                	c.ldsp	a5,272(sp)
   1aee8:	97ba                	c.add	a5,a4
   1aeea:	ea3e                	c.sdsp	a5,272(sp)
   1aeec:	10812783          	lw	a5,264(sp)
   1aef0:	0017871b          	addiw	a4,a5,1
   1aef4:	10e12423          	sw	a4,264(sp)
   1aef8:	479d                	c.li	a5,7
   1aefa:	00e7da63          	bge	a5,a4,1af0e <_svfprintf_r+0xfc8>
   1aefe:	0210                	c.addi4spn	a2,sp,256
   1af00:	85ce                	c.mv	a1,s3
   1af02:	854a                	c.mv	a0,s2
   1af04:	102010ef          	jal	ra,1c006 <__ssprint_r>
   1af08:	56051d63          	bne	a0,zero,1b482 <_svfprintf_r+0x153c>
   1af0c:	8356                	c.mv	t1,s5
   1af0e:	4b6e                	c.lwsp	s6,216(sp)
   1af10:	040b5763          	bge	s6,zero,1af5e <_svfprintf_r+0x1018>
   1af14:	00029c37          	lui	s8,0x29
   1af18:	41600b3b          	subw	s6,zero,s6
   1af1c:	879a                	c.mv	a5,t1
   1af1e:	4d41                	c.li	s10,16
   1af20:	ef8c0c13          	addi	s8,s8,-264 # 28ef8 <zeroes.4426>
   1af24:	4c9d                	c.li	s9,7
   1af26:	10812683          	lw	a3,264(sp)
   1af2a:	0187b023          	sd	s8,0(a5)
   1af2e:	6752                	c.ldsp	a4,272(sp)
   1af30:	0016861b          	addiw	a2,a3,1
   1af34:	86b2                	c.mv	a3,a2
   1af36:	0341                	c.addi	t1,16
   1af38:	056d4763          	blt	s10,s6,1af86 <_svfprintf_r+0x1040>
   1af3c:	0167b423          	sd	s6,8(a5)
   1af40:	9b3a                	c.add	s6,a4
   1af42:	ea5a                	c.sdsp	s6,272(sp)
   1af44:	10c12423          	sw	a2,264(sp)
   1af48:	479d                	c.li	a5,7
   1af4a:	00c7da63          	bge	a5,a2,1af5e <_svfprintf_r+0x1018>
   1af4e:	0210                	c.addi4spn	a2,sp,256
   1af50:	85ce                	c.mv	a1,s3
   1af52:	854a                	c.mv	a0,s2
   1af54:	0b2010ef          	jal	ra,1c006 <__ssprint_r>
   1af58:	52051563          	bne	a0,zero,1b482 <_svfprintf_r+0x153c>
   1af5c:	8356                	c.mv	t1,s5
   1af5e:	67d2                	c.ldsp	a5,272(sp)
   1af60:	00933023          	sd	s1,0(t1)
   1af64:	01433423          	sd	s4,8(t1)
   1af68:	97d2                	c.add	a5,s4
   1af6a:	ea3e                	c.sdsp	a5,272(sp)
   1af6c:	10812783          	lw	a5,264(sp)
   1af70:	01030c93          	addi	s9,t1,16
   1af74:	0017871b          	addiw	a4,a5,1
   1af78:	10e12423          	sw	a4,264(sp)
   1af7c:	479d                	c.li	a5,7
   1af7e:	eae7d6e3          	bge	a5,a4,1ae2a <_svfprintf_r+0xee4>
   1af82:	ca8ff06f          	jal	zero,1a42a <_svfprintf_r+0x4e4>
   1af86:	0741                	c.addi	a4,16
   1af88:	01a7b423          	sd	s10,8(a5)
   1af8c:	ea3a                	c.sdsp	a4,272(sp)
   1af8e:	10d12423          	sw	a3,264(sp)
   1af92:	00ccda63          	bge	s9,a2,1afa6 <_svfprintf_r+0x1060>
   1af96:	0210                	c.addi4spn	a2,sp,256
   1af98:	85ce                	c.mv	a1,s3
   1af9a:	854a                	c.mv	a0,s2
   1af9c:	06a010ef          	jal	ra,1c006 <__ssprint_r>
   1afa0:	4e051163          	bne	a0,zero,1b482 <_svfprintf_r+0x153c>
   1afa4:	8356                	c.mv	t1,s5
   1afa6:	3b41                	c.addiw	s6,-16
   1afa8:	879a                	c.mv	a5,t1
   1afaa:	bfb5                	c.j	1af26 <_svfprintf_r+0xfe0>
   1afac:	000d0b1b          	addiw	s6,s10,0
   1afb0:	01aa5463          	bge	s4,s10,1afb8 <_svfprintf_r+0x1072>
   1afb4:	000a0b1b          	addiw	s6,s4,0
   1afb8:	03605a63          	bge	zero,s6,1afec <_svfprintf_r+0x10a6>
   1afbc:	975a                	c.add	a4,s6
   1afbe:	ea3a                	c.sdsp	a4,272(sp)
   1afc0:	10812703          	lw	a4,264(sp)
   1afc4:	009cb023          	sd	s1,0(s9)
   1afc8:	016cb423          	sd	s6,8(s9)
   1afcc:	0017069b          	addiw	a3,a4,1
   1afd0:	10d12423          	sw	a3,264(sp)
   1afd4:	471d                	c.li	a4,7
   1afd6:	0cc1                	c.addi	s9,16
   1afd8:	00d75a63          	bge	a4,a3,1afec <_svfprintf_r+0x10a6>
   1afdc:	0210                	c.addi4spn	a2,sp,256
   1afde:	85ce                	c.mv	a1,s3
   1afe0:	854a                	c.mv	a0,s2
   1afe2:	024010ef          	jal	ra,1c006 <__ssprint_r>
   1afe6:	48051e63          	bne	a0,zero,1b482 <_svfprintf_r+0x153c>
   1afea:	8cd6                	c.mv	s9,s5
   1afec:	875a                	c.mv	a4,s6
   1afee:	000b5363          	bge	s6,zero,1aff4 <_svfprintf_r+0x10ae>
   1aff2:	4701                	c.li	a4,0
   1aff4:	40ed0b3b          	subw	s6,s10,a4
   1aff8:	05605663          	bge	zero,s6,1b044 <_svfprintf_r+0x10fe>
   1affc:	000296b7          	lui	a3,0x29
   1b000:	4841                	c.li	a6,16
   1b002:	ef868d93          	addi	s11,a3,-264 # 28ef8 <zeroes.4426>
   1b006:	489d                	c.li	a7,7
   1b008:	10812603          	lw	a2,264(sp)
   1b00c:	01bcb023          	sd	s11,0(s9)
   1b010:	6752                	c.ldsp	a4,272(sp)
   1b012:	0016059b          	addiw	a1,a2,1
   1b016:	862e                	c.mv	a2,a1
   1b018:	010c8513          	addi	a0,s9,16
   1b01c:	15684463          	blt	a6,s6,1b164 <_svfprintf_r+0x121e>
   1b020:	016cb423          	sd	s6,8(s9)
   1b024:	9b3a                	c.add	s6,a4
   1b026:	ea5a                	c.sdsp	s6,272(sp)
   1b028:	10b12423          	sw	a1,264(sp)
   1b02c:	471d                	c.li	a4,7
   1b02e:	8caa                	c.mv	s9,a0
   1b030:	00b75a63          	bge	a4,a1,1b044 <_svfprintf_r+0x10fe>
   1b034:	0210                	c.addi4spn	a2,sp,256
   1b036:	85ce                	c.mv	a1,s3
   1b038:	854a                	c.mv	a0,s2
   1b03a:	7cd000ef          	jal	ra,1c006 <__ssprint_r>
   1b03e:	44051263          	bne	a0,zero,1b482 <_svfprintf_r+0x153c>
   1b042:	8cd6                	c.mv	s9,s5
   1b044:	40047793          	andi	a5,s0,1024
   1b048:	01a48b33          	add	s6,s1,s10
   1b04c:	c785                	c.beqz	a5,1b074 <_svfprintf_r+0x112e>
   1b04e:	014487b3          	add	a5,s1,s4
   1b052:	f4be                	c.sdsp	a5,104(sp)
   1b054:	000297b7          	lui	a5,0x29
   1b058:	ef878793          	addi	a5,a5,-264 # 28ef8 <zeroes.4426>
   1b05c:	4d9d                	c.li	s11,7
   1b05e:	8d3e                	c.mv	s10,a5
   1b060:	67a2                	c.ldsp	a5,8(sp)
   1b062:	120c1863          	bne	s8,zero,1b192 <_svfprintf_r+0x124c>
   1b066:	12079763          	bne	a5,zero,1b194 <_svfprintf_r+0x124e>
   1b06a:	014487b3          	add	a5,s1,s4
   1b06e:	0167f363          	bgeu	a5,s6,1b074 <_svfprintf_r+0x112e>
   1b072:	8b3e                	c.mv	s6,a5
   1b074:	47ee                	c.lwsp	a5,216(sp)
   1b076:	0147c563          	blt	a5,s4,1b080 <_svfprintf_r+0x113a>
   1b07a:	00147793          	andi	a5,s0,1
   1b07e:	cf8d                	c.beqz	a5,1b0b8 <_svfprintf_r+0x1172>
   1b080:	67a6                	c.ldsp	a5,72(sp)
   1b082:	6762                	c.ldsp	a4,24(sp)
   1b084:	0cc1                	c.addi	s9,16
   1b086:	fefcb823          	sd	a5,-16(s9)
   1b08a:	67e2                	c.ldsp	a5,24(sp)
   1b08c:	fefcbc23          	sd	a5,-8(s9)
   1b090:	67d2                	c.ldsp	a5,272(sp)
   1b092:	97ba                	c.add	a5,a4
   1b094:	ea3e                	c.sdsp	a5,272(sp)
   1b096:	10812783          	lw	a5,264(sp)
   1b09a:	0017871b          	addiw	a4,a5,1
   1b09e:	10e12423          	sw	a4,264(sp)
   1b0a2:	479d                	c.li	a5,7
   1b0a4:	00e7da63          	bge	a5,a4,1b0b8 <_svfprintf_r+0x1172>
   1b0a8:	0210                	c.addi4spn	a2,sp,256
   1b0aa:	85ce                	c.mv	a1,s3
   1b0ac:	854a                	c.mv	a0,s2
   1b0ae:	759000ef          	jal	ra,1c006 <__ssprint_r>
   1b0b2:	3c051863          	bne	a0,zero,1b482 <_svfprintf_r+0x153c>
   1b0b6:	8cd6                	c.mv	s9,s5
   1b0b8:	4c6e                	c.lwsp	s8,216(sp)
   1b0ba:	94d2                	c.add	s1,s4
   1b0bc:	416484bb          	subw	s1,s1,s6
   1b0c0:	418a07bb          	subw	a5,s4,s8
   1b0c4:	8c3e                	c.mv	s8,a5
   1b0c6:	00f4d463          	bge	s1,a5,1b0ce <_svfprintf_r+0x1188>
   1b0ca:	00048c1b          	addiw	s8,s1,0
   1b0ce:	03805b63          	bge	zero,s8,1b104 <_svfprintf_r+0x11be>
   1b0d2:	67d2                	c.ldsp	a5,272(sp)
   1b0d4:	016cb023          	sd	s6,0(s9)
   1b0d8:	018cb423          	sd	s8,8(s9)
   1b0dc:	97e2                	c.add	a5,s8
   1b0de:	ea3e                	c.sdsp	a5,272(sp)
   1b0e0:	10812783          	lw	a5,264(sp)
   1b0e4:	0cc1                	c.addi	s9,16
   1b0e6:	0017871b          	addiw	a4,a5,1
   1b0ea:	10e12423          	sw	a4,264(sp)
   1b0ee:	479d                	c.li	a5,7
   1b0f0:	00e7da63          	bge	a5,a4,1b104 <_svfprintf_r+0x11be>
   1b0f4:	0210                	c.addi4spn	a2,sp,256
   1b0f6:	85ce                	c.mv	a1,s3
   1b0f8:	854a                	c.mv	a0,s2
   1b0fa:	70d000ef          	jal	ra,1c006 <__ssprint_r>
   1b0fe:	38051263          	bne	a0,zero,1b482 <_svfprintf_r+0x153c>
   1b102:	8cd6                	c.mv	s9,s5
   1b104:	87e2                	c.mv	a5,s8
   1b106:	000c5363          	bge	s8,zero,1b10c <_svfprintf_r+0x11c6>
   1b10a:	4781                	c.li	a5,0
   1b10c:	44ee                	c.lwsp	s1,216(sp)
   1b10e:	409a04bb          	subw	s1,s4,s1
   1b112:	9c9d                	c.subw	s1,a5
   1b114:	d0905be3          	bge	zero,s1,1ae2a <_svfprintf_r+0xee4>
   1b118:	00029b37          	lui	s6,0x29
   1b11c:	4c41                	c.li	s8,16
   1b11e:	ef8b0b13          	addi	s6,s6,-264 # 28ef8 <zeroes.4426>
   1b122:	4d1d                	c.li	s10,7
   1b124:	10812703          	lw	a4,264(sp)
   1b128:	016cb023          	sd	s6,0(s9)
   1b12c:	67d2                	c.ldsp	a5,272(sp)
   1b12e:	0017069b          	addiw	a3,a4,1
   1b132:	8736                	c.mv	a4,a3
   1b134:	010c8613          	addi	a2,s9,16
   1b138:	169c4f63          	blt	s8,s1,1b2b6 <_svfprintf_r+0x1370>
   1b13c:	009cb423          	sd	s1,8(s9)
   1b140:	94be                	c.add	s1,a5
   1b142:	ea26                	c.sdsp	s1,272(sp)
   1b144:	10d12423          	sw	a3,264(sp)
   1b148:	479d                	c.li	a5,7
   1b14a:	8cb2                	c.mv	s9,a2
   1b14c:	ccd7dfe3          	bge	a5,a3,1ae2a <_svfprintf_r+0xee4>
   1b150:	0210                	c.addi4spn	a2,sp,256
   1b152:	85ce                	c.mv	a1,s3
   1b154:	854a                	c.mv	a0,s2
   1b156:	6b1000ef          	jal	ra,1c006 <__ssprint_r>
   1b15a:	32051463          	bne	a0,zero,1b482 <_svfprintf_r+0x153c>
   1b15e:	18010c93          	addi	s9,sp,384
   1b162:	b1e1                	c.j	1ae2a <_svfprintf_r+0xee4>
   1b164:	0741                	c.addi	a4,16
   1b166:	010cb423          	sd	a6,8(s9)
   1b16a:	ea3a                	c.sdsp	a4,272(sp)
   1b16c:	10c12423          	sw	a2,264(sp)
   1b170:	00b8de63          	bge	a7,a1,1b18c <_svfprintf_r+0x1246>
   1b174:	0210                	c.addi4spn	a2,sp,256
   1b176:	85ce                	c.mv	a1,s3
   1b178:	854a                	c.mv	a0,s2
   1b17a:	f8c6                	c.sdsp	a7,112(sp)
   1b17c:	f4c2                	c.sdsp	a6,104(sp)
   1b17e:	689000ef          	jal	ra,1c006 <__ssprint_r>
   1b182:	30051063          	bne	a0,zero,1b482 <_svfprintf_r+0x153c>
   1b186:	78c6                	c.ldsp	a7,112(sp)
   1b188:	7826                	c.ldsp	a6,104(sp)
   1b18a:	8556                	c.mv	a0,s5
   1b18c:	3b41                	c.addiw	s6,-16
   1b18e:	8caa                	c.mv	s9,a0
   1b190:	bda5                	c.j	1b008 <_svfprintf_r+0x10c2>
   1b192:	c7d5                	c.beqz	a5,1b23e <_svfprintf_r+0x12f8>
   1b194:	47a2                	c.lwsp	a5,8(sp)
   1b196:	37fd                	c.addiw	a5,-1
   1b198:	e43e                	c.sdsp	a5,8(sp)
   1b19a:	67c6                	c.ldsp	a5,80(sp)
   1b19c:	6706                	c.ldsp	a4,64(sp)
   1b19e:	0cc1                	c.addi	s9,16
   1b1a0:	fefcb823          	sd	a5,-16(s9)
   1b1a4:	6786                	c.ldsp	a5,64(sp)
   1b1a6:	fefcbc23          	sd	a5,-8(s9)
   1b1aa:	67d2                	c.ldsp	a5,272(sp)
   1b1ac:	97ba                	c.add	a5,a4
   1b1ae:	ea3e                	c.sdsp	a5,272(sp)
   1b1b0:	10812783          	lw	a5,264(sp)
   1b1b4:	0017871b          	addiw	a4,a5,1
   1b1b8:	10e12423          	sw	a4,264(sp)
   1b1bc:	00edda63          	bge	s11,a4,1b1d0 <_svfprintf_r+0x128a>
   1b1c0:	0210                	c.addi4spn	a2,sp,256
   1b1c2:	85ce                	c.mv	a1,s3
   1b1c4:	854a                	c.mv	a0,s2
   1b1c6:	641000ef          	jal	ra,1c006 <__ssprint_r>
   1b1ca:	2a051c63          	bne	a0,zero,1b482 <_svfprintf_r+0x153c>
   1b1ce:	8cd6                	c.mv	s9,s5
   1b1d0:	6702                	c.ldsp	a4,0(sp)
   1b1d2:	57a6                	c.lwsp	a5,104(sp)
   1b1d4:	00074703          	lbu	a4,0(a4)
   1b1d8:	416787bb          	subw	a5,a5,s6
   1b1dc:	00e7d463          	bge	a5,a4,1b1e4 <_svfprintf_r+0x129e>
   1b1e0:	0007871b          	addiw	a4,a5,0
   1b1e4:	02e05d63          	bge	zero,a4,1b21e <_svfprintf_r+0x12d8>
   1b1e8:	67d2                	c.ldsp	a5,272(sp)
   1b1ea:	016cb023          	sd	s6,0(s9)
   1b1ee:	00ecb423          	sd	a4,8(s9)
   1b1f2:	97ba                	c.add	a5,a4
   1b1f4:	ea3e                	c.sdsp	a5,272(sp)
   1b1f6:	10812783          	lw	a5,264(sp)
   1b1fa:	0cc1                	c.addi	s9,16
   1b1fc:	0017869b          	addiw	a3,a5,1
   1b200:	10d12423          	sw	a3,264(sp)
   1b204:	00dddd63          	bge	s11,a3,1b21e <_svfprintf_r+0x12d8>
   1b208:	0210                	c.addi4spn	a2,sp,256
   1b20a:	85ce                	c.mv	a1,s3
   1b20c:	854a                	c.mv	a0,s2
   1b20e:	f8ba                	c.sdsp	a4,112(sp)
   1b210:	5f7000ef          	jal	ra,1c006 <__ssprint_r>
   1b214:	26051763          	bne	a0,zero,1b482 <_svfprintf_r+0x153c>
   1b218:	7746                	c.ldsp	a4,112(sp)
   1b21a:	18010c93          	addi	s9,sp,384
   1b21e:	86ba                	c.mv	a3,a4
   1b220:	00075363          	bge	a4,zero,1b226 <_svfprintf_r+0x12e0>
   1b224:	4681                	c.li	a3,0
   1b226:	6782                	c.ldsp	a5,0(sp)
   1b228:	4841                	c.li	a6,16
   1b22a:	0007c783          	lbu	a5,0(a5)
   1b22e:	9f95                	c.subw	a5,a3
   1b230:	04f04463          	blt	zero,a5,1b278 <_svfprintf_r+0x1332>
   1b234:	6782                	c.ldsp	a5,0(sp)
   1b236:	0007c783          	lbu	a5,0(a5)
   1b23a:	9b3e                	c.add	s6,a5
   1b23c:	b515                	c.j	1b060 <_svfprintf_r+0x111a>
   1b23e:	6782                	c.ldsp	a5,0(sp)
   1b240:	3c7d                	c.addiw	s8,-1
   1b242:	17fd                	c.addi	a5,-1
   1b244:	e03e                	c.sdsp	a5,0(sp)
   1b246:	bf91                	c.j	1b19a <_svfprintf_r+0x1254>
   1b248:	0741                	c.addi	a4,16
   1b24a:	01acb023          	sd	s10,0(s9)
   1b24e:	010cb423          	sd	a6,8(s9)
   1b252:	ea3a                	c.sdsp	a4,272(sp)
   1b254:	10d12423          	sw	a3,264(sp)
   1b258:	00cdde63          	bge	s11,a2,1b274 <_svfprintf_r+0x132e>
   1b25c:	0210                	c.addi4spn	a2,sp,256
   1b25e:	85ce                	c.mv	a1,s3
   1b260:	854a                	c.mv	a0,s2
   1b262:	fcc2                	c.sdsp	a6,120(sp)
   1b264:	f8be                	c.sdsp	a5,112(sp)
   1b266:	5a1000ef          	jal	ra,1c006 <__ssprint_r>
   1b26a:	20051c63          	bne	a0,zero,1b482 <_svfprintf_r+0x153c>
   1b26e:	7866                	c.ldsp	a6,120(sp)
   1b270:	77c6                	c.ldsp	a5,112(sp)
   1b272:	030c                	c.addi4spn	a1,sp,384
   1b274:	37c1                	c.addiw	a5,-16
   1b276:	8cae                	c.mv	s9,a1
   1b278:	10812683          	lw	a3,264(sp)
   1b27c:	6752                	c.ldsp	a4,272(sp)
   1b27e:	010c8593          	addi	a1,s9,16
   1b282:	0016861b          	addiw	a2,a3,1
   1b286:	86b2                	c.mv	a3,a2
   1b288:	fcf840e3          	blt	a6,a5,1b248 <_svfprintf_r+0x1302>
   1b28c:	00fcb423          	sd	a5,8(s9)
   1b290:	97ba                	c.add	a5,a4
   1b292:	01acb023          	sd	s10,0(s9)
   1b296:	ea3e                	c.sdsp	a5,272(sp)
   1b298:	10c12423          	sw	a2,264(sp)
   1b29c:	8cae                	c.mv	s9,a1
   1b29e:	f8cddbe3          	bge	s11,a2,1b234 <_svfprintf_r+0x12ee>
   1b2a2:	0210                	c.addi4spn	a2,sp,256
   1b2a4:	85ce                	c.mv	a1,s3
   1b2a6:	854a                	c.mv	a0,s2
   1b2a8:	55f000ef          	jal	ra,1c006 <__ssprint_r>
   1b2ac:	1c051b63          	bne	a0,zero,1b482 <_svfprintf_r+0x153c>
   1b2b0:	18010c93          	addi	s9,sp,384
   1b2b4:	b741                	c.j	1b234 <_svfprintf_r+0x12ee>
   1b2b6:	07c1                	c.addi	a5,16
   1b2b8:	018cb423          	sd	s8,8(s9)
   1b2bc:	ea3e                	c.sdsp	a5,272(sp)
   1b2be:	10e12423          	sw	a4,264(sp)
   1b2c2:	00dd5a63          	bge	s10,a3,1b2d6 <_svfprintf_r+0x1390>
   1b2c6:	0210                	c.addi4spn	a2,sp,256
   1b2c8:	85ce                	c.mv	a1,s3
   1b2ca:	854a                	c.mv	a0,s2
   1b2cc:	53b000ef          	jal	ra,1c006 <__ssprint_r>
   1b2d0:	1a051963          	bne	a0,zero,1b482 <_svfprintf_r+0x153c>
   1b2d4:	0310                	c.addi4spn	a2,sp,384
   1b2d6:	34c1                	c.addiw	s1,-16
   1b2d8:	8cb2                	c.mv	s9,a2
   1b2da:	b5a9                	c.j	1b124 <_svfprintf_r+0x11de>
   1b2dc:	10812783          	lw	a5,264(sp)
   1b2e0:	4605                	c.li	a2,1
   1b2e2:	009cb023          	sd	s1,0(s9)
   1b2e6:	0017869b          	addiw	a3,a5,1
   1b2ea:	0705                	c.addi	a4,1
   1b2ec:	87b6                	c.mv	a5,a3
   1b2ee:	010c8c13          	addi	s8,s9,16
   1b2f2:	01464663          	blt	a2,s4,1b2fe <_svfprintf_r+0x13b8>
   1b2f6:	00147593          	andi	a1,s0,1
   1b2fa:	12058763          	beq	a1,zero,1b428 <_svfprintf_r+0x14e2>
   1b2fe:	4605                	c.li	a2,1
   1b300:	10f12423          	sw	a5,264(sp)
   1b304:	00ccb423          	sd	a2,8(s9)
   1b308:	ea3a                	c.sdsp	a4,272(sp)
   1b30a:	479d                	c.li	a5,7
   1b30c:	00d7da63          	bge	a5,a3,1b320 <_svfprintf_r+0x13da>
   1b310:	0210                	c.addi4spn	a2,sp,256
   1b312:	85ce                	c.mv	a1,s3
   1b314:	854a                	c.mv	a0,s2
   1b316:	4f1000ef          	jal	ra,1c006 <__ssprint_r>
   1b31a:	16051463          	bne	a0,zero,1b482 <_svfprintf_r+0x153c>
   1b31e:	8c56                	c.mv	s8,s5
   1b320:	67a6                	c.ldsp	a5,72(sp)
   1b322:	6762                	c.ldsp	a4,24(sp)
   1b324:	0c41                	c.addi	s8,16
   1b326:	fefc3823          	sd	a5,-16(s8)
   1b32a:	67e2                	c.ldsp	a5,24(sp)
   1b32c:	fefc3c23          	sd	a5,-8(s8)
   1b330:	67d2                	c.ldsp	a5,272(sp)
   1b332:	97ba                	c.add	a5,a4
   1b334:	ea3e                	c.sdsp	a5,272(sp)
   1b336:	10812783          	lw	a5,264(sp)
   1b33a:	0017871b          	addiw	a4,a5,1
   1b33e:	10e12423          	sw	a4,264(sp)
   1b342:	479d                	c.li	a5,7
   1b344:	00e7da63          	bge	a5,a4,1b358 <_svfprintf_r+0x1412>
   1b348:	0210                	c.addi4spn	a2,sp,256
   1b34a:	85ce                	c.mv	a1,s3
   1b34c:	854a                	c.mv	a0,s2
   1b34e:	4b9000ef          	jal	ra,1c006 <__ssprint_r>
   1b352:	12051863          	bne	a0,zero,1b482 <_svfprintf_r+0x153c>
   1b356:	8c56                	c.mv	s8,s5
   1b358:	754e                	c.ldsp	a0,240(sp)
   1b35a:	75ee                	c.ldsp	a1,248(sp)
   1b35c:	4601                	c.li	a2,0
   1b35e:	4681                	c.li	a3,0
   1b360:	fffa0b1b          	addiw	s6,s4,-1
   1b364:	195010ef          	jal	ra,1ccf8 <__eqtf2>
   1b368:	c12d                	c.beqz	a0,1b3ca <_svfprintf_r+0x1484>
   1b36a:	10812703          	lw	a4,264(sp)
   1b36e:	67d2                	c.ldsp	a5,272(sp)
   1b370:	0485                	c.addi	s1,1
   1b372:	0017069b          	addiw	a3,a4,1
   1b376:	97da                	c.add	a5,s6
   1b378:	009c3023          	sd	s1,0(s8)
   1b37c:	016c3423          	sd	s6,8(s8)
   1b380:	ea3e                	c.sdsp	a5,272(sp)
   1b382:	10d12423          	sw	a3,264(sp)
   1b386:	479d                	c.li	a5,7
   1b388:	0c41                	c.addi	s8,16
   1b38a:	00d7d963          	bge	a5,a3,1b39c <_svfprintf_r+0x1456>
   1b38e:	0210                	c.addi4spn	a2,sp,256
   1b390:	85ce                	c.mv	a1,s3
   1b392:	854a                	c.mv	a0,s2
   1b394:	473000ef          	jal	ra,1c006 <__ssprint_r>
   1b398:	e56d                	c.bnez	a0,1b482 <_svfprintf_r+0x153c>
   1b39a:	8c56                	c.mv	s8,s5
   1b39c:	119c                	c.addi4spn	a5,sp,224
   1b39e:	00fc3023          	sd	a5,0(s8)
   1b3a2:	67e6                	c.ldsp	a5,88(sp)
   1b3a4:	6766                	c.ldsp	a4,88(sp)
   1b3a6:	010c0c93          	addi	s9,s8,16
   1b3aa:	00fc3423          	sd	a5,8(s8)
   1b3ae:	67d2                	c.ldsp	a5,272(sp)
   1b3b0:	97ba                	c.add	a5,a4
   1b3b2:	ea3e                	c.sdsp	a5,272(sp)
   1b3b4:	10812783          	lw	a5,264(sp)
   1b3b8:	0017871b          	addiw	a4,a5,1
   1b3bc:	10e12423          	sw	a4,264(sp)
   1b3c0:	479d                	c.li	a5,7
   1b3c2:	a6e7d4e3          	bge	a5,a4,1ae2a <_svfprintf_r+0xee4>
   1b3c6:	864ff06f          	jal	zero,1a42a <_svfprintf_r+0x4e4>
   1b3ca:	fd6059e3          	bge	zero,s6,1b39c <_svfprintf_r+0x1456>
   1b3ce:	000294b7          	lui	s1,0x29
   1b3d2:	4d41                	c.li	s10,16
   1b3d4:	ef848493          	addi	s1,s1,-264 # 28ef8 <zeroes.4426>
   1b3d8:	4c9d                	c.li	s9,7
   1b3da:	10812703          	lw	a4,264(sp)
   1b3de:	009c3023          	sd	s1,0(s8)
   1b3e2:	67d2                	c.ldsp	a5,272(sp)
   1b3e4:	0017069b          	addiw	a3,a4,1
   1b3e8:	8736                	c.mv	a4,a3
   1b3ea:	010c0613          	addi	a2,s8,16
   1b3ee:	016d4b63          	blt	s10,s6,1b404 <_svfprintf_r+0x14be>
   1b3f2:	97da                	c.add	a5,s6
   1b3f4:	016c3423          	sd	s6,8(s8)
   1b3f8:	ea3e                	c.sdsp	a5,272(sp)
   1b3fa:	10d12423          	sw	a3,264(sp)
   1b3fe:	479d                	c.li	a5,7
   1b400:	8c32                	c.mv	s8,a2
   1b402:	b761                	c.j	1b38a <_svfprintf_r+0x1444>
   1b404:	07c1                	c.addi	a5,16
   1b406:	01ac3423          	sd	s10,8(s8)
   1b40a:	ea3e                	c.sdsp	a5,272(sp)
   1b40c:	10e12423          	sw	a4,264(sp)
   1b410:	00dcd963          	bge	s9,a3,1b422 <_svfprintf_r+0x14dc>
   1b414:	0210                	c.addi4spn	a2,sp,256
   1b416:	85ce                	c.mv	a1,s3
   1b418:	854a                	c.mv	a0,s2
   1b41a:	3ed000ef          	jal	ra,1c006 <__ssprint_r>
   1b41e:	e135                	c.bnez	a0,1b482 <_svfprintf_r+0x153c>
   1b420:	8656                	c.mv	a2,s5
   1b422:	3b41                	c.addiw	s6,-16
   1b424:	8c32                	c.mv	s8,a2
   1b426:	bf55                	c.j	1b3da <_svfprintf_r+0x1494>
   1b428:	00ccb423          	sd	a2,8(s9)
   1b42c:	ea3a                	c.sdsp	a4,272(sp)
   1b42e:	10d12423          	sw	a3,264(sp)
   1b432:	479d                	c.li	a5,7
   1b434:	bf99                	c.j	1b38a <_svfprintf_r+0x1444>
   1b436:	5782                	c.lwsp	a5,32(sp)
   1b438:	5762                	c.lwsp	a4,56(sp)
   1b43a:	40e7843b          	subw	s0,a5,a4
   1b43e:	9e8059e3          	bge	zero,s0,1ae30 <_svfprintf_r+0xeea>
   1b442:	000294b7          	lui	s1,0x29
   1b446:	4b41                	c.li	s6,16
   1b448:	ee848493          	addi	s1,s1,-280 # 28ee8 <blanks.4425>
   1b44c:	4c1d                	c.li	s8,7
   1b44e:	10812703          	lw	a4,264(sp)
   1b452:	009cb023          	sd	s1,0(s9)
   1b456:	67d2                	c.ldsp	a5,272(sp)
   1b458:	0017069b          	addiw	a3,a4,1
   1b45c:	8736                	c.mv	a4,a3
   1b45e:	028b4a63          	blt	s6,s0,1b492 <_svfprintf_r+0x154c>
   1b462:	008cb423          	sd	s0,8(s9)
   1b466:	943e                	c.add	s0,a5
   1b468:	ea22                	c.sdsp	s0,272(sp)
   1b46a:	10d12423          	sw	a3,264(sp)
   1b46e:	479d                	c.li	a5,7
   1b470:	9cd7d0e3          	bge	a5,a3,1ae30 <_svfprintf_r+0xeea>
   1b474:	0210                	c.addi4spn	a2,sp,256
   1b476:	85ce                	c.mv	a1,s3
   1b478:	854a                	c.mv	a0,s2
   1b47a:	38d000ef          	jal	ra,1c006 <__ssprint_r>
   1b47e:	9a0509e3          	beq	a0,zero,1ae30 <_svfprintf_r+0xeea>
   1b482:	920b8263          	beq	s7,zero,1a5a6 <_svfprintf_r+0x660>
   1b486:	85de                	c.mv	a1,s7
   1b488:	854a                	c.mv	a0,s2
   1b48a:	abaf90ef          	jal	ra,14744 <_free_r>
   1b48e:	918ff06f          	jal	zero,1a5a6 <_svfprintf_r+0x660>
   1b492:	07c1                	c.addi	a5,16
   1b494:	016cb423          	sd	s6,8(s9)
   1b498:	ea3e                	c.sdsp	a5,272(sp)
   1b49a:	10e12423          	sw	a4,264(sp)
   1b49e:	0cc1                	c.addi	s9,16
   1b4a0:	00dc5963          	bge	s8,a3,1b4b2 <_svfprintf_r+0x156c>
   1b4a4:	0210                	c.addi4spn	a2,sp,256
   1b4a6:	85ce                	c.mv	a1,s3
   1b4a8:	854a                	c.mv	a0,s2
   1b4aa:	35d000ef          	jal	ra,1c006 <__ssprint_r>
   1b4ae:	f971                	c.bnez	a0,1b482 <_svfprintf_r+0x153c>
   1b4b0:	8cd6                	c.mv	s9,s5
   1b4b2:	3441                	c.addiw	s0,-16
   1b4b4:	bf69                	c.j	1b44e <_svfprintf_r+0x1508>
   1b4b6:	85de                	c.mv	a1,s7
   1b4b8:	854a                	c.mv	a0,s2
   1b4ba:	a8af90ef          	jal	ra,14744 <_free_r>
   1b4be:	ba79                	c.j	1ae5c <_svfprintf_r+0xf16>
   1b4c0:	67d2                	c.ldsp	a5,272(sp)
   1b4c2:	8e078263          	beq	a5,zero,1a5a6 <_svfprintf_r+0x660>
   1b4c6:	0210                	c.addi4spn	a2,sp,256
   1b4c8:	85ce                	c.mv	a1,s3
   1b4ca:	854a                	c.mv	a0,s2
   1b4cc:	33b000ef          	jal	ra,1c006 <__ssprint_r>
   1b4d0:	8d6ff06f          	jal	zero,1a5a6 <_svfprintf_r+0x660>

000000000001b4d4 <__sprint_r>:
   1b4d4:	6a1c                	c.ld	a5,16(a2)
   1b4d6:	715d                	c.addi16sp	sp,-80
   1b4d8:	e0a2                	c.sdsp	s0,64(sp)
   1b4da:	e486                	c.sdsp	ra,72(sp)
   1b4dc:	fc26                	c.sdsp	s1,56(sp)
   1b4de:	f84a                	c.sdsp	s2,48(sp)
   1b4e0:	f44e                	c.sdsp	s3,40(sp)
   1b4e2:	f052                	c.sdsp	s4,32(sp)
   1b4e4:	ec56                	c.sdsp	s5,24(sp)
   1b4e6:	e85a                	c.sdsp	s6,16(sp)
   1b4e8:	e45e                	c.sdsp	s7,8(sp)
   1b4ea:	8432                	c.mv	s0,a2
   1b4ec:	ef99                	c.bnez	a5,1b50a <__sprint_r+0x36>
   1b4ee:	00062423          	sw	zero,8(a2)
   1b4f2:	4501                	c.li	a0,0
   1b4f4:	60a6                	c.ldsp	ra,72(sp)
   1b4f6:	6406                	c.ldsp	s0,64(sp)
   1b4f8:	74e2                	c.ldsp	s1,56(sp)
   1b4fa:	7942                	c.ldsp	s2,48(sp)
   1b4fc:	79a2                	c.ldsp	s3,40(sp)
   1b4fe:	7a02                	c.ldsp	s4,32(sp)
   1b500:	6ae2                	c.ldsp	s5,24(sp)
   1b502:	6b42                	c.ldsp	s6,16(sp)
   1b504:	6ba2                	c.ldsp	s7,8(sp)
   1b506:	6161                	c.addi16sp	sp,80
   1b508:	8082                	c.jr	ra
   1b50a:	0ac5a783          	lw	a5,172(a1)
   1b50e:	89ae                	c.mv	s3,a1
   1b510:	03279713          	slli	a4,a5,0x32
   1b514:	04075a63          	bge	a4,zero,1b568 <__sprint_r+0x94>
   1b518:	00063903          	ld	s2,0(a2)
   1b51c:	8a2a                	c.mv	s4,a0
   1b51e:	5bfd                	c.li	s7,-1
   1b520:	681c                	c.ld	a5,16(s0)
   1b522:	e799                	c.bnez	a5,1b530 <__sprint_r+0x5c>
   1b524:	4501                	c.li	a0,0
   1b526:	00043823          	sd	zero,16(s0)
   1b52a:	00042423          	sw	zero,8(s0)
   1b52e:	b7d9                	c.j	1b4f4 <__sprint_r+0x20>
   1b530:	00893483          	ld	s1,8(s2)
   1b534:	00093b03          	ld	s6,0(s2)
   1b538:	4a81                	c.li	s5,0
   1b53a:	8089                	c.srli	s1,0x2
   1b53c:	2481                	c.addiw	s1,0
   1b53e:	009ac963          	blt	s5,s1,1b550 <__sprint_r+0x7c>
   1b542:	681c                	c.ld	a5,16(s0)
   1b544:	048a                	c.slli	s1,0x2
   1b546:	0941                	c.addi	s2,16
   1b548:	409784b3          	sub	s1,a5,s1
   1b54c:	e804                	c.sd	s1,16(s0)
   1b54e:	bfc9                	c.j	1b520 <__sprint_r+0x4c>
   1b550:	000b2583          	lw	a1,0(s6)
   1b554:	864e                	c.mv	a2,s3
   1b556:	8552                	c.mv	a0,s4
   1b558:	25b000ef          	jal	ra,1bfb2 <_fputwc_r>
   1b55c:	2501                	c.addiw	a0,0
   1b55e:	0b11                	c.addi	s6,4
   1b560:	01750763          	beq	a0,s7,1b56e <__sprint_r+0x9a>
   1b564:	2a85                	c.addiw	s5,1
   1b566:	bfe1                	c.j	1b53e <__sprint_r+0x6a>
   1b568:	fa5fb0ef          	jal	ra,1750c <__sfvwrite_r>
   1b56c:	bf6d                	c.j	1b526 <__sprint_r+0x52>
   1b56e:	557d                	c.li	a0,-1
   1b570:	bf5d                	c.j	1b526 <__sprint_r+0x52>

000000000001b572 <_vfiprintf_r>:
   1b572:	7141                	c.addi16sp	sp,-496
   1b574:	efa6                	c.sdsp	s1,472(sp)
   1b576:	ebca                	c.sdsp	s2,464(sp)
   1b578:	e7ce                	c.sdsp	s3,456(sp)
   1b57a:	e3d2                	c.sdsp	s4,448(sp)
   1b57c:	f786                	c.sdsp	ra,488(sp)
   1b57e:	f3a2                	c.sdsp	s0,480(sp)
   1b580:	ff56                	c.sdsp	s5,440(sp)
   1b582:	fb5a                	c.sdsp	s6,432(sp)
   1b584:	f75e                	c.sdsp	s7,424(sp)
   1b586:	f362                	c.sdsp	s8,416(sp)
   1b588:	ef66                	c.sdsp	s9,408(sp)
   1b58a:	eb6a                	c.sdsp	s10,400(sp)
   1b58c:	e76e                	c.sdsp	s11,392(sp)
   1b58e:	892a                	c.mv	s2,a0
   1b590:	84ae                	c.mv	s1,a1
   1b592:	89b2                	c.mv	s3,a2
   1b594:	8a36                	c.mv	s4,a3
   1b596:	c509                	c.beqz	a0,1b5a0 <_vfiprintf_r+0x2e>
   1b598:	493c                	c.lw	a5,80(a0)
   1b59a:	e399                	c.bnez	a5,1b5a0 <_vfiprintf_r+0x2e>
   1b59c:	e13f80ef          	jal	ra,143ae <__sinit>
   1b5a0:	01049783          	lh	a5,16(s1)
   1b5a4:	03279713          	slli	a4,a5,0x32
   1b5a8:	00074d63          	blt	a4,zero,1b5c2 <_vfiprintf_r+0x50>
   1b5ac:	6689                	c.lui	a3,0x2
   1b5ae:	0ac4a703          	lw	a4,172(s1)
   1b5b2:	8fd5                	c.or	a5,a3
   1b5b4:	00f49823          	sh	a5,16(s1)
   1b5b8:	77f9                	c.lui	a5,0xffffe
   1b5ba:	17fd                	c.addi	a5,-1
   1b5bc:	8ff9                	c.and	a5,a4
   1b5be:	0af4a623          	sw	a5,172(s1)
   1b5c2:	0104d783          	lhu	a5,16(s1)
   1b5c6:	8ba1                	c.andi	a5,8
   1b5c8:	c7a1                	c.beqz	a5,1b610 <_vfiprintf_r+0x9e>
   1b5ca:	6c9c                	c.ld	a5,24(s1)
   1b5cc:	c3b1                	c.beqz	a5,1b610 <_vfiprintf_r+0x9e>
   1b5ce:	0104d783          	lhu	a5,16(s1)
   1b5d2:	4729                	c.li	a4,10
   1b5d4:	8be9                	c.andi	a5,26
   1b5d6:	04e79463          	bne	a5,a4,1b61e <_vfiprintf_r+0xac>
   1b5da:	01249783          	lh	a5,18(s1)
   1b5de:	0407c063          	blt	a5,zero,1b61e <_vfiprintf_r+0xac>
   1b5e2:	86d2                	c.mv	a3,s4
   1b5e4:	864e                	c.mv	a2,s3
   1b5e6:	85a6                	c.mv	a1,s1
   1b5e8:	854a                	c.mv	a0,s2
   1b5ea:	007000ef          	jal	ra,1bdf0 <__sbprintf>
   1b5ee:	8baa                	c.mv	s7,a0
   1b5f0:	70be                	c.ldsp	ra,488(sp)
   1b5f2:	741e                	c.ldsp	s0,480(sp)
   1b5f4:	855e                	c.mv	a0,s7
   1b5f6:	64fe                	c.ldsp	s1,472(sp)
   1b5f8:	695e                	c.ldsp	s2,464(sp)
   1b5fa:	69be                	c.ldsp	s3,456(sp)
   1b5fc:	6a1e                	c.ldsp	s4,448(sp)
   1b5fe:	7afa                	c.ldsp	s5,440(sp)
   1b600:	7b5a                	c.ldsp	s6,432(sp)
   1b602:	7bba                	c.ldsp	s7,424(sp)
   1b604:	7c1a                	c.ldsp	s8,416(sp)
   1b606:	6cfa                	c.ldsp	s9,408(sp)
   1b608:	6d5a                	c.ldsp	s10,400(sp)
   1b60a:	6dba                	c.ldsp	s11,392(sp)
   1b60c:	617d                	c.addi16sp	sp,496
   1b60e:	8082                	c.jr	ra
   1b610:	85a6                	c.mv	a1,s1
   1b612:	854a                	c.mv	a0,s2
   1b614:	c67fb0ef          	jal	ra,1727a <__swsetup_r>
   1b618:	d95d                	c.beqz	a0,1b5ce <_vfiprintf_r+0x5c>
   1b61a:	5bfd                	c.li	s7,-1
   1b61c:	bfd1                	c.j	1b5f0 <_vfiprintf_r+0x7e>
   1b61e:	000297b7          	lui	a5,0x29
   1b622:	f0878793          	addi	a5,a5,-248 # 28f08 <zeroes.4426+0x10>
   1b626:	e8be                	c.sdsp	a5,80(sp)
   1b628:	000297b7          	lui	a5,0x29
   1b62c:	08878793          	addi	a5,a5,136 # 29088 <zeroes.4417>
   1b630:	f43e                	c.sdsp	a5,40(sp)
   1b632:	000297b7          	lui	a5,0x29
   1b636:	10010b13          	addi	s6,sp,256
   1b63a:	07878793          	addi	a5,a5,120 # 29078 <blanks.4416>
   1b63e:	e15a                	c.sdsp	s6,128(sp)
   1b640:	e902                	c.sdsp	zero,144(sp)
   1b642:	c502                	c.swsp	zero,136(sp)
   1b644:	8dda                	c.mv	s11,s6
   1b646:	f002                	c.sdsp	zero,32(sp)
   1b648:	e802                	c.sdsp	zero,16(sp)
   1b64a:	ec02                	c.sdsp	zero,24(sp)
   1b64c:	fc02                	c.sdsp	zero,56(sp)
   1b64e:	4b81                	c.li	s7,0
   1b650:	f83e                	c.sdsp	a5,48(sp)
   1b652:	844e                	c.mv	s0,s3
   1b654:	02500693          	addi	a3,zero,37
   1b658:	00044783          	lbu	a5,0(s0)
   1b65c:	c399                	c.beqz	a5,1b662 <_vfiprintf_r+0xf0>
   1b65e:	06d79e63          	bne	a5,a3,1b6da <_vfiprintf_r+0x168>
   1b662:	41340abb          	subw	s5,s0,s3
   1b666:	020a8b63          	beq	s5,zero,1b69c <_vfiprintf_r+0x12a>
   1b66a:	67ca                	c.ldsp	a5,144(sp)
   1b66c:	013db023          	sd	s3,0(s11)
   1b670:	015db423          	sd	s5,8(s11)
   1b674:	97d6                	c.add	a5,s5
   1b676:	e93e                	c.sdsp	a5,144(sp)
   1b678:	47aa                	c.lwsp	a5,136(sp)
   1b67a:	0dc1                	c.addi	s11,16
   1b67c:	0017869b          	addiw	a3,a5,1
   1b680:	c536                	c.swsp	a3,136(sp)
   1b682:	479d                	c.li	a5,7
   1b684:	00d7da63          	bge	a5,a3,1b698 <_vfiprintf_r+0x126>
   1b688:	0110                	c.addi4spn	a2,sp,128
   1b68a:	85a6                	c.mv	a1,s1
   1b68c:	854a                	c.mv	a0,s2
   1b68e:	e47ff0ef          	jal	ra,1b4d4 <__sprint_r>
   1b692:	70051663          	bne	a0,zero,1bd9e <_vfiprintf_r+0x82c>
   1b696:	8dda                	c.mv	s11,s6
   1b698:	015b8bbb          	addw	s7,s7,s5
   1b69c:	00044783          	lbu	a5,0(s0)
   1b6a0:	72078963          	beq	a5,zero,1bdd2 <_vfiprintf_r+0x860>
   1b6a4:	00140693          	addi	a3,s0,1
   1b6a8:	06010ba3          	sb	zero,119(sp)
   1b6ac:	547d                	c.li	s0,-1
   1b6ae:	4a81                	c.li	s5,0
   1b6b0:	4d01                	c.li	s10,0
   1b6b2:	05a00c93          	addi	s9,zero,90
   1b6b6:	4c29                	c.li	s8,10
   1b6b8:	00168993          	addi	s3,a3,1 # 2001 <main-0xe0af>
   1b6bc:	0006c683          	lbu	a3,0(a3)
   1b6c0:	4525                	c.li	a0,9
   1b6c2:	02a00813          	addi	a6,zero,42
   1b6c6:	fe06861b          	addiw	a2,a3,-32
   1b6ca:	60cce263          	bltu	s9,a2,1bcce <_vfiprintf_r+0x75c>
   1b6ce:	67c6                	c.ldsp	a5,80(sp)
   1b6d0:	1602                	c.slli	a2,0x20
   1b6d2:	8279                	c.srli	a2,0x1e
   1b6d4:	963e                	c.add	a2,a5
   1b6d6:	4210                	c.lw	a2,0(a2)
   1b6d8:	8602                	c.jr	a2
   1b6da:	0405                	c.addi	s0,1
   1b6dc:	bfb5                	c.j	1b658 <_vfiprintf_r+0xe6>
   1b6de:	00029637          	lui	a2,0x29
   1b6e2:	88860793          	addi	a5,a2,-1912 # 28888 <zeroes.4441+0x80>
   1b6e6:	f03e                	c.sdsp	a5,32(sp)
   1b6e8:	008a0793          	addi	a5,s4,8
   1b6ec:	e43e                	c.sdsp	a5,8(sp)
   1b6ee:	020d7613          	andi	a2,s10,32
   1b6f2:	4e060663          	beq	a2,zero,1bbde <_vfiprintf_r+0x66c>
   1b6f6:	000a3a03          	ld	s4,0(s4)
   1b6fa:	001d7613          	andi	a2,s10,1
   1b6fe:	ca19                	c.beqz	a2,1b714 <_vfiprintf_r+0x1a2>
   1b700:	000a0a63          	beq	s4,zero,1b714 <_vfiprintf_r+0x1a2>
   1b704:	03000613          	addi	a2,zero,48
   1b708:	06c10c23          	sb	a2,120(sp)
   1b70c:	06d10ca3          	sb	a3,121(sp)
   1b710:	002d6d13          	ori	s10,s10,2
   1b714:	bffd7d13          	andi	s10,s10,-1025
   1b718:	a4ad                	c.j	1b982 <_vfiprintf_r+0x410>
   1b71a:	854a                	c.mv	a0,s2
   1b71c:	823fd0ef          	jal	ra,18f3e <_localeconv_r>
   1b720:	651c                	c.ld	a5,8(a0)
   1b722:	853e                	c.mv	a0,a5
   1b724:	fc3e                	c.sdsp	a5,56(sp)
   1b726:	c76fa0ef          	jal	ra,15b9c <strlen>
   1b72a:	ec2a                	c.sdsp	a0,24(sp)
   1b72c:	854a                	c.mv	a0,s2
   1b72e:	811fd0ef          	jal	ra,18f3e <_localeconv_r>
   1b732:	691c                	c.ld	a5,16(a0)
   1b734:	e83e                	c.sdsp	a5,16(sp)
   1b736:	67e2                	c.ldsp	a5,24(sp)
   1b738:	cb81                	c.beqz	a5,1b748 <_vfiprintf_r+0x1d6>
   1b73a:	67c2                	c.ldsp	a5,16(sp)
   1b73c:	c791                	c.beqz	a5,1b748 <_vfiprintf_r+0x1d6>
   1b73e:	0007c683          	lbu	a3,0(a5)
   1b742:	c299                	c.beqz	a3,1b748 <_vfiprintf_r+0x1d6>
   1b744:	400d6d13          	ori	s10,s10,1024
   1b748:	86ce                	c.mv	a3,s3
   1b74a:	b7bd                	c.j	1b6b8 <_vfiprintf_r+0x146>
   1b74c:	07714683          	lbu	a3,119(sp)
   1b750:	fee5                	c.bnez	a3,1b748 <_vfiprintf_r+0x1d6>
   1b752:	02000693          	addi	a3,zero,32
   1b756:	06d10ba3          	sb	a3,119(sp)
   1b75a:	b7fd                	c.j	1b748 <_vfiprintf_r+0x1d6>
   1b75c:	001d6d13          	ori	s10,s10,1
   1b760:	b7e5                	c.j	1b748 <_vfiprintf_r+0x1d6>
   1b762:	000a2a83          	lw	s5,0(s4)
   1b766:	0a21                	c.addi	s4,8
   1b768:	fe0ad0e3          	bge	s5,zero,1b748 <_vfiprintf_r+0x1d6>
   1b76c:	41500abb          	subw	s5,zero,s5
   1b770:	004d6d13          	ori	s10,s10,4
   1b774:	bfd1                	c.j	1b748 <_vfiprintf_r+0x1d6>
   1b776:	02b00693          	addi	a3,zero,43
   1b77a:	bff1                	c.j	1b756 <_vfiprintf_r+0x1e4>
   1b77c:	0009c683          	lbu	a3,0(s3)
   1b780:	00198613          	addi	a2,s3,1
   1b784:	03069963          	bne	a3,a6,1b7b6 <_vfiprintf_r+0x244>
   1b788:	000a2403          	lw	s0,0(s4)
   1b78c:	008a0693          	addi	a3,s4,8
   1b790:	00045363          	bge	s0,zero,1b796 <_vfiprintf_r+0x224>
   1b794:	547d                	c.li	s0,-1
   1b796:	2401                	c.addiw	s0,0
   1b798:	8a36                	c.mv	s4,a3
   1b79a:	89b2                	c.mv	s3,a2
   1b79c:	b775                	c.j	1b748 <_vfiprintf_r+0x1d6>
   1b79e:	028c043b          	mulw	s0,s8,s0
   1b7a2:	0605                	c.addi	a2,1
   1b7a4:	fff64683          	lbu	a3,-1(a2)
   1b7a8:	9c2d                	c.addw	s0,a1
   1b7aa:	fd06859b          	addiw	a1,a3,-48
   1b7ae:	feb578e3          	bgeu	a0,a1,1b79e <_vfiprintf_r+0x22c>
   1b7b2:	89b2                	c.mv	s3,a2
   1b7b4:	bf09                	c.j	1b6c6 <_vfiprintf_r+0x154>
   1b7b6:	4401                	c.li	s0,0
   1b7b8:	bfcd                	c.j	1b7aa <_vfiprintf_r+0x238>
   1b7ba:	080d6d13          	ori	s10,s10,128
   1b7be:	b769                	c.j	1b748 <_vfiprintf_r+0x1d6>
   1b7c0:	864e                	c.mv	a2,s3
   1b7c2:	4a81                	c.li	s5,0
   1b7c4:	035c0abb          	mulw	s5,s8,s5
   1b7c8:	fd06869b          	addiw	a3,a3,-48
   1b7cc:	0605                	c.addi	a2,1
   1b7ce:	01568abb          	addw	s5,a3,s5
   1b7d2:	fff64683          	lbu	a3,-1(a2)
   1b7d6:	fd06859b          	addiw	a1,a3,-48
   1b7da:	feb575e3          	bgeu	a0,a1,1b7c4 <_vfiprintf_r+0x252>
   1b7de:	bfd1                	c.j	1b7b2 <_vfiprintf_r+0x240>
   1b7e0:	0009c603          	lbu	a2,0(s3)
   1b7e4:	06800693          	addi	a3,zero,104
   1b7e8:	00d61663          	bne	a2,a3,1b7f4 <_vfiprintf_r+0x282>
   1b7ec:	0985                	c.addi	s3,1
   1b7ee:	200d6d13          	ori	s10,s10,512
   1b7f2:	bf99                	c.j	1b748 <_vfiprintf_r+0x1d6>
   1b7f4:	040d6d13          	ori	s10,s10,64
   1b7f8:	bf81                	c.j	1b748 <_vfiprintf_r+0x1d6>
   1b7fa:	0009c603          	lbu	a2,0(s3)
   1b7fe:	06c00693          	addi	a3,zero,108
   1b802:	00d61663          	bne	a2,a3,1b80e <_vfiprintf_r+0x29c>
   1b806:	0985                	c.addi	s3,1
   1b808:	020d6d13          	ori	s10,s10,32
   1b80c:	bf35                	c.j	1b748 <_vfiprintf_r+0x1d6>
   1b80e:	010d6d13          	ori	s10,s10,16
   1b812:	bf1d                	c.j	1b748 <_vfiprintf_r+0x1d6>
   1b814:	000a2683          	lw	a3,0(s4)
   1b818:	008a0793          	addi	a5,s4,8
   1b81c:	e43e                	c.sdsp	a5,8(sp)
   1b81e:	08d10c23          	sb	a3,152(sp)
   1b822:	06010ba3          	sb	zero,119(sp)
   1b826:	4405                	c.li	s0,1
   1b828:	4a01                	c.li	s4,0
   1b82a:	09810c13          	addi	s8,sp,152
   1b82e:	aabd                	c.j	1b9ac <_vfiprintf_r+0x43a>
   1b830:	010d6d13          	ori	s10,s10,16
   1b834:	008a0793          	addi	a5,s4,8
   1b838:	e43e                	c.sdsp	a5,8(sp)
   1b83a:	020d7693          	andi	a3,s10,32
   1b83e:	ca85                	c.beqz	a3,1b86e <_vfiprintf_r+0x2fc>
   1b840:	000a3a03          	ld	s4,0(s4)
   1b844:	000a5863          	bge	s4,zero,1b854 <_vfiprintf_r+0x2e2>
   1b848:	02d00693          	addi	a3,zero,45
   1b84c:	41400a33          	sub	s4,zero,s4
   1b850:	06d10ba3          	sb	a3,119(sp)
   1b854:	56fd                	c.li	a3,-1
   1b856:	3ad41b63          	bne	s0,a3,1bc0c <_vfiprintf_r+0x69a>
   1b85a:	46a5                	c.li	a3,9
   1b85c:	3d46e563          	bltu	a3,s4,1bc26 <_vfiprintf_r+0x6b4>
   1b860:	030a0a1b          	addiw	s4,s4,48
   1b864:	0f410da3          	sb	s4,251(sp)
   1b868:	0fb10c13          	addi	s8,sp,251
   1b86c:	a87d                	c.j	1b92a <_vfiprintf_r+0x3b8>
   1b86e:	010d7693          	andi	a3,s10,16
   1b872:	f6f9                	c.bnez	a3,1b840 <_vfiprintf_r+0x2ce>
   1b874:	040d7693          	andi	a3,s10,64
   1b878:	c681                	c.beqz	a3,1b880 <_vfiprintf_r+0x30e>
   1b87a:	000a1a03          	lh	s4,0(s4)
   1b87e:	b7d9                	c.j	1b844 <_vfiprintf_r+0x2d2>
   1b880:	200d7693          	andi	a3,s10,512
   1b884:	c681                	c.beqz	a3,1b88c <_vfiprintf_r+0x31a>
   1b886:	000a0a03          	lb	s4,0(s4)
   1b88a:	bf6d                	c.j	1b844 <_vfiprintf_r+0x2d2>
   1b88c:	000a2a03          	lw	s4,0(s4)
   1b890:	bf55                	c.j	1b844 <_vfiprintf_r+0x2d2>
   1b892:	020d7613          	andi	a2,s10,32
   1b896:	000a3683          	ld	a3,0(s4)
   1b89a:	0a21                	c.addi	s4,8
   1b89c:	c601                	c.beqz	a2,1b8a4 <_vfiprintf_r+0x332>
   1b89e:	0176b023          	sd	s7,0(a3)
   1b8a2:	bb45                	c.j	1b652 <_vfiprintf_r+0xe0>
   1b8a4:	010d7613          	andi	a2,s10,16
   1b8a8:	fa7d                	c.bnez	a2,1b89e <_vfiprintf_r+0x32c>
   1b8aa:	040d7613          	andi	a2,s10,64
   1b8ae:	c601                	c.beqz	a2,1b8b6 <_vfiprintf_r+0x344>
   1b8b0:	01769023          	sh	s7,0(a3)
   1b8b4:	bb79                	c.j	1b652 <_vfiprintf_r+0xe0>
   1b8b6:	200d7793          	andi	a5,s10,512
   1b8ba:	c781                	c.beqz	a5,1b8c2 <_vfiprintf_r+0x350>
   1b8bc:	01768023          	sb	s7,0(a3)
   1b8c0:	bb49                	c.j	1b652 <_vfiprintf_r+0xe0>
   1b8c2:	0176a023          	sw	s7,0(a3)
   1b8c6:	b371                	c.j	1b652 <_vfiprintf_r+0xe0>
   1b8c8:	010d6d13          	ori	s10,s10,16
   1b8cc:	008a0793          	addi	a5,s4,8
   1b8d0:	e43e                	c.sdsp	a5,8(sp)
   1b8d2:	020d7693          	andi	a3,s10,32
   1b8d6:	ceb9                	c.beqz	a3,1b934 <_vfiprintf_r+0x3c2>
   1b8d8:	000a3a03          	ld	s4,0(s4)
   1b8dc:	bffd7d13          	andi	s10,s10,-1025
   1b8e0:	4601                	c.li	a2,0
   1b8e2:	06010ba3          	sb	zero,119(sp)
   1b8e6:	56fd                	c.li	a3,-1
   1b8e8:	85ea                	c.mv	a1,s10
   1b8ea:	32d41363          	bne	s0,a3,1bc10 <_vfiprintf_r+0x69e>
   1b8ee:	4685                	c.li	a3,1
   1b8f0:	f6d605e3          	beq	a2,a3,1b85a <_vfiprintf_r+0x2e8>
   1b8f4:	4689                	c.li	a3,2
   1b8f6:	3ad60063          	beq	a2,a3,1bc96 <_vfiprintf_r+0x724>
   1b8fa:	19f0                	c.addi4spn	a2,sp,252
   1b8fc:	007a7593          	andi	a1,s4,7
   1b900:	03058593          	addi	a1,a1,48
   1b904:	feb60fa3          	sb	a1,-1(a2)
   1b908:	003a5a13          	srli	s4,s4,0x3
   1b90c:	fff60c13          	addi	s8,a2,-1
   1b910:	300a1963          	bne	s4,zero,1bc22 <_vfiprintf_r+0x6b0>
   1b914:	001d7513          	andi	a0,s10,1
   1b918:	c909                	c.beqz	a0,1b92a <_vfiprintf_r+0x3b8>
   1b91a:	03000513          	addi	a0,zero,48
   1b91e:	00a58663          	beq	a1,a0,1b92a <_vfiprintf_r+0x3b8>
   1b922:	feac0fa3          	sb	a0,-1(s8)
   1b926:	ffe60c13          	addi	s8,a2,-2
   1b92a:	8a22                	c.mv	s4,s0
   1b92c:	19e0                	c.addi4spn	s0,sp,252
   1b92e:	4184043b          	subw	s0,s0,s8
   1b932:	a8ad                	c.j	1b9ac <_vfiprintf_r+0x43a>
   1b934:	010d7693          	andi	a3,s10,16
   1b938:	f2c5                	c.bnez	a3,1b8d8 <_vfiprintf_r+0x366>
   1b93a:	040d7693          	andi	a3,s10,64
   1b93e:	000a2a03          	lw	s4,0(s4)
   1b942:	c689                	c.beqz	a3,1b94c <_vfiprintf_r+0x3da>
   1b944:	1a42                	c.slli	s4,0x30
   1b946:	030a5a13          	srli	s4,s4,0x30
   1b94a:	bf49                	c.j	1b8dc <_vfiprintf_r+0x36a>
   1b94c:	200d7693          	andi	a3,s10,512
   1b950:	c681                	c.beqz	a3,1b958 <_vfiprintf_r+0x3e6>
   1b952:	0ffa7a13          	andi	s4,s4,255
   1b956:	b759                	c.j	1b8dc <_vfiprintf_r+0x36a>
   1b958:	1a02                	c.slli	s4,0x20
   1b95a:	020a5a13          	srli	s4,s4,0x20
   1b95e:	bfbd                	c.j	1b8dc <_vfiprintf_r+0x36a>
   1b960:	76e1                	c.lui	a3,0xffff8
   1b962:	8306c693          	xori	a3,a3,-2000
   1b966:	008a0793          	addi	a5,s4,8
   1b96a:	06d11c23          	sh	a3,120(sp)
   1b96e:	000a3a03          	ld	s4,0(s4)
   1b972:	000296b7          	lui	a3,0x29
   1b976:	e43e                	c.sdsp	a5,8(sp)
   1b978:	87068793          	addi	a5,a3,-1936 # 28870 <zeroes.4441+0x68>
   1b97c:	002d6d13          	ori	s10,s10,2
   1b980:	f03e                	c.sdsp	a5,32(sp)
   1b982:	4609                	c.li	a2,2
   1b984:	bfb9                	c.j	1b8e2 <_vfiprintf_r+0x370>
   1b986:	008a0793          	addi	a5,s4,8
   1b98a:	e43e                	c.sdsp	a5,8(sp)
   1b98c:	06010ba3          	sb	zero,119(sp)
   1b990:	567d                	c.li	a2,-1
   1b992:	000a3c03          	ld	s8,0(s4)
   1b996:	1ec40663          	beq	s0,a2,1bb82 <_vfiprintf_r+0x610>
   1b99a:	8622                	c.mv	a2,s0
   1b99c:	4581                	c.li	a1,0
   1b99e:	8562                	c.mv	a0,s8
   1b9a0:	dfafd0ef          	jal	ra,18f9a <memchr>
   1b9a4:	4a01                	c.li	s4,0
   1b9a6:	c119                	c.beqz	a0,1b9ac <_vfiprintf_r+0x43a>
   1b9a8:	4185043b          	subw	s0,a0,s8
   1b9ac:	8652                	c.mv	a2,s4
   1b9ae:	008a5363          	bge	s4,s0,1b9b4 <_vfiprintf_r+0x442>
   1b9b2:	8622                	c.mv	a2,s0
   1b9b4:	07714583          	lbu	a1,119(sp)
   1b9b8:	00060c9b          	addiw	s9,a2,0
   1b9bc:	c199                	c.beqz	a1,1b9c2 <_vfiprintf_r+0x450>
   1b9be:	00160c9b          	addiw	s9,a2,1
   1b9c2:	002d7613          	andi	a2,s10,2
   1b9c6:	0006079b          	addiw	a5,a2,0
   1b9ca:	e0be                	c.sdsp	a5,64(sp)
   1b9cc:	c391                	c.beqz	a5,1b9d0 <_vfiprintf_r+0x45e>
   1b9ce:	2c89                	c.addiw	s9,2
   1b9d0:	084d7793          	andi	a5,s10,132
   1b9d4:	e4be                	c.sdsp	a5,72(sp)
   1b9d6:	e7a1                	c.bnez	a5,1ba1e <_vfiprintf_r+0x4ac>
   1b9d8:	419a883b          	subw	a6,s5,s9
   1b9dc:	05005163          	bge	zero,a6,1ba1e <_vfiprintf_r+0x4ac>
   1b9e0:	4341                	c.li	t1,16
   1b9e2:	4e1d                	c.li	t3,7
   1b9e4:	45aa                	c.lwsp	a1,136(sp)
   1b9e6:	77c2                	c.ldsp	a5,48(sp)
   1b9e8:	664a                	c.ldsp	a2,144(sp)
   1b9ea:	0015851b          	addiw	a0,a1,1
   1b9ee:	00fdb023          	sd	a5,0(s11)
   1b9f2:	85aa                	c.mv	a1,a0
   1b9f4:	010d8893          	addi	a7,s11,16
   1b9f8:	2f034363          	blt	t1,a6,1bcde <_vfiprintf_r+0x76c>
   1b9fc:	010db423          	sd	a6,8(s11)
   1ba00:	9832                	c.add	a6,a2
   1ba02:	e942                	c.sdsp	a6,144(sp)
   1ba04:	c52a                	c.swsp	a0,136(sp)
   1ba06:	461d                	c.li	a2,7
   1ba08:	8dc6                	c.mv	s11,a7
   1ba0a:	00a65a63          	bge	a2,a0,1ba1e <_vfiprintf_r+0x4ac>
   1ba0e:	0110                	c.addi4spn	a2,sp,128
   1ba10:	85a6                	c.mv	a1,s1
   1ba12:	854a                	c.mv	a0,s2
   1ba14:	ac1ff0ef          	jal	ra,1b4d4 <__sprint_r>
   1ba18:	38051363          	bne	a0,zero,1bd9e <_vfiprintf_r+0x82c>
   1ba1c:	8dda                	c.mv	s11,s6
   1ba1e:	07714603          	lbu	a2,119(sp)
   1ba22:	ca1d                	c.beqz	a2,1ba58 <_vfiprintf_r+0x4e6>
   1ba24:	07710593          	addi	a1,sp,119
   1ba28:	00bdb023          	sd	a1,0(s11)
   1ba2c:	4585                	c.li	a1,1
   1ba2e:	462a                	c.lwsp	a2,136(sp)
   1ba30:	00bdb423          	sd	a1,8(s11)
   1ba34:	65ca                	c.ldsp	a1,144(sp)
   1ba36:	0016051b          	addiw	a0,a2,1
   1ba3a:	c52a                	c.swsp	a0,136(sp)
   1ba3c:	0585                	c.addi	a1,1
   1ba3e:	e92e                	c.sdsp	a1,144(sp)
   1ba40:	461d                	c.li	a2,7
   1ba42:	0dc1                	c.addi	s11,16
   1ba44:	00a65a63          	bge	a2,a0,1ba58 <_vfiprintf_r+0x4e6>
   1ba48:	0110                	c.addi4spn	a2,sp,128
   1ba4a:	85a6                	c.mv	a1,s1
   1ba4c:	854a                	c.mv	a0,s2
   1ba4e:	a87ff0ef          	jal	ra,1b4d4 <__sprint_r>
   1ba52:	34051663          	bne	a0,zero,1bd9e <_vfiprintf_r+0x82c>
   1ba56:	8dda                	c.mv	s11,s6
   1ba58:	6786                	c.ldsp	a5,64(sp)
   1ba5a:	cb95                	c.beqz	a5,1ba8e <_vfiprintf_r+0x51c>
   1ba5c:	18ac                	c.addi4spn	a1,sp,120
   1ba5e:	00bdb023          	sd	a1,0(s11)
   1ba62:	4589                	c.li	a1,2
   1ba64:	462a                	c.lwsp	a2,136(sp)
   1ba66:	00bdb423          	sd	a1,8(s11)
   1ba6a:	65ca                	c.ldsp	a1,144(sp)
   1ba6c:	0016051b          	addiw	a0,a2,1
   1ba70:	c52a                	c.swsp	a0,136(sp)
   1ba72:	0589                	c.addi	a1,2
   1ba74:	e92e                	c.sdsp	a1,144(sp)
   1ba76:	461d                	c.li	a2,7
   1ba78:	0dc1                	c.addi	s11,16
   1ba7a:	00a65a63          	bge	a2,a0,1ba8e <_vfiprintf_r+0x51c>
   1ba7e:	0110                	c.addi4spn	a2,sp,128
   1ba80:	85a6                	c.mv	a1,s1
   1ba82:	854a                	c.mv	a0,s2
   1ba84:	a51ff0ef          	jal	ra,1b4d4 <__sprint_r>
   1ba88:	30051b63          	bne	a0,zero,1bd9e <_vfiprintf_r+0x82c>
   1ba8c:	8dda                	c.mv	s11,s6
   1ba8e:	67a6                	c.ldsp	a5,72(sp)
   1ba90:	08000613          	addi	a2,zero,128
   1ba94:	04c79563          	bne	a5,a2,1bade <_vfiprintf_r+0x56c>
   1ba98:	419a883b          	subw	a6,s5,s9
   1ba9c:	05005163          	bge	zero,a6,1bade <_vfiprintf_r+0x56c>
   1baa0:	4341                	c.li	t1,16
   1baa2:	4e1d                	c.li	t3,7
   1baa4:	45aa                	c.lwsp	a1,136(sp)
   1baa6:	77a2                	c.ldsp	a5,40(sp)
   1baa8:	664a                	c.ldsp	a2,144(sp)
   1baaa:	0015851b          	addiw	a0,a1,1
   1baae:	00fdb023          	sd	a5,0(s11)
   1bab2:	85aa                	c.mv	a1,a0
   1bab4:	010d8893          	addi	a7,s11,16
   1bab8:	25034a63          	blt	t1,a6,1bd0c <_vfiprintf_r+0x79a>
   1babc:	010db423          	sd	a6,8(s11)
   1bac0:	9832                	c.add	a6,a2
   1bac2:	e942                	c.sdsp	a6,144(sp)
   1bac4:	c52a                	c.swsp	a0,136(sp)
   1bac6:	461d                	c.li	a2,7
   1bac8:	8dc6                	c.mv	s11,a7
   1baca:	00a65a63          	bge	a2,a0,1bade <_vfiprintf_r+0x56c>
   1bace:	0110                	c.addi4spn	a2,sp,128
   1bad0:	85a6                	c.mv	a1,s1
   1bad2:	854a                	c.mv	a0,s2
   1bad4:	a01ff0ef          	jal	ra,1b4d4 <__sprint_r>
   1bad8:	2c051363          	bne	a0,zero,1bd9e <_vfiprintf_r+0x82c>
   1badc:	8dda                	c.mv	s11,s6
   1bade:	408a0a3b          	subw	s4,s4,s0
   1bae2:	05405163          	bge	zero,s4,1bb24 <_vfiprintf_r+0x5b2>
   1bae6:	48c1                	c.li	a7,16
   1bae8:	431d                	c.li	t1,7
   1baea:	45aa                	c.lwsp	a1,136(sp)
   1baec:	77a2                	c.ldsp	a5,40(sp)
   1baee:	664a                	c.ldsp	a2,144(sp)
   1baf0:	0015851b          	addiw	a0,a1,1
   1baf4:	00fdb023          	sd	a5,0(s11)
   1baf8:	85aa                	c.mv	a1,a0
   1bafa:	010d8813          	addi	a6,s11,16
   1bafe:	2348ce63          	blt	a7,s4,1bd3a <_vfiprintf_r+0x7c8>
   1bb02:	014db423          	sd	s4,8(s11)
   1bb06:	9a32                	c.add	s4,a2
   1bb08:	e952                	c.sdsp	s4,144(sp)
   1bb0a:	c52a                	c.swsp	a0,136(sp)
   1bb0c:	461d                	c.li	a2,7
   1bb0e:	8dc2                	c.mv	s11,a6
   1bb10:	00a65a63          	bge	a2,a0,1bb24 <_vfiprintf_r+0x5b2>
   1bb14:	0110                	c.addi4spn	a2,sp,128
   1bb16:	85a6                	c.mv	a1,s1
   1bb18:	854a                	c.mv	a0,s2
   1bb1a:	9bbff0ef          	jal	ra,1b4d4 <__sprint_r>
   1bb1e:	28051063          	bne	a0,zero,1bd9e <_vfiprintf_r+0x82c>
   1bb22:	8dda                	c.mv	s11,s6
   1bb24:	66ca                	c.ldsp	a3,144(sp)
   1bb26:	008db423          	sd	s0,8(s11)
   1bb2a:	018db023          	sd	s8,0(s11)
   1bb2e:	9436                	c.add	s0,a3
   1bb30:	46aa                	c.lwsp	a3,136(sp)
   1bb32:	e922                	c.sdsp	s0,144(sp)
   1bb34:	010d8713          	addi	a4,s11,16
   1bb38:	0016861b          	addiw	a2,a3,1
   1bb3c:	c532                	c.swsp	a2,136(sp)
   1bb3e:	469d                	c.li	a3,7
   1bb40:	00c6da63          	bge	a3,a2,1bb54 <_vfiprintf_r+0x5e2>
   1bb44:	0110                	c.addi4spn	a2,sp,128
   1bb46:	85a6                	c.mv	a1,s1
   1bb48:	854a                	c.mv	a0,s2
   1bb4a:	98bff0ef          	jal	ra,1b4d4 <__sprint_r>
   1bb4e:	24051863          	bne	a0,zero,1bd9e <_vfiprintf_r+0x82c>
   1bb52:	875a                	c.mv	a4,s6
   1bb54:	004d7793          	andi	a5,s10,4
   1bb58:	20079663          	bne	a5,zero,1bd64 <_vfiprintf_r+0x7f2>
   1bb5c:	87d6                	c.mv	a5,s5
   1bb5e:	019ad363          	bge	s5,s9,1bb64 <_vfiprintf_r+0x5f2>
   1bb62:	87e6                	c.mv	a5,s9
   1bb64:	01778bbb          	addw	s7,a5,s7
   1bb68:	67ca                	c.ldsp	a5,144(sp)
   1bb6a:	cb81                	c.beqz	a5,1bb7a <_vfiprintf_r+0x608>
   1bb6c:	0110                	c.addi4spn	a2,sp,128
   1bb6e:	85a6                	c.mv	a1,s1
   1bb70:	854a                	c.mv	a0,s2
   1bb72:	963ff0ef          	jal	ra,1b4d4 <__sprint_r>
   1bb76:	22051463          	bne	a0,zero,1bd9e <_vfiprintf_r+0x82c>
   1bb7a:	c502                	c.swsp	zero,136(sp)
   1bb7c:	6a22                	c.ldsp	s4,8(sp)
   1bb7e:	8dda                	c.mv	s11,s6
   1bb80:	bcc9                	c.j	1b652 <_vfiprintf_r+0xe0>
   1bb82:	8562                	c.mv	a0,s8
   1bb84:	818fa0ef          	jal	ra,15b9c <strlen>
   1bb88:	0005041b          	addiw	s0,a0,0
   1bb8c:	4a01                	c.li	s4,0
   1bb8e:	bd39                	c.j	1b9ac <_vfiprintf_r+0x43a>
   1bb90:	010d6d13          	ori	s10,s10,16
   1bb94:	008a0793          	addi	a5,s4,8
   1bb98:	e43e                	c.sdsp	a5,8(sp)
   1bb9a:	020d7693          	andi	a3,s10,32
   1bb9e:	c689                	c.beqz	a3,1bba8 <_vfiprintf_r+0x636>
   1bba0:	000a3a03          	ld	s4,0(s4)
   1bba4:	4605                	c.li	a2,1
   1bba6:	bb35                	c.j	1b8e2 <_vfiprintf_r+0x370>
   1bba8:	010d7693          	andi	a3,s10,16
   1bbac:	faf5                	c.bnez	a3,1bba0 <_vfiprintf_r+0x62e>
   1bbae:	040d7693          	andi	a3,s10,64
   1bbb2:	000a2a03          	lw	s4,0(s4)
   1bbb6:	c689                	c.beqz	a3,1bbc0 <_vfiprintf_r+0x64e>
   1bbb8:	1a42                	c.slli	s4,0x30
   1bbba:	030a5a13          	srli	s4,s4,0x30
   1bbbe:	b7dd                	c.j	1bba4 <_vfiprintf_r+0x632>
   1bbc0:	200d7693          	andi	a3,s10,512
   1bbc4:	c681                	c.beqz	a3,1bbcc <_vfiprintf_r+0x65a>
   1bbc6:	0ffa7a13          	andi	s4,s4,255
   1bbca:	bfe9                	c.j	1bba4 <_vfiprintf_r+0x632>
   1bbcc:	1a02                	c.slli	s4,0x20
   1bbce:	020a5a13          	srli	s4,s4,0x20
   1bbd2:	bfc9                	c.j	1bba4 <_vfiprintf_r+0x632>
   1bbd4:	00029637          	lui	a2,0x29
   1bbd8:	87060793          	addi	a5,a2,-1936 # 28870 <zeroes.4441+0x68>
   1bbdc:	b629                	c.j	1b6e6 <_vfiprintf_r+0x174>
   1bbde:	010d7613          	andi	a2,s10,16
   1bbe2:	b0061ae3          	bne	a2,zero,1b6f6 <_vfiprintf_r+0x184>
   1bbe6:	040d7613          	andi	a2,s10,64
   1bbea:	000a2a03          	lw	s4,0(s4)
   1bbee:	c609                	c.beqz	a2,1bbf8 <_vfiprintf_r+0x686>
   1bbf0:	1a42                	c.slli	s4,0x30
   1bbf2:	030a5a13          	srli	s4,s4,0x30
   1bbf6:	b611                	c.j	1b6fa <_vfiprintf_r+0x188>
   1bbf8:	200d7613          	andi	a2,s10,512
   1bbfc:	c601                	c.beqz	a2,1bc04 <_vfiprintf_r+0x692>
   1bbfe:	0ffa7a13          	andi	s4,s4,255
   1bc02:	bce5                	c.j	1b6fa <_vfiprintf_r+0x188>
   1bc04:	1a02                	c.slli	s4,0x20
   1bc06:	020a5a13          	srli	s4,s4,0x20
   1bc0a:	bcc5                	c.j	1b6fa <_vfiprintf_r+0x188>
   1bc0c:	85ea                	c.mv	a1,s10
   1bc0e:	4605                	c.li	a2,1
   1bc10:	f7fd7d13          	andi	s10,s10,-129
   1bc14:	cc0a1de3          	bne	s4,zero,1b8ee <_vfiprintf_r+0x37c>
   1bc18:	cc59                	c.beqz	s0,1bcb6 <_vfiprintf_r+0x744>
   1bc1a:	4685                	c.li	a3,1
   1bc1c:	ccd61ce3          	bne	a2,a3,1b8f4 <_vfiprintf_r+0x382>
   1bc20:	b181                	c.j	1b860 <_vfiprintf_r+0x2ee>
   1bc22:	8662                	c.mv	a2,s8
   1bc24:	b9e1                	c.j	1b8fc <_vfiprintf_r+0x38a>
   1bc26:	400d7c93          	andi	s9,s10,1024
   1bc2a:	4601                	c.li	a2,0
   1bc2c:	19ec                	c.addi4spn	a1,sp,252
   1bc2e:	4829                	c.li	a6,10
   1bc30:	2c81                	c.addiw	s9,0
   1bc32:	0ff00893          	addi	a7,zero,255
   1bc36:	4325                	c.li	t1,9
   1bc38:	030a7533          	remu	a0,s4,a6
   1bc3c:	fff58c13          	addi	s8,a1,-1
   1bc40:	2605                	c.addiw	a2,1
   1bc42:	0305051b          	addiw	a0,a0,48
   1bc46:	fea58fa3          	sb	a0,-1(a1)
   1bc4a:	040c8063          	beq	s9,zero,1bc8a <_vfiprintf_r+0x718>
   1bc4e:	67c2                	c.ldsp	a5,16(sp)
   1bc50:	0007c583          	lbu	a1,0(a5)
   1bc54:	02c59b63          	bne	a1,a2,1bc8a <_vfiprintf_r+0x718>
   1bc58:	03158963          	beq	a1,a7,1bc8a <_vfiprintf_r+0x718>
   1bc5c:	03437763          	bgeu	t1,s4,1bc8a <_vfiprintf_r+0x718>
   1bc60:	67e2                	c.ldsp	a5,24(sp)
   1bc62:	75e2                	c.ldsp	a1,56(sp)
   1bc64:	ec9a                	c.sdsp	t1,88(sp)
   1bc66:	40fc0c33          	sub	s8,s8,a5
   1bc6a:	863e                	c.mv	a2,a5
   1bc6c:	8562                	c.mv	a0,s8
   1bc6e:	e4c6                	c.sdsp	a7,72(sp)
   1bc70:	e0c2                	c.sdsp	a6,64(sp)
   1bc72:	aa4fe0ef          	jal	ra,19f16 <strncpy>
   1bc76:	67c2                	c.ldsp	a5,16(sp)
   1bc78:	4601                	c.li	a2,0
   1bc7a:	6806                	c.ldsp	a6,64(sp)
   1bc7c:	0017c583          	lbu	a1,1(a5)
   1bc80:	68a6                	c.ldsp	a7,72(sp)
   1bc82:	6366                	c.ldsp	t1,88(sp)
   1bc84:	c199                	c.beqz	a1,1bc8a <_vfiprintf_r+0x718>
   1bc86:	0785                	c.addi	a5,1
   1bc88:	e83e                	c.sdsp	a5,16(sp)
   1bc8a:	030a5a33          	divu	s4,s4,a6
   1bc8e:	c80a0ee3          	beq	s4,zero,1b92a <_vfiprintf_r+0x3b8>
   1bc92:	85e2                	c.mv	a1,s8
   1bc94:	b755                	c.j	1bc38 <_vfiprintf_r+0x6c6>
   1bc96:	0fc10c13          	addi	s8,sp,252
   1bc9a:	7782                	c.ldsp	a5,32(sp)
   1bc9c:	00fa7613          	andi	a2,s4,15
   1bca0:	1c7d                	c.addi	s8,-1
   1bca2:	963e                	c.add	a2,a5
   1bca4:	00064603          	lbu	a2,0(a2)
   1bca8:	004a5a13          	srli	s4,s4,0x4
   1bcac:	00cc0023          	sb	a2,0(s8)
   1bcb0:	fe0a15e3          	bne	s4,zero,1bc9a <_vfiprintf_r+0x728>
   1bcb4:	b99d                	c.j	1b92a <_vfiprintf_r+0x3b8>
   1bcb6:	0fc10c13          	addi	s8,sp,252
   1bcba:	c60618e3          	bne	a2,zero,1b92a <_vfiprintf_r+0x3b8>
   1bcbe:	8985                	c.andi	a1,1
   1bcc0:	c60585e3          	beq	a1,zero,1b92a <_vfiprintf_r+0x3b8>
   1bcc4:	03000693          	addi	a3,zero,48
   1bcc8:	0ed10da3          	sb	a3,251(sp)
   1bccc:	be71                	c.j	1b868 <_vfiprintf_r+0x2f6>
   1bcce:	10068263          	beq	a3,zero,1bdd2 <_vfiprintf_r+0x860>
   1bcd2:	08d10c23          	sb	a3,152(sp)
   1bcd6:	06010ba3          	sb	zero,119(sp)
   1bcda:	e452                	c.sdsp	s4,8(sp)
   1bcdc:	b6a9                	c.j	1b826 <_vfiprintf_r+0x2b4>
   1bcde:	0641                	c.addi	a2,16
   1bce0:	006db423          	sd	t1,8(s11)
   1bce4:	e932                	c.sdsp	a2,144(sp)
   1bce6:	c52e                	c.swsp	a1,136(sp)
   1bce8:	00ae5f63          	bge	t3,a0,1bd06 <_vfiprintf_r+0x794>
   1bcec:	0110                	c.addi4spn	a2,sp,128
   1bcee:	85a6                	c.mv	a1,s1
   1bcf0:	854a                	c.mv	a0,s2
   1bcf2:	f4f2                	c.sdsp	t3,104(sp)
   1bcf4:	f09a                	c.sdsp	t1,96(sp)
   1bcf6:	ecc2                	c.sdsp	a6,88(sp)
   1bcf8:	fdcff0ef          	jal	ra,1b4d4 <__sprint_r>
   1bcfc:	e14d                	c.bnez	a0,1bd9e <_vfiprintf_r+0x82c>
   1bcfe:	7e26                	c.ldsp	t3,104(sp)
   1bd00:	7306                	c.ldsp	t1,96(sp)
   1bd02:	6866                	c.ldsp	a6,88(sp)
   1bd04:	88da                	c.mv	a7,s6
   1bd06:	3841                	c.addiw	a6,-16
   1bd08:	8dc6                	c.mv	s11,a7
   1bd0a:	b9e9                	c.j	1b9e4 <_vfiprintf_r+0x472>
   1bd0c:	0641                	c.addi	a2,16
   1bd0e:	006db423          	sd	t1,8(s11)
   1bd12:	e932                	c.sdsp	a2,144(sp)
   1bd14:	c52e                	c.swsp	a1,136(sp)
   1bd16:	00ae5f63          	bge	t3,a0,1bd34 <_vfiprintf_r+0x7c2>
   1bd1a:	0110                	c.addi4spn	a2,sp,128
   1bd1c:	85a6                	c.mv	a1,s1
   1bd1e:	854a                	c.mv	a0,s2
   1bd20:	ecf2                	c.sdsp	t3,88(sp)
   1bd22:	e49a                	c.sdsp	t1,72(sp)
   1bd24:	e0c2                	c.sdsp	a6,64(sp)
   1bd26:	faeff0ef          	jal	ra,1b4d4 <__sprint_r>
   1bd2a:	e935                	c.bnez	a0,1bd9e <_vfiprintf_r+0x82c>
   1bd2c:	6e66                	c.ldsp	t3,88(sp)
   1bd2e:	6326                	c.ldsp	t1,72(sp)
   1bd30:	6806                	c.ldsp	a6,64(sp)
   1bd32:	88da                	c.mv	a7,s6
   1bd34:	3841                	c.addiw	a6,-16
   1bd36:	8dc6                	c.mv	s11,a7
   1bd38:	b3b5                	c.j	1baa4 <_vfiprintf_r+0x532>
   1bd3a:	0641                	c.addi	a2,16
   1bd3c:	011db423          	sd	a7,8(s11)
   1bd40:	e932                	c.sdsp	a2,144(sp)
   1bd42:	c52e                	c.swsp	a1,136(sp)
   1bd44:	00a35d63          	bge	t1,a0,1bd5e <_vfiprintf_r+0x7ec>
   1bd48:	0110                	c.addi4spn	a2,sp,128
   1bd4a:	85a6                	c.mv	a1,s1
   1bd4c:	854a                	c.mv	a0,s2
   1bd4e:	e49a                	c.sdsp	t1,72(sp)
   1bd50:	e0c6                	c.sdsp	a7,64(sp)
   1bd52:	f82ff0ef          	jal	ra,1b4d4 <__sprint_r>
   1bd56:	e521                	c.bnez	a0,1bd9e <_vfiprintf_r+0x82c>
   1bd58:	6326                	c.ldsp	t1,72(sp)
   1bd5a:	6886                	c.ldsp	a7,64(sp)
   1bd5c:	885a                	c.mv	a6,s6
   1bd5e:	3a41                	c.addiw	s4,-16
   1bd60:	8dc2                	c.mv	s11,a6
   1bd62:	b361                	c.j	1baea <_vfiprintf_r+0x578>
   1bd64:	419a843b          	subw	s0,s5,s9
   1bd68:	de805ae3          	bge	zero,s0,1bb5c <_vfiprintf_r+0x5ea>
   1bd6c:	4a41                	c.li	s4,16
   1bd6e:	4d1d                	c.li	s10,7
   1bd70:	46aa                	c.lwsp	a3,136(sp)
   1bd72:	67ca                	c.ldsp	a5,144(sp)
   1bd74:	0016861b          	addiw	a2,a3,1
   1bd78:	86b2                	c.mv	a3,a2
   1bd7a:	028a4963          	blt	s4,s0,1bdac <_vfiprintf_r+0x83a>
   1bd7e:	76c2                	c.ldsp	a3,48(sp)
   1bd80:	e700                	c.sd	s0,8(a4)
   1bd82:	943e                	c.add	s0,a5
   1bd84:	e314                	c.sd	a3,0(a4)
   1bd86:	e922                	c.sdsp	s0,144(sp)
   1bd88:	c532                	c.swsp	a2,136(sp)
   1bd8a:	479d                	c.li	a5,7
   1bd8c:	dcc7d8e3          	bge	a5,a2,1bb5c <_vfiprintf_r+0x5ea>
   1bd90:	0110                	c.addi4spn	a2,sp,128
   1bd92:	85a6                	c.mv	a1,s1
   1bd94:	854a                	c.mv	a0,s2
   1bd96:	f3eff0ef          	jal	ra,1b4d4 <__sprint_r>
   1bd9a:	dc0501e3          	beq	a0,zero,1bb5c <_vfiprintf_r+0x5ea>
   1bd9e:	0104d783          	lhu	a5,16(s1)
   1bda2:	0407f793          	andi	a5,a5,64
   1bda6:	840785e3          	beq	a5,zero,1b5f0 <_vfiprintf_r+0x7e>
   1bdaa:	b885                	c.j	1b61a <_vfiprintf_r+0xa8>
   1bdac:	75c2                	c.ldsp	a1,48(sp)
   1bdae:	07c1                	c.addi	a5,16
   1bdb0:	01473423          	sd	s4,8(a4)
   1bdb4:	e30c                	c.sd	a1,0(a4)
   1bdb6:	e93e                	c.sdsp	a5,144(sp)
   1bdb8:	c536                	c.swsp	a3,136(sp)
   1bdba:	0741                	c.addi	a4,16
   1bdbc:	00cd5963          	bge	s10,a2,1bdce <_vfiprintf_r+0x85c>
   1bdc0:	0110                	c.addi4spn	a2,sp,128
   1bdc2:	85a6                	c.mv	a1,s1
   1bdc4:	854a                	c.mv	a0,s2
   1bdc6:	f0eff0ef          	jal	ra,1b4d4 <__sprint_r>
   1bdca:	f971                	c.bnez	a0,1bd9e <_vfiprintf_r+0x82c>
   1bdcc:	875a                	c.mv	a4,s6
   1bdce:	3441                	c.addiw	s0,-16
   1bdd0:	b745                	c.j	1bd70 <_vfiprintf_r+0x7fe>
   1bdd2:	67ca                	c.ldsp	a5,144(sp)
   1bdd4:	d7e9                	c.beqz	a5,1bd9e <_vfiprintf_r+0x82c>
   1bdd6:	0110                	c.addi4spn	a2,sp,128
   1bdd8:	85a6                	c.mv	a1,s1
   1bdda:	854a                	c.mv	a0,s2
   1bddc:	ef8ff0ef          	jal	ra,1b4d4 <__sprint_r>
   1bde0:	bf7d                	c.j	1bd9e <_vfiprintf_r+0x82c>

000000000001bde2 <vfiprintf>:
   1bde2:	86b2                	c.mv	a3,a2
   1bde4:	862e                	c.mv	a2,a1
   1bde6:	85aa                	c.mv	a1,a0
   1bde8:	8401b503          	ld	a0,-1984(gp) # 2b4c0 <_impure_ptr>
   1bdec:	f86ff06f          	jal	zero,1b572 <_vfiprintf_r>

000000000001bdf0 <__sbprintf>:
   1bdf0:	0105d783          	lhu	a5,16(a1)
   1bdf4:	b3010113          	addi	sp,sp,-1232
   1bdf8:	4c813023          	sd	s0,1216(sp)
   1bdfc:	9bf5                	c.andi	a5,-3
   1bdfe:	00f11823          	sh	a5,16(sp)
   1be02:	0ac5a783          	lw	a5,172(a1)
   1be06:	842e                	c.mv	s0,a1
   1be08:	4a913c23          	sd	s1,1208(sp)
   1be0c:	d73e                	c.swsp	a5,172(sp)
   1be0e:	0125d783          	lhu	a5,18(a1)
   1be12:	4b213823          	sd	s2,1200(sp)
   1be16:	4c113423          	sd	ra,1224(sp)
   1be1a:	00f11923          	sh	a5,18(sp)
   1be1e:	799c                	c.ld	a5,48(a1)
   1be20:	892a                	c.mv	s2,a0
   1be22:	d402                	c.swsp	zero,40(sp)
   1be24:	f83e                	c.sdsp	a5,48(sp)
   1be26:	61bc                	c.ld	a5,64(a1)
   1be28:	858a                	c.mv	a1,sp
   1be2a:	e0be                	c.sdsp	a5,64(sp)
   1be2c:	191c                	c.addi4spn	a5,sp,176
   1be2e:	e03e                	c.sdsp	a5,0(sp)
   1be30:	ec3e                	c.sdsp	a5,24(sp)
   1be32:	40000793          	addi	a5,zero,1024
   1be36:	c63e                	c.swsp	a5,12(sp)
   1be38:	d03e                	c.swsp	a5,32(sp)
   1be3a:	f38ff0ef          	jal	ra,1b572 <_vfiprintf_r>
   1be3e:	84aa                	c.mv	s1,a0
   1be40:	00054863          	blt	a0,zero,1be50 <__sbprintf+0x60>
   1be44:	858a                	c.mv	a1,sp
   1be46:	854a                	c.mv	a0,s2
   1be48:	c28f80ef          	jal	ra,14270 <_fflush_r>
   1be4c:	c111                	c.beqz	a0,1be50 <__sbprintf+0x60>
   1be4e:	54fd                	c.li	s1,-1
   1be50:	01015783          	lhu	a5,16(sp)
   1be54:	0407f793          	andi	a5,a5,64
   1be58:	c799                	c.beqz	a5,1be66 <__sbprintf+0x76>
   1be5a:	01045783          	lhu	a5,16(s0)
   1be5e:	0407e793          	ori	a5,a5,64
   1be62:	00f41823          	sh	a5,16(s0)
   1be66:	4c813083          	ld	ra,1224(sp)
   1be6a:	4c013403          	ld	s0,1216(sp)
   1be6e:	8526                	c.mv	a0,s1
   1be70:	4b013903          	ld	s2,1200(sp)
   1be74:	4b813483          	ld	s1,1208(sp)
   1be78:	4d010113          	addi	sp,sp,1232
   1be7c:	8082                	c.jr	ra

000000000001be7e <_calloc_r>:
   1be7e:	02c585b3          	mul	a1,a1,a2
   1be82:	1141                	c.addi	sp,-16
   1be84:	e022                	c.sdsp	s0,0(sp)
   1be86:	e406                	c.sdsp	ra,8(sp)
   1be88:	96cf90ef          	jal	ra,14ff4 <_malloc_r>
   1be8c:	842a                	c.mv	s0,a0
   1be8e:	cd15                	c.beqz	a0,1beca <_calloc_r+0x4c>
   1be90:	ff853603          	ld	a2,-8(a0)
   1be94:	04800713          	addi	a4,zero,72
   1be98:	9a71                	c.andi	a2,-4
   1be9a:	1661                	c.addi	a2,-8
   1be9c:	04c76b63          	bltu	a4,a2,1bef2 <_calloc_r+0x74>
   1bea0:	02700693          	addi	a3,zero,39
   1bea4:	87aa                	c.mv	a5,a0
   1bea6:	00c6fc63          	bgeu	a3,a2,1bebe <_calloc_r+0x40>
   1beaa:	00053023          	sd	zero,0(a0)
   1beae:	00053423          	sd	zero,8(a0)
   1beb2:	03700793          	addi	a5,zero,55
   1beb6:	00c7ef63          	bltu	a5,a2,1bed4 <_calloc_r+0x56>
   1beba:	01050793          	addi	a5,a0,16
   1bebe:	0007b023          	sd	zero,0(a5)
   1bec2:	0007b423          	sd	zero,8(a5)
   1bec6:	0007b823          	sd	zero,16(a5)
   1beca:	8522                	c.mv	a0,s0
   1becc:	60a2                	c.ldsp	ra,8(sp)
   1bece:	6402                	c.ldsp	s0,0(sp)
   1bed0:	0141                	c.addi	sp,16
   1bed2:	8082                	c.jr	ra
   1bed4:	00053823          	sd	zero,16(a0)
   1bed8:	00053c23          	sd	zero,24(a0)
   1bedc:	02050793          	addi	a5,a0,32
   1bee0:	fce61fe3          	bne	a2,a4,1bebe <_calloc_r+0x40>
   1bee4:	02053023          	sd	zero,32(a0)
   1bee8:	03050793          	addi	a5,a0,48
   1beec:	02053423          	sd	zero,40(a0)
   1bef0:	b7f9                	c.j	1bebe <_calloc_r+0x40>
   1bef2:	4581                	c.li	a1,0
   1bef4:	ef6f90ef          	jal	ra,155ea <memset>
   1bef8:	bfc9                	c.j	1beca <_calloc_r+0x4c>

000000000001befa <__fputwc>:
   1befa:	715d                	c.addi16sp	sp,-80
   1befc:	e0a2                	c.sdsp	s0,64(sp)
   1befe:	fc26                	c.sdsp	s1,56(sp)
   1bf00:	f052                	c.sdsp	s4,32(sp)
   1bf02:	e486                	c.sdsp	ra,72(sp)
   1bf04:	f84a                	c.sdsp	s2,48(sp)
   1bf06:	f44e                	c.sdsp	s3,40(sp)
   1bf08:	ec56                	c.sdsp	s5,24(sp)
   1bf0a:	e85a                	c.sdsp	s6,16(sp)
   1bf0c:	8a2a                	c.mv	s4,a0
   1bf0e:	84ae                	c.mv	s1,a1
   1bf10:	8432                	c.mv	s0,a2
   1bf12:	fa1f80ef          	jal	ra,14eb2 <__locale_mb_cur_max>
   1bf16:	4785                	c.li	a5,1
   1bf18:	02f51c63          	bne	a0,a5,1bf50 <__fputwc+0x56>
   1bf1c:	fff4879b          	addiw	a5,s1,-1
   1bf20:	0fe00713          	addi	a4,zero,254
   1bf24:	02f76663          	bltu	a4,a5,1bf50 <__fputwc+0x56>
   1bf28:	00910423          	sb	s1,8(sp)
   1bf2c:	4985                	c.li	s3,1
   1bf2e:	4901                	c.li	s2,0
   1bf30:	5afd                	c.li	s5,-1
   1bf32:	4b29                	c.li	s6,10
   1bf34:	05391163          	bne	s2,s3,1bf76 <__fputwc+0x7c>
   1bf38:	0004851b          	addiw	a0,s1,0
   1bf3c:	60a6                	c.ldsp	ra,72(sp)
   1bf3e:	6406                	c.ldsp	s0,64(sp)
   1bf40:	74e2                	c.ldsp	s1,56(sp)
   1bf42:	7942                	c.ldsp	s2,48(sp)
   1bf44:	79a2                	c.ldsp	s3,40(sp)
   1bf46:	7a02                	c.ldsp	s4,32(sp)
   1bf48:	6ae2                	c.ldsp	s5,24(sp)
   1bf4a:	6b42                	c.ldsp	s6,16(sp)
   1bf4c:	6161                	c.addi16sp	sp,80
   1bf4e:	8082                	c.jr	ra
   1bf50:	0a440693          	addi	a3,s0,164
   1bf54:	8626                	c.mv	a2,s1
   1bf56:	002c                	c.addi4spn	a1,sp,8
   1bf58:	8552                	c.mv	a0,s4
   1bf5a:	2eb000ef          	jal	ra,1ca44 <_wcrtomb_r>
   1bf5e:	57fd                	c.li	a5,-1
   1bf60:	89aa                	c.mv	s3,a0
   1bf62:	fcf516e3          	bne	a0,a5,1bf2e <__fputwc+0x34>
   1bf66:	01045783          	lhu	a5,16(s0)
   1bf6a:	0407e793          	ori	a5,a5,64
   1bf6e:	00f41823          	sh	a5,16(s0)
   1bf72:	557d                	c.li	a0,-1
   1bf74:	b7e1                	c.j	1bf3c <__fputwc+0x42>
   1bf76:	003c                	c.addi4spn	a5,sp,8
   1bf78:	97ca                	c.add	a5,s2
   1bf7a:	0007c583          	lbu	a1,0(a5)
   1bf7e:	445c                	c.lw	a5,12(s0)
   1bf80:	fff7871b          	addiw	a4,a5,-1
   1bf84:	c458                	c.sw	a4,12(s0)
   1bf86:	00075763          	bge	a4,zero,1bf94 <__fputwc+0x9a>
   1bf8a:	541c                	c.lw	a5,40(s0)
   1bf8c:	00f74c63          	blt	a4,a5,1bfa4 <__fputwc+0xaa>
   1bf90:	01658a63          	beq	a1,s6,1bfa4 <__fputwc+0xaa>
   1bf94:	601c                	c.ld	a5,0(s0)
   1bf96:	00178713          	addi	a4,a5,1
   1bf9a:	e018                	c.sd	a4,0(s0)
   1bf9c:	00b78023          	sb	a1,0(a5)
   1bfa0:	0905                	c.addi	s2,1
   1bfa2:	bf49                	c.j	1bf34 <__fputwc+0x3a>
   1bfa4:	8622                	c.mv	a2,s0
   1bfa6:	8552                	c.mv	a0,s4
   1bfa8:	1d5000ef          	jal	ra,1c97c <__swbuf_r>
   1bfac:	ff551ae3          	bne	a0,s5,1bfa0 <__fputwc+0xa6>
   1bfb0:	b7c9                	c.j	1bf72 <__fputwc+0x78>

000000000001bfb2 <_fputwc_r>:
   1bfb2:	01061783          	lh	a5,16(a2)
   1bfb6:	03279713          	slli	a4,a5,0x32
   1bfba:	00074c63          	blt	a4,zero,1bfd2 <_fputwc_r+0x20>
   1bfbe:	0ac62703          	lw	a4,172(a2)
   1bfc2:	6689                	c.lui	a3,0x2
   1bfc4:	8fd5                	c.or	a5,a3
   1bfc6:	00f61823          	sh	a5,16(a2)
   1bfca:	6789                	c.lui	a5,0x2
   1bfcc:	8fd9                	c.or	a5,a4
   1bfce:	0af62623          	sw	a5,172(a2)
   1bfd2:	f29ff06f          	jal	zero,1befa <__fputwc>

000000000001bfd6 <fputwc>:
   1bfd6:	7179                	c.addi16sp	sp,-48
   1bfd8:	f022                	c.sdsp	s0,32(sp)
   1bfda:	8401b403          	ld	s0,-1984(gp) # 2b4c0 <_impure_ptr>
   1bfde:	ec26                	c.sdsp	s1,24(sp)
   1bfe0:	f406                	c.sdsp	ra,40(sp)
   1bfe2:	84aa                	c.mv	s1,a0
   1bfe4:	862e                	c.mv	a2,a1
   1bfe6:	c801                	c.beqz	s0,1bff6 <fputwc+0x20>
   1bfe8:	483c                	c.lw	a5,80(s0)
   1bfea:	e791                	c.bnez	a5,1bff6 <fputwc+0x20>
   1bfec:	8522                	c.mv	a0,s0
   1bfee:	e42e                	c.sdsp	a1,8(sp)
   1bff0:	bbef80ef          	jal	ra,143ae <__sinit>
   1bff4:	6622                	c.ldsp	a2,8(sp)
   1bff6:	8522                	c.mv	a0,s0
   1bff8:	7402                	c.ldsp	s0,32(sp)
   1bffa:	70a2                	c.ldsp	ra,40(sp)
   1bffc:	85a6                	c.mv	a1,s1
   1bffe:	64e2                	c.ldsp	s1,24(sp)
   1c000:	6145                	c.addi16sp	sp,48
   1c002:	fb1ff06f          	jal	zero,1bfb2 <_fputwc_r>

000000000001c006 <__ssprint_r>:
   1c006:	6a1c                	c.ld	a5,16(a2)
   1c008:	711d                	c.addi16sp	sp,-96
   1c00a:	fc4e                	c.sdsp	s3,56(sp)
   1c00c:	ec86                	c.sdsp	ra,88(sp)
   1c00e:	e8a2                	c.sdsp	s0,80(sp)
   1c010:	e4a6                	c.sdsp	s1,72(sp)
   1c012:	e0ca                	c.sdsp	s2,64(sp)
   1c014:	f852                	c.sdsp	s4,48(sp)
   1c016:	f456                	c.sdsp	s5,40(sp)
   1c018:	f05a                	c.sdsp	s6,32(sp)
   1c01a:	ec5e                	c.sdsp	s7,24(sp)
   1c01c:	e862                	c.sdsp	s8,16(sp)
   1c01e:	e466                	c.sdsp	s9,8(sp)
   1c020:	e06a                	c.sdsp	s10,0(sp)
   1c022:	89b2                	c.mv	s3,a2
   1c024:	c7fd                	c.beqz	a5,1c112 <__ssprint_r+0x10c>
   1c026:	00063b03          	ld	s6,0(a2)
   1c02a:	8a2a                	c.mv	s4,a0
   1c02c:	842e                	c.mv	s0,a1
   1c02e:	4a81                	c.li	s5,0
   1c030:	4901                	c.li	s2,0
   1c032:	4b8d                	c.li	s7,3
   1c034:	4c09                	c.li	s8,2
   1c036:	06090663          	beq	s2,zero,1c0a2 <__ssprint_r+0x9c>
   1c03a:	00c42d03          	lw	s10,12(s0)
   1c03e:	09a96f63          	bltu	s2,s10,1c0dc <__ssprint_r+0xd6>
   1c042:	01045703          	lhu	a4,16(s0)
   1c046:	48077793          	andi	a5,a4,1152
   1c04a:	cbc9                	c.beqz	a5,1c0dc <__ssprint_r+0xd6>
   1c04c:	5004                	c.lw	s1,32(s0)
   1c04e:	6c0c                	c.ld	a1,24(s0)
   1c050:	601c                	c.ld	a5,0(s0)
   1c052:	029b84bb          	mulw	s1,s7,s1
   1c056:	8f8d                	c.sub	a5,a1
   1c058:	00078c9b          	addiw	s9,a5,0
   1c05c:	001c8693          	addi	a3,s9,1
   1c060:	96ca                	c.add	a3,s2
   1c062:	0384c4bb          	divw	s1,s1,s8
   1c066:	00d4f663          	bgeu	s1,a3,1c072 <__ssprint_r+0x6c>
   1c06a:	0017849b          	addiw	s1,a5,1
   1c06e:	012484bb          	addw	s1,s1,s2
   1c072:	40077713          	andi	a4,a4,1024
   1c076:	cf5d                	c.beqz	a4,1c134 <__ssprint_r+0x12e>
   1c078:	85a6                	c.mv	a1,s1
   1c07a:	8552                	c.mv	a0,s4
   1c07c:	f79f80ef          	jal	ra,14ff4 <_malloc_r>
   1c080:	8d2a                	c.mv	s10,a0
   1c082:	e515                	c.bnez	a0,1c0ae <__ssprint_r+0xa8>
   1c084:	47b1                	c.li	a5,12
   1c086:	00fa2023          	sw	a5,0(s4)
   1c08a:	01045783          	lhu	a5,16(s0)
   1c08e:	557d                	c.li	a0,-1
   1c090:	0407e793          	ori	a5,a5,64
   1c094:	00f41823          	sh	a5,16(s0)
   1c098:	0009b823          	sd	zero,16(s3)
   1c09c:	0009a423          	sw	zero,8(s3)
   1c0a0:	a8a5                	c.j	1c118 <__ssprint_r+0x112>
   1c0a2:	000b3a83          	ld	s5,0(s6)
   1c0a6:	008b3903          	ld	s2,8(s6)
   1c0aa:	0b41                	c.addi	s6,16
   1c0ac:	b769                	c.j	1c036 <__ssprint_r+0x30>
   1c0ae:	6c0c                	c.ld	a1,24(s0)
   1c0b0:	8666                	c.mv	a2,s9
   1c0b2:	c7af90ef          	jal	ra,1552c <memcpy>
   1c0b6:	01045783          	lhu	a5,16(s0)
   1c0ba:	b7f7f793          	andi	a5,a5,-1153
   1c0be:	0807e793          	ori	a5,a5,128
   1c0c2:	00f41823          	sh	a5,16(s0)
   1c0c6:	01a43c23          	sd	s10,24(s0)
   1c0ca:	d004                	c.sw	s1,32(s0)
   1c0cc:	9d66                	c.add	s10,s9
   1c0ce:	419484bb          	subw	s1,s1,s9
   1c0d2:	01a43023          	sd	s10,0(s0)
   1c0d6:	c444                	c.sw	s1,12(s0)
   1c0d8:	00090d1b          	addiw	s10,s2,0
   1c0dc:	0009049b          	addiw	s1,s2,0
   1c0e0:	01a97363          	bgeu	s2,s10,1c0e6 <__ssprint_r+0xe0>
   1c0e4:	8d26                	c.mv	s10,s1
   1c0e6:	6008                	c.ld	a0,0(s0)
   1c0e8:	866a                	c.mv	a2,s10
   1c0ea:	85d6                	c.mv	a1,s5
   1c0ec:	ec9fc0ef          	jal	ra,18fb4 <memmove>
   1c0f0:	445c                	c.lw	a5,12(s0)
   1c0f2:	9aa6                	c.add	s5,s1
   1c0f4:	40990933          	sub	s2,s2,s1
   1c0f8:	41a787bb          	subw	a5,a5,s10
   1c0fc:	c45c                	c.sw	a5,12(s0)
   1c0fe:	601c                	c.ld	a5,0(s0)
   1c100:	9d3e                	c.add	s10,a5
   1c102:	0109b783          	ld	a5,16(s3)
   1c106:	01a43023          	sd	s10,0(s0)
   1c10a:	8f85                	c.sub	a5,s1
   1c10c:	00f9b823          	sd	a5,16(s3)
   1c110:	f39d                	c.bnez	a5,1c036 <__ssprint_r+0x30>
   1c112:	0009a423          	sw	zero,8(s3)
   1c116:	4501                	c.li	a0,0
   1c118:	60e6                	c.ldsp	ra,88(sp)
   1c11a:	6446                	c.ldsp	s0,80(sp)
   1c11c:	64a6                	c.ldsp	s1,72(sp)
   1c11e:	6906                	c.ldsp	s2,64(sp)
   1c120:	79e2                	c.ldsp	s3,56(sp)
   1c122:	7a42                	c.ldsp	s4,48(sp)
   1c124:	7aa2                	c.ldsp	s5,40(sp)
   1c126:	7b02                	c.ldsp	s6,32(sp)
   1c128:	6be2                	c.ldsp	s7,24(sp)
   1c12a:	6c42                	c.ldsp	s8,16(sp)
   1c12c:	6ca2                	c.ldsp	s9,8(sp)
   1c12e:	6d02                	c.ldsp	s10,0(sp)
   1c130:	6125                	c.addi16sp	sp,96
   1c132:	8082                	c.jr	ra
   1c134:	8626                	c.mv	a2,s1
   1c136:	8552                	c.mv	a0,s4
   1c138:	907fd0ef          	jal	ra,19a3e <_realloc_r>
   1c13c:	8d2a                	c.mv	s10,a0
   1c13e:	f541                	c.bnez	a0,1c0c6 <__ssprint_r+0xc0>
   1c140:	6c0c                	c.ld	a1,24(s0)
   1c142:	8552                	c.mv	a0,s4
   1c144:	e00f80ef          	jal	ra,14744 <_free_r>
   1c148:	bf35                	c.j	1c084 <__ssprint_r+0x7e>

000000000001c14a <_svfiprintf_r>:
   1c14a:	0105d783          	lhu	a5,16(a1)
   1c14e:	7141                	c.addi16sp	sp,-496
   1c150:	efa6                	c.sdsp	s1,472(sp)
   1c152:	ebca                	c.sdsp	s2,464(sp)
   1c154:	e7ce                	c.sdsp	s3,456(sp)
   1c156:	ff56                	c.sdsp	s5,440(sp)
   1c158:	f786                	c.sdsp	ra,488(sp)
   1c15a:	f3a2                	c.sdsp	s0,480(sp)
   1c15c:	e3d2                	c.sdsp	s4,448(sp)
   1c15e:	fb5a                	c.sdsp	s6,432(sp)
   1c160:	f75e                	c.sdsp	s7,424(sp)
   1c162:	f362                	c.sdsp	s8,416(sp)
   1c164:	ef66                	c.sdsp	s9,408(sp)
   1c166:	eb6a                	c.sdsp	s10,400(sp)
   1c168:	e76e                	c.sdsp	s11,392(sp)
   1c16a:	0807f793          	andi	a5,a5,128
   1c16e:	892a                	c.mv	s2,a0
   1c170:	84ae                	c.mv	s1,a1
   1c172:	8ab2                	c.mv	s5,a2
   1c174:	89b6                	c.mv	s3,a3
   1c176:	c395                	c.beqz	a5,1c19a <_svfiprintf_r+0x50>
   1c178:	6d9c                	c.ld	a5,24(a1)
   1c17a:	e385                	c.bnez	a5,1c19a <_svfiprintf_r+0x50>
   1c17c:	04000593          	addi	a1,zero,64
   1c180:	e75f80ef          	jal	ra,14ff4 <_malloc_r>
   1c184:	e088                	c.sd	a0,0(s1)
   1c186:	ec88                	c.sd	a0,24(s1)
   1c188:	e511                	c.bnez	a0,1c194 <_svfiprintf_r+0x4a>
   1c18a:	47b1                	c.li	a5,12
   1c18c:	00f92023          	sw	a5,0(s2)
   1c190:	5bfd                	c.li	s7,-1
   1c192:	af51                	c.j	1c926 <_svfiprintf_r+0x7dc>
   1c194:	04000793          	addi	a5,zero,64
   1c198:	d09c                	c.sw	a5,32(s1)
   1c19a:	000297b7          	lui	a5,0x29
   1c19e:	09878793          	addi	a5,a5,152 # 29098 <zeroes.4417+0x10>
   1c1a2:	e8be                	c.sdsp	a5,80(sp)
   1c1a4:	000297b7          	lui	a5,0x29
   1c1a8:	21878793          	addi	a5,a5,536 # 29218 <zeroes.4403>
   1c1ac:	f43e                	c.sdsp	a5,40(sp)
   1c1ae:	000297b7          	lui	a5,0x29
   1c1b2:	10010b13          	addi	s6,sp,256
   1c1b6:	20878793          	addi	a5,a5,520 # 29208 <blanks.4402>
   1c1ba:	e15a                	c.sdsp	s6,128(sp)
   1c1bc:	e902                	c.sdsp	zero,144(sp)
   1c1be:	c502                	c.swsp	zero,136(sp)
   1c1c0:	8dda                	c.mv	s11,s6
   1c1c2:	f002                	c.sdsp	zero,32(sp)
   1c1c4:	e802                	c.sdsp	zero,16(sp)
   1c1c6:	ec02                	c.sdsp	zero,24(sp)
   1c1c8:	fc02                	c.sdsp	zero,56(sp)
   1c1ca:	4b81                	c.li	s7,0
   1c1cc:	f83e                	c.sdsp	a5,48(sp)
   1c1ce:	8456                	c.mv	s0,s5
   1c1d0:	02500693          	addi	a3,zero,37
   1c1d4:	00044783          	lbu	a5,0(s0)
   1c1d8:	c399                	c.beqz	a5,1c1de <_svfiprintf_r+0x94>
   1c1da:	06d79e63          	bne	a5,a3,1c256 <_svfiprintf_r+0x10c>
   1c1de:	41540a3b          	subw	s4,s0,s5
   1c1e2:	020a0b63          	beq	s4,zero,1c218 <_svfiprintf_r+0xce>
   1c1e6:	67ca                	c.ldsp	a5,144(sp)
   1c1e8:	015db023          	sd	s5,0(s11)
   1c1ec:	014db423          	sd	s4,8(s11)
   1c1f0:	97d2                	c.add	a5,s4
   1c1f2:	e93e                	c.sdsp	a5,144(sp)
   1c1f4:	47aa                	c.lwsp	a5,136(sp)
   1c1f6:	0dc1                	c.addi	s11,16
   1c1f8:	0017869b          	addiw	a3,a5,1
   1c1fc:	c536                	c.swsp	a3,136(sp)
   1c1fe:	479d                	c.li	a5,7
   1c200:	00d7da63          	bge	a5,a3,1c214 <_svfiprintf_r+0xca>
   1c204:	0110                	c.addi4spn	a2,sp,128
   1c206:	85a6                	c.mv	a1,s1
   1c208:	854a                	c.mv	a0,s2
   1c20a:	dfdff0ef          	jal	ra,1c006 <__ssprint_r>
   1c20e:	70051663          	bne	a0,zero,1c91a <_svfiprintf_r+0x7d0>
   1c212:	8dda                	c.mv	s11,s6
   1c214:	014b8bbb          	addw	s7,s7,s4
   1c218:	00044783          	lbu	a5,0(s0)
   1c21c:	74078863          	beq	a5,zero,1c96c <_svfiprintf_r+0x822>
   1c220:	00140693          	addi	a3,s0,1
   1c224:	06010ba3          	sb	zero,119(sp)
   1c228:	547d                	c.li	s0,-1
   1c22a:	4a01                	c.li	s4,0
   1c22c:	4d01                	c.li	s10,0
   1c22e:	05a00c93          	addi	s9,zero,90
   1c232:	4c29                	c.li	s8,10
   1c234:	00168a93          	addi	s5,a3,1 # 2001 <main-0xe0af>
   1c238:	0006c683          	lbu	a3,0(a3)
   1c23c:	4525                	c.li	a0,9
   1c23e:	02a00813          	addi	a6,zero,42
   1c242:	fe06861b          	addiw	a2,a3,-32
   1c246:	60cce263          	bltu	s9,a2,1c84a <_svfiprintf_r+0x700>
   1c24a:	67c6                	c.ldsp	a5,80(sp)
   1c24c:	1602                	c.slli	a2,0x20
   1c24e:	8279                	c.srli	a2,0x1e
   1c250:	963e                	c.add	a2,a5
   1c252:	4210                	c.lw	a2,0(a2)
   1c254:	8602                	c.jr	a2
   1c256:	0405                	c.addi	s0,1
   1c258:	bfb5                	c.j	1c1d4 <_svfiprintf_r+0x8a>
   1c25a:	00029637          	lui	a2,0x29
   1c25e:	88860793          	addi	a5,a2,-1912 # 28888 <zeroes.4441+0x80>
   1c262:	f03e                	c.sdsp	a5,32(sp)
   1c264:	00898793          	addi	a5,s3,8
   1c268:	e43e                	c.sdsp	a5,8(sp)
   1c26a:	020d7613          	andi	a2,s10,32
   1c26e:	4e060663          	beq	a2,zero,1c75a <_svfiprintf_r+0x610>
   1c272:	0009b983          	ld	s3,0(s3)
   1c276:	001d7613          	andi	a2,s10,1
   1c27a:	ca19                	c.beqz	a2,1c290 <_svfiprintf_r+0x146>
   1c27c:	00098a63          	beq	s3,zero,1c290 <_svfiprintf_r+0x146>
   1c280:	03000613          	addi	a2,zero,48
   1c284:	06c10c23          	sb	a2,120(sp)
   1c288:	06d10ca3          	sb	a3,121(sp)
   1c28c:	002d6d13          	ori	s10,s10,2
   1c290:	bffd7d13          	andi	s10,s10,-1025
   1c294:	a4ad                	c.j	1c4fe <_svfiprintf_r+0x3b4>
   1c296:	854a                	c.mv	a0,s2
   1c298:	ca7fc0ef          	jal	ra,18f3e <_localeconv_r>
   1c29c:	651c                	c.ld	a5,8(a0)
   1c29e:	853e                	c.mv	a0,a5
   1c2a0:	fc3e                	c.sdsp	a5,56(sp)
   1c2a2:	8fbf90ef          	jal	ra,15b9c <strlen>
   1c2a6:	ec2a                	c.sdsp	a0,24(sp)
   1c2a8:	854a                	c.mv	a0,s2
   1c2aa:	c95fc0ef          	jal	ra,18f3e <_localeconv_r>
   1c2ae:	691c                	c.ld	a5,16(a0)
   1c2b0:	e83e                	c.sdsp	a5,16(sp)
   1c2b2:	67e2                	c.ldsp	a5,24(sp)
   1c2b4:	cb81                	c.beqz	a5,1c2c4 <_svfiprintf_r+0x17a>
   1c2b6:	67c2                	c.ldsp	a5,16(sp)
   1c2b8:	c791                	c.beqz	a5,1c2c4 <_svfiprintf_r+0x17a>
   1c2ba:	0007c683          	lbu	a3,0(a5)
   1c2be:	c299                	c.beqz	a3,1c2c4 <_svfiprintf_r+0x17a>
   1c2c0:	400d6d13          	ori	s10,s10,1024
   1c2c4:	86d6                	c.mv	a3,s5
   1c2c6:	b7bd                	c.j	1c234 <_svfiprintf_r+0xea>
   1c2c8:	07714683          	lbu	a3,119(sp)
   1c2cc:	fee5                	c.bnez	a3,1c2c4 <_svfiprintf_r+0x17a>
   1c2ce:	02000693          	addi	a3,zero,32
   1c2d2:	06d10ba3          	sb	a3,119(sp)
   1c2d6:	b7fd                	c.j	1c2c4 <_svfiprintf_r+0x17a>
   1c2d8:	001d6d13          	ori	s10,s10,1
   1c2dc:	b7e5                	c.j	1c2c4 <_svfiprintf_r+0x17a>
   1c2de:	0009aa03          	lw	s4,0(s3)
   1c2e2:	09a1                	c.addi	s3,8
   1c2e4:	fe0a50e3          	bge	s4,zero,1c2c4 <_svfiprintf_r+0x17a>
   1c2e8:	41400a3b          	subw	s4,zero,s4
   1c2ec:	004d6d13          	ori	s10,s10,4
   1c2f0:	bfd1                	c.j	1c2c4 <_svfiprintf_r+0x17a>
   1c2f2:	02b00693          	addi	a3,zero,43
   1c2f6:	bff1                	c.j	1c2d2 <_svfiprintf_r+0x188>
   1c2f8:	000ac683          	lbu	a3,0(s5)
   1c2fc:	001a8613          	addi	a2,s5,1
   1c300:	03069963          	bne	a3,a6,1c332 <_svfiprintf_r+0x1e8>
   1c304:	0009a403          	lw	s0,0(s3)
   1c308:	00898693          	addi	a3,s3,8
   1c30c:	00045363          	bge	s0,zero,1c312 <_svfiprintf_r+0x1c8>
   1c310:	547d                	c.li	s0,-1
   1c312:	2401                	c.addiw	s0,0
   1c314:	89b6                	c.mv	s3,a3
   1c316:	8ab2                	c.mv	s5,a2
   1c318:	b775                	c.j	1c2c4 <_svfiprintf_r+0x17a>
   1c31a:	028c043b          	mulw	s0,s8,s0
   1c31e:	0605                	c.addi	a2,1
   1c320:	fff64683          	lbu	a3,-1(a2)
   1c324:	9c2d                	c.addw	s0,a1
   1c326:	fd06859b          	addiw	a1,a3,-48
   1c32a:	feb578e3          	bgeu	a0,a1,1c31a <_svfiprintf_r+0x1d0>
   1c32e:	8ab2                	c.mv	s5,a2
   1c330:	bf09                	c.j	1c242 <_svfiprintf_r+0xf8>
   1c332:	4401                	c.li	s0,0
   1c334:	bfcd                	c.j	1c326 <_svfiprintf_r+0x1dc>
   1c336:	080d6d13          	ori	s10,s10,128
   1c33a:	b769                	c.j	1c2c4 <_svfiprintf_r+0x17a>
   1c33c:	8656                	c.mv	a2,s5
   1c33e:	4a01                	c.li	s4,0
   1c340:	034c0a3b          	mulw	s4,s8,s4
   1c344:	fd06869b          	addiw	a3,a3,-48
   1c348:	0605                	c.addi	a2,1
   1c34a:	01468a3b          	addw	s4,a3,s4
   1c34e:	fff64683          	lbu	a3,-1(a2)
   1c352:	fd06859b          	addiw	a1,a3,-48
   1c356:	feb575e3          	bgeu	a0,a1,1c340 <_svfiprintf_r+0x1f6>
   1c35a:	bfd1                	c.j	1c32e <_svfiprintf_r+0x1e4>
   1c35c:	000ac603          	lbu	a2,0(s5)
   1c360:	06800693          	addi	a3,zero,104
   1c364:	00d61663          	bne	a2,a3,1c370 <_svfiprintf_r+0x226>
   1c368:	0a85                	c.addi	s5,1
   1c36a:	200d6d13          	ori	s10,s10,512
   1c36e:	bf99                	c.j	1c2c4 <_svfiprintf_r+0x17a>
   1c370:	040d6d13          	ori	s10,s10,64
   1c374:	bf81                	c.j	1c2c4 <_svfiprintf_r+0x17a>
   1c376:	000ac603          	lbu	a2,0(s5)
   1c37a:	06c00693          	addi	a3,zero,108
   1c37e:	00d61663          	bne	a2,a3,1c38a <_svfiprintf_r+0x240>
   1c382:	0a85                	c.addi	s5,1
   1c384:	020d6d13          	ori	s10,s10,32
   1c388:	bf35                	c.j	1c2c4 <_svfiprintf_r+0x17a>
   1c38a:	010d6d13          	ori	s10,s10,16
   1c38e:	bf1d                	c.j	1c2c4 <_svfiprintf_r+0x17a>
   1c390:	0009a683          	lw	a3,0(s3)
   1c394:	00898793          	addi	a5,s3,8
   1c398:	e43e                	c.sdsp	a5,8(sp)
   1c39a:	08d10c23          	sb	a3,152(sp)
   1c39e:	06010ba3          	sb	zero,119(sp)
   1c3a2:	4405                	c.li	s0,1
   1c3a4:	4981                	c.li	s3,0
   1c3a6:	09810c13          	addi	s8,sp,152
   1c3aa:	aabd                	c.j	1c528 <_svfiprintf_r+0x3de>
   1c3ac:	010d6d13          	ori	s10,s10,16
   1c3b0:	00898793          	addi	a5,s3,8
   1c3b4:	e43e                	c.sdsp	a5,8(sp)
   1c3b6:	020d7693          	andi	a3,s10,32
   1c3ba:	ca85                	c.beqz	a3,1c3ea <_svfiprintf_r+0x2a0>
   1c3bc:	0009b983          	ld	s3,0(s3)
   1c3c0:	0009d863          	bge	s3,zero,1c3d0 <_svfiprintf_r+0x286>
   1c3c4:	02d00693          	addi	a3,zero,45
   1c3c8:	413009b3          	sub	s3,zero,s3
   1c3cc:	06d10ba3          	sb	a3,119(sp)
   1c3d0:	56fd                	c.li	a3,-1
   1c3d2:	3ad41b63          	bne	s0,a3,1c788 <_svfiprintf_r+0x63e>
   1c3d6:	46a5                	c.li	a3,9
   1c3d8:	3d36e563          	bltu	a3,s3,1c7a2 <_svfiprintf_r+0x658>
   1c3dc:	0309899b          	addiw	s3,s3,48
   1c3e0:	0f310da3          	sb	s3,251(sp)
   1c3e4:	0fb10c13          	addi	s8,sp,251
   1c3e8:	a87d                	c.j	1c4a6 <_svfiprintf_r+0x35c>
   1c3ea:	010d7693          	andi	a3,s10,16
   1c3ee:	f6f9                	c.bnez	a3,1c3bc <_svfiprintf_r+0x272>
   1c3f0:	040d7693          	andi	a3,s10,64
   1c3f4:	c681                	c.beqz	a3,1c3fc <_svfiprintf_r+0x2b2>
   1c3f6:	00099983          	lh	s3,0(s3)
   1c3fa:	b7d9                	c.j	1c3c0 <_svfiprintf_r+0x276>
   1c3fc:	200d7693          	andi	a3,s10,512
   1c400:	c681                	c.beqz	a3,1c408 <_svfiprintf_r+0x2be>
   1c402:	00098983          	lb	s3,0(s3)
   1c406:	bf6d                	c.j	1c3c0 <_svfiprintf_r+0x276>
   1c408:	0009a983          	lw	s3,0(s3)
   1c40c:	bf55                	c.j	1c3c0 <_svfiprintf_r+0x276>
   1c40e:	020d7613          	andi	a2,s10,32
   1c412:	0009b683          	ld	a3,0(s3)
   1c416:	09a1                	c.addi	s3,8
   1c418:	c601                	c.beqz	a2,1c420 <_svfiprintf_r+0x2d6>
   1c41a:	0176b023          	sd	s7,0(a3)
   1c41e:	bb45                	c.j	1c1ce <_svfiprintf_r+0x84>
   1c420:	010d7613          	andi	a2,s10,16
   1c424:	fa7d                	c.bnez	a2,1c41a <_svfiprintf_r+0x2d0>
   1c426:	040d7613          	andi	a2,s10,64
   1c42a:	c601                	c.beqz	a2,1c432 <_svfiprintf_r+0x2e8>
   1c42c:	01769023          	sh	s7,0(a3)
   1c430:	bb79                	c.j	1c1ce <_svfiprintf_r+0x84>
   1c432:	200d7793          	andi	a5,s10,512
   1c436:	c781                	c.beqz	a5,1c43e <_svfiprintf_r+0x2f4>
   1c438:	01768023          	sb	s7,0(a3)
   1c43c:	bb49                	c.j	1c1ce <_svfiprintf_r+0x84>
   1c43e:	0176a023          	sw	s7,0(a3)
   1c442:	b371                	c.j	1c1ce <_svfiprintf_r+0x84>
   1c444:	010d6d13          	ori	s10,s10,16
   1c448:	00898793          	addi	a5,s3,8
   1c44c:	e43e                	c.sdsp	a5,8(sp)
   1c44e:	020d7693          	andi	a3,s10,32
   1c452:	ceb9                	c.beqz	a3,1c4b0 <_svfiprintf_r+0x366>
   1c454:	0009b983          	ld	s3,0(s3)
   1c458:	bffd7d13          	andi	s10,s10,-1025
   1c45c:	4601                	c.li	a2,0
   1c45e:	06010ba3          	sb	zero,119(sp)
   1c462:	56fd                	c.li	a3,-1
   1c464:	85ea                	c.mv	a1,s10
   1c466:	32d41363          	bne	s0,a3,1c78c <_svfiprintf_r+0x642>
   1c46a:	4685                	c.li	a3,1
   1c46c:	f6d605e3          	beq	a2,a3,1c3d6 <_svfiprintf_r+0x28c>
   1c470:	4689                	c.li	a3,2
   1c472:	3ad60063          	beq	a2,a3,1c812 <_svfiprintf_r+0x6c8>
   1c476:	19f0                	c.addi4spn	a2,sp,252
   1c478:	0079f593          	andi	a1,s3,7
   1c47c:	03058593          	addi	a1,a1,48
   1c480:	feb60fa3          	sb	a1,-1(a2)
   1c484:	0039d993          	srli	s3,s3,0x3
   1c488:	fff60c13          	addi	s8,a2,-1
   1c48c:	30099963          	bne	s3,zero,1c79e <_svfiprintf_r+0x654>
   1c490:	001d7513          	andi	a0,s10,1
   1c494:	c909                	c.beqz	a0,1c4a6 <_svfiprintf_r+0x35c>
   1c496:	03000513          	addi	a0,zero,48
   1c49a:	00a58663          	beq	a1,a0,1c4a6 <_svfiprintf_r+0x35c>
   1c49e:	feac0fa3          	sb	a0,-1(s8)
   1c4a2:	ffe60c13          	addi	s8,a2,-2
   1c4a6:	89a2                	c.mv	s3,s0
   1c4a8:	19e0                	c.addi4spn	s0,sp,252
   1c4aa:	4184043b          	subw	s0,s0,s8
   1c4ae:	a8ad                	c.j	1c528 <_svfiprintf_r+0x3de>
   1c4b0:	010d7693          	andi	a3,s10,16
   1c4b4:	f2c5                	c.bnez	a3,1c454 <_svfiprintf_r+0x30a>
   1c4b6:	040d7693          	andi	a3,s10,64
   1c4ba:	0009a983          	lw	s3,0(s3)
   1c4be:	c689                	c.beqz	a3,1c4c8 <_svfiprintf_r+0x37e>
   1c4c0:	19c2                	c.slli	s3,0x30
   1c4c2:	0309d993          	srli	s3,s3,0x30
   1c4c6:	bf49                	c.j	1c458 <_svfiprintf_r+0x30e>
   1c4c8:	200d7693          	andi	a3,s10,512
   1c4cc:	c681                	c.beqz	a3,1c4d4 <_svfiprintf_r+0x38a>
   1c4ce:	0ff9f993          	andi	s3,s3,255
   1c4d2:	b759                	c.j	1c458 <_svfiprintf_r+0x30e>
   1c4d4:	1982                	c.slli	s3,0x20
   1c4d6:	0209d993          	srli	s3,s3,0x20
   1c4da:	bfbd                	c.j	1c458 <_svfiprintf_r+0x30e>
   1c4dc:	76e1                	c.lui	a3,0xffff8
   1c4de:	8306c693          	xori	a3,a3,-2000
   1c4e2:	00898793          	addi	a5,s3,8
   1c4e6:	06d11c23          	sh	a3,120(sp)
   1c4ea:	0009b983          	ld	s3,0(s3)
   1c4ee:	000296b7          	lui	a3,0x29
   1c4f2:	e43e                	c.sdsp	a5,8(sp)
   1c4f4:	87068793          	addi	a5,a3,-1936 # 28870 <zeroes.4441+0x68>
   1c4f8:	002d6d13          	ori	s10,s10,2
   1c4fc:	f03e                	c.sdsp	a5,32(sp)
   1c4fe:	4609                	c.li	a2,2
   1c500:	bfb9                	c.j	1c45e <_svfiprintf_r+0x314>
   1c502:	00898793          	addi	a5,s3,8
   1c506:	e43e                	c.sdsp	a5,8(sp)
   1c508:	06010ba3          	sb	zero,119(sp)
   1c50c:	567d                	c.li	a2,-1
   1c50e:	0009bc03          	ld	s8,0(s3)
   1c512:	1ec40663          	beq	s0,a2,1c6fe <_svfiprintf_r+0x5b4>
   1c516:	8622                	c.mv	a2,s0
   1c518:	4581                	c.li	a1,0
   1c51a:	8562                	c.mv	a0,s8
   1c51c:	a7ffc0ef          	jal	ra,18f9a <memchr>
   1c520:	4981                	c.li	s3,0
   1c522:	c119                	c.beqz	a0,1c528 <_svfiprintf_r+0x3de>
   1c524:	4185043b          	subw	s0,a0,s8
   1c528:	864e                	c.mv	a2,s3
   1c52a:	0089d363          	bge	s3,s0,1c530 <_svfiprintf_r+0x3e6>
   1c52e:	8622                	c.mv	a2,s0
   1c530:	07714583          	lbu	a1,119(sp)
   1c534:	00060c9b          	addiw	s9,a2,0
   1c538:	c199                	c.beqz	a1,1c53e <_svfiprintf_r+0x3f4>
   1c53a:	00160c9b          	addiw	s9,a2,1
   1c53e:	002d7613          	andi	a2,s10,2
   1c542:	0006079b          	addiw	a5,a2,0
   1c546:	e0be                	c.sdsp	a5,64(sp)
   1c548:	c391                	c.beqz	a5,1c54c <_svfiprintf_r+0x402>
   1c54a:	2c89                	c.addiw	s9,2
   1c54c:	084d7793          	andi	a5,s10,132
   1c550:	e4be                	c.sdsp	a5,72(sp)
   1c552:	e7a1                	c.bnez	a5,1c59a <_svfiprintf_r+0x450>
   1c554:	419a083b          	subw	a6,s4,s9
   1c558:	05005163          	bge	zero,a6,1c59a <_svfiprintf_r+0x450>
   1c55c:	4341                	c.li	t1,16
   1c55e:	4e1d                	c.li	t3,7
   1c560:	45aa                	c.lwsp	a1,136(sp)
   1c562:	77c2                	c.ldsp	a5,48(sp)
   1c564:	664a                	c.ldsp	a2,144(sp)
   1c566:	0015851b          	addiw	a0,a1,1
   1c56a:	00fdb023          	sd	a5,0(s11)
   1c56e:	85aa                	c.mv	a1,a0
   1c570:	010d8893          	addi	a7,s11,16
   1c574:	2f034363          	blt	t1,a6,1c85a <_svfiprintf_r+0x710>
   1c578:	010db423          	sd	a6,8(s11)
   1c57c:	9832                	c.add	a6,a2
   1c57e:	e942                	c.sdsp	a6,144(sp)
   1c580:	c52a                	c.swsp	a0,136(sp)
   1c582:	461d                	c.li	a2,7
   1c584:	8dc6                	c.mv	s11,a7
   1c586:	00a65a63          	bge	a2,a0,1c59a <_svfiprintf_r+0x450>
   1c58a:	0110                	c.addi4spn	a2,sp,128
   1c58c:	85a6                	c.mv	a1,s1
   1c58e:	854a                	c.mv	a0,s2
   1c590:	a77ff0ef          	jal	ra,1c006 <__ssprint_r>
   1c594:	38051363          	bne	a0,zero,1c91a <_svfiprintf_r+0x7d0>
   1c598:	8dda                	c.mv	s11,s6
   1c59a:	07714603          	lbu	a2,119(sp)
   1c59e:	ca1d                	c.beqz	a2,1c5d4 <_svfiprintf_r+0x48a>
   1c5a0:	07710593          	addi	a1,sp,119
   1c5a4:	00bdb023          	sd	a1,0(s11)
   1c5a8:	4585                	c.li	a1,1
   1c5aa:	462a                	c.lwsp	a2,136(sp)
   1c5ac:	00bdb423          	sd	a1,8(s11)
   1c5b0:	65ca                	c.ldsp	a1,144(sp)
   1c5b2:	0016051b          	addiw	a0,a2,1
   1c5b6:	c52a                	c.swsp	a0,136(sp)
   1c5b8:	0585                	c.addi	a1,1
   1c5ba:	e92e                	c.sdsp	a1,144(sp)
   1c5bc:	461d                	c.li	a2,7
   1c5be:	0dc1                	c.addi	s11,16
   1c5c0:	00a65a63          	bge	a2,a0,1c5d4 <_svfiprintf_r+0x48a>
   1c5c4:	0110                	c.addi4spn	a2,sp,128
   1c5c6:	85a6                	c.mv	a1,s1
   1c5c8:	854a                	c.mv	a0,s2
   1c5ca:	a3dff0ef          	jal	ra,1c006 <__ssprint_r>
   1c5ce:	34051663          	bne	a0,zero,1c91a <_svfiprintf_r+0x7d0>
   1c5d2:	8dda                	c.mv	s11,s6
   1c5d4:	6786                	c.ldsp	a5,64(sp)
   1c5d6:	cb95                	c.beqz	a5,1c60a <_svfiprintf_r+0x4c0>
   1c5d8:	18ac                	c.addi4spn	a1,sp,120
   1c5da:	00bdb023          	sd	a1,0(s11)
   1c5de:	4589                	c.li	a1,2
   1c5e0:	462a                	c.lwsp	a2,136(sp)
   1c5e2:	00bdb423          	sd	a1,8(s11)
   1c5e6:	65ca                	c.ldsp	a1,144(sp)
   1c5e8:	0016051b          	addiw	a0,a2,1
   1c5ec:	c52a                	c.swsp	a0,136(sp)
   1c5ee:	0589                	c.addi	a1,2
   1c5f0:	e92e                	c.sdsp	a1,144(sp)
   1c5f2:	461d                	c.li	a2,7
   1c5f4:	0dc1                	c.addi	s11,16
   1c5f6:	00a65a63          	bge	a2,a0,1c60a <_svfiprintf_r+0x4c0>
   1c5fa:	0110                	c.addi4spn	a2,sp,128
   1c5fc:	85a6                	c.mv	a1,s1
   1c5fe:	854a                	c.mv	a0,s2
   1c600:	a07ff0ef          	jal	ra,1c006 <__ssprint_r>
   1c604:	30051b63          	bne	a0,zero,1c91a <_svfiprintf_r+0x7d0>
   1c608:	8dda                	c.mv	s11,s6
   1c60a:	67a6                	c.ldsp	a5,72(sp)
   1c60c:	08000613          	addi	a2,zero,128
   1c610:	04c79563          	bne	a5,a2,1c65a <_svfiprintf_r+0x510>
   1c614:	419a083b          	subw	a6,s4,s9
   1c618:	05005163          	bge	zero,a6,1c65a <_svfiprintf_r+0x510>
   1c61c:	4341                	c.li	t1,16
   1c61e:	4e1d                	c.li	t3,7
   1c620:	45aa                	c.lwsp	a1,136(sp)
   1c622:	77a2                	c.ldsp	a5,40(sp)
   1c624:	664a                	c.ldsp	a2,144(sp)
   1c626:	0015851b          	addiw	a0,a1,1
   1c62a:	00fdb023          	sd	a5,0(s11)
   1c62e:	85aa                	c.mv	a1,a0
   1c630:	010d8893          	addi	a7,s11,16
   1c634:	25034a63          	blt	t1,a6,1c888 <_svfiprintf_r+0x73e>
   1c638:	010db423          	sd	a6,8(s11)
   1c63c:	9832                	c.add	a6,a2
   1c63e:	e942                	c.sdsp	a6,144(sp)
   1c640:	c52a                	c.swsp	a0,136(sp)
   1c642:	461d                	c.li	a2,7
   1c644:	8dc6                	c.mv	s11,a7
   1c646:	00a65a63          	bge	a2,a0,1c65a <_svfiprintf_r+0x510>
   1c64a:	0110                	c.addi4spn	a2,sp,128
   1c64c:	85a6                	c.mv	a1,s1
   1c64e:	854a                	c.mv	a0,s2
   1c650:	9b7ff0ef          	jal	ra,1c006 <__ssprint_r>
   1c654:	2c051363          	bne	a0,zero,1c91a <_svfiprintf_r+0x7d0>
   1c658:	8dda                	c.mv	s11,s6
   1c65a:	408989bb          	subw	s3,s3,s0
   1c65e:	05305163          	bge	zero,s3,1c6a0 <_svfiprintf_r+0x556>
   1c662:	48c1                	c.li	a7,16
   1c664:	431d                	c.li	t1,7
   1c666:	45aa                	c.lwsp	a1,136(sp)
   1c668:	77a2                	c.ldsp	a5,40(sp)
   1c66a:	664a                	c.ldsp	a2,144(sp)
   1c66c:	0015851b          	addiw	a0,a1,1
   1c670:	00fdb023          	sd	a5,0(s11)
   1c674:	85aa                	c.mv	a1,a0
   1c676:	010d8813          	addi	a6,s11,16
   1c67a:	2338ce63          	blt	a7,s3,1c8b6 <_svfiprintf_r+0x76c>
   1c67e:	013db423          	sd	s3,8(s11)
   1c682:	99b2                	c.add	s3,a2
   1c684:	e94e                	c.sdsp	s3,144(sp)
   1c686:	c52a                	c.swsp	a0,136(sp)
   1c688:	461d                	c.li	a2,7
   1c68a:	8dc2                	c.mv	s11,a6
   1c68c:	00a65a63          	bge	a2,a0,1c6a0 <_svfiprintf_r+0x556>
   1c690:	0110                	c.addi4spn	a2,sp,128
   1c692:	85a6                	c.mv	a1,s1
   1c694:	854a                	c.mv	a0,s2
   1c696:	971ff0ef          	jal	ra,1c006 <__ssprint_r>
   1c69a:	28051063          	bne	a0,zero,1c91a <_svfiprintf_r+0x7d0>
   1c69e:	8dda                	c.mv	s11,s6
   1c6a0:	66ca                	c.ldsp	a3,144(sp)
   1c6a2:	008db423          	sd	s0,8(s11)
   1c6a6:	018db023          	sd	s8,0(s11)
   1c6aa:	9436                	c.add	s0,a3
   1c6ac:	46aa                	c.lwsp	a3,136(sp)
   1c6ae:	e922                	c.sdsp	s0,144(sp)
   1c6b0:	010d8713          	addi	a4,s11,16
   1c6b4:	0016861b          	addiw	a2,a3,1
   1c6b8:	c532                	c.swsp	a2,136(sp)
   1c6ba:	469d                	c.li	a3,7
   1c6bc:	00c6da63          	bge	a3,a2,1c6d0 <_svfiprintf_r+0x586>
   1c6c0:	0110                	c.addi4spn	a2,sp,128
   1c6c2:	85a6                	c.mv	a1,s1
   1c6c4:	854a                	c.mv	a0,s2
   1c6c6:	941ff0ef          	jal	ra,1c006 <__ssprint_r>
   1c6ca:	24051863          	bne	a0,zero,1c91a <_svfiprintf_r+0x7d0>
   1c6ce:	875a                	c.mv	a4,s6
   1c6d0:	004d7793          	andi	a5,s10,4
   1c6d4:	20079663          	bne	a5,zero,1c8e0 <_svfiprintf_r+0x796>
   1c6d8:	87d2                	c.mv	a5,s4
   1c6da:	019a5363          	bge	s4,s9,1c6e0 <_svfiprintf_r+0x596>
   1c6de:	87e6                	c.mv	a5,s9
   1c6e0:	01778bbb          	addw	s7,a5,s7
   1c6e4:	67ca                	c.ldsp	a5,144(sp)
   1c6e6:	cb81                	c.beqz	a5,1c6f6 <_svfiprintf_r+0x5ac>
   1c6e8:	0110                	c.addi4spn	a2,sp,128
   1c6ea:	85a6                	c.mv	a1,s1
   1c6ec:	854a                	c.mv	a0,s2
   1c6ee:	919ff0ef          	jal	ra,1c006 <__ssprint_r>
   1c6f2:	22051463          	bne	a0,zero,1c91a <_svfiprintf_r+0x7d0>
   1c6f6:	c502                	c.swsp	zero,136(sp)
   1c6f8:	69a2                	c.ldsp	s3,8(sp)
   1c6fa:	8dda                	c.mv	s11,s6
   1c6fc:	bcc9                	c.j	1c1ce <_svfiprintf_r+0x84>
   1c6fe:	8562                	c.mv	a0,s8
   1c700:	c9cf90ef          	jal	ra,15b9c <strlen>
   1c704:	0005041b          	addiw	s0,a0,0
   1c708:	4981                	c.li	s3,0
   1c70a:	bd39                	c.j	1c528 <_svfiprintf_r+0x3de>
   1c70c:	010d6d13          	ori	s10,s10,16
   1c710:	00898793          	addi	a5,s3,8
   1c714:	e43e                	c.sdsp	a5,8(sp)
   1c716:	020d7693          	andi	a3,s10,32
   1c71a:	c689                	c.beqz	a3,1c724 <_svfiprintf_r+0x5da>
   1c71c:	0009b983          	ld	s3,0(s3)
   1c720:	4605                	c.li	a2,1
   1c722:	bb35                	c.j	1c45e <_svfiprintf_r+0x314>
   1c724:	010d7693          	andi	a3,s10,16
   1c728:	faf5                	c.bnez	a3,1c71c <_svfiprintf_r+0x5d2>
   1c72a:	040d7693          	andi	a3,s10,64
   1c72e:	0009a983          	lw	s3,0(s3)
   1c732:	c689                	c.beqz	a3,1c73c <_svfiprintf_r+0x5f2>
   1c734:	19c2                	c.slli	s3,0x30
   1c736:	0309d993          	srli	s3,s3,0x30
   1c73a:	b7dd                	c.j	1c720 <_svfiprintf_r+0x5d6>
   1c73c:	200d7693          	andi	a3,s10,512
   1c740:	c681                	c.beqz	a3,1c748 <_svfiprintf_r+0x5fe>
   1c742:	0ff9f993          	andi	s3,s3,255
   1c746:	bfe9                	c.j	1c720 <_svfiprintf_r+0x5d6>
   1c748:	1982                	c.slli	s3,0x20
   1c74a:	0209d993          	srli	s3,s3,0x20
   1c74e:	bfc9                	c.j	1c720 <_svfiprintf_r+0x5d6>
   1c750:	00029637          	lui	a2,0x29
   1c754:	87060793          	addi	a5,a2,-1936 # 28870 <zeroes.4441+0x68>
   1c758:	b629                	c.j	1c262 <_svfiprintf_r+0x118>
   1c75a:	010d7613          	andi	a2,s10,16
   1c75e:	b0061ae3          	bne	a2,zero,1c272 <_svfiprintf_r+0x128>
   1c762:	040d7613          	andi	a2,s10,64
   1c766:	0009a983          	lw	s3,0(s3)
   1c76a:	c609                	c.beqz	a2,1c774 <_svfiprintf_r+0x62a>
   1c76c:	19c2                	c.slli	s3,0x30
   1c76e:	0309d993          	srli	s3,s3,0x30
   1c772:	b611                	c.j	1c276 <_svfiprintf_r+0x12c>
   1c774:	200d7613          	andi	a2,s10,512
   1c778:	c601                	c.beqz	a2,1c780 <_svfiprintf_r+0x636>
   1c77a:	0ff9f993          	andi	s3,s3,255
   1c77e:	bce5                	c.j	1c276 <_svfiprintf_r+0x12c>
   1c780:	1982                	c.slli	s3,0x20
   1c782:	0209d993          	srli	s3,s3,0x20
   1c786:	bcc5                	c.j	1c276 <_svfiprintf_r+0x12c>
   1c788:	85ea                	c.mv	a1,s10
   1c78a:	4605                	c.li	a2,1
   1c78c:	f7fd7d13          	andi	s10,s10,-129
   1c790:	cc099de3          	bne	s3,zero,1c46a <_svfiprintf_r+0x320>
   1c794:	cc59                	c.beqz	s0,1c832 <_svfiprintf_r+0x6e8>
   1c796:	4685                	c.li	a3,1
   1c798:	ccd61ce3          	bne	a2,a3,1c470 <_svfiprintf_r+0x326>
   1c79c:	b181                	c.j	1c3dc <_svfiprintf_r+0x292>
   1c79e:	8662                	c.mv	a2,s8
   1c7a0:	b9e1                	c.j	1c478 <_svfiprintf_r+0x32e>
   1c7a2:	400d7c93          	andi	s9,s10,1024
   1c7a6:	4601                	c.li	a2,0
   1c7a8:	19ec                	c.addi4spn	a1,sp,252
   1c7aa:	4829                	c.li	a6,10
   1c7ac:	2c81                	c.addiw	s9,0
   1c7ae:	0ff00893          	addi	a7,zero,255
   1c7b2:	4325                	c.li	t1,9
   1c7b4:	0309f533          	remu	a0,s3,a6
   1c7b8:	fff58c13          	addi	s8,a1,-1
   1c7bc:	2605                	c.addiw	a2,1
   1c7be:	0305051b          	addiw	a0,a0,48
   1c7c2:	fea58fa3          	sb	a0,-1(a1)
   1c7c6:	040c8063          	beq	s9,zero,1c806 <_svfiprintf_r+0x6bc>
   1c7ca:	67c2                	c.ldsp	a5,16(sp)
   1c7cc:	0007c583          	lbu	a1,0(a5)
   1c7d0:	02c59b63          	bne	a1,a2,1c806 <_svfiprintf_r+0x6bc>
   1c7d4:	03158963          	beq	a1,a7,1c806 <_svfiprintf_r+0x6bc>
   1c7d8:	03337763          	bgeu	t1,s3,1c806 <_svfiprintf_r+0x6bc>
   1c7dc:	67e2                	c.ldsp	a5,24(sp)
   1c7de:	75e2                	c.ldsp	a1,56(sp)
   1c7e0:	ec9a                	c.sdsp	t1,88(sp)
   1c7e2:	40fc0c33          	sub	s8,s8,a5
   1c7e6:	863e                	c.mv	a2,a5
   1c7e8:	8562                	c.mv	a0,s8
   1c7ea:	e4c6                	c.sdsp	a7,72(sp)
   1c7ec:	e0c2                	c.sdsp	a6,64(sp)
   1c7ee:	f28fd0ef          	jal	ra,19f16 <strncpy>
   1c7f2:	67c2                	c.ldsp	a5,16(sp)
   1c7f4:	4601                	c.li	a2,0
   1c7f6:	6806                	c.ldsp	a6,64(sp)
   1c7f8:	0017c583          	lbu	a1,1(a5)
   1c7fc:	68a6                	c.ldsp	a7,72(sp)
   1c7fe:	6366                	c.ldsp	t1,88(sp)
   1c800:	c199                	c.beqz	a1,1c806 <_svfiprintf_r+0x6bc>
   1c802:	0785                	c.addi	a5,1
   1c804:	e83e                	c.sdsp	a5,16(sp)
   1c806:	0309d9b3          	divu	s3,s3,a6
   1c80a:	c8098ee3          	beq	s3,zero,1c4a6 <_svfiprintf_r+0x35c>
   1c80e:	85e2                	c.mv	a1,s8
   1c810:	b755                	c.j	1c7b4 <_svfiprintf_r+0x66a>
   1c812:	0fc10c13          	addi	s8,sp,252
   1c816:	7782                	c.ldsp	a5,32(sp)
   1c818:	00f9f613          	andi	a2,s3,15
   1c81c:	1c7d                	c.addi	s8,-1
   1c81e:	963e                	c.add	a2,a5
   1c820:	00064603          	lbu	a2,0(a2)
   1c824:	0049d993          	srli	s3,s3,0x4
   1c828:	00cc0023          	sb	a2,0(s8)
   1c82c:	fe0995e3          	bne	s3,zero,1c816 <_svfiprintf_r+0x6cc>
   1c830:	b99d                	c.j	1c4a6 <_svfiprintf_r+0x35c>
   1c832:	0fc10c13          	addi	s8,sp,252
   1c836:	c60618e3          	bne	a2,zero,1c4a6 <_svfiprintf_r+0x35c>
   1c83a:	8985                	c.andi	a1,1
   1c83c:	c60585e3          	beq	a1,zero,1c4a6 <_svfiprintf_r+0x35c>
   1c840:	03000693          	addi	a3,zero,48
   1c844:	0ed10da3          	sb	a3,251(sp)
   1c848:	be71                	c.j	1c3e4 <_svfiprintf_r+0x29a>
   1c84a:	12068163          	beq	a3,zero,1c96c <_svfiprintf_r+0x822>
   1c84e:	08d10c23          	sb	a3,152(sp)
   1c852:	06010ba3          	sb	zero,119(sp)
   1c856:	e44e                	c.sdsp	s3,8(sp)
   1c858:	b6a9                	c.j	1c3a2 <_svfiprintf_r+0x258>
   1c85a:	0641                	c.addi	a2,16
   1c85c:	006db423          	sd	t1,8(s11)
   1c860:	e932                	c.sdsp	a2,144(sp)
   1c862:	c52e                	c.swsp	a1,136(sp)
   1c864:	00ae5f63          	bge	t3,a0,1c882 <_svfiprintf_r+0x738>
   1c868:	0110                	c.addi4spn	a2,sp,128
   1c86a:	85a6                	c.mv	a1,s1
   1c86c:	854a                	c.mv	a0,s2
   1c86e:	f4f2                	c.sdsp	t3,104(sp)
   1c870:	f09a                	c.sdsp	t1,96(sp)
   1c872:	ecc2                	c.sdsp	a6,88(sp)
   1c874:	f92ff0ef          	jal	ra,1c006 <__ssprint_r>
   1c878:	e14d                	c.bnez	a0,1c91a <_svfiprintf_r+0x7d0>
   1c87a:	7e26                	c.ldsp	t3,104(sp)
   1c87c:	7306                	c.ldsp	t1,96(sp)
   1c87e:	6866                	c.ldsp	a6,88(sp)
   1c880:	88da                	c.mv	a7,s6
   1c882:	3841                	c.addiw	a6,-16
   1c884:	8dc6                	c.mv	s11,a7
   1c886:	b9e9                	c.j	1c560 <_svfiprintf_r+0x416>
   1c888:	0641                	c.addi	a2,16
   1c88a:	006db423          	sd	t1,8(s11)
   1c88e:	e932                	c.sdsp	a2,144(sp)
   1c890:	c52e                	c.swsp	a1,136(sp)
   1c892:	00ae5f63          	bge	t3,a0,1c8b0 <_svfiprintf_r+0x766>
   1c896:	0110                	c.addi4spn	a2,sp,128
   1c898:	85a6                	c.mv	a1,s1
   1c89a:	854a                	c.mv	a0,s2
   1c89c:	ecf2                	c.sdsp	t3,88(sp)
   1c89e:	e49a                	c.sdsp	t1,72(sp)
   1c8a0:	e0c2                	c.sdsp	a6,64(sp)
   1c8a2:	f64ff0ef          	jal	ra,1c006 <__ssprint_r>
   1c8a6:	e935                	c.bnez	a0,1c91a <_svfiprintf_r+0x7d0>
   1c8a8:	6e66                	c.ldsp	t3,88(sp)
   1c8aa:	6326                	c.ldsp	t1,72(sp)
   1c8ac:	6806                	c.ldsp	a6,64(sp)
   1c8ae:	88da                	c.mv	a7,s6
   1c8b0:	3841                	c.addiw	a6,-16
   1c8b2:	8dc6                	c.mv	s11,a7
   1c8b4:	b3b5                	c.j	1c620 <_svfiprintf_r+0x4d6>
   1c8b6:	0641                	c.addi	a2,16
   1c8b8:	011db423          	sd	a7,8(s11)
   1c8bc:	e932                	c.sdsp	a2,144(sp)
   1c8be:	c52e                	c.swsp	a1,136(sp)
   1c8c0:	00a35d63          	bge	t1,a0,1c8da <_svfiprintf_r+0x790>
   1c8c4:	0110                	c.addi4spn	a2,sp,128
   1c8c6:	85a6                	c.mv	a1,s1
   1c8c8:	854a                	c.mv	a0,s2
   1c8ca:	e49a                	c.sdsp	t1,72(sp)
   1c8cc:	e0c6                	c.sdsp	a7,64(sp)
   1c8ce:	f38ff0ef          	jal	ra,1c006 <__ssprint_r>
   1c8d2:	e521                	c.bnez	a0,1c91a <_svfiprintf_r+0x7d0>
   1c8d4:	6326                	c.ldsp	t1,72(sp)
   1c8d6:	6886                	c.ldsp	a7,64(sp)
   1c8d8:	885a                	c.mv	a6,s6
   1c8da:	39c1                	c.addiw	s3,-16
   1c8dc:	8dc2                	c.mv	s11,a6
   1c8de:	b361                	c.j	1c666 <_svfiprintf_r+0x51c>
   1c8e0:	419a043b          	subw	s0,s4,s9
   1c8e4:	de805ae3          	bge	zero,s0,1c6d8 <_svfiprintf_r+0x58e>
   1c8e8:	49c1                	c.li	s3,16
   1c8ea:	4d1d                	c.li	s10,7
   1c8ec:	46aa                	c.lwsp	a3,136(sp)
   1c8ee:	67ca                	c.ldsp	a5,144(sp)
   1c8f0:	0016861b          	addiw	a2,a3,1
   1c8f4:	86b2                	c.mv	a3,a2
   1c8f6:	0489c863          	blt	s3,s0,1c946 <_svfiprintf_r+0x7fc>
   1c8fa:	76c2                	c.ldsp	a3,48(sp)
   1c8fc:	e700                	c.sd	s0,8(a4)
   1c8fe:	943e                	c.add	s0,a5
   1c900:	e314                	c.sd	a3,0(a4)
   1c902:	e922                	c.sdsp	s0,144(sp)
   1c904:	c532                	c.swsp	a2,136(sp)
   1c906:	479d                	c.li	a5,7
   1c908:	dcc7d8e3          	bge	a5,a2,1c6d8 <_svfiprintf_r+0x58e>
   1c90c:	0110                	c.addi4spn	a2,sp,128
   1c90e:	85a6                	c.mv	a1,s1
   1c910:	854a                	c.mv	a0,s2
   1c912:	ef4ff0ef          	jal	ra,1c006 <__ssprint_r>
   1c916:	dc0501e3          	beq	a0,zero,1c6d8 <_svfiprintf_r+0x58e>
   1c91a:	0104d783          	lhu	a5,16(s1)
   1c91e:	0407f793          	andi	a5,a5,64
   1c922:	860797e3          	bne	a5,zero,1c190 <_svfiprintf_r+0x46>
   1c926:	70be                	c.ldsp	ra,488(sp)
   1c928:	741e                	c.ldsp	s0,480(sp)
   1c92a:	855e                	c.mv	a0,s7
   1c92c:	64fe                	c.ldsp	s1,472(sp)
   1c92e:	695e                	c.ldsp	s2,464(sp)
   1c930:	69be                	c.ldsp	s3,456(sp)
   1c932:	6a1e                	c.ldsp	s4,448(sp)
   1c934:	7afa                	c.ldsp	s5,440(sp)
   1c936:	7b5a                	c.ldsp	s6,432(sp)
   1c938:	7bba                	c.ldsp	s7,424(sp)
   1c93a:	7c1a                	c.ldsp	s8,416(sp)
   1c93c:	6cfa                	c.ldsp	s9,408(sp)
   1c93e:	6d5a                	c.ldsp	s10,400(sp)
   1c940:	6dba                	c.ldsp	s11,392(sp)
   1c942:	617d                	c.addi16sp	sp,496
   1c944:	8082                	c.jr	ra
   1c946:	75c2                	c.ldsp	a1,48(sp)
   1c948:	07c1                	c.addi	a5,16
   1c94a:	01373423          	sd	s3,8(a4)
   1c94e:	e30c                	c.sd	a1,0(a4)
   1c950:	e93e                	c.sdsp	a5,144(sp)
   1c952:	c536                	c.swsp	a3,136(sp)
   1c954:	0741                	c.addi	a4,16
   1c956:	00cd5963          	bge	s10,a2,1c968 <_svfiprintf_r+0x81e>
   1c95a:	0110                	c.addi4spn	a2,sp,128
   1c95c:	85a6                	c.mv	a1,s1
   1c95e:	854a                	c.mv	a0,s2
   1c960:	ea6ff0ef          	jal	ra,1c006 <__ssprint_r>
   1c964:	f95d                	c.bnez	a0,1c91a <_svfiprintf_r+0x7d0>
   1c966:	875a                	c.mv	a4,s6
   1c968:	3441                	c.addiw	s0,-16
   1c96a:	b749                	c.j	1c8ec <_svfiprintf_r+0x7a2>
   1c96c:	67ca                	c.ldsp	a5,144(sp)
   1c96e:	d7d5                	c.beqz	a5,1c91a <_svfiprintf_r+0x7d0>
   1c970:	0110                	c.addi4spn	a2,sp,128
   1c972:	85a6                	c.mv	a1,s1
   1c974:	854a                	c.mv	a0,s2
   1c976:	e90ff0ef          	jal	ra,1c006 <__ssprint_r>
   1c97a:	b745                	c.j	1c91a <_svfiprintf_r+0x7d0>

000000000001c97c <__swbuf_r>:
   1c97c:	7179                	c.addi16sp	sp,-48
   1c97e:	f022                	c.sdsp	s0,32(sp)
   1c980:	ec26                	c.sdsp	s1,24(sp)
   1c982:	e84a                	c.sdsp	s2,16(sp)
   1c984:	f406                	c.sdsp	ra,40(sp)
   1c986:	e44e                	c.sdsp	s3,8(sp)
   1c988:	892a                	c.mv	s2,a0
   1c98a:	84ae                	c.mv	s1,a1
   1c98c:	8432                	c.mv	s0,a2
   1c98e:	c509                	c.beqz	a0,1c998 <__swbuf_r+0x1c>
   1c990:	493c                	c.lw	a5,80(a0)
   1c992:	e399                	c.bnez	a5,1c998 <__swbuf_r+0x1c>
   1c994:	a1bf70ef          	jal	ra,143ae <__sinit>
   1c998:	541c                	c.lw	a5,40(s0)
   1c99a:	c45c                	c.sw	a5,12(s0)
   1c99c:	01045783          	lhu	a5,16(s0)
   1c9a0:	8ba1                	c.andi	a5,8
   1c9a2:	c3ad                	c.beqz	a5,1ca04 <__swbuf_r+0x88>
   1c9a4:	6c1c                	c.ld	a5,24(s0)
   1c9a6:	cfb9                	c.beqz	a5,1ca04 <__swbuf_r+0x88>
   1c9a8:	01041783          	lh	a5,16(s0)
   1c9ac:	0ff4f993          	andi	s3,s1,255
   1c9b0:	84ce                	c.mv	s1,s3
   1c9b2:	03279713          	slli	a4,a5,0x32
   1c9b6:	06075563          	bge	a4,zero,1ca20 <__swbuf_r+0xa4>
   1c9ba:	6c1c                	c.ld	a5,24(s0)
   1c9bc:	6008                	c.ld	a0,0(s0)
   1c9be:	9d1d                	c.subw	a0,a5
   1c9c0:	501c                	c.lw	a5,32(s0)
   1c9c2:	00f54763          	blt	a0,a5,1c9d0 <__swbuf_r+0x54>
   1c9c6:	85a2                	c.mv	a1,s0
   1c9c8:	854a                	c.mv	a0,s2
   1c9ca:	8a7f70ef          	jal	ra,14270 <_fflush_r>
   1c9ce:	e121                	c.bnez	a0,1ca0e <__swbuf_r+0x92>
   1c9d0:	445c                	c.lw	a5,12(s0)
   1c9d2:	2505                	c.addiw	a0,1
   1c9d4:	37fd                	c.addiw	a5,-1
   1c9d6:	c45c                	c.sw	a5,12(s0)
   1c9d8:	601c                	c.ld	a5,0(s0)
   1c9da:	00178713          	addi	a4,a5,1
   1c9de:	e018                	c.sd	a4,0(s0)
   1c9e0:	01378023          	sb	s3,0(a5)
   1c9e4:	501c                	c.lw	a5,32(s0)
   1c9e6:	00a78963          	beq	a5,a0,1c9f8 <__swbuf_r+0x7c>
   1c9ea:	01045783          	lhu	a5,16(s0)
   1c9ee:	8b85                	c.andi	a5,1
   1c9f0:	c385                	c.beqz	a5,1ca10 <__swbuf_r+0x94>
   1c9f2:	47a9                	c.li	a5,10
   1c9f4:	00f49e63          	bne	s1,a5,1ca10 <__swbuf_r+0x94>
   1c9f8:	85a2                	c.mv	a1,s0
   1c9fa:	854a                	c.mv	a0,s2
   1c9fc:	875f70ef          	jal	ra,14270 <_fflush_r>
   1ca00:	c901                	c.beqz	a0,1ca10 <__swbuf_r+0x94>
   1ca02:	a031                	c.j	1ca0e <__swbuf_r+0x92>
   1ca04:	85a2                	c.mv	a1,s0
   1ca06:	854a                	c.mv	a0,s2
   1ca08:	873fa0ef          	jal	ra,1727a <__swsetup_r>
   1ca0c:	dd51                	c.beqz	a0,1c9a8 <__swbuf_r+0x2c>
   1ca0e:	54fd                	c.li	s1,-1
   1ca10:	70a2                	c.ldsp	ra,40(sp)
   1ca12:	7402                	c.ldsp	s0,32(sp)
   1ca14:	8526                	c.mv	a0,s1
   1ca16:	6942                	c.ldsp	s2,16(sp)
   1ca18:	64e2                	c.ldsp	s1,24(sp)
   1ca1a:	69a2                	c.ldsp	s3,8(sp)
   1ca1c:	6145                	c.addi16sp	sp,48
   1ca1e:	8082                	c.jr	ra
   1ca20:	6709                	c.lui	a4,0x2
   1ca22:	8fd9                	c.or	a5,a4
   1ca24:	00f41823          	sh	a5,16(s0)
   1ca28:	0ac42783          	lw	a5,172(s0)
   1ca2c:	7779                	c.lui	a4,0xffffe
   1ca2e:	177d                	c.addi	a4,-1
   1ca30:	8ff9                	c.and	a5,a4
   1ca32:	0af42623          	sw	a5,172(s0)
   1ca36:	b751                	c.j	1c9ba <__swbuf_r+0x3e>

000000000001ca38 <__swbuf>:
   1ca38:	862e                	c.mv	a2,a1
   1ca3a:	85aa                	c.mv	a1,a0
   1ca3c:	8401b503          	ld	a0,-1984(gp) # 2b4c0 <_impure_ptr>
   1ca40:	f3dff06f          	jal	zero,1c97c <__swbuf_r>

000000000001ca44 <_wcrtomb_r>:
   1ca44:	8401b783          	ld	a5,-1984(gp) # 2b4c0 <_impure_ptr>
   1ca48:	7179                	c.addi16sp	sp,-48
   1ca4a:	f022                	c.sdsp	s0,32(sp)
   1ca4c:	ec26                	c.sdsp	s1,24(sp)
   1ca4e:	f406                	c.sdsp	ra,40(sp)
   1ca50:	842a                	c.mv	s0,a0
   1ca52:	84b6                	c.mv	s1,a3
   1ca54:	67bc                	c.ld	a5,72(a5)
   1ca56:	e98d                	c.bnez	a1,1ca88 <_wcrtomb_r+0x44>
   1ca58:	e789                	c.bnez	a5,1ca62 <_wcrtomb_r+0x1e>
   1ca5a:	0002b7b7          	lui	a5,0x2b
   1ca5e:	ac878793          	addi	a5,a5,-1336 # 2aac8 <__global_locale>
   1ca62:	73fc                	c.ld	a5,224(a5)
   1ca64:	86a6                	c.mv	a3,s1
   1ca66:	4601                	c.li	a2,0
   1ca68:	858a                	c.mv	a1,sp
   1ca6a:	8522                	c.mv	a0,s0
   1ca6c:	9782                	c.jalr	a5
   1ca6e:	57fd                	c.li	a5,-1
   1ca70:	00f51763          	bne	a0,a5,1ca7e <_wcrtomb_r+0x3a>
   1ca74:	0004a023          	sw	zero,0(s1)
   1ca78:	08a00793          	addi	a5,zero,138
   1ca7c:	c01c                	c.sw	a5,0(s0)
   1ca7e:	70a2                	c.ldsp	ra,40(sp)
   1ca80:	7402                	c.ldsp	s0,32(sp)
   1ca82:	64e2                	c.ldsp	s1,24(sp)
   1ca84:	6145                	c.addi16sp	sp,48
   1ca86:	8082                	c.jr	ra
   1ca88:	e789                	c.bnez	a5,1ca92 <_wcrtomb_r+0x4e>
   1ca8a:	0002b7b7          	lui	a5,0x2b
   1ca8e:	ac878793          	addi	a5,a5,-1336 # 2aac8 <__global_locale>
   1ca92:	73fc                	c.ld	a5,224(a5)
   1ca94:	86a6                	c.mv	a3,s1
   1ca96:	bfd1                	c.j	1ca6a <_wcrtomb_r+0x26>

000000000001ca98 <wcrtomb>:
   1ca98:	86b2                	c.mv	a3,a2
   1ca9a:	862e                	c.mv	a2,a1
   1ca9c:	85aa                	c.mv	a1,a0
   1ca9e:	8401b503          	ld	a0,-1984(gp) # 2b4c0 <_impure_ptr>
   1caa2:	fa3ff06f          	jal	zero,1ca44 <_wcrtomb_r>

000000000001caa6 <_close>:
   1caa6:	1141                	c.addi	sp,-16
   1caa8:	e406                	c.sdsp	ra,8(sp)
   1caaa:	e022                	c.sdsp	s0,0(sp)
   1caac:	4581                	c.li	a1,0
   1caae:	4601                	c.li	a2,0
   1cab0:	4681                	c.li	a3,0
   1cab2:	4701                	c.li	a4,0
   1cab4:	4781                	c.li	a5,0
   1cab6:	03900893          	addi	a7,zero,57
   1caba:	00000073          	ecall
   1cabe:	842a                	c.mv	s0,a0
   1cac0:	00055863          	bge	a0,zero,1cad0 <_close+0x2a>
   1cac4:	4080043b          	subw	s0,zero,s0
   1cac8:	22a000ef          	jal	ra,1ccf2 <__errno>
   1cacc:	c100                	c.sw	s0,0(a0)
   1cace:	547d                	c.li	s0,-1
   1cad0:	0004051b          	addiw	a0,s0,0
   1cad4:	60a2                	c.ldsp	ra,8(sp)
   1cad6:	6402                	c.ldsp	s0,0(sp)
   1cad8:	0141                	c.addi	sp,16
   1cada:	8082                	c.jr	ra

000000000001cadc <_exit>:
   1cadc:	4581                	c.li	a1,0
   1cade:	4601                	c.li	a2,0
   1cae0:	4681                	c.li	a3,0
   1cae2:	4701                	c.li	a4,0
   1cae4:	4781                	c.li	a5,0
   1cae6:	05d00893          	addi	a7,zero,93
   1caea:	00000073          	ecall
   1caee:	00055c63          	bge	a0,zero,1cb06 <_exit+0x2a>
   1caf2:	1141                	c.addi	sp,-16
   1caf4:	e022                	c.sdsp	s0,0(sp)
   1caf6:	842a                	c.mv	s0,a0
   1caf8:	e406                	c.sdsp	ra,8(sp)
   1cafa:	4080043b          	subw	s0,zero,s0
   1cafe:	1f4000ef          	jal	ra,1ccf2 <__errno>
   1cb02:	c100                	c.sw	s0,0(a0)
   1cb04:	a001                	c.j	1cb04 <_exit+0x28>
   1cb06:	a001                	c.j	1cb06 <_exit+0x2a>

000000000001cb08 <_fstat>:
   1cb08:	7135                	c.addi16sp	sp,-160
   1cb0a:	e526                	c.sdsp	s1,136(sp)
   1cb0c:	ed06                	c.sdsp	ra,152(sp)
   1cb0e:	84ae                	c.mv	s1,a1
   1cb10:	e922                	c.sdsp	s0,144(sp)
   1cb12:	858a                	c.mv	a1,sp
   1cb14:	4601                	c.li	a2,0
   1cb16:	4681                	c.li	a3,0
   1cb18:	4701                	c.li	a4,0
   1cb1a:	4781                	c.li	a5,0
   1cb1c:	05000893          	addi	a7,zero,80
   1cb20:	00000073          	ecall
   1cb24:	842a                	c.mv	s0,a0
   1cb26:	00055863          	bge	a0,zero,1cb36 <_fstat+0x2e>
   1cb2a:	4080043b          	subw	s0,zero,s0
   1cb2e:	1c4000ef          	jal	ra,1ccf2 <__errno>
   1cb32:	c100                	c.sw	s0,0(a0)
   1cb34:	547d                	c.li	s0,-1
   1cb36:	8526                	c.mv	a0,s1
   1cb38:	858a                	c.mv	a1,sp
   1cb3a:	176000ef          	jal	ra,1ccb0 <_conv_stat>
   1cb3e:	0004051b          	addiw	a0,s0,0
   1cb42:	60ea                	c.ldsp	ra,152(sp)
   1cb44:	644a                	c.ldsp	s0,144(sp)
   1cb46:	64aa                	c.ldsp	s1,136(sp)
   1cb48:	610d                	c.addi16sp	sp,160
   1cb4a:	8082                	c.jr	ra

000000000001cb4c <_isatty>:
   1cb4c:	7119                	c.addi16sp	sp,-128
   1cb4e:	002c                	c.addi4spn	a1,sp,8
   1cb50:	fc86                	c.sdsp	ra,120(sp)
   1cb52:	fb7ff0ef          	jal	ra,1cb08 <_fstat>
   1cb56:	57fd                	c.li	a5,-1
   1cb58:	00f50663          	beq	a0,a5,1cb64 <_isatty+0x18>
   1cb5c:	4532                	c.lwsp	a0,12(sp)
   1cb5e:	40d5551b          	sraiw	a0,a0,0xd
   1cb62:	8905                	c.andi	a0,1
   1cb64:	70e6                	c.ldsp	ra,120(sp)
   1cb66:	6109                	c.addi16sp	sp,128
   1cb68:	8082                	c.jr	ra

000000000001cb6a <_lseek>:
   1cb6a:	1141                	c.addi	sp,-16
   1cb6c:	e406                	c.sdsp	ra,8(sp)
   1cb6e:	e022                	c.sdsp	s0,0(sp)
   1cb70:	4681                	c.li	a3,0
   1cb72:	4701                	c.li	a4,0
   1cb74:	4781                	c.li	a5,0
   1cb76:	03e00893          	addi	a7,zero,62
   1cb7a:	00000073          	ecall
   1cb7e:	842a                	c.mv	s0,a0
   1cb80:	00055863          	bge	a0,zero,1cb90 <_lseek+0x26>
   1cb84:	4080043b          	subw	s0,zero,s0
   1cb88:	16a000ef          	jal	ra,1ccf2 <__errno>
   1cb8c:	c100                	c.sw	s0,0(a0)
   1cb8e:	547d                	c.li	s0,-1
   1cb90:	8522                	c.mv	a0,s0
   1cb92:	60a2                	c.ldsp	ra,8(sp)
   1cb94:	6402                	c.ldsp	s0,0(sp)
   1cb96:	0141                	c.addi	sp,16
   1cb98:	8082                	c.jr	ra

000000000001cb9a <_open>:
   1cb9a:	1141                	c.addi	sp,-16
   1cb9c:	e406                	c.sdsp	ra,8(sp)
   1cb9e:	e022                	c.sdsp	s0,0(sp)
   1cba0:	4681                	c.li	a3,0
   1cba2:	4701                	c.li	a4,0
   1cba4:	4781                	c.li	a5,0
   1cba6:	40000893          	addi	a7,zero,1024
   1cbaa:	00000073          	ecall
   1cbae:	842a                	c.mv	s0,a0
   1cbb0:	00055863          	bge	a0,zero,1cbc0 <_open+0x26>
   1cbb4:	4080043b          	subw	s0,zero,s0
   1cbb8:	13a000ef          	jal	ra,1ccf2 <__errno>
   1cbbc:	c100                	c.sw	s0,0(a0)
   1cbbe:	547d                	c.li	s0,-1
   1cbc0:	0004051b          	addiw	a0,s0,0
   1cbc4:	60a2                	c.ldsp	ra,8(sp)
   1cbc6:	6402                	c.ldsp	s0,0(sp)
   1cbc8:	0141                	c.addi	sp,16
   1cbca:	8082                	c.jr	ra

000000000001cbcc <_read>:
   1cbcc:	1141                	c.addi	sp,-16
   1cbce:	e406                	c.sdsp	ra,8(sp)
   1cbd0:	e022                	c.sdsp	s0,0(sp)
   1cbd2:	4681                	c.li	a3,0
   1cbd4:	4701                	c.li	a4,0
   1cbd6:	4781                	c.li	a5,0
   1cbd8:	03f00893          	addi	a7,zero,63
   1cbdc:	00000073          	ecall
   1cbe0:	842a                	c.mv	s0,a0
   1cbe2:	00055863          	bge	a0,zero,1cbf2 <_read+0x26>
   1cbe6:	4080043b          	subw	s0,zero,s0
   1cbea:	108000ef          	jal	ra,1ccf2 <__errno>
   1cbee:	c100                	c.sw	s0,0(a0)
   1cbf0:	547d                	c.li	s0,-1
   1cbf2:	8522                	c.mv	a0,s0
   1cbf4:	60a2                	c.ldsp	ra,8(sp)
   1cbf6:	6402                	c.ldsp	s0,0(sp)
   1cbf8:	0141                	c.addi	sp,16
   1cbfa:	8082                	c.jr	ra

000000000001cbfc <_sbrk>:
   1cbfc:	1101                	c.addi	sp,-32
   1cbfe:	e822                	c.sdsp	s0,16(sp)
   1cc00:	8801b783          	ld	a5,-1920(gp) # 2b500 <heap_end.2510>
   1cc04:	e04a                	c.sdsp	s2,0(sp)
   1cc06:	ec06                	c.sdsp	ra,24(sp)
   1cc08:	e426                	c.sdsp	s1,8(sp)
   1cc0a:	892a                	c.mv	s2,a0
   1cc0c:	eb9d                	c.bnez	a5,1cc42 <_sbrk+0x46>
   1cc0e:	4501                	c.li	a0,0
   1cc10:	4581                	c.li	a1,0
   1cc12:	4601                	c.li	a2,0
   1cc14:	4681                	c.li	a3,0
   1cc16:	4701                	c.li	a4,0
   1cc18:	0d600893          	addi	a7,zero,214
   1cc1c:	00000073          	ecall
   1cc20:	84aa                	c.mv	s1,a0
   1cc22:	00055e63          	bge	a0,zero,1cc3e <_sbrk+0x42>
   1cc26:	0cc000ef          	jal	ra,1ccf2 <__errno>
   1cc2a:	409004bb          	subw	s1,zero,s1
   1cc2e:	c104                	c.sw	s1,0(a0)
   1cc30:	557d                	c.li	a0,-1
   1cc32:	60e2                	c.ldsp	ra,24(sp)
   1cc34:	6442                	c.ldsp	s0,16(sp)
   1cc36:	64a2                	c.ldsp	s1,8(sp)
   1cc38:	6902                	c.ldsp	s2,0(sp)
   1cc3a:	6105                	c.addi16sp	sp,32
   1cc3c:	8082                	c.jr	ra
   1cc3e:	88a1b023          	sd	a0,-1920(gp) # 2b500 <heap_end.2510>
   1cc42:	8801b503          	ld	a0,-1920(gp) # 2b500 <heap_end.2510>
   1cc46:	4581                	c.li	a1,0
   1cc48:	4601                	c.li	a2,0
   1cc4a:	954a                	c.add	a0,s2
   1cc4c:	4681                	c.li	a3,0
   1cc4e:	4701                	c.li	a4,0
   1cc50:	4781                	c.li	a5,0
   1cc52:	0d600893          	addi	a7,zero,214
   1cc56:	00000073          	ecall
   1cc5a:	84aa                	c.mv	s1,a0
   1cc5c:	00055863          	bge	a0,zero,1cc6c <_sbrk+0x70>
   1cc60:	409004bb          	subw	s1,zero,s1
   1cc64:	08e000ef          	jal	ra,1ccf2 <__errno>
   1cc68:	c104                	c.sw	s1,0(a0)
   1cc6a:	54fd                	c.li	s1,-1
   1cc6c:	8801b783          	ld	a5,-1920(gp) # 2b500 <heap_end.2510>
   1cc70:	557d                	c.li	a0,-1
   1cc72:	993e                	c.add	s2,a5
   1cc74:	fb249fe3          	bne	s1,s2,1cc32 <_sbrk+0x36>
   1cc78:	8891b023          	sd	s1,-1920(gp) # 2b500 <heap_end.2510>
   1cc7c:	853e                	c.mv	a0,a5
   1cc7e:	bf55                	c.j	1cc32 <_sbrk+0x36>

000000000001cc80 <_write>:
   1cc80:	1141                	c.addi	sp,-16
   1cc82:	e406                	c.sdsp	ra,8(sp)
   1cc84:	e022                	c.sdsp	s0,0(sp)
   1cc86:	4681                	c.li	a3,0
   1cc88:	4701                	c.li	a4,0
   1cc8a:	4781                	c.li	a5,0
   1cc8c:	04000893          	addi	a7,zero,64
   1cc90:	00000073          	ecall
   1cc94:	842a                	c.mv	s0,a0
   1cc96:	00055863          	bge	a0,zero,1cca6 <_write+0x26>
   1cc9a:	4080043b          	subw	s0,zero,s0
   1cc9e:	054000ef          	jal	ra,1ccf2 <__errno>
   1cca2:	c100                	c.sw	s0,0(a0)
   1cca4:	547d                	c.li	s0,-1
   1cca6:	8522                	c.mv	a0,s0
   1cca8:	60a2                	c.ldsp	ra,8(sp)
   1ccaa:	6402                	c.ldsp	s0,0(sp)
   1ccac:	0141                	c.addi	sp,16
   1ccae:	8082                	c.jr	ra

000000000001ccb0 <_conv_stat>:
   1ccb0:	619c                	c.ld	a5,0(a1)
   1ccb2:	00f51023          	sh	a5,0(a0)
   1ccb6:	659c                	c.ld	a5,8(a1)
   1ccb8:	00f51123          	sh	a5,2(a0)
   1ccbc:	499c                	c.lw	a5,16(a1)
   1ccbe:	c15c                	c.sw	a5,4(a0)
   1ccc0:	49dc                	c.lw	a5,20(a1)
   1ccc2:	00f51423          	sh	a5,8(a0)
   1ccc6:	4d9c                	c.lw	a5,24(a1)
   1ccc8:	00f51523          	sh	a5,10(a0)
   1cccc:	4ddc                	c.lw	a5,28(a1)
   1ccce:	00f51623          	sh	a5,12(a0)
   1ccd2:	719c                	c.ld	a5,32(a1)
   1ccd4:	00f51723          	sh	a5,14(a0)
   1ccd8:	799c                	c.ld	a5,48(a1)
   1ccda:	e91c                	c.sd	a5,16(a0)
   1ccdc:	61bc                	c.ld	a5,64(a1)
   1ccde:	e93c                	c.sd	a5,80(a0)
   1cce0:	5d9c                	c.lw	a5,56(a1)
   1cce2:	e53c                	c.sd	a5,72(a0)
   1cce4:	65bc                	c.ld	a5,72(a1)
   1cce6:	ed1c                	c.sd	a5,24(a0)
   1cce8:	6dbc                	c.ld	a5,88(a1)
   1ccea:	f51c                	c.sd	a5,40(a0)
   1ccec:	75bc                	c.ld	a5,104(a1)
   1ccee:	fd1c                	c.sd	a5,56(a0)
   1ccf0:	8082                	c.jr	ra

000000000001ccf2 <__errno>:
   1ccf2:	8401b503          	ld	a0,-1984(gp) # 2b4c0 <_impure_ptr>
   1ccf6:	8082                	c.jr	ra

000000000001ccf8 <__eqtf2>:
   1ccf8:	1141                	c.addi	sp,-16
   1ccfa:	002027f3          	frrm	a5
   1ccfe:	6721                	c.lui	a4,0x8
   1cd00:	0305d893          	srli	a7,a1,0x30
   1cd04:	177d                	c.addi	a4,-1
   1cd06:	57fd                	c.li	a5,-1
   1cd08:	83c1                	c.srli	a5,0x10
   1cd0a:	0306d313          	srli	t1,a3,0x30
   1cd0e:	00e8f8b3          	and	a7,a7,a4
   1cd12:	00f5f833          	and	a6,a1,a5
   1cd16:	00e37333          	and	t1,t1,a4
   1cd1a:	8ff5                	c.and	a5,a3
   1cd1c:	91fd                	c.srli	a1,0x3f
   1cd1e:	92fd                	c.srli	a3,0x3f
   1cd20:	00e89963          	bne	a7,a4,1cd32 <__eqtf2+0x3a>
   1cd24:	00a86733          	or	a4,a6,a0
   1cd28:	ef11                	c.bnez	a4,1cd44 <__eqtf2+0x4c>
   1cd2a:	4705                	c.li	a4,1
   1cd2c:	07131063          	bne	t1,a7,1cd8c <__eqtf2+0x94>
   1cd30:	a019                	c.j	1cd36 <__eqtf2+0x3e>
   1cd32:	02e31e63          	bne	t1,a4,1cd6e <__eqtf2+0x76>
   1cd36:	00c7e733          	or	a4,a5,a2
   1cd3a:	cb15                	c.beqz	a4,1cd6e <__eqtf2+0x76>
   1cd3c:	6721                	c.lui	a4,0x8
   1cd3e:	177d                	c.addi	a4,-1
   1cd40:	00e89e63          	bne	a7,a4,1cd5c <__eqtf2+0x64>
   1cd44:	00a86533          	or	a0,a6,a0
   1cd48:	c509                	c.beqz	a0,1cd52 <__eqtf2+0x5a>
   1cd4a:	02f85813          	srli	a6,a6,0x2f
   1cd4e:	04080363          	beq	a6,zero,1cd94 <__eqtf2+0x9c>
   1cd52:	6721                	c.lui	a4,0x8
   1cd54:	177d                	c.addi	a4,-1
   1cd56:	4505                	c.li	a0,1
   1cd58:	00e31963          	bne	t1,a4,1cd6a <__eqtf2+0x72>
   1cd5c:	8e5d                	c.or	a2,a5
   1cd5e:	4505                	c.li	a0,1
   1cd60:	c609                	c.beqz	a2,1cd6a <__eqtf2+0x72>
   1cd62:	02f51713          	slli	a4,a0,0x2f
   1cd66:	8ff9                	c.and	a5,a4
   1cd68:	c795                	c.beqz	a5,1cd94 <__eqtf2+0x9c>
   1cd6a:	0141                	c.addi	sp,16
   1cd6c:	8082                	c.jr	ra
   1cd6e:	4705                	c.li	a4,1
   1cd70:	00689e63          	bne	a7,t1,1cd8c <__eqtf2+0x94>
   1cd74:	00f81c63          	bne	a6,a5,1cd8c <__eqtf2+0x94>
   1cd78:	00c51a63          	bne	a0,a2,1cd8c <__eqtf2+0x94>
   1cd7c:	00d58a63          	beq	a1,a3,1cd90 <__eqtf2+0x98>
   1cd80:	00089663          	bne	a7,zero,1cd8c <__eqtf2+0x94>
   1cd84:	00a86533          	or	a0,a6,a0
   1cd88:	00a03733          	sltu	a4,zero,a0
   1cd8c:	853a                	c.mv	a0,a4
   1cd8e:	bff1                	c.j	1cd6a <__eqtf2+0x72>
   1cd90:	4701                	c.li	a4,0
   1cd92:	bfed                	c.j	1cd8c <__eqtf2+0x94>
   1cd94:	00186073          	csrrsi	zero,fflags,16
   1cd98:	4505                	c.li	a0,1
   1cd9a:	bfc1                	c.j	1cd6a <__eqtf2+0x72>

000000000001cd9c <__getf2>:
   1cd9c:	1141                	c.addi	sp,-16
   1cd9e:	002027f3          	frrm	a5
   1cda2:	68a1                	c.lui	a7,0x8
   1cda4:	0305d713          	srli	a4,a1,0x30
   1cda8:	18fd                	c.addi	a7,-1
   1cdaa:	57fd                	c.li	a5,-1
   1cdac:	83c1                	c.srli	a5,0x10
   1cdae:	0306d813          	srli	a6,a3,0x30
   1cdb2:	01177733          	and	a4,a4,a7
   1cdb6:	00f5f333          	and	t1,a1,a5
   1cdba:	01187833          	and	a6,a6,a7
   1cdbe:	8ff5                	c.and	a5,a3
   1cdc0:	91fd                	c.srli	a1,0x3f
   1cdc2:	92fd                	c.srli	a3,0x3f
   1cdc4:	01171a63          	bne	a4,a7,1cdd8 <__getf2+0x3c>
   1cdc8:	00a368b3          	or	a7,t1,a0
   1cdcc:	08088463          	beq	a7,zero,1ce54 <__getf2+0xb8>
   1cdd0:	00186073          	csrrsi	zero,fflags,16
   1cdd4:	57f9                	c.li	a5,-2
   1cdd6:	a089                	c.j	1ce18 <__getf2+0x7c>
   1cdd8:	01181c63          	bne	a6,a7,1cdf0 <__getf2+0x54>
   1cddc:	00c7e8b3          	or	a7,a5,a2
   1cde0:	fe0898e3          	bne	a7,zero,1cdd0 <__getf2+0x34>
   1cde4:	e31d                	c.bnez	a4,1ce0a <__getf2+0x6e>
   1cde6:	00a368b3          	or	a7,t1,a0
   1cdea:	0018b893          	sltiu	a7,a7,1
   1cdee:	a821                	c.j	1ce06 <__getf2+0x6a>
   1cdf0:	e725                	c.bnez	a4,1ce58 <__getf2+0xbc>
   1cdf2:	00a368b3          	or	a7,t1,a0
   1cdf6:	0018b893          	sltiu	a7,a7,1
   1cdfa:	00081663          	bne	a6,zero,1ce06 <__getf2+0x6a>
   1cdfe:	00c7ee33          	or	t3,a5,a2
   1ce02:	040e0563          	beq	t3,zero,1ce4c <__getf2+0xb0>
   1ce06:	00089c63          	bne	a7,zero,1ce1e <__getf2+0x82>
   1ce0a:	00d59463          	bne	a1,a3,1ce12 <__getf2+0x76>
   1ce0e:	00e85c63          	bge	a6,a4,1ce26 <__getf2+0x8a>
   1ce12:	4785                	c.li	a5,1
   1ce14:	c191                	c.beqz	a1,1ce18 <__getf2+0x7c>
   1ce16:	57fd                	c.li	a5,-1
   1ce18:	853e                	c.mv	a0,a5
   1ce1a:	0141                	c.addi	sp,16
   1ce1c:	8082                	c.jr	ra
   1ce1e:	57fd                	c.li	a5,-1
   1ce20:	dee5                	c.beqz	a3,1ce18 <__getf2+0x7c>
   1ce22:	4785                	c.li	a5,1
   1ce24:	bfd5                	c.j	1ce18 <__getf2+0x7c>
   1ce26:	01075563          	bge	a4,a6,1ce30 <__getf2+0x94>
   1ce2a:	57fd                	c.li	a5,-1
   1ce2c:	f9fd                	c.bnez	a1,1ce22 <__getf2+0x86>
   1ce2e:	b7ed                	c.j	1ce18 <__getf2+0x7c>
   1ce30:	fe67e1e3          	bltu	a5,t1,1ce12 <__getf2+0x76>
   1ce34:	00f31863          	bne	t1,a5,1ce44 <__getf2+0xa8>
   1ce38:	fca66de3          	bltu	a2,a0,1ce12 <__getf2+0x76>
   1ce3c:	4781                	c.li	a5,0
   1ce3e:	fcc57de3          	bgeu	a0,a2,1ce18 <__getf2+0x7c>
   1ce42:	b7e5                	c.j	1ce2a <__getf2+0x8e>
   1ce44:	fef363e3          	bltu	t1,a5,1ce2a <__getf2+0x8e>
   1ce48:	4781                	c.li	a5,0
   1ce4a:	b7f9                	c.j	1ce18 <__getf2+0x7c>
   1ce4c:	4781                	c.li	a5,0
   1ce4e:	fc0895e3          	bne	a7,zero,1ce18 <__getf2+0x7c>
   1ce52:	b7c1                	c.j	1ce12 <__getf2+0x76>
   1ce54:	f8e804e3          	beq	a6,a4,1cddc <__getf2+0x40>
   1ce58:	4881                	c.li	a7,0
   1ce5a:	fa0802e3          	beq	a6,zero,1cdfe <__getf2+0x62>
   1ce5e:	b775                	c.j	1ce0a <__getf2+0x6e>

000000000001ce60 <__letf2>:
   1ce60:	1141                	c.addi	sp,-16
   1ce62:	002027f3          	frrm	a5
   1ce66:	68a1                	c.lui	a7,0x8
   1ce68:	0305d713          	srli	a4,a1,0x30
   1ce6c:	18fd                	c.addi	a7,-1
   1ce6e:	57fd                	c.li	a5,-1
   1ce70:	83c1                	c.srli	a5,0x10
   1ce72:	0306d813          	srli	a6,a3,0x30
   1ce76:	01177733          	and	a4,a4,a7
   1ce7a:	00f5f333          	and	t1,a1,a5
   1ce7e:	01187833          	and	a6,a6,a7
   1ce82:	8ff5                	c.and	a5,a3
   1ce84:	91fd                	c.srli	a1,0x3f
   1ce86:	92fd                	c.srli	a3,0x3f
   1ce88:	01171a63          	bne	a4,a7,1ce9c <__letf2+0x3c>
   1ce8c:	00a368b3          	or	a7,t1,a0
   1ce90:	08088463          	beq	a7,zero,1cf18 <__letf2+0xb8>
   1ce94:	00186073          	csrrsi	zero,fflags,16
   1ce98:	4789                	c.li	a5,2
   1ce9a:	a089                	c.j	1cedc <__letf2+0x7c>
   1ce9c:	01181c63          	bne	a6,a7,1ceb4 <__letf2+0x54>
   1cea0:	00c7e8b3          	or	a7,a5,a2
   1cea4:	fe0898e3          	bne	a7,zero,1ce94 <__letf2+0x34>
   1cea8:	e31d                	c.bnez	a4,1cece <__letf2+0x6e>
   1ceaa:	00a368b3          	or	a7,t1,a0
   1ceae:	0018b893          	sltiu	a7,a7,1
   1ceb2:	a821                	c.j	1ceca <__letf2+0x6a>
   1ceb4:	e725                	c.bnez	a4,1cf1c <__letf2+0xbc>
   1ceb6:	00a368b3          	or	a7,t1,a0
   1ceba:	0018b893          	sltiu	a7,a7,1
   1cebe:	00081663          	bne	a6,zero,1ceca <__letf2+0x6a>
   1cec2:	00c7ee33          	or	t3,a5,a2
   1cec6:	040e0563          	beq	t3,zero,1cf10 <__letf2+0xb0>
   1ceca:	00089c63          	bne	a7,zero,1cee2 <__letf2+0x82>
   1cece:	00d59463          	bne	a1,a3,1ced6 <__letf2+0x76>
   1ced2:	00e85c63          	bge	a6,a4,1ceea <__letf2+0x8a>
   1ced6:	4785                	c.li	a5,1
   1ced8:	c191                	c.beqz	a1,1cedc <__letf2+0x7c>
   1ceda:	57fd                	c.li	a5,-1
   1cedc:	853e                	c.mv	a0,a5
   1cede:	0141                	c.addi	sp,16
   1cee0:	8082                	c.jr	ra
   1cee2:	57fd                	c.li	a5,-1
   1cee4:	dee5                	c.beqz	a3,1cedc <__letf2+0x7c>
   1cee6:	4785                	c.li	a5,1
   1cee8:	bfd5                	c.j	1cedc <__letf2+0x7c>
   1ceea:	01075563          	bge	a4,a6,1cef4 <__letf2+0x94>
   1ceee:	57fd                	c.li	a5,-1
   1cef0:	f9fd                	c.bnez	a1,1cee6 <__letf2+0x86>
   1cef2:	b7ed                	c.j	1cedc <__letf2+0x7c>
   1cef4:	fe67e1e3          	bltu	a5,t1,1ced6 <__letf2+0x76>
   1cef8:	00f31863          	bne	t1,a5,1cf08 <__letf2+0xa8>
   1cefc:	fca66de3          	bltu	a2,a0,1ced6 <__letf2+0x76>
   1cf00:	4781                	c.li	a5,0
   1cf02:	fcc57de3          	bgeu	a0,a2,1cedc <__letf2+0x7c>
   1cf06:	b7e5                	c.j	1ceee <__letf2+0x8e>
   1cf08:	fef363e3          	bltu	t1,a5,1ceee <__letf2+0x8e>
   1cf0c:	4781                	c.li	a5,0
   1cf0e:	b7f9                	c.j	1cedc <__letf2+0x7c>
   1cf10:	4781                	c.li	a5,0
   1cf12:	fc0895e3          	bne	a7,zero,1cedc <__letf2+0x7c>
   1cf16:	b7c1                	c.j	1ced6 <__letf2+0x76>
   1cf18:	f8e804e3          	beq	a6,a4,1cea0 <__letf2+0x40>
   1cf1c:	4881                	c.li	a7,0
   1cf1e:	fa0802e3          	beq	a6,zero,1cec2 <__letf2+0x62>
   1cf22:	b775                	c.j	1cece <__letf2+0x6e>

000000000001cf24 <__multf3>:
   1cf24:	7159                	c.addi16sp	sp,-112
   1cf26:	f85a                	c.sdsp	s6,48(sp)
   1cf28:	ec66                	c.sdsp	s9,24(sp)
   1cf2a:	f486                	c.sdsp	ra,104(sp)
   1cf2c:	f0a2                	c.sdsp	s0,96(sp)
   1cf2e:	eca6                	c.sdsp	s1,88(sp)
   1cf30:	e8ca                	c.sdsp	s2,80(sp)
   1cf32:	e4ce                	c.sdsp	s3,72(sp)
   1cf34:	e0d2                	c.sdsp	s4,64(sp)
   1cf36:	fc56                	c.sdsp	s5,56(sp)
   1cf38:	f45e                	c.sdsp	s7,40(sp)
   1cf3a:	f062                	c.sdsp	s8,32(sp)
   1cf3c:	8cb2                	c.mv	s9,a2
   1cf3e:	8b36                	c.mv	s6,a3
   1cf40:	00202af3          	frrm	s5
   1cf44:	57fd                	c.li	a5,-1
   1cf46:	83c1                	c.srli	a5,0x10
   1cf48:	00f5f933          	and	s2,a1,a5
   1cf4c:	67a1                	c.lui	a5,0x8
   1cf4e:	0305da13          	srli	s4,a1,0x30
   1cf52:	17fd                	c.addi	a5,-1
   1cf54:	00fa76b3          	and	a3,s4,a5
   1cf58:	00068a1b          	addiw	s4,a3,0
   1cf5c:	2a81                	c.addiw	s5,0
   1cf5e:	03f5db93          	srli	s7,a1,0x3f
   1cf62:	020a0663          	beq	s4,zero,1cf8e <__multf3+0x6a>
   1cf66:	842a                	c.mv	s0,a0
   1cf68:	08fa0463          	beq	s4,a5,1cff0 <__multf3+0xcc>
   1cf6c:	4585                	c.li	a1,1
   1cf6e:	03d55613          	srli	a2,a0,0x3d
   1cf72:	15ce                	c.slli	a1,0x33
   1cf74:	7a71                	c.lui	s4,0xffffc
   1cf76:	00391793          	slli	a5,s2,0x3
   1cf7a:	8e4d                	c.or	a2,a1
   1cf7c:	0a05                	c.addi	s4,1
   1cf7e:	00f66933          	or	s2,a2,a5
   1cf82:	00351413          	slli	s0,a0,0x3
   1cf86:	9a36                	c.add	s4,a3
   1cf88:	4c01                	c.li	s8,0
   1cf8a:	4481                	c.li	s1,0
   1cf8c:	a89d                	c.j	1d002 <__multf3+0xde>
   1cf8e:	00a967b3          	or	a5,s2,a0
   1cf92:	84aa                	c.mv	s1,a0
   1cf94:	cfe9                	c.beqz	a5,1d06e <__multf3+0x14a>
   1cf96:	04090163          	beq	s2,zero,1cfd8 <__multf3+0xb4>
   1cf9a:	854a                	c.mv	a0,s2
   1cf9c:	216010ef          	jal	ra,1e1b2 <__clzdi2>
   1cfa0:	2501                	c.addiw	a0,0
   1cfa2:	ff150793          	addi	a5,a0,-15
   1cfa6:	03c00713          	addi	a4,zero,60
   1cfaa:	0007861b          	addiw	a2,a5,0
   1cfae:	02f74b63          	blt	a4,a5,1cfe4 <__multf3+0xc0>
   1cfb2:	03d00593          	addi	a1,zero,61
   1cfb6:	0036041b          	addiw	s0,a2,3
   1cfba:	40c5863b          	subw	a2,a1,a2
   1cfbe:	008917b3          	sll	a5,s2,s0
   1cfc2:	00c4d633          	srl	a2,s1,a2
   1cfc6:	00f66933          	or	s2,a2,a5
   1cfca:	00849433          	sll	s0,s1,s0
   1cfce:	7a71                	c.lui	s4,0xffffc
   1cfd0:	0a45                	c.addi	s4,17
   1cfd2:	40aa0a33          	sub	s4,s4,a0
   1cfd6:	bf4d                	c.j	1cf88 <__multf3+0x64>
   1cfd8:	1da010ef          	jal	ra,1e1b2 <__clzdi2>
   1cfdc:	2501                	c.addiw	a0,0
   1cfde:	04050513          	addi	a0,a0,64
   1cfe2:	b7c1                	c.j	1cfa2 <__multf3+0x7e>
   1cfe4:	fc36079b          	addiw	a5,a2,-61
   1cfe8:	00f49933          	sll	s2,s1,a5
   1cfec:	4401                	c.li	s0,0
   1cfee:	b7c5                	c.j	1cfce <__multf3+0xaa>
   1cff0:	00a967b3          	or	a5,s2,a0
   1cff4:	c3d1                	c.beqz	a5,1d078 <__multf3+0x154>
   1cff6:	01091793          	slli	a5,s2,0x10
   1cffa:	4c0d                	c.li	s8,3
   1cffc:	44c1                	c.li	s1,16
   1cffe:	f807c6e3          	blt	a5,zero,1cf8a <__multf3+0x66>
   1d002:	6621                	c.lui	a2,0x8
   1d004:	030b5513          	srli	a0,s6,0x30
   1d008:	167d                	c.addi	a2,-1
   1d00a:	59fd                	c.li	s3,-1
   1d00c:	00c577b3          	and	a5,a0,a2
   1d010:	e45a                	c.sdsp	s6,8(sp)
   1d012:	0109d993          	srli	s3,s3,0x10
   1d016:	0007851b          	addiw	a0,a5,0
   1d01a:	013b79b3          	and	s3,s6,s3
   1d01e:	8766                	c.mv	a4,s9
   1d020:	03fb5b13          	srli	s6,s6,0x3f
   1d024:	cd31                	c.beqz	a0,1d080 <__multf3+0x15c>
   1d026:	0ac50e63          	beq	a0,a2,1d0e2 <__multf3+0x1be>
   1d02a:	4605                	c.li	a2,1
   1d02c:	03dcd693          	srli	a3,s9,0x3d
   1d030:	164e                	c.slli	a2,0x33
   1d032:	7571                	c.lui	a0,0xffffc
   1d034:	098e                	c.slli	s3,0x3
   1d036:	8ed1                	c.or	a3,a2
   1d038:	0505                	c.addi	a0,1
   1d03a:	0136e9b3          	or	s3,a3,s3
   1d03e:	003c9713          	slli	a4,s9,0x3
   1d042:	953e                	c.add	a0,a5
   1d044:	4681                	c.li	a3,0
   1d046:	002c1793          	slli	a5,s8,0x2
   1d04a:	8fd5                	c.or	a5,a3
   1d04c:	9a2a                	c.add	s4,a0
   1d04e:	17fd                	c.addi	a5,-1
   1d050:	4639                	c.li	a2,14
   1d052:	016bc833          	xor	a6,s7,s6
   1d056:	001a0893          	addi	a7,s4,1 # ffffffffffffc001 <__global_pointer$+0xfffffffffffd0381>
   1d05a:	0cf66a63          	bltu	a2,a5,1d12e <__multf3+0x20a>
   1d05e:	00029637          	lui	a2,0x29
   1d062:	078a                	c.slli	a5,0x2
   1d064:	22860613          	addi	a2,a2,552 # 29228 <zeroes.4403+0x10>
   1d068:	97b2                	c.add	a5,a2
   1d06a:	439c                	c.lw	a5,0(a5)
   1d06c:	8782                	c.jr	a5
   1d06e:	4901                	c.li	s2,0
   1d070:	4401                	c.li	s0,0
   1d072:	4a01                	c.li	s4,0
   1d074:	4c05                	c.li	s8,1
   1d076:	bf11                	c.j	1cf8a <__multf3+0x66>
   1d078:	4901                	c.li	s2,0
   1d07a:	4401                	c.li	s0,0
   1d07c:	4c09                	c.li	s8,2
   1d07e:	b731                	c.j	1cf8a <__multf3+0x66>
   1d080:	0199e7b3          	or	a5,s3,s9
   1d084:	cbad                	c.beqz	a5,1d0f6 <__multf3+0x1d2>
   1d086:	04098163          	beq	s3,zero,1d0c8 <__multf3+0x1a4>
   1d08a:	854e                	c.mv	a0,s3
   1d08c:	126010ef          	jal	ra,1e1b2 <__clzdi2>
   1d090:	2501                	c.addiw	a0,0
   1d092:	ff150713          	addi	a4,a0,-15 # ffffffffffffbff1 <__global_pointer$+0xfffffffffffd0371>
   1d096:	03c00693          	addi	a3,zero,60
   1d09a:	0007079b          	addiw	a5,a4,0
   1d09e:	02e6cc63          	blt	a3,a4,1d0d6 <__multf3+0x1b2>
   1d0a2:	03d00693          	addi	a3,zero,61
   1d0a6:	0037871b          	addiw	a4,a5,3
   1d0aa:	40f687bb          	subw	a5,a3,a5
   1d0ae:	00e999b3          	sll	s3,s3,a4
   1d0b2:	00fcd7b3          	srl	a5,s9,a5
   1d0b6:	0137e9b3          	or	s3,a5,s3
   1d0ba:	00ec9733          	sll	a4,s9,a4
   1d0be:	77f1                	c.lui	a5,0xffffc
   1d0c0:	07c5                	c.addi	a5,17
   1d0c2:	40a78533          	sub	a0,a5,a0
   1d0c6:	bfbd                	c.j	1d044 <__multf3+0x120>
   1d0c8:	8566                	c.mv	a0,s9
   1d0ca:	0e8010ef          	jal	ra,1e1b2 <__clzdi2>
   1d0ce:	2501                	c.addiw	a0,0
   1d0d0:	04050513          	addi	a0,a0,64
   1d0d4:	bf7d                	c.j	1d092 <__multf3+0x16e>
   1d0d6:	fc37899b          	addiw	s3,a5,-61
   1d0da:	013c99b3          	sll	s3,s9,s3
   1d0de:	4701                	c.li	a4,0
   1d0e0:	bff9                	c.j	1d0be <__multf3+0x19a>
   1d0e2:	0199e7b3          	or	a5,s3,s9
   1d0e6:	cf89                	c.beqz	a5,1d100 <__multf3+0x1dc>
   1d0e8:	01099793          	slli	a5,s3,0x10
   1d0ec:	468d                	c.li	a3,3
   1d0ee:	f407cce3          	blt	a5,zero,1d046 <__multf3+0x122>
   1d0f2:	44c1                	c.li	s1,16
   1d0f4:	bf89                	c.j	1d046 <__multf3+0x122>
   1d0f6:	4981                	c.li	s3,0
   1d0f8:	4701                	c.li	a4,0
   1d0fa:	4501                	c.li	a0,0
   1d0fc:	4685                	c.li	a3,1
   1d0fe:	b7a1                	c.j	1d046 <__multf3+0x122>
   1d100:	4981                	c.li	s3,0
   1d102:	4701                	c.li	a4,0
   1d104:	4689                	c.li	a3,2
   1d106:	b781                	c.j	1d046 <__multf3+0x122>
   1d108:	4785                	c.li	a5,1
   1d10a:	02f79913          	slli	s2,a5,0x2f
   1d10e:	4401                	c.li	s0,0
   1d110:	4801                	c.li	a6,0
   1d112:	4c0d                	c.li	s8,3
   1d114:	4789                	c.li	a5,2
   1d116:	44fc0663          	beq	s8,a5,1d562 <__multf3+0x63e>
   1d11a:	478d                	c.li	a5,3
   1d11c:	42fc0263          	beq	s8,a5,1d540 <__multf3+0x61c>
   1d120:	4785                	c.li	a5,1
   1d122:	1afc1d63          	bne	s8,a5,1d2dc <__multf3+0x3b8>
   1d126:	4701                	c.li	a4,0
   1d128:	4501                	c.li	a0,0
   1d12a:	4781                	c.li	a5,0
   1d12c:	ac25                	c.j	1d364 <__multf3+0x440>
   1d12e:	57fd                	c.li	a5,-1
   1d130:	9381                	c.srli	a5,0x20
   1d132:	00890333          	add	t1,s2,s0
   1d136:	01370e33          	add	t3,a4,s3
   1d13a:	02045e93          	srli	t4,s0,0x20
   1d13e:	02075693          	srli	a3,a4,0x20
   1d142:	00833f33          	sltu	t5,t1,s0
   1d146:	00ee3fb3          	sltu	t6,t3,a4
   1d14a:	8c7d                	c.and	s0,a5
   1d14c:	8f7d                	c.and	a4,a5
   1d14e:	028705b3          	mul	a1,a4,s0
   1d152:	000f029b          	addiw	t0,t5,0
   1d156:	000f839b          	addiw	t2,t6,0
   1d15a:	02ee8733          	mul	a4,t4,a4
   1d15e:	02de87b3          	mul	a5,t4,a3
   1d162:	028686b3          	mul	a3,a3,s0
   1d166:	0205d413          	srli	s0,a1,0x20
   1d16a:	96ba                	c.add	a3,a4
   1d16c:	9436                	c.add	s0,a3
   1d16e:	00e47563          	bgeu	s0,a4,1d178 <__multf3+0x254>
   1d172:	4705                	c.li	a4,1
   1d174:	1702                	c.slli	a4,0x20
   1d176:	97ba                	c.add	a5,a4
   1d178:	577d                	c.li	a4,-1
   1d17a:	9301                	c.srli	a4,0x20
   1d17c:	02045e93          	srli	t4,s0,0x20
   1d180:	00e47633          	and	a2,s0,a4
   1d184:	8df9                	c.and	a1,a4
   1d186:	02035513          	srli	a0,t1,0x20
   1d18a:	020e5693          	srli	a3,t3,0x20
   1d18e:	9ebe                	c.add	t4,a5
   1d190:	00e377b3          	and	a5,t1,a4
   1d194:	00ee7733          	and	a4,t3,a4
   1d198:	02e78433          	mul	s0,a5,a4
   1d19c:	1602                	c.slli	a2,0x20
   1d19e:	962e                	c.add	a2,a1
   1d1a0:	02e50733          	mul	a4,a0,a4
   1d1a4:	02d50bb3          	mul	s7,a0,a3
   1d1a8:	02f686b3          	mul	a3,a3,a5
   1d1ac:	02045793          	srli	a5,s0,0x20
   1d1b0:	96ba                	c.add	a3,a4
   1d1b2:	97b6                	c.add	a5,a3
   1d1b4:	00e7f563          	bgeu	a5,a4,1d1be <__multf3+0x29a>
   1d1b8:	4705                	c.li	a4,1
   1d1ba:	1702                	c.slli	a4,0x20
   1d1bc:	9bba                	c.add	s7,a4
   1d1be:	557d                	c.li	a0,-1
   1d1c0:	9101                	c.srli	a0,0x20
   1d1c2:	0207db13          	srli	s6,a5,0x20
   1d1c6:	8fe9                	c.and	a5,a0
   1d1c8:	1782                	c.slli	a5,0x20
   1d1ca:	8c69                	c.and	s0,a0
   1d1cc:	02095693          	srli	a3,s2,0x20
   1d1d0:	0209d593          	srli	a1,s3,0x20
   1d1d4:	943e                	c.add	s0,a5
   1d1d6:	00a9f9b3          	and	s3,s3,a0
   1d1da:	00a977b3          	and	a5,s2,a0
   1d1de:	03378533          	mul	a0,a5,s3
   1d1e2:	033689b3          	mul	s3,a3,s3
   1d1e6:	02055913          	srli	s2,a0,0x20
   1d1ea:	02b686b3          	mul	a3,a3,a1
   1d1ee:	02f585b3          	mul	a1,a1,a5
   1d1f2:	95ce                	c.add	a1,s3
   1d1f4:	992e                	c.add	s2,a1
   1d1f6:	01397563          	bgeu	s2,s3,1d200 <__multf3+0x2dc>
   1d1fa:	4785                	c.li	a5,1
   1d1fc:	1782                	c.slli	a5,0x20
   1d1fe:	96be                	c.add	a3,a5
   1d200:	577d                	c.li	a4,-1
   1d202:	02095793          	srli	a5,s2,0x20
   1d206:	9301                	c.srli	a4,0x20
   1d208:	8d79                	c.and	a0,a4
   1d20a:	96be                	c.add	a3,a5
   1d20c:	00e977b3          	and	a5,s2,a4
   1d210:	01d40733          	add	a4,s0,t4
   1d214:	01d735b3          	sltu	a1,a4,t4
   1d218:	1782                	c.slli	a5,0x20
   1d21a:	97aa                	c.add	a5,a0
   1d21c:	407003bb          	subw	t2,zero,t2
   1d220:	00bb0533          	add	a0,s6,a1
   1d224:	955e                	c.add	a0,s7
   1d226:	405002bb          	subw	t0,zero,t0
   1d22a:	00737333          	and	t1,t1,t2
   1d22e:	932a                	c.add	t1,a0
   1d230:	005e7e33          	and	t3,t3,t0
   1d234:	00b535b3          	sltu	a1,a0,a1
   1d238:	01ff7f33          	and	t5,t5,t6
   1d23c:	9e1a                	c.add	t3,t1
   1d23e:	00a33533          	sltu	a0,t1,a0
   1d242:	95fa                	c.add	a1,t5
   1d244:	95aa                	c.add	a1,a0
   1d246:	006e3333          	sltu	t1,t3,t1
   1d24a:	40c70f33          	sub	t5,a4,a2
   1d24e:	41de0533          	sub	a0,t3,t4
   1d252:	959a                	c.add	a1,t1
   1d254:	01e73333          	sltu	t1,a4,t5
   1d258:	00ae3933          	sltu	s2,t3,a0
   1d25c:	4281                	c.li	t0,0
   1d25e:	40650533          	sub	a0,a0,t1
   1d262:	01e77663          	bgeu	a4,t5,1d26e <__multf3+0x34a>
   1d266:	41ce8e33          	sub	t3,t4,t3
   1d26a:	001e3293          	sltiu	t0,t3,1
   1d26e:	40ff0333          	sub	t1,t5,a5
   1d272:	95b6                	c.add	a1,a3
   1d274:	006f3433          	sltu	s0,t5,t1
   1d278:	40d506b3          	sub	a3,a0,a3
   1d27c:	0122ee33          	or	t3,t0,s2
   1d280:	00d53533          	sltu	a0,a0,a3
   1d284:	40878433          	sub	s0,a5,s0
   1d288:	4901                	c.li	s2,0
   1d28a:	006f7463          	bgeu	t5,t1,1d292 <__multf3+0x36e>
   1d28e:	0016b913          	sltiu	s2,a3,1
   1d292:	96a2                	c.add	a3,s0
   1d294:	00f6b7b3          	sltu	a5,a3,a5
   1d298:	97ae                	c.add	a5,a1
   1d29a:	00a96533          	or	a0,s2,a0
   1d29e:	41c787b3          	sub	a5,a5,t3
   1d2a2:	8f89                	c.sub	a5,a0
   1d2a4:	00d31413          	slli	s0,t1,0xd
   1d2a8:	07b6                	c.slli	a5,0xd
   1d2aa:	0336d713          	srli	a4,a3,0x33
   1d2ae:	8c51                	c.or	s0,a2
   1d2b0:	00e7e933          	or	s2,a5,a4
   1d2b4:	00803433          	sltu	s0,zero,s0
   1d2b8:	03335513          	srli	a0,t1,0x33
   1d2bc:	8c49                	c.or	s0,a0
   1d2be:	06b6                	c.slli	a3,0xd
   1d2c0:	00b91793          	slli	a5,s2,0xb
   1d2c4:	8c55                	c.or	s0,a3
   1d2c6:	0607d063          	bge	a5,zero,1d326 <__multf3+0x402>
   1d2ca:	00145793          	srli	a5,s0,0x1
   1d2ce:	8805                	c.andi	s0,1
   1d2d0:	03f91513          	slli	a0,s2,0x3f
   1d2d4:	8c5d                	c.or	s0,a5
   1d2d6:	8c49                	c.or	s0,a0
   1d2d8:	00195913          	srli	s2,s2,0x1
   1d2dc:	6791                	c.lui	a5,0x4
   1d2de:	17fd                	c.addi	a5,-1
   1d2e0:	97c6                	c.add	a5,a7
   1d2e2:	10f05463          	bge	zero,a5,1d3ea <__multf3+0x4c6>
   1d2e6:	00747713          	andi	a4,s0,7
   1d2ea:	c739                	c.beqz	a4,1d338 <__multf3+0x414>
   1d2ec:	4709                	c.li	a4,2
   1d2ee:	0014e493          	ori	s1,s1,1
   1d2f2:	04ea8163          	beq	s5,a4,1d334 <__multf3+0x410>
   1d2f6:	470d                	c.li	a4,3
   1d2f8:	02ea8963          	beq	s5,a4,1d32a <__multf3+0x406>
   1d2fc:	020a9e63          	bne	s5,zero,1d338 <__multf3+0x414>
   1d300:	00f47713          	andi	a4,s0,15
   1d304:	4691                	c.li	a3,4
   1d306:	02d70963          	beq	a4,a3,1d338 <__multf3+0x414>
   1d30a:	00440713          	addi	a4,s0,4
   1d30e:	00873433          	sltu	s0,a4,s0
   1d312:	9922                	c.add	s2,s0
   1d314:	843a                	c.mv	s0,a4
   1d316:	a00d                	c.j	1d338 <__multf3+0x414>
   1d318:	885e                	c.mv	a6,s7
   1d31a:	bbed                	c.j	1d114 <__multf3+0x1f0>
   1d31c:	885a                	c.mv	a6,s6
   1d31e:	894e                	c.mv	s2,s3
   1d320:	843a                	c.mv	s0,a4
   1d322:	8c36                	c.mv	s8,a3
   1d324:	bbc5                	c.j	1d114 <__multf3+0x1f0>
   1d326:	88d2                	c.mv	a7,s4
   1d328:	bf55                	c.j	1d2dc <__multf3+0x3b8>
   1d32a:	00081763          	bne	a6,zero,1d338 <__multf3+0x414>
   1d32e:	00840713          	addi	a4,s0,8
   1d332:	bff1                	c.j	1d30e <__multf3+0x3ea>
   1d334:	fe081de3          	bne	a6,zero,1d32e <__multf3+0x40a>
   1d338:	00b91713          	slli	a4,s2,0xb
   1d33c:	00075963          	bge	a4,zero,1d34e <__multf3+0x42a>
   1d340:	57fd                	c.li	a5,-1
   1d342:	17d2                	c.slli	a5,0x34
   1d344:	17fd                	c.addi	a5,-1
   1d346:	00f97933          	and	s2,s2,a5
   1d34a:	6791                	c.lui	a5,0x4
   1d34c:	97c6                	c.add	a5,a7
   1d34e:	6721                	c.lui	a4,0x8
   1d350:	ffe70693          	addi	a3,a4,-2 # 7ffe <main-0x80b2>
   1d354:	06f6c163          	blt	a3,a5,1d3b6 <__multf3+0x492>
   1d358:	800d                	c.srli	s0,0x3
   1d35a:	03d91513          	slli	a0,s2,0x3d
   1d35e:	8d41                	c.or	a0,s0
   1d360:	00395713          	srli	a4,s2,0x3
   1d364:	56fd                	c.li	a3,-1
   1d366:	65a2                	c.ldsp	a1,8(sp)
   1d368:	0106d613          	srli	a2,a3,0x10
   1d36c:	8f71                	c.and	a4,a2
   1d36e:	03069613          	slli	a2,a3,0x30
   1d372:	8df1                	c.and	a1,a2
   1d374:	8f4d                	c.or	a4,a1
   1d376:	6621                	c.lui	a2,0x8
   1d378:	f80015b7          	lui	a1,0xf8001
   1d37c:	167d                	c.addi	a2,-1
   1d37e:	1592                	c.slli	a1,0x24
   1d380:	8ff1                	c.and	a5,a2
   1d382:	15fd                	c.addi	a1,-1
   1d384:	8df9                	c.and	a1,a4
   1d386:	17c2                	c.slli	a5,0x30
   1d388:	8fcd                	c.or	a5,a1
   1d38a:	0016d593          	srli	a1,a3,0x1
   1d38e:	187e                	c.slli	a6,0x3f
   1d390:	8dfd                	c.and	a1,a5
   1d392:	0105e5b3          	or	a1,a1,a6
   1d396:	c099                	c.beqz	s1,1d39c <__multf3+0x478>
   1d398:	0014a073          	csrrs	zero,fflags,s1
   1d39c:	70a6                	c.ldsp	ra,104(sp)
   1d39e:	7406                	c.ldsp	s0,96(sp)
   1d3a0:	64e6                	c.ldsp	s1,88(sp)
   1d3a2:	6946                	c.ldsp	s2,80(sp)
   1d3a4:	69a6                	c.ldsp	s3,72(sp)
   1d3a6:	6a06                	c.ldsp	s4,64(sp)
   1d3a8:	7ae2                	c.ldsp	s5,56(sp)
   1d3aa:	7b42                	c.ldsp	s6,48(sp)
   1d3ac:	7ba2                	c.ldsp	s7,40(sp)
   1d3ae:	7c02                	c.ldsp	s8,32(sp)
   1d3b0:	6ce2                	c.ldsp	s9,24(sp)
   1d3b2:	6165                	c.addi16sp	sp,112
   1d3b4:	8082                	c.jr	ra
   1d3b6:	4789                	c.li	a5,2
   1d3b8:	02fa8363          	beq	s5,a5,1d3de <__multf3+0x4ba>
   1d3bc:	460d                	c.li	a2,3
   1d3be:	fff70793          	addi	a5,a4,-1
   1d3c2:	00ca8663          	beq	s5,a2,1d3ce <__multf3+0x4aa>
   1d3c6:	000a9663          	bne	s5,zero,1d3d2 <__multf3+0x4ae>
   1d3ca:	4501                	c.li	a0,0
   1d3cc:	a029                	c.j	1d3d6 <__multf3+0x4b2>
   1d3ce:	fe080ee3          	beq	a6,zero,1d3ca <__multf3+0x4a6>
   1d3d2:	557d                	c.li	a0,-1
   1d3d4:	87b6                	c.mv	a5,a3
   1d3d6:	0054e493          	ori	s1,s1,5
   1d3da:	872a                	c.mv	a4,a0
   1d3dc:	b761                	c.j	1d364 <__multf3+0x440>
   1d3de:	fe080ae3          	beq	a6,zero,1d3d2 <__multf3+0x4ae>
   1d3e2:	4501                	c.li	a0,0
   1d3e4:	fff70793          	addi	a5,a4,-1
   1d3e8:	b7fd                	c.j	1d3d6 <__multf3+0x4b2>
   1d3ea:	4585                	c.li	a1,1
   1d3ec:	e7b1                	c.bnez	a5,1d438 <__multf3+0x514>
   1d3ee:	00747713          	andi	a4,s0,7
   1d3f2:	86ca                	c.mv	a3,s2
   1d3f4:	cf0d                	c.beqz	a4,1d42e <__multf3+0x50a>
   1d3f6:	4709                	c.li	a4,2
   1d3f8:	0014e493          	ori	s1,s1,1
   1d3fc:	02ea8763          	beq	s5,a4,1d42a <__multf3+0x506>
   1d400:	470d                	c.li	a4,3
   1d402:	00ea8f63          	beq	s5,a4,1d420 <__multf3+0x4fc>
   1d406:	020a9463          	bne	s5,zero,1d42e <__multf3+0x50a>
   1d40a:	00f47713          	andi	a4,s0,15
   1d40e:	4611                	c.li	a2,4
   1d410:	00c70f63          	beq	a4,a2,1d42e <__multf3+0x50a>
   1d414:	ffc43693          	sltiu	a3,s0,-4
   1d418:	0016c693          	xori	a3,a3,1
   1d41c:	96ca                	c.add	a3,s2
   1d41e:	a801                	c.j	1d42e <__multf3+0x50a>
   1d420:	00081763          	bne	a6,zero,1d42e <__multf3+0x50a>
   1d424:	ff843693          	sltiu	a3,s0,-8
   1d428:	bfc5                	c.j	1d418 <__multf3+0x4f4>
   1d42a:	fe081de3          	bne	a6,zero,1d424 <__multf3+0x500>
   1d42e:	92d1                	c.srli	a3,0x34
   1d430:	0016c693          	xori	a3,a3,1
   1d434:	0016f593          	andi	a1,a3,1
   1d438:	4705                	c.li	a4,1
   1d43a:	8f1d                	c.sub	a4,a5
   1d43c:	07400793          	addi	a5,zero,116
   1d440:	0ce7c363          	blt	a5,a4,1d506 <__multf3+0x5e2>
   1d444:	03f00793          	addi	a5,zero,63
   1d448:	0007069b          	addiw	a3,a4,0
   1d44c:	04e7ca63          	blt	a5,a4,1d4a0 <__multf3+0x57c>
   1d450:	04000513          	addi	a0,zero,64
   1d454:	9d15                	c.subw	a0,a3
   1d456:	00d457b3          	srl	a5,s0,a3
   1d45a:	00a91633          	sll	a2,s2,a0
   1d45e:	00a41433          	sll	s0,s0,a0
   1d462:	8e5d                	c.or	a2,a5
   1d464:	00803433          	sltu	s0,zero,s0
   1d468:	8c51                	c.or	s0,a2
   1d46a:	00d957b3          	srl	a5,s2,a3
   1d46e:	00747713          	andi	a4,s0,7
   1d472:	c325                	c.beqz	a4,1d4d2 <__multf3+0x5ae>
   1d474:	4709                	c.li	a4,2
   1d476:	0014e493          	ori	s1,s1,1
   1d47a:	04ea8a63          	beq	s5,a4,1d4ce <__multf3+0x5aa>
   1d47e:	470d                	c.li	a4,3
   1d480:	04ea8263          	beq	s5,a4,1d4c4 <__multf3+0x5a0>
   1d484:	040a9763          	bne	s5,zero,1d4d2 <__multf3+0x5ae>
   1d488:	00f47713          	andi	a4,s0,15
   1d48c:	4691                	c.li	a3,4
   1d48e:	04d70263          	beq	a4,a3,1d4d2 <__multf3+0x5ae>
   1d492:	00440713          	addi	a4,s0,4
   1d496:	00873433          	sltu	s0,a4,s0
   1d49a:	97a2                	c.add	a5,s0
   1d49c:	843a                	c.mv	s0,a4
   1d49e:	a815                	c.j	1d4d2 <__multf3+0x5ae>
   1d4a0:	04000513          	addi	a0,zero,64
   1d4a4:	00d95633          	srl	a2,s2,a3
   1d4a8:	4781                	c.li	a5,0
   1d4aa:	00a70763          	beq	a4,a0,1d4b8 <__multf3+0x594>
   1d4ae:	08000793          	addi	a5,zero,128
   1d4b2:	9f95                	c.subw	a5,a3
   1d4b4:	00f917b3          	sll	a5,s2,a5
   1d4b8:	8c5d                	c.or	s0,a5
   1d4ba:	00803433          	sltu	s0,zero,s0
   1d4be:	8c51                	c.or	s0,a2
   1d4c0:	4781                	c.li	a5,0
   1d4c2:	b775                	c.j	1d46e <__multf3+0x54a>
   1d4c4:	00081763          	bne	a6,zero,1d4d2 <__multf3+0x5ae>
   1d4c8:	00840713          	addi	a4,s0,8
   1d4cc:	b7e9                	c.j	1d496 <__multf3+0x572>
   1d4ce:	fe081de3          	bne	a6,zero,1d4c8 <__multf3+0x5a4>
   1d4d2:	00c79713          	slli	a4,a5,0xc
   1d4d6:	02075063          	bge	a4,zero,1d4f6 <__multf3+0x5d2>
   1d4da:	0014e493          	ori	s1,s1,1
   1d4de:	4701                	c.li	a4,0
   1d4e0:	4501                	c.li	a0,0
   1d4e2:	4785                	c.li	a5,1
   1d4e4:	e80580e3          	beq	a1,zero,1d364 <__multf3+0x440>
   1d4e8:	0014f693          	andi	a3,s1,1
   1d4ec:	e6068ce3          	beq	a3,zero,1d364 <__multf3+0x440>
   1d4f0:	0024e493          	ori	s1,s1,2
   1d4f4:	bd85                	c.j	1d364 <__multf3+0x440>
   1d4f6:	03d79513          	slli	a0,a5,0x3d
   1d4fa:	800d                	c.srli	s0,0x3
   1d4fc:	0037d713          	srli	a4,a5,0x3
   1d500:	8d41                	c.or	a0,s0
   1d502:	4781                	c.li	a5,0
   1d504:	b7c5                	c.j	1d4e4 <__multf3+0x5c0>
   1d506:	01246533          	or	a0,s0,s2
   1d50a:	c11d                	c.beqz	a0,1d530 <__multf3+0x60c>
   1d50c:	4789                	c.li	a5,2
   1d50e:	0014e493          	ori	s1,s1,1
   1d512:	02fa8363          	beq	s5,a5,1d538 <__multf3+0x614>
   1d516:	478d                	c.li	a5,3
   1d518:	00fa8763          	beq	s5,a5,1d526 <__multf3+0x602>
   1d51c:	4415                	c.li	s0,5
   1d51e:	000a8763          	beq	s5,zero,1d52c <__multf3+0x608>
   1d522:	4405                	c.li	s0,1
   1d524:	a021                	c.j	1d52c <__multf3+0x608>
   1d526:	4425                	c.li	s0,9
   1d528:	fe081de3          	bne	a6,zero,1d522 <__multf3+0x5fe>
   1d52c:	00345513          	srli	a0,s0,0x3
   1d530:	0024e493          	ori	s1,s1,2
   1d534:	4701                	c.li	a4,0
   1d536:	bed5                	c.j	1d12a <__multf3+0x206>
   1d538:	4425                	c.li	s0,9
   1d53a:	fe0819e3          	bne	a6,zero,1d52c <__multf3+0x608>
   1d53e:	b7d5                	c.j	1d522 <__multf3+0x5fe>
   1d540:	4785                	c.li	a5,1
   1d542:	02f79713          	slli	a4,a5,0x2f
   1d546:	67a1                	c.lui	a5,0x8
   1d548:	4501                	c.li	a0,0
   1d54a:	17fd                	c.addi	a5,-1
   1d54c:	4801                	c.li	a6,0
   1d54e:	bd19                	c.j	1d364 <__multf3+0x440>
   1d550:	4785                	c.li	a5,1
   1d552:	02f79713          	slli	a4,a5,0x2f
   1d556:	67a1                	c.lui	a5,0x8
   1d558:	4501                	c.li	a0,0
   1d55a:	17fd                	c.addi	a5,-1
   1d55c:	4801                	c.li	a6,0
   1d55e:	44c1                	c.li	s1,16
   1d560:	b511                	c.j	1d364 <__multf3+0x440>
   1d562:	67a1                	c.lui	a5,0x8
   1d564:	4701                	c.li	a4,0
   1d566:	4501                	c.li	a0,0
   1d568:	17fd                	c.addi	a5,-1
   1d56a:	bbed                	c.j	1d364 <__multf3+0x440>

000000000001d56c <__subtf3>:
   1d56c:	7139                	c.addi16sp	sp,-64
   1d56e:	fc06                	c.sdsp	ra,56(sp)
   1d570:	f822                	c.sdsp	s0,48(sp)
   1d572:	f426                	c.sdsp	s1,40(sp)
   1d574:	f04a                	c.sdsp	s2,32(sp)
   1d576:	ec4e                	c.sdsp	s3,24(sp)
   1d578:	e852                	c.sdsp	s4,16(sp)
   1d57a:	00202973          	frrm	s2
   1d57e:	53fd                	c.li	t2,-1
   1d580:	0103d393          	srli	t2,t2,0x10
   1d584:	62a1                	c.lui	t0,0x8
   1d586:	0305df13          	srli	t5,a1,0x30
   1d58a:	12fd                	c.addi	t0,-1
   1d58c:	0306d893          	srli	a7,a3,0x30
   1d590:	03f5d493          	srli	s1,a1,0x3f
   1d594:	e436                	c.sdsp	a3,8(sp)
   1d596:	0075f5b3          	and	a1,a1,t2
   1d59a:	03f6de93          	srli	t4,a3,0x3f
   1d59e:	0076f6b3          	and	a3,a3,t2
   1d5a2:	03d55713          	srli	a4,a0,0x3d
   1d5a6:	005f7f33          	and	t5,t5,t0
   1d5aa:	058e                	c.slli	a1,0x3
   1d5ac:	00351313          	slli	t1,a0,0x3
   1d5b0:	0058f8b3          	and	a7,a7,t0
   1d5b4:	068e                	c.slli	a3,0x3
   1d5b6:	03d65513          	srli	a0,a2,0x3d
   1d5ba:	2901                	c.addiw	s2,0
   1d5bc:	89fa                	c.mv	s3,t5
   1d5be:	00b76e33          	or	t3,a4,a1
   1d5c2:	8fc6                	c.mv	t6,a7
   1d5c4:	8ec9                	c.or	a3,a0
   1d5c6:	00361793          	slli	a5,a2,0x3
   1d5ca:	00589563          	bne	a7,t0,1d5d4 <__subtf3+0x68>
   1d5ce:	00f6e733          	or	a4,a3,a5
   1d5d2:	e319                	c.bnez	a4,1d5d8 <__subtf3+0x6c>
   1d5d4:	001ece93          	xori	t4,t4,1
   1d5d8:	411f073b          	subw	a4,t5,a7
   1d5dc:	65a1                	c.lui	a1,0x8
   1d5de:	0007081b          	addiw	a6,a4,0
   1d5e2:	fff58613          	addi	a2,a1,-1 # 7fff <main-0x80b1>
   1d5e6:	389e9163          	bne	t4,s1,1d968 <__subtf3+0x3fc>
   1d5ea:	0f005663          	bge	zero,a6,1d6d6 <__subtf3+0x16a>
   1d5ee:	06089f63          	bne	a7,zero,1d66c <__subtf3+0x100>
   1d5f2:	00f6e5b3          	or	a1,a3,a5
   1d5f6:	e591                	c.bnez	a1,1d602 <__subtf3+0x96>
   1d5f8:	04cf0f63          	beq	t5,a2,1d656 <__subtf3+0xea>
   1d5fc:	86f2                	c.mv	a3,t3
   1d5fe:	8ffa                	c.mv	t6,t5
   1d600:	ade1                	c.j	1dcd8 <__subtf3+0x76c>
   1d602:	fff7081b          	addiw	a6,a4,-1
   1d606:	04081663          	bne	a6,zero,1d652 <__subtf3+0xe6>
   1d60a:	979a                	c.add	a5,t1
   1d60c:	0067b333          	sltu	t1,a5,t1
   1d610:	96f2                	c.add	a3,t3
   1d612:	969a                	c.add	a3,t1
   1d614:	8ffa                	c.mv	t6,t5
   1d616:	833e                	c.mv	t1,a5
   1d618:	00c69793          	slli	a5,a3,0xc
   1d61c:	6a07de63          	bge	a5,zero,1dcd8 <__subtf3+0x76c>
   1d620:	6721                	c.lui	a4,0x8
   1d622:	001f8993          	addi	s3,t6,1
   1d626:	fff70793          	addi	a5,a4,-1 # 7fff <main-0x80b1>
   1d62a:	30f98b63          	beq	s3,a5,1d940 <__subtf3+0x3d4>
   1d62e:	55fd                	c.li	a1,-1
   1d630:	15ce                	c.slli	a1,0x33
   1d632:	15fd                	c.addi	a1,-1
   1d634:	00135793          	srli	a5,t1,0x1
   1d638:	8df5                	c.and	a1,a3
   1d63a:	00137313          	andi	t1,t1,1
   1d63e:	03f59693          	slli	a3,a1,0x3f
   1d642:	0067e333          	or	t1,a5,t1
   1d646:	0066e7b3          	or	a5,a3,t1
   1d64a:	0015d693          	srli	a3,a1,0x1
   1d64e:	4801                	c.li	a6,0
   1d650:	ac79                	c.j	1d8ee <__subtf3+0x382>
   1d652:	02cf1263          	bne	t5,a2,1d676 <__subtf3+0x10a>
   1d656:	006e67b3          	or	a5,t3,t1
   1d65a:	6c078263          	beq	a5,zero,1dd1e <__subtf3+0x7b2>
   1d65e:	00de1793          	slli	a5,t3,0xd
   1d662:	86f2                	c.mv	a3,t3
   1d664:	6a07df63          	bge	a5,zero,1dd22 <__subtf3+0x7b6>
   1d668:	879a                	c.mv	a5,t1
   1d66a:	b7d5                	c.j	1d64e <__subtf3+0xe2>
   1d66c:	fecf05e3          	beq	t5,a2,1d656 <__subtf3+0xea>
   1d670:	4705                	c.li	a4,1
   1d672:	174e                	c.slli	a4,0x33
   1d674:	8ed9                	c.or	a3,a4
   1d676:	07400713          	addi	a4,zero,116
   1d67a:	05074a63          	blt	a4,a6,1d6ce <__subtf3+0x162>
   1d67e:	03f00713          	addi	a4,zero,63
   1d682:	03074363          	blt	a4,a6,1d6a8 <__subtf3+0x13c>
   1d686:	04000613          	addi	a2,zero,64
   1d68a:	4106063b          	subw	a2,a2,a6
   1d68e:	00c69733          	sll	a4,a3,a2
   1d692:	0107d5b3          	srl	a1,a5,a6
   1d696:	00c797b3          	sll	a5,a5,a2
   1d69a:	8f4d                	c.or	a4,a1
   1d69c:	00f037b3          	sltu	a5,zero,a5
   1d6a0:	8fd9                	c.or	a5,a4
   1d6a2:	0106d6b3          	srl	a3,a3,a6
   1d6a6:	b795                	c.j	1d60a <__subtf3+0x9e>
   1d6a8:	04000593          	addi	a1,zero,64
   1d6ac:	0106d733          	srl	a4,a3,a6
   1d6b0:	4601                	c.li	a2,0
   1d6b2:	00b80863          	beq	a6,a1,1d6c2 <__subtf3+0x156>
   1d6b6:	08000613          	addi	a2,zero,128
   1d6ba:	4106083b          	subw	a6,a2,a6
   1d6be:	01069633          	sll	a2,a3,a6
   1d6c2:	8fd1                	c.or	a5,a2
   1d6c4:	00f037b3          	sltu	a5,zero,a5
   1d6c8:	8fd9                	c.or	a5,a4
   1d6ca:	4681                	c.li	a3,0
   1d6cc:	bf3d                	c.j	1d60a <__subtf3+0x9e>
   1d6ce:	8edd                	c.or	a3,a5
   1d6d0:	00d037b3          	sltu	a5,zero,a3
   1d6d4:	bfdd                	c.j	1d6ca <__subtf3+0x15e>
   1d6d6:	0c080463          	beq	a6,zero,1d79e <__subtf3+0x232>
   1d6da:	060f1f63          	bne	t5,zero,1d758 <__subtf3+0x1ec>
   1d6de:	006e65b3          	or	a1,t3,t1
   1d6e2:	e185                	c.bnez	a1,1d702 <__subtf3+0x196>
   1d6e4:	833e                	c.mv	t1,a5
   1d6e6:	5ec89963          	bne	a7,a2,1dcd8 <__subtf3+0x76c>
   1d6ea:	00f6e733          	or	a4,a3,a5
   1d6ee:	62070363          	beq	a4,zero,1dd14 <__subtf3+0x7a8>
   1d6f2:	00d69713          	slli	a4,a3,0xd
   1d6f6:	89c6                	c.mv	s3,a7
   1d6f8:	4801                	c.li	a6,0
   1d6fa:	1e074a63          	blt	a4,zero,1d8ee <__subtf3+0x382>
   1d6fe:	4741                	c.li	a4,16
   1d700:	a0c5                	c.j	1d7e0 <__subtf3+0x274>
   1d702:	55fd                	c.li	a1,-1
   1d704:	00b81863          	bne	a6,a1,1d714 <__subtf3+0x1a8>
   1d708:	933e                	c.add	t1,a5
   1d70a:	96f2                	c.add	a3,t3
   1d70c:	00f337b3          	sltu	a5,t1,a5
   1d710:	96be                	c.add	a3,a5
   1d712:	b719                	c.j	1d618 <__subtf3+0xac>
   1d714:	fff74713          	xori	a4,a4,-1
   1d718:	fcc889e3          	beq	a7,a2,1d6ea <__subtf3+0x17e>
   1d71c:	07400613          	addi	a2,zero,116
   1d720:	06e64a63          	blt	a2,a4,1d794 <__subtf3+0x228>
   1d724:	03f00613          	addi	a2,zero,63
   1d728:	04e64163          	blt	a2,a4,1d76a <__subtf3+0x1fe>
   1d72c:	04000513          	addi	a0,zero,64
   1d730:	9d19                	c.subw	a0,a4
   1d732:	00e35633          	srl	a2,t1,a4
   1d736:	00ae1433          	sll	s0,t3,a0
   1d73a:	00a31333          	sll	t1,t1,a0
   1d73e:	8c51                	c.or	s0,a2
   1d740:	00603333          	sltu	t1,zero,t1
   1d744:	00646333          	or	t1,s0,t1
   1d748:	00ee5733          	srl	a4,t3,a4
   1d74c:	933e                	c.add	t1,a5
   1d74e:	9736                	c.add	a4,a3
   1d750:	00f336b3          	sltu	a3,t1,a5
   1d754:	96ba                	c.add	a3,a4
   1d756:	b5c9                	c.j	1d618 <__subtf3+0xac>
   1d758:	f8c889e3          	beq	a7,a2,1d6ea <__subtf3+0x17e>
   1d75c:	4605                	c.li	a2,1
   1d75e:	164e                	c.slli	a2,0x33
   1d760:	40e0073b          	subw	a4,zero,a4
   1d764:	00ce6e33          	or	t3,t3,a2
   1d768:	bf55                	c.j	1d71c <__subtf3+0x1b0>
   1d76a:	04000613          	addi	a2,zero,64
   1d76e:	00ee5433          	srl	s0,t3,a4
   1d772:	4501                	c.li	a0,0
   1d774:	00c70863          	beq	a4,a2,1d784 <__subtf3+0x218>
   1d778:	08000513          	addi	a0,zero,128
   1d77c:	40e5073b          	subw	a4,a0,a4
   1d780:	00ee1533          	sll	a0,t3,a4
   1d784:	00656333          	or	t1,a0,t1
   1d788:	00603333          	sltu	t1,zero,t1
   1d78c:	00646333          	or	t1,s0,t1
   1d790:	4701                	c.li	a4,0
   1d792:	bf6d                	c.j	1d74c <__subtf3+0x1e0>
   1d794:	006e6733          	or	a4,t3,t1
   1d798:	00e03333          	sltu	t1,zero,a4
   1d79c:	bfd5                	c.j	1d790 <__subtf3+0x224>
   1d79e:	001f0f93          	addi	t6,t5,1 # 10001 <main-0xaf>
   1d7a2:	00cff733          	and	a4,t6,a2
   1d7a6:	4e85                	c.li	t4,1
   1d7a8:	12eec363          	blt	t4,a4,1d8ce <__subtf3+0x362>
   1d7ac:	006e65b3          	or	a1,t3,t1
   1d7b0:	040f1463          	bne	t5,zero,1d7f8 <__subtf3+0x28c>
   1d7b4:	52058a63          	beq	a1,zero,1dce8 <__subtf3+0x77c>
   1d7b8:	00f6e733          	or	a4,a3,a5
   1d7bc:	52070a63          	beq	a4,zero,1dcf0 <__subtf3+0x784>
   1d7c0:	979a                	c.add	a5,t1
   1d7c2:	96f2                	c.add	a3,t3
   1d7c4:	0067b333          	sltu	t1,a5,t1
   1d7c8:	969a                	c.add	a3,t1
   1d7ca:	1ece                	c.slli	t4,0x33
   1d7cc:	01d6feb3          	and	t4,a3,t4
   1d7d0:	500e8c63          	beq	t4,zero,1dce8 <__subtf3+0x77c>
   1d7d4:	577d                	c.li	a4,-1
   1d7d6:	174e                	c.slli	a4,0x33
   1d7d8:	177d                	c.addi	a4,-1
   1d7da:	8ef9                	c.and	a3,a4
   1d7dc:	4985                	c.li	s3,1
   1d7de:	4701                	c.li	a4,0
   1d7e0:	0077f613          	andi	a2,a5,7
   1d7e4:	12061263          	bne	a2,zero,1d908 <__subtf3+0x39c>
   1d7e8:	04080863          	beq	a6,zero,1d838 <__subtf3+0x2cc>
   1d7ec:	00177613          	andi	a2,a4,1
   1d7f0:	c621                	c.beqz	a2,1d838 <__subtf3+0x2cc>
   1d7f2:	00276713          	ori	a4,a4,2
   1d7f6:	a089                	c.j	1d838 <__subtf3+0x2cc>
   1d7f8:	0ccf1663          	bne	t5,a2,1d8c4 <__subtf3+0x358>
   1d7fc:	56058d63          	beq	a1,zero,1dd76 <__subtf3+0x80a>
   1d800:	032e9713          	slli	a4,t4,0x32
   1d804:	00ee7733          	and	a4,t3,a4
   1d808:	00173713          	sltiu	a4,a4,1
   1d80c:	0712                	c.slli	a4,0x4
   1d80e:	01e89c63          	bne	a7,t5,1d826 <__subtf3+0x2ba>
   1d812:	00f6e633          	or	a2,a3,a5
   1d816:	c611                	c.beqz	a2,1d822 <__subtf3+0x2b6>
   1d818:	00d69613          	slli	a2,a3,0xd
   1d81c:	00064363          	blt	a2,zero,1d822 <__subtf3+0x2b6>
   1d820:	4741                	c.li	a4,16
   1d822:	3c058663          	beq	a1,zero,1dbee <__subtf3+0x682>
   1d826:	8edd                	c.or	a3,a5
   1d828:	3c068163          	beq	a3,zero,1dbea <__subtf3+0x67e>
   1d82c:	4685                	c.li	a3,1
   1d82e:	69a1                	c.lui	s3,0x8
   1d830:	16ca                	c.slli	a3,0x32
   1d832:	4781                	c.li	a5,0
   1d834:	19fd                	c.addi	s3,-1
   1d836:	4481                	c.li	s1,0
   1d838:	00c69613          	slli	a2,a3,0xc
   1d83c:	00065c63          	bge	a2,zero,1d854 <__subtf3+0x2e8>
   1d840:	6621                	c.lui	a2,0x8
   1d842:	0985                	c.addi	s3,1
   1d844:	fff60593          	addi	a1,a2,-1 # 7fff <main-0x80b1>
   1d848:	50b98063          	beq	s3,a1,1dd48 <__subtf3+0x7dc>
   1d84c:	567d                	c.li	a2,-1
   1d84e:	164e                	c.slli	a2,0x33
   1d850:	167d                	c.addi	a2,-1
   1d852:	8ef1                	c.and	a3,a2
   1d854:	838d                	c.srli	a5,0x3
   1d856:	03d69513          	slli	a0,a3,0x3d
   1d85a:	8d5d                	c.or	a0,a5
   1d85c:	67a1                	c.lui	a5,0x8
   1d85e:	17fd                	c.addi	a5,-1
   1d860:	828d                	c.srli	a3,0x3
   1d862:	00f99963          	bne	s3,a5,1d874 <__subtf3+0x308>
   1d866:	8d55                	c.or	a0,a3
   1d868:	4681                	c.li	a3,0
   1d86a:	c509                	c.beqz	a0,1d874 <__subtf3+0x308>
   1d86c:	4685                	c.li	a3,1
   1d86e:	16be                	c.slli	a3,0x2f
   1d870:	4501                	c.li	a0,0
   1d872:	4481                	c.li	s1,0
   1d874:	58fd                	c.li	a7,-1
   1d876:	0108d813          	srli	a6,a7,0x10
   1d87a:	0106f833          	and	a6,a3,a6
   1d87e:	66a2                	c.ldsp	a3,8(sp)
   1d880:	03089593          	slli	a1,a7,0x30
   1d884:	0018d893          	srli	a7,a7,0x1
   1d888:	8df5                	c.and	a1,a3
   1d88a:	0105e6b3          	or	a3,a1,a6
   1d88e:	65a1                	c.lui	a1,0x8
   1d890:	15fd                	c.addi	a1,-1
   1d892:	00b9f9b3          	and	s3,s3,a1
   1d896:	f80015b7          	lui	a1,0xf8001
   1d89a:	1592                	c.slli	a1,0x24
   1d89c:	15fd                	c.addi	a1,-1
   1d89e:	19c2                	c.slli	s3,0x30
   1d8a0:	8df5                	c.and	a1,a3
   1d8a2:	0135e5b3          	or	a1,a1,s3
   1d8a6:	14fe                	c.slli	s1,0x3f
   1d8a8:	0115f5b3          	and	a1,a1,a7
   1d8ac:	8dc5                	c.or	a1,s1
   1d8ae:	c319                	c.beqz	a4,1d8b4 <__subtf3+0x348>
   1d8b0:	00172073          	csrrs	zero,fflags,a4
   1d8b4:	70e2                	c.ldsp	ra,56(sp)
   1d8b6:	7442                	c.ldsp	s0,48(sp)
   1d8b8:	74a2                	c.ldsp	s1,40(sp)
   1d8ba:	7902                	c.ldsp	s2,32(sp)
   1d8bc:	69e2                	c.ldsp	s3,24(sp)
   1d8be:	6a42                	c.ldsp	s4,16(sp)
   1d8c0:	6121                	c.addi16sp	sp,64
   1d8c2:	8082                	c.jr	ra
   1d8c4:	4701                	c.li	a4,0
   1d8c6:	f4c89ee3          	bne	a7,a2,1d822 <__subtf3+0x2b6>
   1d8ca:	4701                	c.li	a4,0
   1d8cc:	b799                	c.j	1d812 <__subtf3+0x2a6>
   1d8ce:	02cf8263          	beq	t6,a2,1d8f2 <__subtf3+0x386>
   1d8d2:	979a                	c.add	a5,t1
   1d8d4:	00de0733          	add	a4,t3,a3
   1d8d8:	0067b6b3          	sltu	a3,a5,t1
   1d8dc:	00d70333          	add	t1,a4,a3
   1d8e0:	03f31693          	slli	a3,t1,0x3f
   1d8e4:	8385                	c.srli	a5,0x1
   1d8e6:	8fd5                	c.or	a5,a3
   1d8e8:	89fe                	c.mv	s3,t6
   1d8ea:	00135693          	srli	a3,t1,0x1
   1d8ee:	4701                	c.li	a4,0
   1d8f0:	bdc5                	c.j	1d7e0 <__subtf3+0x274>
   1d8f2:	04090563          	beq	s2,zero,1d93c <__subtf3+0x3d0>
   1d8f6:	478d                	c.li	a5,3
   1d8f8:	02f91e63          	bne	s2,a5,1d934 <__subtf3+0x3c8>
   1d8fc:	c0a1                	c.beqz	s1,1d93c <__subtf3+0x3d0>
   1d8fe:	56fd                	c.li	a3,-1
   1d900:	57fd                	c.li	a5,-1
   1d902:	ffe58993          	addi	s3,a1,-2 # fffffffff8000ffe <__global_pointer$+0xfffffffff7fd537e>
   1d906:	4715                	c.li	a4,5
   1d908:	4609                	c.li	a2,2
   1d90a:	00176713          	ori	a4,a4,1
   1d90e:	42c90a63          	beq	s2,a2,1dd42 <__subtf3+0x7d6>
   1d912:	460d                	c.li	a2,3
   1d914:	42c90263          	beq	s2,a2,1dd38 <__subtf3+0x7cc>
   1d918:	ec0918e3          	bne	s2,zero,1d7e8 <__subtf3+0x27c>
   1d91c:	00f7f613          	andi	a2,a5,15
   1d920:	4591                	c.li	a1,4
   1d922:	ecb603e3          	beq	a2,a1,1d7e8 <__subtf3+0x27c>
   1d926:	00478593          	addi	a1,a5,4 # 8004 <main-0x80ac>
   1d92a:	00f5b7b3          	sltu	a5,a1,a5
   1d92e:	96be                	c.add	a3,a5
   1d930:	87ae                	c.mv	a5,a1
   1d932:	bd5d                	c.j	1d7e8 <__subtf3+0x27c>
   1d934:	4789                	c.li	a5,2
   1d936:	fcf914e3          	bne	s2,a5,1d8fe <__subtf3+0x392>
   1d93a:	d0f1                	c.beqz	s1,1d8fe <__subtf3+0x392>
   1d93c:	89fe                	c.mv	s3,t6
   1d93e:	a00d                	c.j	1d960 <__subtf3+0x3f4>
   1d940:	02090063          	beq	s2,zero,1d960 <__subtf3+0x3f4>
   1d944:	478d                	c.li	a5,3
   1d946:	00f91963          	bne	s2,a5,1d958 <__subtf3+0x3ec>
   1d94a:	c899                	c.beqz	s1,1d960 <__subtf3+0x3f4>
   1d94c:	56fd                	c.li	a3,-1
   1d94e:	57fd                	c.li	a5,-1
   1d950:	ffe70993          	addi	s3,a4,-2
   1d954:	4801                	c.li	a6,0
   1d956:	bf45                	c.j	1d906 <__subtf3+0x39a>
   1d958:	4789                	c.li	a5,2
   1d95a:	fef919e3          	bne	s2,a5,1d94c <__subtf3+0x3e0>
   1d95e:	d4fd                	c.beqz	s1,1d94c <__subtf3+0x3e0>
   1d960:	4681                	c.li	a3,0
   1d962:	4781                	c.li	a5,0
   1d964:	4715                	c.li	a4,5
   1d966:	bdc9                	c.j	1d838 <__subtf3+0x2cc>
   1d968:	0b005863          	bge	zero,a6,1da18 <__subtf3+0x4ac>
   1d96c:	06089963          	bne	a7,zero,1d9de <__subtf3+0x472>
   1d970:	00f6e5b3          	or	a1,a3,a5
   1d974:	c80582e3          	beq	a1,zero,1d5f8 <__subtf3+0x8c>
   1d978:	fff7081b          	addiw	a6,a4,-1
   1d97c:	02081663          	bne	a6,zero,1d9a8 <__subtf3+0x43c>
   1d980:	40f307b3          	sub	a5,t1,a5
   1d984:	00f33333          	sltu	t1,t1,a5
   1d988:	40de06b3          	sub	a3,t3,a3
   1d98c:	406686b3          	sub	a3,a3,t1
   1d990:	8ffa                	c.mv	t6,t5
   1d992:	833e                	c.mv	t1,a5
   1d994:	00c69793          	slli	a5,a3,0xc
   1d998:	3407d063          	bge	a5,zero,1dcd8 <__subtf3+0x76c>
   1d99c:	547d                	c.li	s0,-1
   1d99e:	8035                	c.srli	s0,0xd
   1d9a0:	8c75                	c.and	s0,a3
   1d9a2:	8a1a                	c.mv	s4,t1
   1d9a4:	89fe                	c.mv	s3,t6
   1d9a6:	ac95                	c.j	1dc1a <__subtf3+0x6ae>
   1d9a8:	cacf07e3          	beq	t5,a2,1d656 <__subtf3+0xea>
   1d9ac:	07400713          	addi	a4,zero,116
   1d9b0:	07074063          	blt	a4,a6,1da10 <__subtf3+0x4a4>
   1d9b4:	03f00713          	addi	a4,zero,63
   1d9b8:	03074963          	blt	a4,a6,1d9ea <__subtf3+0x47e>
   1d9bc:	04000613          	addi	a2,zero,64
   1d9c0:	4106063b          	subw	a2,a2,a6
   1d9c4:	00c69733          	sll	a4,a3,a2
   1d9c8:	0107d5b3          	srl	a1,a5,a6
   1d9cc:	00c797b3          	sll	a5,a5,a2
   1d9d0:	8f4d                	c.or	a4,a1
   1d9d2:	00f037b3          	sltu	a5,zero,a5
   1d9d6:	8fd9                	c.or	a5,a4
   1d9d8:	0106d6b3          	srl	a3,a3,a6
   1d9dc:	b755                	c.j	1d980 <__subtf3+0x414>
   1d9de:	c6cf0ce3          	beq	t5,a2,1d656 <__subtf3+0xea>
   1d9e2:	4705                	c.li	a4,1
   1d9e4:	174e                	c.slli	a4,0x33
   1d9e6:	8ed9                	c.or	a3,a4
   1d9e8:	b7d1                	c.j	1d9ac <__subtf3+0x440>
   1d9ea:	04000593          	addi	a1,zero,64
   1d9ee:	0106d733          	srl	a4,a3,a6
   1d9f2:	4601                	c.li	a2,0
   1d9f4:	00b80863          	beq	a6,a1,1da04 <__subtf3+0x498>
   1d9f8:	08000613          	addi	a2,zero,128
   1d9fc:	4106083b          	subw	a6,a2,a6
   1da00:	01069633          	sll	a2,a3,a6
   1da04:	8fd1                	c.or	a5,a2
   1da06:	00f037b3          	sltu	a5,zero,a5
   1da0a:	8fd9                	c.or	a5,a4
   1da0c:	4681                	c.li	a3,0
   1da0e:	bf8d                	c.j	1d980 <__subtf3+0x414>
   1da10:	8edd                	c.or	a3,a5
   1da12:	00d037b3          	sltu	a5,zero,a3
   1da16:	bfdd                	c.j	1da0c <__subtf3+0x4a0>
   1da18:	0c080663          	beq	a6,zero,1dae4 <__subtf3+0x578>
   1da1c:	080f1163          	bne	t5,zero,1da9e <__subtf3+0x532>
   1da20:	006e65b3          	or	a1,t3,t1
   1da24:	ed81                	c.bnez	a1,1da3c <__subtf3+0x4d0>
   1da26:	2ac89e63          	bne	a7,a2,1dce2 <__subtf3+0x776>
   1da2a:	00f6e733          	or	a4,a3,a5
   1da2e:	2e070d63          	beq	a4,zero,1dd28 <__subtf3+0x7bc>
   1da32:	00d69713          	slli	a4,a3,0xd
   1da36:	89c6                	c.mv	s3,a7
   1da38:	84f6                	c.mv	s1,t4
   1da3a:	b97d                	c.j	1d6f8 <__subtf3+0x18c>
   1da3c:	55fd                	c.li	a1,-1
   1da3e:	00b81b63          	bne	a6,a1,1da54 <__subtf3+0x4e8>
   1da42:	40678333          	sub	t1,a5,t1
   1da46:	41c686b3          	sub	a3,a3,t3
   1da4a:	0067b7b3          	sltu	a5,a5,t1
   1da4e:	8e9d                	c.sub	a3,a5
   1da50:	84f6                	c.mv	s1,t4
   1da52:	b789                	c.j	1d994 <__subtf3+0x428>
   1da54:	fff74713          	xori	a4,a4,-1
   1da58:	fcc889e3          	beq	a7,a2,1da2a <__subtf3+0x4be>
   1da5c:	07400613          	addi	a2,zero,116
   1da60:	06e64d63          	blt	a2,a4,1dada <__subtf3+0x56e>
   1da64:	03f00613          	addi	a2,zero,63
   1da68:	04e64463          	blt	a2,a4,1dab0 <__subtf3+0x544>
   1da6c:	04000513          	addi	a0,zero,64
   1da70:	9d19                	c.subw	a0,a4
   1da72:	00e35633          	srl	a2,t1,a4
   1da76:	00ae1433          	sll	s0,t3,a0
   1da7a:	00a31333          	sll	t1,t1,a0
   1da7e:	8c51                	c.or	s0,a2
   1da80:	00603333          	sltu	t1,zero,t1
   1da84:	00646333          	or	t1,s0,t1
   1da88:	00ee5733          	srl	a4,t3,a4
   1da8c:	40678333          	sub	t1,a5,t1
   1da90:	40e68733          	sub	a4,a3,a4
   1da94:	0067b6b3          	sltu	a3,a5,t1
   1da98:	40d706b3          	sub	a3,a4,a3
   1da9c:	bf55                	c.j	1da50 <__subtf3+0x4e4>
   1da9e:	f8c886e3          	beq	a7,a2,1da2a <__subtf3+0x4be>
   1daa2:	4605                	c.li	a2,1
   1daa4:	164e                	c.slli	a2,0x33
   1daa6:	40e0073b          	subw	a4,zero,a4
   1daaa:	00ce6e33          	or	t3,t3,a2
   1daae:	b77d                	c.j	1da5c <__subtf3+0x4f0>
   1dab0:	04000613          	addi	a2,zero,64
   1dab4:	00ee5433          	srl	s0,t3,a4
   1dab8:	4501                	c.li	a0,0
   1daba:	00c70863          	beq	a4,a2,1daca <__subtf3+0x55e>
   1dabe:	08000513          	addi	a0,zero,128
   1dac2:	40e5073b          	subw	a4,a0,a4
   1dac6:	00ee1533          	sll	a0,t3,a4
   1daca:	00656333          	or	t1,a0,t1
   1dace:	00603333          	sltu	t1,zero,t1
   1dad2:	00646333          	or	t1,s0,t1
   1dad6:	4701                	c.li	a4,0
   1dad8:	bf55                	c.j	1da8c <__subtf3+0x520>
   1dada:	006e6733          	or	a4,t3,t1
   1dade:	00e03333          	sltu	t1,zero,a4
   1dae2:	bfd5                	c.j	1dad6 <__subtf3+0x56a>
   1dae4:	001f0713          	addi	a4,t5,1
   1dae8:	8f71                	c.and	a4,a2
   1daea:	4585                	c.li	a1,1
   1daec:	10e5c463          	blt	a1,a4,1dbf4 <__subtf3+0x688>
   1daf0:	006e6fb3          	or	t6,t3,t1
   1daf4:	00f6e533          	or	a0,a3,a5
   1daf8:	0a0f1463          	bne	t5,zero,1dba0 <__subtf3+0x634>
   1dafc:	060f9363          	bne	t6,zero,1db62 <__subtf3+0x5f6>
   1db00:	1e051663          	bne	a0,zero,1dcec <__subtf3+0x780>
   1db04:	ffe90493          	addi	s1,s2,-2
   1db08:	0014b493          	sltiu	s1,s1,1
   1db0c:	4681                	c.li	a3,0
   1db0e:	4301                	c.li	t1,0
   1db10:	00d367b3          	or	a5,t1,a3
   1db14:	20078f63          	beq	a5,zero,1dd32 <__subtf3+0x7c6>
   1db18:	03f35793          	srli	a5,t1,0x3f
   1db1c:	00169813          	slli	a6,a3,0x1
   1db20:	983e                	c.add	a6,a5
   1db22:	00131793          	slli	a5,t1,0x1
   1db26:	0077f613          	andi	a2,a5,7
   1db2a:	4701                	c.li	a4,0
   1db2c:	c215                	c.beqz	a2,1db50 <__subtf3+0x5e4>
   1db2e:	4709                	c.li	a4,2
   1db30:	1ce90e63          	beq	s2,a4,1dd0c <__subtf3+0x7a0>
   1db34:	470d                	c.li	a4,3
   1db36:	1ce90263          	beq	s2,a4,1dcfa <__subtf3+0x78e>
   1db3a:	4705                	c.li	a4,1
   1db3c:	00091a63          	bne	s2,zero,1db50 <__subtf3+0x5e4>
   1db40:	00f7f613          	andi	a2,a5,15
   1db44:	4591                	c.li	a1,4
   1db46:	4705                	c.li	a4,1
   1db48:	ffc7b793          	sltiu	a5,a5,-4
   1db4c:	1ab61c63          	bne	a2,a1,1dd04 <__subtf3+0x798>
   1db50:	03485813          	srli	a6,a6,0x34
   1db54:	00184813          	xori	a6,a6,1
   1db58:	00187813          	andi	a6,a6,1
   1db5c:	879a                	c.mv	a5,t1
   1db5e:	4981                	c.li	s3,0
   1db60:	b141                	c.j	1d7e0 <__subtf3+0x274>
   1db62:	18050763          	beq	a0,zero,1dcf0 <__subtf3+0x784>
   1db66:	40f30633          	sub	a2,t1,a5
   1db6a:	40de0733          	sub	a4,t3,a3
   1db6e:	00c33533          	sltu	a0,t1,a2
   1db72:	8f09                	c.sub	a4,a0
   1db74:	15ce                	c.slli	a1,0x33
   1db76:	8df9                	c.and	a1,a4
   1db78:	c991                	c.beqz	a1,1db8c <__subtf3+0x620>
   1db7a:	40678333          	sub	t1,a5,t1
   1db7e:	41c686b3          	sub	a3,a3,t3
   1db82:	0067b7b3          	sltu	a5,a5,t1
   1db86:	8e9d                	c.sub	a3,a5
   1db88:	84f6                	c.mv	s1,t4
   1db8a:	b759                	c.j	1db10 <__subtf3+0x5a4>
   1db8c:	00e66333          	or	t1,a2,a4
   1db90:	16031263          	bne	t1,zero,1dcf4 <__subtf3+0x788>
   1db94:	ffe90493          	addi	s1,s2,-2
   1db98:	0014b493          	sltiu	s1,s1,1
   1db9c:	4681                	c.li	a3,0
   1db9e:	bf8d                	c.j	1db10 <__subtf3+0x5a4>
   1dba0:	02cf1e63          	bne	t5,a2,1dbdc <__subtf3+0x670>
   1dba4:	1c0f8563          	beq	t6,zero,1dd6e <__subtf3+0x802>
   1dba8:	15ca                	c.slli	a1,0x32
   1dbaa:	00be75b3          	and	a1,t3,a1
   1dbae:	0015b713          	sltiu	a4,a1,1
   1dbb2:	0712                	c.slli	a4,0x4
   1dbb4:	03e89963          	bne	a7,t5,1dbe6 <__subtf3+0x67a>
   1dbb8:	c511                	c.beqz	a0,1dbc4 <__subtf3+0x658>
   1dbba:	00d69613          	slli	a2,a3,0xd
   1dbbe:	00064363          	blt	a2,zero,1dbc4 <__subtf3+0x658>
   1dbc2:	4741                	c.li	a4,16
   1dbc4:	020f9163          	bne	t6,zero,1dbe6 <__subtf3+0x67a>
   1dbc8:	84f6                	c.mv	s1,t4
   1dbca:	e115                	c.bnez	a0,1dbee <__subtf3+0x682>
   1dbcc:	4685                	c.li	a3,1
   1dbce:	69a1                	c.lui	s3,0x8
   1dbd0:	4781                	c.li	a5,0
   1dbd2:	16ca                	c.slli	a3,0x32
   1dbd4:	19fd                	c.addi	s3,-1
   1dbd6:	4481                	c.li	s1,0
   1dbd8:	4741                	c.li	a4,16
   1dbda:	b9b9                	c.j	1d838 <__subtf3+0x2cc>
   1dbdc:	4701                	c.li	a4,0
   1dbde:	fec893e3          	bne	a7,a2,1dbc4 <__subtf3+0x658>
   1dbe2:	4701                	c.li	a4,0
   1dbe4:	bfd1                	c.j	1dbb8 <__subtf3+0x64c>
   1dbe6:	c40513e3          	bne	a0,zero,1d82c <__subtf3+0x2c0>
   1dbea:	86f2                	c.mv	a3,t3
   1dbec:	879a                	c.mv	a5,t1
   1dbee:	69a1                	c.lui	s3,0x8
   1dbf0:	19fd                	c.addi	s3,-1
   1dbf2:	b6fd                	c.j	1d7e0 <__subtf3+0x274>
   1dbf4:	40f30a33          	sub	s4,t1,a5
   1dbf8:	40de0433          	sub	s0,t3,a3
   1dbfc:	01433733          	sltu	a4,t1,s4
   1dc00:	8c19                	c.sub	s0,a4
   1dc02:	15ce                	c.slli	a1,0x33
   1dc04:	8de1                	c.and	a1,s0
   1dc06:	cdb5                	c.beqz	a1,1dc82 <__subtf3+0x716>
   1dc08:	40678a33          	sub	s4,a5,t1
   1dc0c:	41c68733          	sub	a4,a3,t3
   1dc10:	0147b6b3          	sltu	a3,a5,s4
   1dc14:	40d70433          	sub	s0,a4,a3
   1dc18:	84f6                	c.mv	s1,t4
   1dc1a:	c82d                	c.beqz	s0,1dc8c <__subtf3+0x720>
   1dc1c:	8522                	c.mv	a0,s0
   1dc1e:	594000ef          	jal	ra,1e1b2 <__clzdi2>
   1dc22:	2501                	c.addiw	a0,0
   1dc24:	ff450f9b          	addiw	t6,a0,-12
   1dc28:	03f00793          	addi	a5,zero,63
   1dc2c:	877e                	c.mv	a4,t6
   1dc2e:	07f7c563          	blt	a5,t6,1dc98 <__subtf3+0x72c>
   1dc32:	04000693          	addi	a3,zero,64
   1dc36:	41f686bb          	subw	a3,a3,t6
   1dc3a:	01f41433          	sll	s0,s0,t6
   1dc3e:	00da56b3          	srl	a3,s4,a3
   1dc42:	8c55                	c.or	s0,a3
   1dc44:	01fa1333          	sll	t1,s4,t6
   1dc48:	093fc263          	blt	t6,s3,1dccc <__subtf3+0x760>
   1dc4c:	413709bb          	subw	s3,a4,s3
   1dc50:	2985                	c.addiw	s3,1
   1dc52:	0009869b          	addiw	a3,s3,0
   1dc56:	03f00793          	addi	a5,zero,63
   1dc5a:	04d7c563          	blt	a5,a3,1dca4 <__subtf3+0x738>
   1dc5e:	04000513          	addi	a0,zero,64
   1dc62:	4135053b          	subw	a0,a0,s3
   1dc66:	00d35733          	srl	a4,t1,a3
   1dc6a:	00a417b3          	sll	a5,s0,a0
   1dc6e:	00a31333          	sll	t1,t1,a0
   1dc72:	8fd9                	c.or	a5,a4
   1dc74:	00603333          	sltu	t1,zero,t1
   1dc78:	0067e333          	or	t1,a5,t1
   1dc7c:	00d456b3          	srl	a3,s0,a3
   1dc80:	bd41                	c.j	1db10 <__subtf3+0x5a4>
   1dc82:	008a6333          	or	t1,s4,s0
   1dc86:	f8031ae3          	bne	t1,zero,1dc1a <__subtf3+0x6ae>
   1dc8a:	b729                	c.j	1db94 <__subtf3+0x628>
   1dc8c:	8552                	c.mv	a0,s4
   1dc8e:	524000ef          	jal	ra,1e1b2 <__clzdi2>
   1dc92:	0405051b          	addiw	a0,a0,64
   1dc96:	b779                	c.j	1dc24 <__subtf3+0x6b8>
   1dc98:	fb45041b          	addiw	s0,a0,-76
   1dc9c:	008a1433          	sll	s0,s4,s0
   1dca0:	4301                	c.li	t1,0
   1dca2:	b75d                	c.j	1dc48 <__subtf3+0x6dc>
   1dca4:	04000713          	addi	a4,zero,64
   1dca8:	013457b3          	srl	a5,s0,s3
   1dcac:	4501                	c.li	a0,0
   1dcae:	00e68863          	beq	a3,a4,1dcbe <__subtf3+0x752>
   1dcb2:	08000513          	addi	a0,zero,128
   1dcb6:	4135053b          	subw	a0,a0,s3
   1dcba:	00a41533          	sll	a0,s0,a0
   1dcbe:	00a36333          	or	t1,t1,a0
   1dcc2:	006036b3          	sltu	a3,zero,t1
   1dcc6:	00d7e333          	or	t1,a5,a3
   1dcca:	bdc9                	c.j	1db9c <__subtf3+0x630>
   1dccc:	56fd                	c.li	a3,-1
   1dcce:	16ce                	c.slli	a3,0x33
   1dcd0:	16fd                	c.addi	a3,-1
   1dcd2:	41f98fb3          	sub	t6,s3,t6
   1dcd6:	8ee1                	c.and	a3,s0
   1dcd8:	e20f8ce3          	beq	t6,zero,1db10 <__subtf3+0x5a4>
   1dcdc:	879a                	c.mv	a5,t1
   1dcde:	89fe                	c.mv	s3,t6
   1dce0:	b2bd                	c.j	1d64e <__subtf3+0xe2>
   1dce2:	833e                	c.mv	t1,a5
   1dce4:	84f6                	c.mv	s1,t4
   1dce6:	bfcd                	c.j	1dcd8 <__subtf3+0x76c>
   1dce8:	833e                	c.mv	t1,a5
   1dcea:	b51d                	c.j	1db10 <__subtf3+0x5a4>
   1dcec:	833e                	c.mv	t1,a5
   1dcee:	bd69                	c.j	1db88 <__subtf3+0x61c>
   1dcf0:	86f2                	c.mv	a3,t3
   1dcf2:	bd39                	c.j	1db10 <__subtf3+0x5a4>
   1dcf4:	86ba                	c.mv	a3,a4
   1dcf6:	8332                	c.mv	t1,a2
   1dcf8:	bd21                	c.j	1db10 <__subtf3+0x5a4>
   1dcfa:	4705                	c.li	a4,1
   1dcfc:	e4049ae3          	bne	s1,zero,1db50 <__subtf3+0x5e4>
   1dd00:	ff87b793          	sltiu	a5,a5,-8
   1dd04:	0017c793          	xori	a5,a5,1
   1dd08:	983e                	c.add	a6,a5
   1dd0a:	b599                	c.j	1db50 <__subtf3+0x5e4>
   1dd0c:	4705                	c.li	a4,1
   1dd0e:	e40481e3          	beq	s1,zero,1db50 <__subtf3+0x5e4>
   1dd12:	b7fd                	c.j	1dd00 <__subtf3+0x794>
   1dd14:	4681                	c.li	a3,0
   1dd16:	4781                	c.li	a5,0
   1dd18:	89c6                	c.mv	s3,a7
   1dd1a:	4701                	c.li	a4,0
   1dd1c:	be31                	c.j	1d838 <__subtf3+0x2cc>
   1dd1e:	4681                	c.li	a3,0
   1dd20:	bfed                	c.j	1dd1a <__subtf3+0x7ae>
   1dd22:	879a                	c.mv	a5,t1
   1dd24:	4801                	c.li	a6,0
   1dd26:	bae1                	c.j	1d6fe <__subtf3+0x192>
   1dd28:	4681                	c.li	a3,0
   1dd2a:	4781                	c.li	a5,0
   1dd2c:	89c6                	c.mv	s3,a7
   1dd2e:	84f6                	c.mv	s1,t4
   1dd30:	b7ed                	c.j	1dd1a <__subtf3+0x7ae>
   1dd32:	4681                	c.li	a3,0
   1dd34:	4981                	c.li	s3,0
   1dd36:	b7d5                	c.j	1dd1a <__subtf3+0x7ae>
   1dd38:	aa0498e3          	bne	s1,zero,1d7e8 <__subtf3+0x27c>
   1dd3c:	00878593          	addi	a1,a5,8
   1dd40:	b6ed                	c.j	1d92a <__subtf3+0x3be>
   1dd42:	aa0483e3          	beq	s1,zero,1d7e8 <__subtf3+0x27c>
   1dd46:	bfdd                	c.j	1dd3c <__subtf3+0x7d0>
   1dd48:	4781                	c.li	a5,0
   1dd4a:	00090e63          	beq	s2,zero,1dd66 <__subtf3+0x7fa>
   1dd4e:	468d                	c.li	a3,3
   1dd50:	00d91763          	bne	s2,a3,1dd5e <__subtf3+0x7f2>
   1dd54:	c889                	c.beqz	s1,1dd66 <__subtf3+0x7fa>
   1dd56:	57fd                	c.li	a5,-1
   1dd58:	ffe60993          	addi	s3,a2,-2
   1dd5c:	a029                	c.j	1dd66 <__subtf3+0x7fa>
   1dd5e:	4689                	c.li	a3,2
   1dd60:	fed91be3          	bne	s2,a3,1dd56 <__subtf3+0x7ea>
   1dd64:	d8ed                	c.beqz	s1,1dd56 <__subtf3+0x7ea>
   1dd66:	00576713          	ori	a4,a4,5
   1dd6a:	86be                	c.mv	a3,a5
   1dd6c:	b4e5                	c.j	1d854 <__subtf3+0x2e8>
   1dd6e:	4701                	c.li	a4,0
   1dd70:	e5e89ce3          	bne	a7,t5,1dbc8 <__subtf3+0x65c>
   1dd74:	b5bd                	c.j	1dbe2 <__subtf3+0x676>
   1dd76:	b7e89ce3          	bne	a7,t5,1d8ee <__subtf3+0x382>
   1dd7a:	be81                	c.j	1d8ca <__subtf3+0x35e>

000000000001dd7c <__fixtfsi>:
   1dd7c:	1141                	c.addi	sp,-16
   1dd7e:	002027f3          	frrm	a5
   1dd82:	57fd                	c.li	a5,-1
   1dd84:	00159613          	slli	a2,a1,0x1
   1dd88:	6811                	c.lui	a6,0x4
   1dd8a:	83c1                	c.srli	a5,0x10
   1dd8c:	9245                	c.srli	a2,0x31
   1dd8e:	ffe80713          	addi	a4,a6,-2 # 3ffe <main-0xc0b2>
   1dd92:	8fed                	c.and	a5,a1
   1dd94:	00c74963          	blt	a4,a2,1dda6 <__fixtfsi+0x2a>
   1dd98:	e62d                	c.bnez	a2,1de02 <__fixtfsi+0x86>
   1dd9a:	8fc9                	c.or	a5,a0
   1dd9c:	4681                	c.li	a3,0
   1dd9e:	eb95                	c.bnez	a5,1ddd2 <__fixtfsi+0x56>
   1dda0:	8536                	c.mv	a0,a3
   1dda2:	0141                	c.addi	sp,16
   1dda4:	8082                	c.jr	ra
   1dda6:	01d80713          	addi	a4,a6,29
   1ddaa:	91fd                	c.srli	a1,0x3f
   1ddac:	02c75563          	bge	a4,a2,1ddd6 <__fixtfsi+0x5a>
   1ddb0:	800006b7          	lui	a3,0x80000
   1ddb4:	fff6c693          	xori	a3,a3,-1
   1ddb8:	9ead                	c.addw	a3,a1
   1ddba:	c5b1                	c.beqz	a1,1de06 <__fixtfsi+0x8a>
   1ddbc:	0879                	c.addi	a6,30
   1ddbe:	45c1                	c.li	a1,16
   1ddc0:	05061463          	bne	a2,a6,1de08 <__fixtfsi+0x8c>
   1ddc4:	0117d713          	srli	a4,a5,0x11
   1ddc8:	e321                	c.bnez	a4,1de08 <__fixtfsi+0x8c>
   1ddca:	02f79713          	slli	a4,a5,0x2f
   1ddce:	8f49                	c.or	a4,a0
   1ddd0:	db61                	c.beqz	a4,1dda0 <__fixtfsi+0x24>
   1ddd2:	4585                	c.li	a1,1
   1ddd4:	a815                	c.j	1de08 <__fixtfsi+0x8c>
   1ddd6:	4705                	c.li	a4,1
   1ddd8:	1742                	c.slli	a4,0x30
   1ddda:	2601                	c.addiw	a2,0
   1dddc:	8fd9                	c.or	a5,a4
   1ddde:	01160713          	addi	a4,a2,17
   1dde2:	00e79733          	sll	a4,a5,a4
   1dde6:	8f49                	c.or	a4,a0
   1dde8:	6511                	c.lui	a0,0x4
   1ddea:	02f5051b          	addiw	a0,a0,47
   1ddee:	40c5063b          	subw	a2,a0,a2
   1ddf2:	00c7d7b3          	srl	a5,a5,a2
   1ddf6:	0007869b          	addiw	a3,a5,0
   1ddfa:	d9f9                	c.beqz	a1,1ddd0 <__fixtfsi+0x54>
   1ddfc:	40d006bb          	subw	a3,zero,a3
   1de00:	bfc1                	c.j	1ddd0 <__fixtfsi+0x54>
   1de02:	4681                	c.li	a3,0
   1de04:	b7f9                	c.j	1ddd2 <__fixtfsi+0x56>
   1de06:	45c1                	c.li	a1,16
   1de08:	0015a073          	csrrs	zero,fflags,a1
   1de0c:	bf51                	c.j	1dda0 <__fixtfsi+0x24>

000000000001de0e <__floatsitf>:
   1de0e:	7179                	c.addi16sp	sp,-48
   1de10:	f406                	c.sdsp	ra,40(sp)
   1de12:	f022                	c.sdsp	s0,32(sp)
   1de14:	ec26                	c.sdsp	s1,24(sp)
   1de16:	c53d                	c.beqz	a0,1de84 <__floatsitf+0x76>
   1de18:	0005079b          	addiw	a5,a0,0
   1de1c:	03f55493          	srli	s1,a0,0x3f
   1de20:	00055463          	bge	a0,zero,1de28 <__floatsitf+0x1a>
   1de24:	40f007bb          	subw	a5,zero,a5
   1de28:	02079413          	slli	s0,a5,0x20
   1de2c:	9001                	c.srli	s0,0x20
   1de2e:	8522                	c.mv	a0,s0
   1de30:	382000ef          	jal	ra,1e1b2 <__clzdi2>
   1de34:	6691                	c.lui	a3,0x4
   1de36:	03e6879b          	addiw	a5,a3,62
   1de3a:	40a7873b          	subw	a4,a5,a0
   1de3e:	02f6879b          	addiw	a5,a3,47
   1de42:	9f99                	c.subw	a5,a4
   1de44:	00f417b3          	sll	a5,s0,a5
   1de48:	56fd                	c.li	a3,-1
   1de4a:	0106d413          	srli	s0,a3,0x10
   1de4e:	8fe1                	c.and	a5,s0
   1de50:	6422                	c.ldsp	s0,8(sp)
   1de52:	03069613          	slli	a2,a3,0x30
   1de56:	65a1                	c.lui	a1,0x8
   1de58:	8c71                	c.and	s0,a2
   1de5a:	8fc1                	c.or	a5,s0
   1de5c:	f8001437          	lui	s0,0xf8001
   1de60:	15fd                	c.addi	a1,-1
   1de62:	1412                	c.slli	s0,0x24
   1de64:	8f6d                	c.and	a4,a1
   1de66:	147d                	c.addi	s0,-1
   1de68:	8fe1                	c.and	a5,s0
   1de6a:	70a2                	c.ldsp	ra,40(sp)
   1de6c:	7402                	c.ldsp	s0,32(sp)
   1de6e:	1742                	c.slli	a4,0x30
   1de70:	8fd9                	c.or	a5,a4
   1de72:	8285                	c.srli	a3,0x1
   1de74:	03f49593          	slli	a1,s1,0x3f
   1de78:	8ff5                	c.and	a5,a3
   1de7a:	64e2                	c.ldsp	s1,24(sp)
   1de7c:	4501                	c.li	a0,0
   1de7e:	8ddd                	c.or	a1,a5
   1de80:	6145                	c.addi16sp	sp,48
   1de82:	8082                	c.jr	ra
   1de84:	4781                	c.li	a5,0
   1de86:	4701                	c.li	a4,0
   1de88:	4481                	c.li	s1,0
   1de8a:	bf7d                	c.j	1de48 <__floatsitf+0x3a>

000000000001de8c <__extenddftf2>:
   1de8c:	7179                	c.addi16sp	sp,-48
   1de8e:	ec26                	c.sdsp	s1,24(sp)
   1de90:	f406                	c.sdsp	ra,40(sp)
   1de92:	f022                	c.sdsp	s0,32(sp)
   1de94:	e20504d3          	fmv.x.d	s1,fa0
   1de98:	002027f3          	frrm	a5
   1de9c:	0344d513          	srli	a0,s1,0x34
   1dea0:	7ff57513          	andi	a0,a0,2047
   1dea4:	547d                	c.li	s0,-1
   1dea6:	00150793          	addi	a5,a0,1 # 4001 <main-0xc0af>
   1deaa:	8031                	c.srli	s0,0xc
   1deac:	7ff7f793          	andi	a5,a5,2047
   1deb0:	4685                	c.li	a3,1
   1deb2:	8c65                	c.and	s0,s1
   1deb4:	90fd                	c.srli	s1,0x3f
   1deb6:	00f6db63          	bge	a3,a5,1decc <__extenddftf2+0x40>
   1deba:	6791                	c.lui	a5,0x4
   1debc:	c0078793          	addi	a5,a5,-1024 # 3c00 <main-0xc4b0>
   1dec0:	00445713          	srli	a4,s0,0x4
   1dec4:	953e                	c.add	a0,a5
   1dec6:	1472                	c.slli	s0,0x3c
   1dec8:	4781                	c.li	a5,0
   1deca:	a8b1                	c.j	1df26 <__extenddftf2+0x9a>
   1decc:	ed1d                	c.bnez	a0,1df0a <__extenddftf2+0x7e>
   1dece:	4701                	c.li	a4,0
   1ded0:	dc65                	c.beqz	s0,1dec8 <__extenddftf2+0x3c>
   1ded2:	8522                	c.mv	a0,s0
   1ded4:	2de000ef          	jal	ra,1e1b2 <__clzdi2>
   1ded8:	0005071b          	addiw	a4,a0,0
   1dedc:	47b9                	c.li	a5,14
   1dede:	02e7c063          	blt	a5,a4,1defe <__extenddftf2+0x72>
   1dee2:	473d                	c.li	a4,15
   1dee4:	9f09                	c.subw	a4,a0
   1dee6:	0315079b          	addiw	a5,a0,49
   1deea:	00e45733          	srl	a4,s0,a4
   1deee:	00f41433          	sll	s0,s0,a5
   1def2:	6791                	c.lui	a5,0x4
   1def4:	c0c7879b          	addiw	a5,a5,-1012
   1def8:	40a7853b          	subw	a0,a5,a0
   1defc:	b7f1                	c.j	1dec8 <__extenddftf2+0x3c>
   1defe:	ff15071b          	addiw	a4,a0,-15
   1df02:	00e41733          	sll	a4,s0,a4
   1df06:	4401                	c.li	s0,0
   1df08:	b7ed                	c.j	1def2 <__extenddftf2+0x66>
   1df0a:	cc39                	c.beqz	s0,1df68 <__extenddftf2+0xdc>
   1df0c:	03369793          	slli	a5,a3,0x33
   1df10:	8fe1                	c.and	a5,s0
   1df12:	00445713          	srli	a4,s0,0x4
   1df16:	0017b793          	sltiu	a5,a5,1
   1df1a:	16be                	c.slli	a3,0x2f
   1df1c:	6521                	c.lui	a0,0x8
   1df1e:	0792                	c.slli	a5,0x4
   1df20:	8f55                	c.or	a4,a3
   1df22:	1472                	c.slli	s0,0x3c
   1df24:	157d                	c.addi	a0,-1
   1df26:	56fd                	c.li	a3,-1
   1df28:	65a2                	c.ldsp	a1,8(sp)
   1df2a:	0106d613          	srli	a2,a3,0x10
   1df2e:	8f71                	c.and	a4,a2
   1df30:	03069613          	slli	a2,a3,0x30
   1df34:	8df1                	c.and	a1,a2
   1df36:	8f4d                	c.or	a4,a1
   1df38:	6621                	c.lui	a2,0x8
   1df3a:	f80015b7          	lui	a1,0xf8001
   1df3e:	167d                	c.addi	a2,-1
   1df40:	1592                	c.slli	a1,0x24
   1df42:	8d71                	c.and	a0,a2
   1df44:	15fd                	c.addi	a1,-1
   1df46:	8df9                	c.and	a1,a4
   1df48:	1542                	c.slli	a0,0x30
   1df4a:	8d4d                	c.or	a0,a1
   1df4c:	0016d593          	srli	a1,a3,0x1
   1df50:	14fe                	c.slli	s1,0x3f
   1df52:	8de9                	c.and	a1,a0
   1df54:	8dc5                	c.or	a1,s1
   1df56:	c399                	c.beqz	a5,1df5c <__extenddftf2+0xd0>
   1df58:	0017a073          	csrrs	zero,fflags,a5
   1df5c:	8522                	c.mv	a0,s0
   1df5e:	70a2                	c.ldsp	ra,40(sp)
   1df60:	7402                	c.ldsp	s0,32(sp)
   1df62:	64e2                	c.ldsp	s1,24(sp)
   1df64:	6145                	c.addi16sp	sp,48
   1df66:	8082                	c.jr	ra
   1df68:	6521                	c.lui	a0,0x8
   1df6a:	4701                	c.li	a4,0
   1df6c:	157d                	c.addi	a0,-1
   1df6e:	bfa9                	c.j	1dec8 <__extenddftf2+0x3c>

000000000001df70 <__trunctfdf2>:
   1df70:	1141                	c.addi	sp,-16
   1df72:	002028f3          	frrm	a7
   1df76:	57fd                	c.li	a5,-1
   1df78:	83c1                	c.srli	a5,0x10
   1df7a:	6321                	c.lui	t1,0x8
   1df7c:	0305d713          	srli	a4,a1,0x30
   1df80:	137d                	c.addi	t1,-1
   1df82:	03f5d813          	srli	a6,a1,0x3f
   1df86:	8dfd                	c.and	a1,a5
   1df88:	00359793          	slli	a5,a1,0x3
   1df8c:	00677733          	and	a4,a4,t1
   1df90:	03d55593          	srli	a1,a0,0x3d
   1df94:	8ddd                	c.or	a1,a5
   1df96:	00170793          	addi	a5,a4,1
   1df9a:	0067f7b3          	and	a5,a5,t1
   1df9e:	4605                	c.li	a2,1
   1dfa0:	2881                	c.addiw	a7,0
   1dfa2:	00351e93          	slli	t4,a0,0x3
   1dfa6:	18f65163          	bge	a2,a5,1e128 <__trunctfdf2+0x1b8>
   1dfaa:	77f1                	c.lui	a5,0xffffc
   1dfac:	40078793          	addi	a5,a5,1024 # ffffffffffffc400 <__global_pointer$+0xfffffffffffd0780>
   1dfb0:	973e                	c.add	a4,a5
   1dfb2:	7fe00793          	addi	a5,zero,2046
   1dfb6:	0ae7d063          	bge	a5,a4,1e056 <__trunctfdf2+0xe6>
   1dfba:	04088263          	beq	a7,zero,1dffe <__trunctfdf2+0x8e>
   1dfbe:	478d                	c.li	a5,3
   1dfc0:	02f89a63          	bne	a7,a5,1dff4 <__trunctfdf2+0x84>
   1dfc4:	02080d63          	beq	a6,zero,1dffe <__trunctfdf2+0x8e>
   1dfc8:	57fd                	c.li	a5,-1
   1dfca:	7fe00713          	addi	a4,zero,2046
   1dfce:	4681                	c.li	a3,0
   1dfd0:	4e15                	c.li	t3,5
   1dfd2:	4609                	c.li	a2,2
   1dfd4:	001e6e13          	ori	t3,t3,1
   1dfd8:	1ac88663          	beq	a7,a2,1e184 <__trunctfdf2+0x214>
   1dfdc:	460d                	c.li	a2,3
   1dfde:	18c88f63          	beq	a7,a2,1e17c <__trunctfdf2+0x20c>
   1dfe2:	12089a63          	bne	a7,zero,1e116 <__trunctfdf2+0x1a6>
   1dfe6:	00f7f613          	andi	a2,a5,15
   1dfea:	4591                	c.li	a1,4
   1dfec:	12b60563          	beq	a2,a1,1e116 <__trunctfdf2+0x1a6>
   1dff0:	0791                	c.addi	a5,4
   1dff2:	a215                	c.j	1e116 <__trunctfdf2+0x1a6>
   1dff4:	4789                	c.li	a5,2
   1dff6:	fcf899e3          	bne	a7,a5,1dfc8 <__trunctfdf2+0x58>
   1dffa:	fc0807e3          	beq	a6,zero,1dfc8 <__trunctfdf2+0x58>
   1dffe:	4781                	c.li	a5,0
   1e000:	7ff00713          	addi	a4,zero,2047
   1e004:	4e15                	c.li	t3,5
   1e006:	00879693          	slli	a3,a5,0x8
   1e00a:	0006db63          	bge	a3,zero,1e020 <__trunctfdf2+0xb0>
   1e00e:	0705                	c.addi	a4,1
   1e010:	7ff00693          	addi	a3,zero,2047
   1e014:	16d70b63          	beq	a4,a3,1e18a <__trunctfdf2+0x21a>
   1e018:	55fd                	c.li	a1,-1
   1e01a:	15de                	c.slli	a1,0x37
   1e01c:	15fd                	c.addi	a1,-1
   1e01e:	8fed                	c.and	a5,a1
   1e020:	7ff00693          	addi	a3,zero,2047
   1e024:	838d                	c.srli	a5,0x3
   1e026:	00d71663          	bne	a4,a3,1e032 <__trunctfdf2+0xc2>
   1e02a:	c781                	c.beqz	a5,1e032 <__trunctfdf2+0xc2>
   1e02c:	4785                	c.li	a5,1
   1e02e:	17ce                	c.slli	a5,0x33
   1e030:	4801                	c.li	a6,0
   1e032:	56fd                	c.li	a3,-1
   1e034:	82b1                	c.srli	a3,0xc
   1e036:	7ff77713          	andi	a4,a4,2047
   1e03a:	8ff5                	c.and	a5,a3
   1e03c:	1752                	c.slli	a4,0x34
   1e03e:	03f81693          	slli	a3,a6,0x3f
   1e042:	8fd9                	c.or	a5,a4
   1e044:	8fd5                	c.or	a5,a3
   1e046:	000e0463          	beq	t3,zero,1e04e <__trunctfdf2+0xde>
   1e04a:	001e2073          	csrrs	zero,fflags,t3
   1e04e:	f2078553          	fmv.d.x	fa0,a5
   1e052:	0141                	c.addi	sp,16
   1e054:	8082                	c.jr	ra
   1e056:	0ae04163          	blt	zero,a4,1e0f8 <__trunctfdf2+0x188>
   1e05a:	fcc00793          	addi	a5,zero,-52
   1e05e:	10f74063          	blt	a4,a5,1e15e <__trunctfdf2+0x1ee>
   1e062:	164e                	c.slli	a2,0x33
   1e064:	8dd1                	c.or	a1,a2
   1e066:	03d00613          	addi	a2,zero,61
   1e06a:	8e19                	c.sub	a2,a4
   1e06c:	03f00793          	addi	a5,zero,63
   1e070:	2701                	c.addiw	a4,0
   1e072:	06c7c063          	blt	a5,a2,1e0d2 <__trunctfdf2+0x162>
   1e076:	0037061b          	addiw	a2,a4,3
   1e07a:	03d00793          	addi	a5,zero,61
   1e07e:	9f99                	c.subw	a5,a4
   1e080:	00ce96b3          	sll	a3,t4,a2
   1e084:	00fed7b3          	srl	a5,t4,a5
   1e088:	00d036b3          	sltu	a3,zero,a3
   1e08c:	8fd5                	c.or	a5,a3
   1e08e:	00c595b3          	sll	a1,a1,a2
   1e092:	8fcd                	c.or	a5,a1
   1e094:	4701                	c.li	a4,0
   1e096:	c3ed                	c.beqz	a5,1e178 <__trunctfdf2+0x208>
   1e098:	00179713          	slli	a4,a5,0x1
   1e09c:	00777693          	andi	a3,a4,7
   1e0a0:	4e01                	c.li	t3,0
   1e0a2:	c28d                	c.beqz	a3,1e0c4 <__trunctfdf2+0x154>
   1e0a4:	4689                	c.li	a3,2
   1e0a6:	0cd88363          	beq	a7,a3,1e16c <__trunctfdf2+0x1fc>
   1e0aa:	468d                	c.li	a3,3
   1e0ac:	0ad88b63          	beq	a7,a3,1e162 <__trunctfdf2+0x1f2>
   1e0b0:	4e05                	c.li	t3,1
   1e0b2:	00089963          	bne	a7,zero,1e0c4 <__trunctfdf2+0x154>
   1e0b6:	00f77693          	andi	a3,a4,15
   1e0ba:	4611                	c.li	a2,4
   1e0bc:	4e05                	c.li	t3,1
   1e0be:	00c68363          	beq	a3,a2,1e0c4 <__trunctfdf2+0x154>
   1e0c2:	0711                	c.addi	a4,4
   1e0c4:	03875693          	srli	a3,a4,0x38
   1e0c8:	0016c693          	xori	a3,a3,1
   1e0cc:	8a85                	c.andi	a3,1
   1e0ce:	4701                	c.li	a4,0
   1e0d0:	a83d                	c.j	1e10e <__trunctfdf2+0x19e>
   1e0d2:	57f5                	c.li	a5,-3
   1e0d4:	9f99                	c.subw	a5,a4
   1e0d6:	04000513          	addi	a0,zero,64
   1e0da:	00f5d7b3          	srl	a5,a1,a5
   1e0de:	4681                	c.li	a3,0
   1e0e0:	00a60663          	beq	a2,a0,1e0ec <__trunctfdf2+0x17c>
   1e0e4:	0437071b          	addiw	a4,a4,67
   1e0e8:	00e596b3          	sll	a3,a1,a4
   1e0ec:	01d6e6b3          	or	a3,a3,t4
   1e0f0:	00d036b3          	sltu	a3,zero,a3
   1e0f4:	8fd5                	c.or	a5,a3
   1e0f6:	bf79                	c.j	1e094 <__trunctfdf2+0x124>
   1e0f8:	051e                	c.slli	a0,0x7
   1e0fa:	03ced693          	srli	a3,t4,0x3c
   1e0fe:	00a03533          	sltu	a0,zero,a0
   1e102:	8d55                	c.or	a0,a3
   1e104:	0592                	c.slli	a1,0x4
   1e106:	00a5e7b3          	or	a5,a1,a0
   1e10a:	4681                	c.li	a3,0
   1e10c:	4e01                	c.li	t3,0
   1e10e:	0077f613          	andi	a2,a5,7
   1e112:	ec0610e3          	bne	a2,zero,1dfd2 <__trunctfdf2+0x62>
   1e116:	ee0688e3          	beq	a3,zero,1e006 <__trunctfdf2+0x96>
   1e11a:	001e7693          	andi	a3,t3,1
   1e11e:	ee0684e3          	beq	a3,zero,1e006 <__trunctfdf2+0x96>
   1e122:	002e6e13          	ori	t3,t3,2
   1e126:	b5c5                	c.j	1e006 <__trunctfdf2+0x96>
   1e128:	01d5e7b3          	or	a5,a1,t4
   1e12c:	e701                	c.bnez	a4,1e134 <__trunctfdf2+0x1c4>
   1e12e:	00f037b3          	sltu	a5,zero,a5
   1e132:	b78d                	c.j	1e094 <__trunctfdf2+0x124>
   1e134:	c3a1                	c.beqz	a5,1e174 <__trunctfdf2+0x204>
   1e136:	4e01                	c.li	t3,0
   1e138:	00671763          	bne	a4,t1,1e146 <__trunctfdf2+0x1d6>
   1e13c:	164a                	c.slli	a2,0x32
   1e13e:	8e6d                	c.and	a2,a1
   1e140:	00163e13          	sltiu	t3,a2,1
   1e144:	0e12                	c.slli	t3,0x4
   1e146:	03ced513          	srli	a0,t4,0x3c
   1e14a:	0592                	c.slli	a1,0x4
   1e14c:	8dc9                	c.or	a1,a0
   1e14e:	4785                	c.li	a5,1
   1e150:	99e1                	c.andi	a1,-8
   1e152:	17da                	c.slli	a5,0x36
   1e154:	8fcd                	c.or	a5,a1
   1e156:	7ff00713          	addi	a4,zero,2047
   1e15a:	4681                	c.li	a3,0
   1e15c:	bf4d                	c.j	1e10e <__trunctfdf2+0x19e>
   1e15e:	4785                	c.li	a5,1
   1e160:	bf25                	c.j	1e098 <__trunctfdf2+0x128>
   1e162:	4e05                	c.li	t3,1
   1e164:	f60810e3          	bne	a6,zero,1e0c4 <__trunctfdf2+0x154>
   1e168:	0721                	c.addi	a4,8
   1e16a:	bfa9                	c.j	1e0c4 <__trunctfdf2+0x154>
   1e16c:	4e05                	c.li	t3,1
   1e16e:	f4080be3          	beq	a6,zero,1e0c4 <__trunctfdf2+0x154>
   1e172:	bfdd                	c.j	1e168 <__trunctfdf2+0x1f8>
   1e174:	7ff00713          	addi	a4,zero,2047
   1e178:	4e01                	c.li	t3,0
   1e17a:	b571                	c.j	1e006 <__trunctfdf2+0x96>
   1e17c:	f8081de3          	bne	a6,zero,1e116 <__trunctfdf2+0x1a6>
   1e180:	07a1                	c.addi	a5,8
   1e182:	bf51                	c.j	1e116 <__trunctfdf2+0x1a6>
   1e184:	f80809e3          	beq	a6,zero,1e116 <__trunctfdf2+0x1a6>
   1e188:	bfe5                	c.j	1e180 <__trunctfdf2+0x210>
   1e18a:	4781                	c.li	a5,0
   1e18c:	02088063          	beq	a7,zero,1e1ac <__trunctfdf2+0x23c>
   1e190:	468d                	c.li	a3,3
   1e192:	00d89863          	bne	a7,a3,1e1a2 <__trunctfdf2+0x232>
   1e196:	00080b63          	beq	a6,zero,1e1ac <__trunctfdf2+0x23c>
   1e19a:	57fd                	c.li	a5,-1
   1e19c:	7fe00713          	addi	a4,zero,2046
   1e1a0:	a031                	c.j	1e1ac <__trunctfdf2+0x23c>
   1e1a2:	4689                	c.li	a3,2
   1e1a4:	fed89be3          	bne	a7,a3,1e19a <__trunctfdf2+0x22a>
   1e1a8:	fe0809e3          	beq	a6,zero,1e19a <__trunctfdf2+0x22a>
   1e1ac:	005e6e13          	ori	t3,t3,5
   1e1b0:	bd85                	c.j	1e020 <__trunctfdf2+0xb0>

000000000001e1b2 <__clzdi2>:
   1e1b2:	03800793          	addi	a5,zero,56
   1e1b6:	00f55733          	srl	a4,a0,a5
   1e1ba:	0ff77713          	andi	a4,a4,255
   1e1be:	e319                	c.bnez	a4,1e1c4 <__clzdi2+0x12>
   1e1c0:	17e1                	c.addi	a5,-8
   1e1c2:	fbf5                	c.bnez	a5,1e1b6 <__clzdi2+0x4>
   1e1c4:	04000713          	addi	a4,zero,64
   1e1c8:	8f1d                	c.sub	a4,a5
   1e1ca:	00f557b3          	srl	a5,a0,a5
   1e1ce:	00029537          	lui	a0,0x29
   1e1d2:	26850513          	addi	a0,a0,616 # 29268 <__clz_tab>
   1e1d6:	97aa                	c.add	a5,a0
   1e1d8:	0007c503          	lbu	a0,0(a5)
   1e1dc:	40a7053b          	subw	a0,a4,a0
   1e1e0:	8082                	c.jr	ra
